(dp1
S'output'
p2
S"<type 'exceptions.NameError'> name 'requests' is not defined"
p3
sS'layer'
p4
S'/home/shipra/Desktop/Semester 1.2/ITWS-2/web2py/applications/Assignment_2/views/default/display.html'
p5
sS'code'
p6
S'response.write(\'<!DOCTYPE html>\\n<!-- paulirish.com/2008/conditional-stylesheets-vs-css-hacks-answer-neither/ -->\\n<!--[if lt IE 7]><html class="ie ie6 ie-lte9 ie-lte8 ie-lte7 no-js" lang="\', escape=False)\nresponse.write(T.accepted_language or \'en\')\nresponse.write(\'"> <![endif]-->\\n<!--[if IE 7]><html class="ie ie7 ie-lte9 ie-lte8 ie-lte7 no-js" lang="\', escape=False)\nresponse.write(T.accepted_language or \'en\')\nresponse.write(\'"> <![endif]-->\\n<!--[if IE 8]><html class="ie ie8 ie-lte9 ie-lte8 no-js" lang="\', escape=False)\nresponse.write(T.accepted_language or \'en\')\nresponse.write(\'"> <![endif]-->\\n<!--[if IE 9]><html class="ie9 ie-lte9 no-js" lang="\', escape=False)\nresponse.write(T.accepted_language or \'en\')\nresponse.write(\'"> <![endif]-->\\n<!--[if (gt IE 9)|!(IE)]><!--> <html class="no-js" lang="\', escape=False)\nresponse.write(T.accepted_language or \'en\')\nresponse.write(\'"> <!--<![endif]-->\\n<head>\\n  <meta charset="utf-8" />\\n  <!-- www.phpied.com/conditional-comments-block-downloads/ -->\\n  <!-- Always force latest IE rendering engine\\n       (even in intranet) & Chrome Frame\\n       Remove this if you use the .htaccess -->\\n  <!--[if IE]>\\n      <meta http-equiv="X-UA-Compatible" content="IE=edge\', escape=False)\nresponse.write(not request.is_local and \',chrome=1\' or \'\')\nresponse.write(\'">\\n      <![endif]-->\\n\\n  <title>\', escape=False)\nresponse.write(response.title or request.application)\nresponse.write(\'</title>\\n\\n  <!-- http://dev.w3.org/html5/markup/meta.name.html -->\\n  <meta name="application-name" content="\', escape=False)\nresponse.write(request.application)\nresponse.write(\'" />\\n\\n  <!-- Speaking of Google, don\\\'t forget to set your site up:\\n       http://google.com/webmasters -->\\n  <meta name="google-site-verification" content="" />\\n\\n  <!--  Mobile Viewport Fix\\n        j.mp/mobileviewport & davidbcalhoun.com/2010/viewport-metatag\\n        device-width: Occupy full width of the screen in its current orientation\\n        initial-scale = 1.0 retains dimensions instead of zooming out if page height > device height\\n        user-scalable = yes allows the user to zoom in -->\\n  <meta name="viewport" content="width=device-width, initial-scale=1.0" />\\n\\n  <link rel="shortcut icon" href="\', escape=False)\nresponse.write(URL(\'static\',\'images/favicon.ico\'))\nresponse.write(\'" type="image/x-icon">\\n  <link rel="apple-touch-icon" href="\', escape=False)\nresponse.write(URL(\'static\',\'images/favicon.png\'))\nresponse.write(\'">\\n\\n  <!-- All JavaScript at the bottom, except for Modernizr which enables\\n       HTML5 elements & feature detects -->\\n  <script src="\', escape=False)\nresponse.write(URL(\'static\',\'js/modernizr.custom.js\'))\nresponse.write(\'"></script>\\n\\n  <!-- include stylesheets -->\\n  \', escape=False)\nresponse.files.append(URL(\'static\',\'css/web2py.css\'))\nresponse.files.append(URL(\'static\',\'css/bootstrap.min.css\'))\nresponse.files.append(URL(\'static\',\'css/bootstrap-responsive.min.css\'))\nresponse.files.append(URL(\'static\',\'css/web2py_bootstrap.css\'))\nresponse.write(\'\\n\\n  \', escape=False)\nresponse.write(\'<script type="text/javascript"><!--\\n    // These variables are used by the web2py_ajax_init function in web2py_ajax.js (which is loaded below).\\n    var w2p_ajax_confirm_message = "\', escape=False)\nresponse.write(T(\'Are you sure you want to delete this object?\'))\nresponse.write(\'";\\n    var w2p_ajax_date_format = "\', escape=False)\nresponse.write(T(\'%Y-%m-%d\'))\nresponse.write(\'";\\n    var w2p_ajax_datetime_format = "\', escape=False)\nresponse.write(T(\'%Y-%m-%d %H:%M:%S\'))\nresponse.write(\'";\\n    //--></script>\\n\', escape=False)\nresponse.files.insert(0,URL(\'static\',\'js/jquery.js\'))\nresponse.files.insert(1,URL(\'static\',\'css/calendar.css\'))\nresponse.files.insert(2,URL(\'static\',\'js/calendar.js\'))\nresponse.files.insert(3,URL(\'static\',\'js/web2py.js\'))\nresponse.include_meta()\nresponse.include_files()\nresponse.write(\'\\n\', escape=False)\nresponse.write(\'\\n\\n  \', escape=False)\n# using sidebars need to know what sidebar you want to use\nleft_sidebar_enabled = globals().get(\'left_sidebar_enabled\',False)\nright_sidebar_enabled = globals().get(\'right_sidebar_enabled\',False)\nmiddle_columns = {0:\'span12\',1:\'span9\',2:\'span6\'}[\n(left_sidebar_enabled and 1 or 0)+(right_sidebar_enabled and 1 or 0)]\nresponse.write(\'\\n\\n  <!-- uncomment here to load jquery-ui\\n       <link rel="stylesheet" href="http://ajax.googleapis.com/ajax/libs/jqueryui/1.8.16/themes/base/jquery-ui.css" type="text/css" media="all" />\\n       <script src="http://ajax.googleapis.com/ajax/libs/jqueryui/1.8.16/jquery-ui.min.js" type="text/javascript"></script>\\n       uncomment to load jquery-ui //-->\\n  <noscript><link href="\', escape=False)\nresponse.write(URL(\'static\', \'css/web2py_bootstrap_nojs.css\'))\nresponse.write(\'" rel="stylesheet" type="text/css" /></noscript>\\n  \', escape=False)\nresponse.write(\'\\n</head>\\n\\n<body>\\n  <!-- Navbar ================================================== -->\\n  <div class="navbar navbar-inverse navbar-fixed-top">\\n    <div class="flash">\', escape=False)\nresponse.write(response.flash or \'\')\nresponse.write(\'</div>\\n    <div class="navbar-inner">\\n      <div class="container">\\n        <!-- the next tag is necessary for bootstrap menus, do not remove -->\\n        <button type="button" class="btn btn-navbar" data-toggle="collapse" data-target=".nav-collapse">\\n          <span class="icon-bar"></span>\\n          <span class="icon-bar"></span>\\n          <span class="icon-bar"></span>\\n        </button>\\n\\t\', escape=False)\nresponse.write(response.logo or \'\')\nresponse.write(\'\\n        <ul id="navbar" class="nav pull-right">\', escape=False)\nresponse.write(\'auth\' in globals() and auth.navbar(mode="dropdown") or \'\')\nresponse.write(\'</ul>\\n        <div class="nav-collapse">\\n          \', escape=False)\nis_mobile=request.user_agent().is_mobile\nresponse.write(\'\\n          \', escape=False)\nif response.menu:\n    response.write(\'\\n          \', escape=False)\n    response.write(MENU(response.menu, _class=\'mobile-menu nav\' if is_mobile else \'nav\',mobile=is_mobile,li_class=\'dropdown\',ul_class=\'dropdown-menu\'))\n    response.write(\'\\n          \', escape=False)\n    pass\nresponse.write(\'\\n        </div><!--/.nav-collapse -->\\n      </div>\\n    </div>\\n  </div><!--/top navbar -->\\n\\n  <div class="container">\\n    <!-- Masthead ================================================== -->\\n    <header class="mastheader row" id="header">\\n        <div class="span12">\\n            <div class="page-header">\\n                <h1>\\n                    \', escape=False)\nresponse.write(response.title or request.application)\nresponse.write(\'\\n                    <small>\', escape=False)\nresponse.write(response.subtitle or \'\')\nresponse.write(\'</small>\\n                </h1>\\n            </div>\\n        </div>\\n    </header>\\n\\n    <section id="main" class="main row">\\n        \', escape=False)\nif left_sidebar_enabled:\n    response.write(\'\\n        <div class="span3 left-sidebar">\\n            \', escape=False)\n    response.write(\'\\n            <h3>Left Sidebar</h3>\\n            <p></p>\\n            \', escape=False)\n    response.write(\'\\n        </div>\\n        \', escape=False)\n    pass\nresponse.write(\'\\n\\n        <div class="\', escape=False)\nresponse.write(middle_columns)\nresponse.write(\'">\\n            \', escape=False)\nresponse.write(\'\\n            \', escape=False)\nresponse.write(\'\\n<ol>\\n\\t\', escape=False)\nfor i in range(len(categ)):\n    response.write(\'\\n\\t\', escape=False)\n    x="http://127.0.0.1:8000/Assignment_2/default/categ_display/"\n    response.write(\'\\n\\t\', escape=False)\n    r=requests.post(x,categ[i][\'Cname\'])\n    response.write(\'\\n\\t<a href=\', escape=False)\n    response.write(r)\n    response.write(\'><li>\', escape=False)\n    response.write(categ[i][\'Cname\'])\n    response.write(\'</li><br/></a>\\n\\t\', escape=False)\n    pass\nresponse.write(\'\\n</ol>\\n\\n\', escape=False)\nresponse.write(\'\\n            \', escape=False)\nresponse.write(\'\\n        </div>\\n\\n        \', escape=False)\nif right_sidebar_enabled:\n    response.write(\'\\n        <div class="span3">\\n            \', escape=False)\n    response.write(\'\\n            <h3>Right Sidebar</h3>\\n            <p></p>\\n            \', escape=False)\n    response.write(\'\\n        </div>\\n        \', escape=False)\n    pass\nresponse.write(\'\\n    </section><!--/main-->\\n\\n    <!-- Footer ================================================== -->\\n    <div class="row">\\n        <footer class="footer span12" id="footer">\\n            <div class="footer-content">\\n                \', escape=False)\nresponse.write(\' <!-- this is default footer -->\\n                <div class="copyright pull-left">\', escape=False)\nresponse.write(T(\'Copyright\'))\nresponse.write(\' &#169; \', escape=False)\nresponse.write(request.now.year)\nresponse.write(\'</div>\\n                <div id="poweredBy" class="pull-right">\\n                    \', escape=False)\nresponse.write(T(\'Powered by\'))\nresponse.write(\'\\n                    <a href="http://www.web2py.com/">web2py</a>\\n                </div>\\n                \', escape=False)\nresponse.write(\'\\n            </div>\\n        </footer>\\n    </div>\\n\\n  </div> <!-- /container -->\\n\\n  <!-- The javascript =============================================\\n       (Placed at the end of the document so the pages load faster) -->\\n  <script src="\', escape=False)\nresponse.write(URL(\'static\',\'js/bootstrap.min.js\'))\nresponse.write(\'"></script>\\n  <script src="\', escape=False)\nresponse.write(URL(\'static\',\'js/web2py_bootstrap.js\'))\nresponse.write(\'"></script>\\n  <!--[if lt IE 7 ]>\\n      <script src="\', escape=False)\nresponse.write(URL(\'static\',\'js/dd_belatedpng.js\'))\nresponse.write(\'"></script>\\n      <script> DD_belatedPNG.fix(\\\'img, .png_bg\\\'); //fix any <img> or .png_bg background-images </script>\\n      <![endif]-->\\n  \\n  \', escape=False)\nif response.google_analytics_id:\n    response.write(\'\\n  <script src="\', escape=False)\n    response.write(URL(\'static\',\'js/analytics.js\'))\n    response.write(\'"></script>\\n  <script type="text/javascript">\\n  analytics.initialize({\\n    \\\'Google Analytics\\\':{trackingId:\\\'\', escape=False)\n    response.write(response.google_analytics_id)\n    response.write("\'} \\n  });</script>\\n  ", escape=False)\n    pass\nresponse.write(\'\\n  <script src="\', escape=False)\nresponse.write(URL(\'static\',\'js/share.js\',vars=dict(static=URL(\'static\',\'images\'))))\nresponse.write(\'"></script>\\n</body>\\n</html>\\n\\n\', escape=False)'
p7
sS'snapshot'
p8
(dp9
S'exception'
p10
(dp11
S'__hash__'
p12
S"<method-wrapper '__hash__' of exceptions.NameError object>"
p13
sS'__setattr__'
p14
S"<method-wrapper '__setattr__' of exceptions.NameError object>"
p15
sS'__reduce_ex__'
p16
S'<built-in method __reduce_ex__ of exceptions.NameError object>'
p17
sS'__getslice__'
p18
S"<method-wrapper '__getslice__' of exceptions.NameError object>"
p19
sS'__getitem__'
p20
S"<method-wrapper '__getitem__' of exceptions.NameError object>"
p21
sS'__setstate__'
p22
S'<built-in method __setstate__ of exceptions.NameError object>'
p23
sS'args'
p24
S'("name \'requests\' is not defined",)'
p25
sS'__reduce__'
p26
S'<built-in method __reduce__ of exceptions.NameError object>'
p27
sS'__str__'
p28
S"<method-wrapper '__str__' of exceptions.NameError object>"
p29
sS'__format__'
p30
S'<built-in method __format__ of exceptions.NameError object>'
p31
sS'__getattribute__'
p32
S"<method-wrapper '__getattribute__' of exceptions.NameError object>"
p33
sS'__class__'
p34
S"<type 'exceptions.NameError'>"
p35
sS'__unicode__'
p36
S'<built-in method __unicode__ of exceptions.NameError object>'
p37
sS'__delattr__'
p38
S"<method-wrapper '__delattr__' of exceptions.NameError object>"
p39
sS'__subclasshook__'
p40
S'<built-in method __subclasshook__ of type object>'
p41
sS'__repr__'
p42
S"<method-wrapper '__repr__' of exceptions.NameError object>"
p43
sS'__dict__'
p44
S'{}'
p45
sS'__sizeof__'
p46
S'<built-in method __sizeof__ of exceptions.NameError object>'
p47
sS'__doc__'
p48
S"'Name not found globally.'"
p49
sS'__init__'
p50
S"<method-wrapper '__init__' of exceptions.NameError object>"
p51
sS'__new__'
p52
S'<built-in method __new__ of type object>'
p53
ssS'evalue'
p54
S"name 'requests' is not defined"
p55
sS'request'
p56
ccopy_reg
_reconstructor
p57
(cgluon.html
BEAUTIFY
p58
c__builtin__
object
p59
NtRp60
(dp61
S'attributes'
p62
(dp63
sS'components'
p64
(lp65
g57
(cgluon.html
TABLE
p66
g59
NtRp67
(dp68
g62
(dp69
S'level'
p70
I5
ssS'parent'
p71
Nsg64
(lp72
g57
(cgluon.html
TR
p73
g59
NtRp74
(dp75
g62
(dp76
sg71
g67
sg64
(lp77
g57
(cgluon.html
TD
p78
g59
NtRp79
(dp80
g62
(dp81
S'_style'
p82
S'font-weight:bold;vertical-align:top'
p83
ssg71
g74
sg64
(lp84
S'ajax'
p85
asbag57
(g78
g59
NtRp86
(dp87
g62
(dp88
S'_valign'
p89
S'top'
p90
ssg71
g74
sg64
(lp91
S':'
asbag57
(g78
g59
NtRp92
(dp93
g62
(dp94
sg71
g74
sg64
(lp95
g57
(g58
g59
NtRp96
(dp97
g62
(dp98
g70
I5
ssg71
g92
sg64
(lp99
S'False'
p100
asbasbasbag57
(g73
g59
NtRp101
(dp102
g62
(dp103
sg71
g67
sg64
(lp104
g57
(g78
g59
NtRp105
(dp106
g62
(dp107
g82
g83
ssg71
g101
sg64
(lp108
S'application'
p109
asbag57
(g78
g59
NtRp110
(dp111
g62
(dp112
g89
g90
ssg71
g101
sg64
(lp113
S':'
asbag57
(g78
g59
NtRp114
(dp115
g62
(dp116
sg71
g101
sg64
(lp117
g57
(g58
g59
NtRp118
(dp119
g62
(dp120
g70
I5
ssg71
g114
sg64
(lp121
S'Assignment_2'
p122
asbasbasbag57
(g73
g59
NtRp123
(dp124
g62
(dp125
sg71
g67
sg64
(lp126
g57
(g78
g59
NtRp127
(dp128
g62
(dp129
g82
g83
ssg71
g123
sg64
(lp130
g24
asbag57
(g78
g59
NtRp131
(dp132
g62
(dp133
g89
g90
ssg71
g123
sg64
(lp134
S':'
asbag57
(g78
g59
NtRp135
(dp136
g62
(dp137
sg71
g123
sg64
(lp138
g57
(g58
g59
NtRp139
(dp140
g62
(dp141
g70
I5
ssg71
g135
sg64
(lp142
g57
(g66
g59
NtRp143
(dp144
g62
(dp145
g70
I4
ssg71
Nsg64
(lp146
sbasbasbasbag57
(g73
g59
NtRp147
(dp148
g62
(dp149
sg71
g67
sg64
(lp150
g57
(g78
g59
NtRp151
(dp152
g62
(dp153
g82
g83
ssg71
g147
sg64
(lp154
S'body'
p155
asbag57
(g78
g59
NtRp156
(dp157
g62
(dp158
g89
g90
ssg71
g147
sg64
(lp159
S':'
asbag57
(g78
g59
NtRp160
(dp161
g62
(dp162
sg71
g147
sg64
(lp163
g57
(g58
g59
NtRp164
(dp165
g62
(dp166
g70
I5
ssg71
g160
sg64
(lp167
S'<cStringIO.StringO object at 0x7f8f883eb2d0>'
p168
asbasbasbag57
(g73
g59
NtRp169
(dp170
g62
(dp171
sg71
g67
sg64
(lp172
g57
(g78
g59
NtRp173
(dp174
g62
(dp175
g82
g83
ssg71
g169
sg64
(lp176
S'cid'
p177
asbag57
(g78
g59
NtRp178
(dp179
g62
(dp180
g89
g90
ssg71
g169
sg64
(lp181
S':'
asbag57
(g78
g59
NtRp182
(dp183
g62
(dp184
sg71
g169
sg64
(lp185
g57
(g58
g59
NtRp186
(dp187
g62
(dp188
g70
I5
ssg71
g182
sg64
(lp189
S'None'
p190
asbasbasbag57
(g73
g59
NtRp191
(dp192
g62
(dp193
sg71
g67
sg64
(lp194
g57
(g78
g59
NtRp195
(dp196
g62
(dp197
g82
g83
ssg71
g191
sg64
(lp198
S'client'
p199
asbag57
(g78
g59
NtRp200
(dp201
g62
(dp202
g89
g90
ssg71
g191
sg64
(lp203
S':'
asbag57
(g78
g59
NtRp204
(dp205
g62
(dp206
sg71
g191
sg64
(lp207
g57
(g58
g59
NtRp208
(dp209
g62
(dp210
g70
I5
ssg71
g204
sg64
(lp211
S'127.0.0.1'
p212
asbasbasbag57
(g73
g59
NtRp213
(dp214
g62
(dp215
sg71
g67
sg64
(lp216
g57
(g78
g59
NtRp217
(dp218
g62
(dp219
g82
g83
ssg71
g213
sg64
(lp220
S'controller'
p221
asbag57
(g78
g59
NtRp222
(dp223
g62
(dp224
g89
g90
ssg71
g213
sg64
(lp225
S':'
asbag57
(g78
g59
NtRp226
(dp227
g62
(dp228
sg71
g213
sg64
(lp229
g57
(g58
g59
NtRp230
(dp231
g62
(dp232
g70
I5
ssg71
g226
sg64
(lp233
S'default'
p234
asbasbasbag57
(g73
g59
NtRp235
(dp236
g62
(dp237
sg71
g67
sg64
(lp238
g57
(g78
g59
NtRp239
(dp240
g62
(dp241
g82
g83
ssg71
g235
sg64
(lp242
S'cookies'
p243
asbag57
(g78
g59
NtRp244
(dp245
g62
(dp246
g89
g90
ssg71
g235
sg64
(lp247
S':'
asbag57
(g78
g59
NtRp248
(dp249
g62
(dp250
sg71
g235
sg64
(lp251
g57
(g58
g59
NtRp252
(dp253
g62
(dp254
g70
I5
ssg71
g248
sg64
(lp255
g57
(g66
g59
NtRp256
(dp257
g62
(dp258
g70
I4
ssg71
Nsg64
(lp259
g57
(g73
g59
NtRp260
(dp261
g62
(dp262
sg71
g256
sg64
(lp263
g57
(g78
g59
NtRp264
(dp265
g62
(dp266
g82
g83
ssg71
g260
sg64
(lp267
S'mp_2093ad9ff9c5428a2228386de2f2b0e4_mixpanel'
p268
asbag57
(g78
g59
NtRp269
(dp270
g62
(dp271
g89
g90
ssg71
g260
sg64
(lp272
S':'
asbag57
(g78
g59
NtRp273
(dp274
g62
(dp275
sg71
g260
sg64
(lp276
g57
(g58
g59
NtRp277
(dp278
g62
(dp279
g70
I4
ssg71
g273
sg64
(lp280
S'%7B%22distinct_id%22%3A%20%2262ffc2d0-7b9f-0130-efb0-22000a1cbb2a%22%2C%22is_registered_user%22%3A%20false%2C%22%24initial_referrer%22%3A%20%22%24direct%22%2C%22%24initial_referring_domain%22%3A%20%22%24direct%22%7D'
p281
ag57
(g66
g59
NtRp282
(dp283
g62
(dp284
g70
I3
ssg71
Nsg64
(lp285
g57
(g73
g59
NtRp286
(dp287
g62
(dp288
sg71
g282
sg64
(lp289
g57
(g78
g59
NtRp290
(dp291
g62
(dp292
g82
g83
ssg71
g286
sg64
(lp293
S'comment'
p294
asbag57
(g78
g59
NtRp295
(dp296
g62
(dp297
g89
g90
ssg71
g286
sg64
(lp298
S':'
asbag57
(g78
g59
NtRp299
(dp300
g62
(dp301
sg71
g286
sg64
(lp302
g57
(g58
g59
NtRp303
(dp304
g62
(dp305
g70
I3
ssg71
g299
sg64
(lp306
S''
asbasbasbag57
(g73
g59
NtRp307
(dp308
g62
(dp309
sg71
g282
sg64
(lp310
g57
(g78
g59
NtRp311
(dp312
g62
(dp313
g82
g83
ssg71
g307
sg64
(lp314
S'domain'
p315
asbag57
(g78
g59
NtRp316
(dp317
g62
(dp318
g89
g90
ssg71
g307
sg64
(lp319
S':'
asbag57
(g78
g59
NtRp320
(dp321
g62
(dp322
sg71
g307
sg64
(lp323
g57
(g58
g59
NtRp324
(dp325
g62
(dp326
g70
I3
ssg71
g320
sg64
(lp327
S''
asbasbasbag57
(g73
g59
NtRp328
(dp329
g62
(dp330
sg71
g282
sg64
(lp331
g57
(g78
g59
NtRp332
(dp333
g62
(dp334
g82
g83
ssg71
g328
sg64
(lp335
S'expires'
p336
asbag57
(g78
g59
NtRp337
(dp338
g62
(dp339
g89
g90
ssg71
g328
sg64
(lp340
S':'
asbag57
(g78
g59
NtRp341
(dp342
g62
(dp343
sg71
g328
sg64
(lp344
g57
(g58
g59
NtRp345
(dp346
g62
(dp347
g70
I3
ssg71
g341
sg64
(lp348
S''
asbasbasbag57
(g73
g59
NtRp349
(dp350
g62
(dp351
sg71
g282
sg64
(lp352
g57
(g78
g59
NtRp353
(dp354
g62
(dp355
g82
g83
ssg71
g349
sg64
(lp356
S'httponly'
p357
asbag57
(g78
g59
NtRp358
(dp359
g62
(dp360
g89
g90
ssg71
g349
sg64
(lp361
S':'
asbag57
(g78
g59
NtRp362
(dp363
g62
(dp364
sg71
g349
sg64
(lp365
g57
(g58
g59
NtRp366
(dp367
g62
(dp368
g70
I3
ssg71
g362
sg64
(lp369
S''
asbasbasbag57
(g73
g59
NtRp370
(dp371
g62
(dp372
sg71
g282
sg64
(lp373
g57
(g78
g59
NtRp374
(dp375
g62
(dp376
g82
g83
ssg71
g370
sg64
(lp377
S'max-age'
p378
asbag57
(g78
g59
NtRp379
(dp380
g62
(dp381
g89
g90
ssg71
g370
sg64
(lp382
S':'
asbag57
(g78
g59
NtRp383
(dp384
g62
(dp385
sg71
g370
sg64
(lp386
g57
(g58
g59
NtRp387
(dp388
g62
(dp389
g70
I3
ssg71
g383
sg64
(lp390
S''
asbasbasbag57
(g73
g59
NtRp391
(dp392
g62
(dp393
sg71
g282
sg64
(lp394
g57
(g78
g59
NtRp395
(dp396
g62
(dp397
g82
g83
ssg71
g391
sg64
(lp398
S'path'
p399
asbag57
(g78
g59
NtRp400
(dp401
g62
(dp402
g89
g90
ssg71
g391
sg64
(lp403
S':'
asbag57
(g78
g59
NtRp404
(dp405
g62
(dp406
sg71
g391
sg64
(lp407
g57
(g58
g59
NtRp408
(dp409
g62
(dp410
g70
I3
ssg71
g404
sg64
(lp411
S''
asbasbasbag57
(g73
g59
NtRp412
(dp413
g62
(dp414
sg71
g282
sg64
(lp415
g57
(g78
g59
NtRp416
(dp417
g62
(dp418
g82
g83
ssg71
g412
sg64
(lp419
S'secure'
p420
asbag57
(g78
g59
NtRp421
(dp422
g62
(dp423
g89
g90
ssg71
g412
sg64
(lp424
S':'
asbag57
(g78
g59
NtRp425
(dp426
g62
(dp427
sg71
g412
sg64
(lp428
g57
(g58
g59
NtRp429
(dp430
g62
(dp431
g70
I3
ssg71
g425
sg64
(lp432
S''
asbasbasbag57
(g73
g59
NtRp433
(dp434
g62
(dp435
sg71
g282
sg64
(lp436
g57
(g78
g59
NtRp437
(dp438
g62
(dp439
g82
g83
ssg71
g433
sg64
(lp440
S'version'
p441
asbag57
(g78
g59
NtRp442
(dp443
g62
(dp444
g89
g90
ssg71
g433
sg64
(lp445
S':'
asbag57
(g78
g59
NtRp446
(dp447
g62
(dp448
sg71
g433
sg64
(lp449
g57
(g58
g59
NtRp450
(dp451
g62
(dp452
g70
I3
ssg71
g446
sg64
(lp453
S''
asbasbasbasbasbasbasbag57
(g73
g59
NtRp454
(dp455
g62
(dp456
sg71
g256
sg64
(lp457
g57
(g78
g59
NtRp458
(dp459
g62
(dp460
g82
g83
ssg71
g454
sg64
(lp461
S'session_id_admin'
p462
asbag57
(g78
g59
NtRp463
(dp464
g62
(dp465
g89
g90
ssg71
g454
sg64
(lp466
S':'
asbag57
(g78
g59
NtRp467
(dp468
g62
(dp469
sg71
g454
sg64
(lp470
g57
(g58
g59
NtRp471
(dp472
g62
(dp473
g70
I4
ssg71
g467
sg64
(lp474
S'127.0.0.1-b5c7744b-6ba7-465d-9f13-0b1a277ff628'
p475
ag57
(g66
g59
NtRp476
(dp477
g62
(dp478
g70
I3
ssg71
Nsg64
(lp479
g57
(g73
g59
NtRp480
(dp481
g62
(dp482
sg71
g476
sg64
(lp483
g57
(g78
g59
NtRp484
(dp485
g62
(dp486
g82
g83
ssg71
g480
sg64
(lp487
g294
asbag57
(g78
g59
NtRp488
(dp489
g62
(dp490
g89
g90
ssg71
g480
sg64
(lp491
S':'
asbag57
(g78
g59
NtRp492
(dp493
g62
(dp494
sg71
g480
sg64
(lp495
g57
(g58
g59
NtRp496
(dp497
g62
(dp498
g70
I3
ssg71
g492
sg64
(lp499
S''
asbasbasbag57
(g73
g59
NtRp500
(dp501
g62
(dp502
sg71
g476
sg64
(lp503
g57
(g78
g59
NtRp504
(dp505
g62
(dp506
g82
g83
ssg71
g500
sg64
(lp507
g315
asbag57
(g78
g59
NtRp508
(dp509
g62
(dp510
g89
g90
ssg71
g500
sg64
(lp511
S':'
asbag57
(g78
g59
NtRp512
(dp513
g62
(dp514
sg71
g500
sg64
(lp515
g57
(g58
g59
NtRp516
(dp517
g62
(dp518
g70
I3
ssg71
g512
sg64
(lp519
S''
asbasbasbag57
(g73
g59
NtRp520
(dp521
g62
(dp522
sg71
g476
sg64
(lp523
g57
(g78
g59
NtRp524
(dp525
g62
(dp526
g82
g83
ssg71
g520
sg64
(lp527
g336
asbag57
(g78
g59
NtRp528
(dp529
g62
(dp530
g89
g90
ssg71
g520
sg64
(lp531
S':'
asbag57
(g78
g59
NtRp532
(dp533
g62
(dp534
sg71
g520
sg64
(lp535
g57
(g58
g59
NtRp536
(dp537
g62
(dp538
g70
I3
ssg71
g532
sg64
(lp539
S''
asbasbasbag57
(g73
g59
NtRp540
(dp541
g62
(dp542
sg71
g476
sg64
(lp543
g57
(g78
g59
NtRp544
(dp545
g62
(dp546
g82
g83
ssg71
g540
sg64
(lp547
g357
asbag57
(g78
g59
NtRp548
(dp549
g62
(dp550
g89
g90
ssg71
g540
sg64
(lp551
S':'
asbag57
(g78
g59
NtRp552
(dp553
g62
(dp554
sg71
g540
sg64
(lp555
g57
(g58
g59
NtRp556
(dp557
g62
(dp558
g70
I3
ssg71
g552
sg64
(lp559
S''
asbasbasbag57
(g73
g59
NtRp560
(dp561
g62
(dp562
sg71
g476
sg64
(lp563
g57
(g78
g59
NtRp564
(dp565
g62
(dp566
g82
g83
ssg71
g560
sg64
(lp567
g378
asbag57
(g78
g59
NtRp568
(dp569
g62
(dp570
g89
g90
ssg71
g560
sg64
(lp571
S':'
asbag57
(g78
g59
NtRp572
(dp573
g62
(dp574
sg71
g560
sg64
(lp575
g57
(g58
g59
NtRp576
(dp577
g62
(dp578
g70
I3
ssg71
g572
sg64
(lp579
S''
asbasbasbag57
(g73
g59
NtRp580
(dp581
g62
(dp582
sg71
g476
sg64
(lp583
g57
(g78
g59
NtRp584
(dp585
g62
(dp586
g82
g83
ssg71
g580
sg64
(lp587
g399
asbag57
(g78
g59
NtRp588
(dp589
g62
(dp590
g89
g90
ssg71
g580
sg64
(lp591
S':'
asbag57
(g78
g59
NtRp592
(dp593
g62
(dp594
sg71
g580
sg64
(lp595
g57
(g58
g59
NtRp596
(dp597
g62
(dp598
g70
I3
ssg71
g592
sg64
(lp599
S''
asbasbasbag57
(g73
g59
NtRp600
(dp601
g62
(dp602
sg71
g476
sg64
(lp603
g57
(g78
g59
NtRp604
(dp605
g62
(dp606
g82
g83
ssg71
g600
sg64
(lp607
g420
asbag57
(g78
g59
NtRp608
(dp609
g62
(dp610
g89
g90
ssg71
g600
sg64
(lp611
S':'
asbag57
(g78
g59
NtRp612
(dp613
g62
(dp614
sg71
g600
sg64
(lp615
g57
(g58
g59
NtRp616
(dp617
g62
(dp618
g70
I3
ssg71
g612
sg64
(lp619
S''
asbasbasbag57
(g73
g59
NtRp620
(dp621
g62
(dp622
sg71
g476
sg64
(lp623
g57
(g78
g59
NtRp624
(dp625
g62
(dp626
g82
g83
ssg71
g620
sg64
(lp627
g441
asbag57
(g78
g59
NtRp628
(dp629
g62
(dp630
g89
g90
ssg71
g620
sg64
(lp631
S':'
asbag57
(g78
g59
NtRp632
(dp633
g62
(dp634
sg71
g620
sg64
(lp635
g57
(g58
g59
NtRp636
(dp637
g62
(dp638
g70
I3
ssg71
g632
sg64
(lp639
S''
asbasbasbasbasbasbasbag57
(g73
g59
NtRp640
(dp641
g62
(dp642
sg71
g256
sg64
(lp643
g57
(g78
g59
NtRp644
(dp645
g62
(dp646
g82
g83
ssg71
g640
sg64
(lp647
S'session_id_assignment_2'
p648
asbag57
(g78
g59
NtRp649
(dp650
g62
(dp651
g89
g90
ssg71
g640
sg64
(lp652
S':'
asbag57
(g78
g59
NtRp653
(dp654
g62
(dp655
sg71
g640
sg64
(lp656
g57
(g58
g59
NtRp657
(dp658
g62
(dp659
g70
I4
ssg71
g653
sg64
(lp660
S'127.0.0.1-c3bf420d-fab5-418a-a226-75e7c25cbfd0'
p661
ag57
(g66
g59
NtRp662
(dp663
g62
(dp664
g70
I3
ssg71
Nsg64
(lp665
g57
(g73
g59
NtRp666
(dp667
g62
(dp668
sg71
g662
sg64
(lp669
g57
(g78
g59
NtRp670
(dp671
g62
(dp672
g82
g83
ssg71
g666
sg64
(lp673
g294
asbag57
(g78
g59
NtRp674
(dp675
g62
(dp676
g89
g90
ssg71
g666
sg64
(lp677
S':'
asbag57
(g78
g59
NtRp678
(dp679
g62
(dp680
sg71
g666
sg64
(lp681
g57
(g58
g59
NtRp682
(dp683
g62
(dp684
g70
I3
ssg71
g678
sg64
(lp685
S''
asbasbasbag57
(g73
g59
NtRp686
(dp687
g62
(dp688
sg71
g662
sg64
(lp689
g57
(g78
g59
NtRp690
(dp691
g62
(dp692
g82
g83
ssg71
g686
sg64
(lp693
g315
asbag57
(g78
g59
NtRp694
(dp695
g62
(dp696
g89
g90
ssg71
g686
sg64
(lp697
S':'
asbag57
(g78
g59
NtRp698
(dp699
g62
(dp700
sg71
g686
sg64
(lp701
g57
(g58
g59
NtRp702
(dp703
g62
(dp704
g70
I3
ssg71
g698
sg64
(lp705
S''
asbasbasbag57
(g73
g59
NtRp706
(dp707
g62
(dp708
sg71
g662
sg64
(lp709
g57
(g78
g59
NtRp710
(dp711
g62
(dp712
g82
g83
ssg71
g706
sg64
(lp713
g336
asbag57
(g78
g59
NtRp714
(dp715
g62
(dp716
g89
g90
ssg71
g706
sg64
(lp717
S':'
asbag57
(g78
g59
NtRp718
(dp719
g62
(dp720
sg71
g706
sg64
(lp721
g57
(g58
g59
NtRp722
(dp723
g62
(dp724
g70
I3
ssg71
g718
sg64
(lp725
S''
asbasbasbag57
(g73
g59
NtRp726
(dp727
g62
(dp728
sg71
g662
sg64
(lp729
g57
(g78
g59
NtRp730
(dp731
g62
(dp732
g82
g83
ssg71
g726
sg64
(lp733
g357
asbag57
(g78
g59
NtRp734
(dp735
g62
(dp736
g89
g90
ssg71
g726
sg64
(lp737
S':'
asbag57
(g78
g59
NtRp738
(dp739
g62
(dp740
sg71
g726
sg64
(lp741
g57
(g58
g59
NtRp742
(dp743
g62
(dp744
g70
I3
ssg71
g738
sg64
(lp745
S''
asbasbasbag57
(g73
g59
NtRp746
(dp747
g62
(dp748
sg71
g662
sg64
(lp749
g57
(g78
g59
NtRp750
(dp751
g62
(dp752
g82
g83
ssg71
g746
sg64
(lp753
g378
asbag57
(g78
g59
NtRp754
(dp755
g62
(dp756
g89
g90
ssg71
g746
sg64
(lp757
S':'
asbag57
(g78
g59
NtRp758
(dp759
g62
(dp760
sg71
g746
sg64
(lp761
g57
(g58
g59
NtRp762
(dp763
g62
(dp764
g70
I3
ssg71
g758
sg64
(lp765
S''
asbasbasbag57
(g73
g59
NtRp766
(dp767
g62
(dp768
sg71
g662
sg64
(lp769
g57
(g78
g59
NtRp770
(dp771
g62
(dp772
g82
g83
ssg71
g766
sg64
(lp773
g399
asbag57
(g78
g59
NtRp774
(dp775
g62
(dp776
g89
g90
ssg71
g766
sg64
(lp777
S':'
asbag57
(g78
g59
NtRp778
(dp779
g62
(dp780
sg71
g766
sg64
(lp781
g57
(g58
g59
NtRp782
(dp783
g62
(dp784
g70
I3
ssg71
g778
sg64
(lp785
S''
asbasbasbag57
(g73
g59
NtRp786
(dp787
g62
(dp788
sg71
g662
sg64
(lp789
g57
(g78
g59
NtRp790
(dp791
g62
(dp792
g82
g83
ssg71
g786
sg64
(lp793
g420
asbag57
(g78
g59
NtRp794
(dp795
g62
(dp796
g89
g90
ssg71
g786
sg64
(lp797
S':'
asbag57
(g78
g59
NtRp798
(dp799
g62
(dp800
sg71
g786
sg64
(lp801
g57
(g58
g59
NtRp802
(dp803
g62
(dp804
g70
I3
ssg71
g798
sg64
(lp805
S''
asbasbasbag57
(g73
g59
NtRp806
(dp807
g62
(dp808
sg71
g662
sg64
(lp809
g57
(g78
g59
NtRp810
(dp811
g62
(dp812
g82
g83
ssg71
g806
sg64
(lp813
g441
asbag57
(g78
g59
NtRp814
(dp815
g62
(dp816
g89
g90
ssg71
g806
sg64
(lp817
S':'
asbag57
(g78
g59
NtRp818
(dp819
g62
(dp820
sg71
g806
sg64
(lp821
g57
(g58
g59
NtRp822
(dp823
g62
(dp824
g70
I3
ssg71
g818
sg64
(lp825
S''
asbasbasbasbasbasbasbag57
(g73
g59
NtRp826
(dp827
g62
(dp828
sg71
g256
sg64
(lp829
g57
(g78
g59
NtRp830
(dp831
g62
(dp832
g82
g83
ssg71
g826
sg64
(lp833
S'session_id_welcome'
p834
asbag57
(g78
g59
NtRp835
(dp836
g62
(dp837
g89
g90
ssg71
g826
sg64
(lp838
S':'
asbag57
(g78
g59
NtRp839
(dp840
g62
(dp841
sg71
g826
sg64
(lp842
g57
(g58
g59
NtRp843
(dp844
g62
(dp845
g70
I4
ssg71
g839
sg64
(lp846
S'127.0.0.1-3dabeaf3-f7c2-4466-8cef-6b7f69fa0a1e'
p847
ag57
(g66
g59
NtRp848
(dp849
g62
(dp850
g70
I3
ssg71
Nsg64
(lp851
g57
(g73
g59
NtRp852
(dp853
g62
(dp854
sg71
g848
sg64
(lp855
g57
(g78
g59
NtRp856
(dp857
g62
(dp858
g82
g83
ssg71
g852
sg64
(lp859
g294
asbag57
(g78
g59
NtRp860
(dp861
g62
(dp862
g89
g90
ssg71
g852
sg64
(lp863
S':'
asbag57
(g78
g59
NtRp864
(dp865
g62
(dp866
sg71
g852
sg64
(lp867
g57
(g58
g59
NtRp868
(dp869
g62
(dp870
g70
I3
ssg71
g864
sg64
(lp871
S''
asbasbasbag57
(g73
g59
NtRp872
(dp873
g62
(dp874
sg71
g848
sg64
(lp875
g57
(g78
g59
NtRp876
(dp877
g62
(dp878
g82
g83
ssg71
g872
sg64
(lp879
g315
asbag57
(g78
g59
NtRp880
(dp881
g62
(dp882
g89
g90
ssg71
g872
sg64
(lp883
S':'
asbag57
(g78
g59
NtRp884
(dp885
g62
(dp886
sg71
g872
sg64
(lp887
g57
(g58
g59
NtRp888
(dp889
g62
(dp890
g70
I3
ssg71
g884
sg64
(lp891
S''
asbasbasbag57
(g73
g59
NtRp892
(dp893
g62
(dp894
sg71
g848
sg64
(lp895
g57
(g78
g59
NtRp896
(dp897
g62
(dp898
g82
g83
ssg71
g892
sg64
(lp899
g336
asbag57
(g78
g59
NtRp900
(dp901
g62
(dp902
g89
g90
ssg71
g892
sg64
(lp903
S':'
asbag57
(g78
g59
NtRp904
(dp905
g62
(dp906
sg71
g892
sg64
(lp907
g57
(g58
g59
NtRp908
(dp909
g62
(dp910
g70
I3
ssg71
g904
sg64
(lp911
S''
asbasbasbag57
(g73
g59
NtRp912
(dp913
g62
(dp914
sg71
g848
sg64
(lp915
g57
(g78
g59
NtRp916
(dp917
g62
(dp918
g82
g83
ssg71
g912
sg64
(lp919
g357
asbag57
(g78
g59
NtRp920
(dp921
g62
(dp922
g89
g90
ssg71
g912
sg64
(lp923
S':'
asbag57
(g78
g59
NtRp924
(dp925
g62
(dp926
sg71
g912
sg64
(lp927
g57
(g58
g59
NtRp928
(dp929
g62
(dp930
g70
I3
ssg71
g924
sg64
(lp931
S''
asbasbasbag57
(g73
g59
NtRp932
(dp933
g62
(dp934
sg71
g848
sg64
(lp935
g57
(g78
g59
NtRp936
(dp937
g62
(dp938
g82
g83
ssg71
g932
sg64
(lp939
g378
asbag57
(g78
g59
NtRp940
(dp941
g62
(dp942
g89
g90
ssg71
g932
sg64
(lp943
S':'
asbag57
(g78
g59
NtRp944
(dp945
g62
(dp946
sg71
g932
sg64
(lp947
g57
(g58
g59
NtRp948
(dp949
g62
(dp950
g70
I3
ssg71
g944
sg64
(lp951
S''
asbasbasbag57
(g73
g59
NtRp952
(dp953
g62
(dp954
sg71
g848
sg64
(lp955
g57
(g78
g59
NtRp956
(dp957
g62
(dp958
g82
g83
ssg71
g952
sg64
(lp959
g399
asbag57
(g78
g59
NtRp960
(dp961
g62
(dp962
g89
g90
ssg71
g952
sg64
(lp963
S':'
asbag57
(g78
g59
NtRp964
(dp965
g62
(dp966
sg71
g952
sg64
(lp967
g57
(g58
g59
NtRp968
(dp969
g62
(dp970
g70
I3
ssg71
g964
sg64
(lp971
S''
asbasbasbag57
(g73
g59
NtRp972
(dp973
g62
(dp974
sg71
g848
sg64
(lp975
g57
(g78
g59
NtRp976
(dp977
g62
(dp978
g82
g83
ssg71
g972
sg64
(lp979
g420
asbag57
(g78
g59
NtRp980
(dp981
g62
(dp982
g89
g90
ssg71
g972
sg64
(lp983
S':'
asbag57
(g78
g59
NtRp984
(dp985
g62
(dp986
sg71
g972
sg64
(lp987
g57
(g58
g59
NtRp988
(dp989
g62
(dp990
g70
I3
ssg71
g984
sg64
(lp991
S''
asbasbasbag57
(g73
g59
NtRp992
(dp993
g62
(dp994
sg71
g848
sg64
(lp995
g57
(g78
g59
NtRp996
(dp997
g62
(dp998
g82
g83
ssg71
g992
sg64
(lp999
g441
asbag57
(g78
g59
NtRp1000
(dp1001
g62
(dp1002
g89
g90
ssg71
g992
sg64
(lp1003
S':'
asbag57
(g78
g59
NtRp1004
(dp1005
g62
(dp1006
sg71
g992
sg64
(lp1007
g57
(g58
g59
NtRp1008
(dp1009
g62
(dp1010
g70
I3
ssg71
g1004
sg64
(lp1011
S''
asbasbasbasbasbasbasbasbasbasbasbag57
(g73
g59
NtRp1012
(dp1013
g62
(dp1014
sg71
g67
sg64
(lp1015
g57
(g78
g59
NtRp1016
(dp1017
g62
(dp1018
g82
g83
ssg71
g1012
sg64
(lp1019
S'env'
p1020
asbag57
(g78
g59
NtRp1021
(dp1022
g62
(dp1023
g89
g90
ssg71
g1012
sg64
(lp1024
S':'
asbag57
(g78
g59
NtRp1025
(dp1026
g62
(dp1027
sg71
g1012
sg64
(lp1028
g57
(g58
g59
NtRp1029
(dp1030
g62
(dp1031
g70
I5
ssg71
g1025
sg64
(lp1032
g57
(g66
g59
NtRp1033
(dp1034
g62
(dp1035
g70
I4
ssg71
Nsg64
(lp1036
g57
(g73
g59
NtRp1037
(dp1038
g62
(dp1039
sg71
g1033
sg64
(lp1040
g57
(g78
g59
NtRp1041
(dp1042
g62
(dp1043
g82
g83
ssg71
g1037
sg64
(lp1044
S'app_folders'
p1045
asbag57
(g78
g59
NtRp1046
(dp1047
g62
(dp1048
g89
g90
ssg71
g1037
sg64
(lp1049
S':'
asbag57
(g78
g59
NtRp1050
(dp1051
g62
(dp1052
sg71
g1037
sg64
(lp1053
g57
(g58
g59
NtRp1054
(dp1055
g62
(dp1056
g70
I4
ssg71
g1050
sg64
(lp1057
S"set(['/home/shipra/Desktop/Semester 1.2/ITWS-2/web2py/applications/Assignment_2/', '/home/shipra/Desktop/Semester 1.2/ITWS-2/web2py/applications/welcome/', '/home/shipra/Desktop/Semester 1.2/ITWS-2/web2py/applications/admin/'])"
p1058
asbasbasbag57
(g73
g59
NtRp1059
(dp1060
g62
(dp1061
sg71
g1033
sg64
(lp1062
g57
(g78
g59
NtRp1063
(dp1064
g62
(dp1065
g82
g83
ssg71
g1059
sg64
(lp1066
S'applications_parent'
p1067
asbag57
(g78
g59
NtRp1068
(dp1069
g62
(dp1070
g89
g90
ssg71
g1059
sg64
(lp1071
S':'
asbag57
(g78
g59
NtRp1072
(dp1073
g62
(dp1074
sg71
g1059
sg64
(lp1075
g57
(g58
g59
NtRp1076
(dp1077
g62
(dp1078
g70
I4
ssg71
g1072
sg64
(lp1079
S'/home/shipra/Desktop/Semester 1.2/ITWS-2/web2py'
p1080
asbasbasbag57
(g73
g59
NtRp1081
(dp1082
g62
(dp1083
sg71
g1033
sg64
(lp1084
g57
(g78
g59
NtRp1085
(dp1086
g62
(dp1087
g82
g83
ssg71
g1081
sg64
(lp1088
S'cmd_args'
p1089
asbag57
(g78
g59
NtRp1090
(dp1091
g62
(dp1092
g89
g90
ssg71
g1081
sg64
(lp1093
S':'
asbag57
(g78
g59
NtRp1094
(dp1095
g62
(dp1096
sg71
g1081
sg64
(lp1097
g57
(g58
g59
NtRp1098
(dp1099
g62
(dp1100
g70
I4
ssg71
g1094
sg64
(lp1101
g57
(g66
g59
NtRp1102
(dp1103
g62
(dp1104
g70
I3
ssg71
Nsg64
(lp1105
sbasbasbasbag57
(g73
g59
NtRp1106
(dp1107
g62
(dp1108
sg71
g1033
sg64
(lp1109
g57
(g78
g59
NtRp1110
(dp1111
g62
(dp1112
g82
g83
ssg71
g1106
sg64
(lp1113
S'cmd_options'
p1114
asbag57
(g78
g59
NtRp1115
(dp1116
g62
(dp1117
g89
g90
ssg71
g1106
sg64
(lp1118
S':'
asbag57
(g78
g59
NtRp1119
(dp1120
g62
(dp1121
sg71
g1106
sg64
(lp1122
g57
(g58
g59
NtRp1123
(dp1124
g62
(dp1125
g70
I4
ssg71
g1119
sg64
(lp1126
S"<Values at 0x29db290: {'verbose': False, 'ip': '127.0.0.1', 'with_scheduler': False, 'ips': ['10.1.129.70', '192.168.122.1', '10.42.0.99', 'fe80::8a53:2eff:fe7d:9d6c%wlan0', 'fe80::e611:5bff:fe38:8d0d%p5p1'], 'shutdown_timeout': 5, 'taskbar': False, 'port': 8000, 'maxthreads': None, 'softcron': False, 'server_name': 'shipra', 'bpython': False, 'nogui': False, 'pid_filename': 'httpserver.pid', 'extcron': False, 'runcron': False, 'run_system_tests': False, 'test': None, 'folder': '/home/shipra/Desktop/Semester 1.2/ITWS-2/web2py', 'config': '', 'minthreads': None, 'winservice': '', 'shell': None, 'run': '', 'log_filename': 'httpserver.log', 'debuglevel': 30, 'args': [''], 'socket_timeout': 5, 'ssl_ca_certificate': None, 'scheduler': None, 'profiler_filename': None, 'ssl_private_key': '', 'scheduler_groups': None, 'password': '<ask>', 'request_queue_size': 5, 'ssl_certificate': '', 'cronjob': False, 'numthreads': None, 'quiet': False, 'interfaces': None, 'import_models': False, 'timeout': 10, 'plain': False, 'nobanner': False}>"
p1127
asbasbasbag57
(g73
g59
NtRp1128
(dp1129
g62
(dp1130
sg71
g1033
sg64
(lp1131
g57
(g78
g59
NtRp1132
(dp1133
g62
(dp1134
g82
g83
ssg71
g1128
sg64
(lp1135
S'db_sessions'
p1136
asbag57
(g78
g59
NtRp1137
(dp1138
g62
(dp1139
g89
g90
ssg71
g1128
sg64
(lp1140
S':'
asbag57
(g78
g59
NtRp1141
(dp1142
g62
(dp1143
sg71
g1128
sg64
(lp1144
g57
(g58
g59
NtRp1145
(dp1146
g62
(dp1147
g70
I4
ssg71
g1141
sg64
(lp1148
S'set([])'
p1149
asbasbasbag57
(g73
g59
NtRp1150
(dp1151
g62
(dp1152
sg71
g1033
sg64
(lp1153
g57
(g78
g59
NtRp1154
(dp1155
g62
(dp1156
g82
g83
ssg71
g1150
sg64
(lp1157
S'debugging'
p1158
asbag57
(g78
g59
NtRp1159
(dp1160
g62
(dp1161
g89
g90
ssg71
g1150
sg64
(lp1162
S':'
asbag57
(g78
g59
NtRp1163
(dp1164
g62
(dp1165
sg71
g1150
sg64
(lp1166
g57
(g58
g59
NtRp1167
(dp1168
g62
(dp1169
g70
I4
ssg71
g1163
sg64
(lp1170
g100
asbasbasbag57
(g73
g59
NtRp1171
(dp1172
g62
(dp1173
sg71
g1033
sg64
(lp1174
g57
(g78
g59
NtRp1175
(dp1176
g62
(dp1177
g82
g83
ssg71
g1171
sg64
(lp1178
S'gluon_parent'
p1179
asbag57
(g78
g59
NtRp1180
(dp1181
g62
(dp1182
g89
g90
ssg71
g1171
sg64
(lp1183
S':'
asbag57
(g78
g59
NtRp1184
(dp1185
g62
(dp1186
sg71
g1171
sg64
(lp1187
g57
(g58
g59
NtRp1188
(dp1189
g62
(dp1190
g70
I4
ssg71
g1184
sg64
(lp1191
S'/home/shipra/Desktop/Semester 1.2/ITWS-2/web2py'
p1192
asbasbasbag57
(g73
g59
NtRp1193
(dp1194
g62
(dp1195
sg71
g1033
sg64
(lp1196
g57
(g78
g59
NtRp1197
(dp1198
g62
(dp1199
g82
g83
ssg71
g1193
sg64
(lp1200
S'http_accept'
p1201
asbag57
(g78
g59
NtRp1202
(dp1203
g62
(dp1204
g89
g90
ssg71
g1193
sg64
(lp1205
S':'
asbag57
(g78
g59
NtRp1206
(dp1207
g62
(dp1208
sg71
g1193
sg64
(lp1209
g57
(g58
g59
NtRp1210
(dp1211
g62
(dp1212
g70
I4
ssg71
g1206
sg64
(lp1213
S'text/html,application/xhtml+xml,application/xml;q=0.9,*/*;q=0.8'
p1214
asbasbasbag57
(g73
g59
NtRp1215
(dp1216
g62
(dp1217
sg71
g1033
sg64
(lp1218
g57
(g78
g59
NtRp1219
(dp1220
g62
(dp1221
g82
g83
ssg71
g1215
sg64
(lp1222
S'http_accept_encoding'
p1223
asbag57
(g78
g59
NtRp1224
(dp1225
g62
(dp1226
g89
g90
ssg71
g1215
sg64
(lp1227
S':'
asbag57
(g78
g59
NtRp1228
(dp1229
g62
(dp1230
sg71
g1215
sg64
(lp1231
g57
(g58
g59
NtRp1232
(dp1233
g62
(dp1234
g70
I4
ssg71
g1228
sg64
(lp1235
S'gzip, deflate'
p1236
asbasbasbag57
(g73
g59
NtRp1237
(dp1238
g62
(dp1239
sg71
g1033
sg64
(lp1240
g57
(g78
g59
NtRp1241
(dp1242
g62
(dp1243
g82
g83
ssg71
g1237
sg64
(lp1244
S'http_accept_language'
p1245
asbag57
(g78
g59
NtRp1246
(dp1247
g62
(dp1248
g89
g90
ssg71
g1237
sg64
(lp1249
S':'
asbag57
(g78
g59
NtRp1250
(dp1251
g62
(dp1252
sg71
g1237
sg64
(lp1253
g57
(g58
g59
NtRp1254
(dp1255
g62
(dp1256
g70
I4
ssg71
g1250
sg64
(lp1257
S'en-us,en;q=0.5'
p1258
asbasbasbag57
(g73
g59
NtRp1259
(dp1260
g62
(dp1261
sg71
g1033
sg64
(lp1262
g57
(g78
g59
NtRp1263
(dp1264
g62
(dp1265
g82
g83
ssg71
g1259
sg64
(lp1266
S'http_connection'
p1267
asbag57
(g78
g59
NtRp1268
(dp1269
g62
(dp1270
g89
g90
ssg71
g1259
sg64
(lp1271
S':'
asbag57
(g78
g59
NtRp1272
(dp1273
g62
(dp1274
sg71
g1259
sg64
(lp1275
g57
(g58
g59
NtRp1276
(dp1277
g62
(dp1278
g70
I4
ssg71
g1272
sg64
(lp1279
S'keep-alive'
p1280
asbasbasbag57
(g73
g59
NtRp1281
(dp1282
g62
(dp1283
sg71
g1033
sg64
(lp1284
g57
(g78
g59
NtRp1285
(dp1286
g62
(dp1287
g82
g83
ssg71
g1281
sg64
(lp1288
S'http_cookie'
p1289
asbag57
(g78
g59
NtRp1290
(dp1291
g62
(dp1292
g89
g90
ssg71
g1281
sg64
(lp1293
S':'
asbag57
(g78
g59
NtRp1294
(dp1295
g62
(dp1296
sg71
g1281
sg64
(lp1297
g57
(g58
g59
NtRp1298
(dp1299
g62
(dp1300
g70
I4
ssg71
g1294
sg64
(lp1301
S'__utma=96992031.1334412862.1364672878.1364672878.1364718243.2; __utmz=96992031.1364672878.1.1.utmcsr=(direct)|utmccn=(direct)|utmcmd=(none); __lc.visitor_id.1195381=S1364672235.4faffcf2d2; __ar_v4=OWHSPOGHTNEIPPPBMHVFTA%3A20130329%3A12%7CAMEDRHI4VZG4TIA2AZ565D%3A20130329%3A12%7CWAEQXC4B2NH3DDBR3TZM6I%3A20130329%3A12; mp_2093ad9ff9c5428a2228386de2f2b0e4_mixpanel=%7B%22distinct_id%22%3A%20%2262ffc2d0-7b9f-0130-efb0-22000a1cbb2a%22%2C%22is_registered_user%22%3A%20false%2C%22%24initial_referrer%22%3A%20%22%24direct%22%2C%22%24initial_referring_domain%22%3A%20%22%24direct%22%7D; session_id_welcome=127.0.0.1-3dabeaf3-f7c2-4466-8cef-6b7f69fa0a1e; session_id_admin=127.0.0.1-b5c7744b-6ba7-465d-9f13-0b1a277ff628; session_id_assignment_2=127.0.0.1-c3bf420d-fab5-418a-a226-75e7c25cbfd0'
p1302
asbasbasbag57
(g73
g59
NtRp1303
(dp1304
g62
(dp1305
sg71
g1033
sg64
(lp1306
g57
(g78
g59
NtRp1307
(dp1308
g62
(dp1309
g82
g83
ssg71
g1303
sg64
(lp1310
S'http_host'
p1311
asbag57
(g78
g59
NtRp1312
(dp1313
g62
(dp1314
g89
g90
ssg71
g1303
sg64
(lp1315
S':'
asbag57
(g78
g59
NtRp1316
(dp1317
g62
(dp1318
sg71
g1303
sg64
(lp1319
g57
(g58
g59
NtRp1320
(dp1321
g62
(dp1322
g70
I4
ssg71
g1316
sg64
(lp1323
S'127.0.0.1:8000'
p1324
asbasbasbag57
(g73
g59
NtRp1325
(dp1326
g62
(dp1327
sg71
g1033
sg64
(lp1328
g57
(g78
g59
NtRp1329
(dp1330
g62
(dp1331
g82
g83
ssg71
g1325
sg64
(lp1332
S'http_user_agent'
p1333
asbag57
(g78
g59
NtRp1334
(dp1335
g62
(dp1336
g89
g90
ssg71
g1325
sg64
(lp1337
S':'
asbag57
(g78
g59
NtRp1338
(dp1339
g62
(dp1340
sg71
g1325
sg64
(lp1341
g57
(g58
g59
NtRp1342
(dp1343
g62
(dp1344
g70
I4
ssg71
g1338
sg64
(lp1345
S'Mozilla/5.0 (X11; Linux x86_64; rv:12.0) Gecko/20100101 Firefox/12.0'
p1346
asbasbasbag57
(g73
g59
NtRp1347
(dp1348
g62
(dp1349
sg71
g1033
sg64
(lp1350
g57
(g78
g59
NtRp1351
(dp1352
g62
(dp1353
g82
g83
ssg71
g1347
sg64
(lp1354
S'is_jython'
p1355
asbag57
(g78
g59
NtRp1356
(dp1357
g62
(dp1358
g89
g90
ssg71
g1347
sg64
(lp1359
S':'
asbag57
(g78
g59
NtRp1360
(dp1361
g62
(dp1362
sg71
g1347
sg64
(lp1363
g57
(g58
g59
NtRp1364
(dp1365
g62
(dp1366
g70
I4
ssg71
g1360
sg64
(lp1367
g100
asbasbasbag57
(g73
g59
NtRp1368
(dp1369
g62
(dp1370
sg71
g1033
sg64
(lp1371
g57
(g78
g59
NtRp1372
(dp1373
g62
(dp1374
g82
g83
ssg71
g1368
sg64
(lp1375
S'is_pypy'
p1376
asbag57
(g78
g59
NtRp1377
(dp1378
g62
(dp1379
g89
g90
ssg71
g1368
sg64
(lp1380
S':'
asbag57
(g78
g59
NtRp1381
(dp1382
g62
(dp1383
sg71
g1368
sg64
(lp1384
g57
(g58
g59
NtRp1385
(dp1386
g62
(dp1387
g70
I4
ssg71
g1381
sg64
(lp1388
g100
asbasbasbag57
(g73
g59
NtRp1389
(dp1390
g62
(dp1391
sg71
g1033
sg64
(lp1392
g57
(g78
g59
NtRp1393
(dp1394
g62
(dp1395
g82
g83
ssg71
g1389
sg64
(lp1396
S'local_hosts'
p1397
asbag57
(g78
g59
NtRp1398
(dp1399
g62
(dp1400
g89
g90
ssg71
g1389
sg64
(lp1401
S':'
asbag57
(g78
g59
NtRp1402
(dp1403
g62
(dp1404
sg71
g1389
sg64
(lp1405
g57
(g58
g59
NtRp1406
(dp1407
g62
(dp1408
g70
I4
ssg71
g1402
sg64
(lp1409
g57
(g66
g59
NtRp1410
(dp1411
g62
(dp1412
g70
I3
ssg71
Nsg64
(lp1413
g57
(g73
g59
NtRp1414
(dp1415
g62
(dp1416
sg71
g1410
sg64
(lp1417
g57
(g78
g59
NtRp1418
(dp1419
g62
(dp1420
sg71
g1414
sg64
(lp1421
g57
(g58
g59
NtRp1422
(dp1423
g62
(dp1424
g70
I3
ssg71
g1418
sg64
(lp1425
S'192.168.122.1'
p1426
asbasbasbag57
(g73
g59
NtRp1427
(dp1428
g62
(dp1429
sg71
g1410
sg64
(lp1430
g57
(g78
g59
NtRp1431
(dp1432
g62
(dp1433
sg71
g1427
sg64
(lp1434
g57
(g58
g59
NtRp1435
(dp1436
g62
(dp1437
g70
I3
ssg71
g1431
sg64
(lp1438
S'10.42.0.99'
p1439
asbasbasbag57
(g73
g59
NtRp1440
(dp1441
g62
(dp1442
sg71
g1410
sg64
(lp1443
g57
(g78
g59
NtRp1444
(dp1445
g62
(dp1446
sg71
g1440
sg64
(lp1447
g57
(g58
g59
NtRp1448
(dp1449
g62
(dp1450
g70
I3
ssg71
g1444
sg64
(lp1451
S'::ffff:127.0.0.1'
p1452
asbasbasbag57
(g73
g59
NtRp1453
(dp1454
g62
(dp1455
sg71
g1410
sg64
(lp1456
g57
(g78
g59
NtRp1457
(dp1458
g62
(dp1459
sg71
g1453
sg64
(lp1460
g57
(g58
g59
NtRp1461
(dp1462
g62
(dp1463
g70
I3
ssg71
g1457
sg64
(lp1464
S'::1'
p1465
asbasbasbag57
(g73
g59
NtRp1466
(dp1467
g62
(dp1468
sg71
g1410
sg64
(lp1469
g57
(g78
g59
NtRp1470
(dp1471
g62
(dp1472
sg71
g1466
sg64
(lp1473
g57
(g58
g59
NtRp1474
(dp1475
g62
(dp1476
g70
I3
ssg71
g1470
sg64
(lp1477
S'10.1.129.70'
p1478
asbasbasbag57
(g73
g59
NtRp1479
(dp1480
g62
(dp1481
sg71
g1410
sg64
(lp1482
g57
(g78
g59
NtRp1483
(dp1484
g62
(dp1485
sg71
g1479
sg64
(lp1486
g57
(g58
g59
NtRp1487
(dp1488
g62
(dp1489
g70
I3
ssg71
g1483
sg64
(lp1490
S'fe80::8a53:2eff:fe7d:9d6c%wlan0'
p1491
asbasbasbag57
(g73
g59
NtRp1492
(dp1493
g62
(dp1494
sg71
g1410
sg64
(lp1495
g57
(g78
g59
NtRp1496
(dp1497
g62
(dp1498
sg71
g1492
sg64
(lp1499
g57
(g58
g59
NtRp1500
(dp1501
g62
(dp1502
g70
I3
ssg71
g1496
sg64
(lp1503
S'fe80::e611:5bff:fe38:8d0d%p5p1'
p1504
asbasbasbag57
(g73
g59
NtRp1505
(dp1506
g62
(dp1507
sg71
g1410
sg64
(lp1508
g57
(g78
g59
NtRp1509
(dp1510
g62
(dp1511
sg71
g1505
sg64
(lp1512
g57
(g58
g59
NtRp1513
(dp1514
g62
(dp1515
g70
I3
ssg71
g1509
sg64
(lp1516
S'127.0.0.1'
p1517
asbasbasbag57
(g73
g59
NtRp1518
(dp1519
g62
(dp1520
sg71
g1410
sg64
(lp1521
g57
(g78
g59
NtRp1522
(dp1523
g62
(dp1524
sg71
g1518
sg64
(lp1525
g57
(g58
g59
NtRp1526
(dp1527
g62
(dp1528
g70
I3
ssg71
g1522
sg64
(lp1529
S'shipra'
p1530
asbasbasbasbasbasbasbag57
(g73
g59
NtRp1531
(dp1532
g62
(dp1533
sg71
g1033
sg64
(lp1534
g57
(g78
g59
NtRp1535
(dp1536
g62
(dp1537
g82
g83
ssg71
g1531
sg64
(lp1538
S'path_info'
p1539
asbag57
(g78
g59
NtRp1540
(dp1541
g62
(dp1542
g89
g90
ssg71
g1531
sg64
(lp1543
S':'
asbag57
(g78
g59
NtRp1544
(dp1545
g62
(dp1546
sg71
g1531
sg64
(lp1547
g57
(g58
g59
NtRp1548
(dp1549
g62
(dp1550
g70
I4
ssg71
g1544
sg64
(lp1551
S'/Assignment_2/default/display'
p1552
asbasbasbag57
(g73
g59
NtRp1553
(dp1554
g62
(dp1555
sg71
g1033
sg64
(lp1556
g57
(g78
g59
NtRp1557
(dp1558
g62
(dp1559
g82
g83
ssg71
g1553
sg64
(lp1560
S'query_string'
p1561
asbag57
(g78
g59
NtRp1562
(dp1563
g62
(dp1564
g89
g90
ssg71
g1553
sg64
(lp1565
S':'
asbag57
(g78
g59
NtRp1566
(dp1567
g62
(dp1568
sg71
g1553
sg64
(lp1569
g57
(g58
g59
NtRp1570
(dp1571
g62
(dp1572
g70
I4
ssg71
g1566
sg64
(lp1573
S''
asbasbasbag57
(g73
g59
NtRp1574
(dp1575
g62
(dp1576
sg71
g1033
sg64
(lp1577
g57
(g78
g59
NtRp1578
(dp1579
g62
(dp1580
g82
g83
ssg71
g1574
sg64
(lp1581
S'remote_addr'
p1582
asbag57
(g78
g59
NtRp1583
(dp1584
g62
(dp1585
g89
g90
ssg71
g1574
sg64
(lp1586
S':'
asbag57
(g78
g59
NtRp1587
(dp1588
g62
(dp1589
sg71
g1574
sg64
(lp1590
g57
(g58
g59
NtRp1591
(dp1592
g62
(dp1593
g70
I4
ssg71
g1587
sg64
(lp1594
g212
asbasbasbag57
(g73
g59
NtRp1595
(dp1596
g62
(dp1597
sg71
g1033
sg64
(lp1598
g57
(g78
g59
NtRp1599
(dp1600
g62
(dp1601
g82
g83
ssg71
g1595
sg64
(lp1602
S'remote_port'
p1603
asbag57
(g78
g59
NtRp1604
(dp1605
g62
(dp1606
g89
g90
ssg71
g1595
sg64
(lp1607
S':'
asbag57
(g78
g59
NtRp1608
(dp1609
g62
(dp1610
sg71
g1595
sg64
(lp1611
g57
(g58
g59
NtRp1612
(dp1613
g62
(dp1614
g70
I4
ssg71
g1608
sg64
(lp1615
S'43594'
p1616
asbasbasbag57
(g73
g59
NtRp1617
(dp1618
g62
(dp1619
sg71
g1033
sg64
(lp1620
g57
(g78
g59
NtRp1621
(dp1622
g62
(dp1623
g82
g83
ssg71
g1617
sg64
(lp1624
S'request_method'
p1625
asbag57
(g78
g59
NtRp1626
(dp1627
g62
(dp1628
g89
g90
ssg71
g1617
sg64
(lp1629
S':'
asbag57
(g78
g59
NtRp1630
(dp1631
g62
(dp1632
sg71
g1617
sg64
(lp1633
g57
(g58
g59
NtRp1634
(dp1635
g62
(dp1636
g70
I4
ssg71
g1630
sg64
(lp1637
S'GET'
p1638
asbasbasbag57
(g73
g59
NtRp1639
(dp1640
g62
(dp1641
sg71
g1033
sg64
(lp1642
g57
(g78
g59
NtRp1643
(dp1644
g62
(dp1645
g82
g83
ssg71
g1639
sg64
(lp1646
S'request_uri'
p1647
asbag57
(g78
g59
NtRp1648
(dp1649
g62
(dp1650
g89
g90
ssg71
g1639
sg64
(lp1651
S':'
asbag57
(g78
g59
NtRp1652
(dp1653
g62
(dp1654
sg71
g1639
sg64
(lp1655
g57
(g58
g59
NtRp1656
(dp1657
g62
(dp1658
g70
I4
ssg71
g1652
sg64
(lp1659
g1552
asbasbasbag57
(g73
g59
NtRp1660
(dp1661
g62
(dp1662
sg71
g1033
sg64
(lp1663
g57
(g78
g59
NtRp1664
(dp1665
g62
(dp1666
g82
g83
ssg71
g1660
sg64
(lp1667
S'script_name'
p1668
asbag57
(g78
g59
NtRp1669
(dp1670
g62
(dp1671
g89
g90
ssg71
g1660
sg64
(lp1672
S':'
asbag57
(g78
g59
NtRp1673
(dp1674
g62
(dp1675
sg71
g1660
sg64
(lp1676
g57
(g58
g59
NtRp1677
(dp1678
g62
(dp1679
g70
I4
ssg71
g1673
sg64
(lp1680
S''
asbasbasbag57
(g73
g59
NtRp1681
(dp1682
g62
(dp1683
sg71
g1033
sg64
(lp1684
g57
(g78
g59
NtRp1685
(dp1686
g62
(dp1687
g82
g83
ssg71
g1681
sg64
(lp1688
S'server_name'
p1689
asbag57
(g78
g59
NtRp1690
(dp1691
g62
(dp1692
g89
g90
ssg71
g1681
sg64
(lp1693
S':'
asbag57
(g78
g59
NtRp1694
(dp1695
g62
(dp1696
sg71
g1681
sg64
(lp1697
g57
(g58
g59
NtRp1698
(dp1699
g62
(dp1700
g70
I4
ssg71
g1694
sg64
(lp1701
S'shipra'
p1702
asbasbasbag57
(g73
g59
NtRp1703
(dp1704
g62
(dp1705
sg71
g1033
sg64
(lp1706
g57
(g78
g59
NtRp1707
(dp1708
g62
(dp1709
g82
g83
ssg71
g1703
sg64
(lp1710
S'server_port'
p1711
asbag57
(g78
g59
NtRp1712
(dp1713
g62
(dp1714
g89
g90
ssg71
g1703
sg64
(lp1715
S':'
asbag57
(g78
g59
NtRp1716
(dp1717
g62
(dp1718
sg71
g1703
sg64
(lp1719
g57
(g58
g59
NtRp1720
(dp1721
g62
(dp1722
g70
I4
ssg71
g1716
sg64
(lp1723
S'8000'
p1724
asbasbasbag57
(g73
g59
NtRp1725
(dp1726
g62
(dp1727
sg71
g1033
sg64
(lp1728
g57
(g78
g59
NtRp1729
(dp1730
g62
(dp1731
g82
g83
ssg71
g1725
sg64
(lp1732
S'server_protocol'
p1733
asbag57
(g78
g59
NtRp1734
(dp1735
g62
(dp1736
g89
g90
ssg71
g1725
sg64
(lp1737
S':'
asbag57
(g78
g59
NtRp1738
(dp1739
g62
(dp1740
sg71
g1725
sg64
(lp1741
g57
(g58
g59
NtRp1742
(dp1743
g62
(dp1744
g70
I4
ssg71
g1738
sg64
(lp1745
S'HTTP/1.1'
p1746
asbasbasbag57
(g73
g59
NtRp1747
(dp1748
g62
(dp1749
sg71
g1033
sg64
(lp1750
g57
(g78
g59
NtRp1751
(dp1752
g62
(dp1753
g82
g83
ssg71
g1747
sg64
(lp1754
S'server_software'
p1755
asbag57
(g78
g59
NtRp1756
(dp1757
g62
(dp1758
g89
g90
ssg71
g1747
sg64
(lp1759
S':'
asbag57
(g78
g59
NtRp1760
(dp1761
g62
(dp1762
sg71
g1747
sg64
(lp1763
g57
(g58
g59
NtRp1764
(dp1765
g62
(dp1766
g70
I4
ssg71
g1760
sg64
(lp1767
S'Rocket 1.2.6'
p1768
asbasbasbag57
(g73
g59
NtRp1769
(dp1770
g62
(dp1771
sg71
g1033
sg64
(lp1772
g57
(g78
g59
NtRp1773
(dp1774
g62
(dp1775
g82
g83
ssg71
g1769
sg64
(lp1776
S'web2py_path'
p1777
asbag57
(g78
g59
NtRp1778
(dp1779
g62
(dp1780
g89
g90
ssg71
g1769
sg64
(lp1781
S':'
asbag57
(g78
g59
NtRp1782
(dp1783
g62
(dp1784
sg71
g1769
sg64
(lp1785
g57
(g58
g59
NtRp1786
(dp1787
g62
(dp1788
g70
I4
ssg71
g1782
sg64
(lp1789
g1080
asbasbasbag57
(g73
g59
NtRp1790
(dp1791
g62
(dp1792
sg71
g1033
sg64
(lp1793
g57
(g78
g59
NtRp1794
(dp1795
g62
(dp1796
g82
g83
ssg71
g1790
sg64
(lp1797
S'web2py_version'
p1798
asbag57
(g78
g59
NtRp1799
(dp1800
g62
(dp1801
g89
g90
ssg71
g1790
sg64
(lp1802
S':'
asbag57
(g78
g59
NtRp1803
(dp1804
g62
(dp1805
sg71
g1790
sg64
(lp1806
g57
(g58
g59
NtRp1807
(dp1808
g62
(dp1809
g70
I4
ssg71
g1803
sg64
(lp1810
g57
(g66
g59
NtRp1811
(dp1812
g62
(dp1813
g70
I3
ssg71
Nsg64
(lp1814
g57
(g73
g59
NtRp1815
(dp1816
g62
(dp1817
sg71
g1811
sg64
(lp1818
g57
(g78
g59
NtRp1819
(dp1820
g62
(dp1821
sg71
g1815
sg64
(lp1822
g57
(g58
g59
NtRp1823
(dp1824
g62
(dp1825
g70
I3
ssg71
g1819
sg64
(lp1826
S'2'
asbasbasbag57
(g73
g59
NtRp1827
(dp1828
g62
(dp1829
sg71
g1811
sg64
(lp1830
g57
(g78
g59
NtRp1831
(dp1832
g62
(dp1833
sg71
g1827
sg64
(lp1834
g57
(g58
g59
NtRp1835
(dp1836
g62
(dp1837
g70
I3
ssg71
g1831
sg64
(lp1838
S'3'
asbasbasbag57
(g73
g59
NtRp1839
(dp1840
g62
(dp1841
sg71
g1811
sg64
(lp1842
g57
(g78
g59
NtRp1843
(dp1844
g62
(dp1845
sg71
g1839
sg64
(lp1846
g57
(g58
g59
NtRp1847
(dp1848
g62
(dp1849
g70
I3
ssg71
g1843
sg64
(lp1850
S'2'
asbasbasbag57
(g73
g59
NtRp1851
(dp1852
g62
(dp1853
sg71
g1811
sg64
(lp1854
g57
(g78
g59
NtRp1855
(dp1856
g62
(dp1857
sg71
g1851
sg64
(lp1858
g57
(g58
g59
NtRp1859
(dp1860
g62
(dp1861
g70
I3
ssg71
g1855
sg64
(lp1862
S'datetime.datetime(2012, 12, 17, 15, 3, 30)'
p1863
asbasbasbag57
(g73
g59
NtRp1864
(dp1865
g62
(dp1866
sg71
g1811
sg64
(lp1867
g57
(g78
g59
NtRp1868
(dp1869
g62
(dp1870
sg71
g1864
sg64
(lp1871
g57
(g58
g59
NtRp1872
(dp1873
g62
(dp1874
g70
I3
ssg71
g1868
sg64
(lp1875
S'stable'
p1876
asbasbasbasbasbasbasbag57
(g73
g59
NtRp1877
(dp1878
g62
(dp1879
sg71
g1033
sg64
(lp1880
g57
(g78
g59
NtRp1881
(dp1882
g62
(dp1883
g82
g83
ssg71
g1877
sg64
(lp1884
S'wsgi_errors'
p1885
asbag57
(g78
g59
NtRp1886
(dp1887
g62
(dp1888
g89
g90
ssg71
g1877
sg64
(lp1889
S':'
asbag57
(g78
g59
NtRp1890
(dp1891
g62
(dp1892
sg71
g1877
sg64
(lp1893
g57
(g58
g59
NtRp1894
(dp1895
g62
(dp1896
g70
I4
ssg71
g1890
sg64
(lp1897
S"<open file '<stderr>', mode 'w' at 0x7f8fa085a270>"
p1898
asbasbasbag57
(g73
g59
NtRp1899
(dp1900
g62
(dp1901
sg71
g1033
sg64
(lp1902
g57
(g78
g59
NtRp1903
(dp1904
g62
(dp1905
g82
g83
ssg71
g1899
sg64
(lp1906
S'wsgi_file_wrapper'
p1907
asbag57
(g78
g59
NtRp1908
(dp1909
g62
(dp1910
g89
g90
ssg71
g1899
sg64
(lp1911
S':'
asbag57
(g78
g59
NtRp1912
(dp1913
g62
(dp1914
sg71
g1899
sg64
(lp1915
g57
(g58
g59
NtRp1916
(dp1917
g62
(dp1918
g70
I4
ssg71
g1912
sg64
(lp1919
S'<class wsgiref.util.FileWrapper at 0x2964e20>'
p1920
asbasbasbag57
(g73
g59
NtRp1921
(dp1922
g62
(dp1923
sg71
g1033
sg64
(lp1924
g57
(g78
g59
NtRp1925
(dp1926
g62
(dp1927
g82
g83
ssg71
g1921
sg64
(lp1928
S'wsgi_input'
p1929
asbag57
(g78
g59
NtRp1930
(dp1931
g62
(dp1932
g89
g90
ssg71
g1921
sg64
(lp1933
S':'
asbag57
(g78
g59
NtRp1934
(dp1935
g62
(dp1936
sg71
g1921
sg64
(lp1937
g57
(g58
g59
NtRp1938
(dp1939
g62
(dp1940
g70
I4
ssg71
g1934
sg64
(lp1941
S'<socket._fileobject object at 0x7f8f88365550>'
p1942
asbasbasbag57
(g73
g59
NtRp1943
(dp1944
g62
(dp1945
sg71
g1033
sg64
(lp1946
g57
(g78
g59
NtRp1947
(dp1948
g62
(dp1949
g82
g83
ssg71
g1943
sg64
(lp1950
S'wsgi_multiprocess'
p1951
asbag57
(g78
g59
NtRp1952
(dp1953
g62
(dp1954
g89
g90
ssg71
g1943
sg64
(lp1955
S':'
asbag57
(g78
g59
NtRp1956
(dp1957
g62
(dp1958
sg71
g1943
sg64
(lp1959
g57
(g58
g59
NtRp1960
(dp1961
g62
(dp1962
g70
I4
ssg71
g1956
sg64
(lp1963
g100
asbasbasbag57
(g73
g59
NtRp1964
(dp1965
g62
(dp1966
sg71
g1033
sg64
(lp1967
g57
(g78
g59
NtRp1968
(dp1969
g62
(dp1970
g82
g83
ssg71
g1964
sg64
(lp1971
S'wsgi_multithread'
p1972
asbag57
(g78
g59
NtRp1973
(dp1974
g62
(dp1975
g89
g90
ssg71
g1964
sg64
(lp1976
S':'
asbag57
(g78
g59
NtRp1977
(dp1978
g62
(dp1979
sg71
g1964
sg64
(lp1980
g57
(g58
g59
NtRp1981
(dp1982
g62
(dp1983
g70
I4
ssg71
g1977
sg64
(lp1984
S'True'
p1985
asbasbasbag57
(g73
g59
NtRp1986
(dp1987
g62
(dp1988
sg71
g1033
sg64
(lp1989
g57
(g78
g59
NtRp1990
(dp1991
g62
(dp1992
g82
g83
ssg71
g1986
sg64
(lp1993
S'wsgi_run_once'
p1994
asbag57
(g78
g59
NtRp1995
(dp1996
g62
(dp1997
g89
g90
ssg71
g1986
sg64
(lp1998
S':'
asbag57
(g78
g59
NtRp1999
(dp2000
g62
(dp2001
sg71
g1986
sg64
(lp2002
g57
(g58
g59
NtRp2003
(dp2004
g62
(dp2005
g70
I4
ssg71
g1999
sg64
(lp2006
g100
asbasbasbag57
(g73
g59
NtRp2007
(dp2008
g62
(dp2009
sg71
g1033
sg64
(lp2010
g57
(g78
g59
NtRp2011
(dp2012
g62
(dp2013
g82
g83
ssg71
g2007
sg64
(lp2014
S'wsgi_url_scheme'
p2015
asbag57
(g78
g59
NtRp2016
(dp2017
g62
(dp2018
g89
g90
ssg71
g2007
sg64
(lp2019
S':'
asbag57
(g78
g59
NtRp2020
(dp2021
g62
(dp2022
sg71
g2007
sg64
(lp2023
g57
(g58
g59
NtRp2024
(dp2025
g62
(dp2026
g70
I4
ssg71
g2020
sg64
(lp2027
S'http'
p2028
asbasbasbag57
(g73
g59
NtRp2029
(dp2030
g62
(dp2031
sg71
g1033
sg64
(lp2032
g57
(g78
g59
NtRp2033
(dp2034
g62
(dp2035
g82
g83
ssg71
g2029
sg64
(lp2036
S'wsgi_version'
p2037
asbag57
(g78
g59
NtRp2038
(dp2039
g62
(dp2040
g89
g90
ssg71
g2029
sg64
(lp2041
S':'
asbag57
(g78
g59
NtRp2042
(dp2043
g62
(dp2044
sg71
g2029
sg64
(lp2045
g57
(g58
g59
NtRp2046
(dp2047
g62
(dp2048
g70
I4
ssg71
g2042
sg64
(lp2049
g57
(g66
g59
NtRp2050
(dp2051
g62
(dp2052
g70
I3
ssg71
Nsg64
(lp2053
g57
(g73
g59
NtRp2054
(dp2055
g62
(dp2056
sg71
g2050
sg64
(lp2057
g57
(g78
g59
NtRp2058
(dp2059
g62
(dp2060
sg71
g2054
sg64
(lp2061
g57
(g58
g59
NtRp2062
(dp2063
g62
(dp2064
g70
I3
ssg71
g2058
sg64
(lp2065
S'1'
asbasbasbag57
(g73
g59
NtRp2066
(dp2067
g62
(dp2068
sg71
g2050
sg64
(lp2069
g57
(g78
g59
NtRp2070
(dp2071
g62
(dp2072
sg71
g2066
sg64
(lp2073
g57
(g58
g59
NtRp2074
(dp2075
g62
(dp2076
g70
I3
ssg71
g2070
sg64
(lp2077
S'0'
asbasbasbasbasbasbasbasbasbasbasbag57
(g73
g59
NtRp2078
(dp2079
g62
(dp2080
sg71
g67
sg64
(lp2081
g57
(g78
g59
NtRp2082
(dp2083
g62
(dp2084
g82
g83
ssg71
g2078
sg64
(lp2085
S'extension'
p2086
asbag57
(g78
g59
NtRp2087
(dp2088
g62
(dp2089
g89
g90
ssg71
g2078
sg64
(lp2090
S':'
asbag57
(g78
g59
NtRp2091
(dp2092
g62
(dp2093
sg71
g2078
sg64
(lp2094
g57
(g58
g59
NtRp2095
(dp2096
g62
(dp2097
g70
I5
ssg71
g2091
sg64
(lp2098
S'html'
p2099
asbasbasbag57
(g73
g59
NtRp2100
(dp2101
g62
(dp2102
sg71
g67
sg64
(lp2103
g57
(g78
g59
NtRp2104
(dp2105
g62
(dp2106
g82
g83
ssg71
g2100
sg64
(lp2107
S'folder'
p2108
asbag57
(g78
g59
NtRp2109
(dp2110
g62
(dp2111
g89
g90
ssg71
g2100
sg64
(lp2112
S':'
asbag57
(g78
g59
NtRp2113
(dp2114
g62
(dp2115
sg71
g2100
sg64
(lp2116
g57
(g58
g59
NtRp2117
(dp2118
g62
(dp2119
g70
I5
ssg71
g2113
sg64
(lp2120
S'/home/shipra/Desktop/Semester 1.2/ITWS-2/web2py/applications/Assignment_2/'
p2121
asbasbasbag57
(g73
g59
NtRp2122
(dp2123
g62
(dp2124
sg71
g67
sg64
(lp2125
g57
(g78
g59
NtRp2126
(dp2127
g62
(dp2128
g82
g83
ssg71
g2122
sg64
(lp2129
S'function'
p2130
asbag57
(g78
g59
NtRp2131
(dp2132
g62
(dp2133
g89
g90
ssg71
g2122
sg64
(lp2134
S':'
asbag57
(g78
g59
NtRp2135
(dp2136
g62
(dp2137
sg71
g2122
sg64
(lp2138
g57
(g58
g59
NtRp2139
(dp2140
g62
(dp2141
g70
I5
ssg71
g2135
sg64
(lp2142
S'display'
p2143
asbasbasbag57
(g73
g59
NtRp2144
(dp2145
g62
(dp2146
sg71
g67
sg64
(lp2147
g57
(g78
g59
NtRp2148
(dp2149
g62
(dp2150
g82
g83
ssg71
g2144
sg64
(lp2151
S'get_vars'
p2152
asbag57
(g78
g59
NtRp2153
(dp2154
g62
(dp2155
g89
g90
ssg71
g2144
sg64
(lp2156
S':'
asbag57
(g78
g59
NtRp2157
(dp2158
g62
(dp2159
sg71
g2144
sg64
(lp2160
g57
(g58
g59
NtRp2161
(dp2162
g62
(dp2163
g70
I5
ssg71
g2157
sg64
(lp2164
g57
(g66
g59
NtRp2165
(dp2166
g62
(dp2167
g70
I4
ssg71
Nsg64
(lp2168
sbasbasbasbag57
(g73
g59
NtRp2169
(dp2170
g62
(dp2171
sg71
g67
sg64
(lp2172
g57
(g78
g59
NtRp2173
(dp2174
g62
(dp2175
g82
g83
ssg71
g2169
sg64
(lp2176
S'global_settings'
p2177
asbag57
(g78
g59
NtRp2178
(dp2179
g62
(dp2180
g89
g90
ssg71
g2169
sg64
(lp2181
S':'
asbag57
(g78
g59
NtRp2182
(dp2183
g62
(dp2184
sg71
g2169
sg64
(lp2185
g57
(g58
g59
NtRp2186
(dp2187
g62
(dp2188
g70
I5
ssg71
g2182
sg64
(lp2189
g57
(g66
g59
NtRp2190
(dp2191
g62
(dp2192
g70
I4
ssg71
Nsg64
(lp2193
g57
(g73
g59
NtRp2194
(dp2195
g62
(dp2196
sg71
g2190
sg64
(lp2197
g57
(g78
g59
NtRp2198
(dp2199
g62
(dp2200
g82
g83
ssg71
g2194
sg64
(lp2201
g1045
asbag57
(g78
g59
NtRp2202
(dp2203
g62
(dp2204
g89
g90
ssg71
g2194
sg64
(lp2205
S':'
asbag57
(g78
g59
NtRp2206
(dp2207
g62
(dp2208
sg71
g2194
sg64
(lp2209
g57
(g58
g59
NtRp2210
(dp2211
g62
(dp2212
g70
I4
ssg71
g2206
sg64
(lp2213
S"set(['/home/shipra/Desktop/Semester 1.2/ITWS-2/web2py/applications/Assignment_2/', '/home/shipra/Desktop/Semester 1.2/ITWS-2/web2py/applications/welcome/', '/home/shipra/Desktop/Semester 1.2/ITWS-2/web2py/applications/admin/'])"
p2214
asbasbasbag57
(g73
g59
NtRp2215
(dp2216
g62
(dp2217
sg71
g2190
sg64
(lp2218
g57
(g78
g59
NtRp2219
(dp2220
g62
(dp2221
g82
g83
ssg71
g2215
sg64
(lp2222
g1067
asbag57
(g78
g59
NtRp2223
(dp2224
g62
(dp2225
g89
g90
ssg71
g2215
sg64
(lp2226
S':'
asbag57
(g78
g59
NtRp2227
(dp2228
g62
(dp2229
sg71
g2215
sg64
(lp2230
g57
(g58
g59
NtRp2231
(dp2232
g62
(dp2233
g70
I4
ssg71
g2227
sg64
(lp2234
g1080
asbasbasbag57
(g73
g59
NtRp2235
(dp2236
g62
(dp2237
sg71
g2190
sg64
(lp2238
g57
(g78
g59
NtRp2239
(dp2240
g62
(dp2241
g82
g83
ssg71
g2235
sg64
(lp2242
g1089
asbag57
(g78
g59
NtRp2243
(dp2244
g62
(dp2245
g89
g90
ssg71
g2235
sg64
(lp2246
S':'
asbag57
(g78
g59
NtRp2247
(dp2248
g62
(dp2249
sg71
g2235
sg64
(lp2250
g57
(g58
g59
NtRp2251
(dp2252
g62
(dp2253
g70
I4
ssg71
g2247
sg64
(lp2254
g57
(g66
g59
NtRp2255
(dp2256
g62
(dp2257
g70
I3
ssg71
Nsg64
(lp2258
sbasbasbasbag57
(g73
g59
NtRp2259
(dp2260
g62
(dp2261
sg71
g2190
sg64
(lp2262
g57
(g78
g59
NtRp2263
(dp2264
g62
(dp2265
g82
g83
ssg71
g2259
sg64
(lp2266
g1114
asbag57
(g78
g59
NtRp2267
(dp2268
g62
(dp2269
g89
g90
ssg71
g2259
sg64
(lp2270
S':'
asbag57
(g78
g59
NtRp2271
(dp2272
g62
(dp2273
sg71
g2259
sg64
(lp2274
g57
(g58
g59
NtRp2275
(dp2276
g62
(dp2277
g70
I4
ssg71
g2271
sg64
(lp2278
S"<Values at 0x29db290: {'verbose': False, 'ip': '127.0.0.1', 'with_scheduler': False, 'ips': ['10.1.129.70', '192.168.122.1', '10.42.0.99', 'fe80::8a53:2eff:fe7d:9d6c%wlan0', 'fe80::e611:5bff:fe38:8d0d%p5p1'], 'shutdown_timeout': 5, 'taskbar': False, 'port': 8000, 'maxthreads': None, 'softcron': False, 'server_name': 'shipra', 'bpython': False, 'nogui': False, 'pid_filename': 'httpserver.pid', 'extcron': False, 'runcron': False, 'run_system_tests': False, 'test': None, 'folder': '/home/shipra/Desktop/Semester 1.2/ITWS-2/web2py', 'config': '', 'minthreads': None, 'winservice': '', 'shell': None, 'run': '', 'log_filename': 'httpserver.log', 'debuglevel': 30, 'args': [''], 'socket_timeout': 5, 'ssl_ca_certificate': None, 'scheduler': None, 'profiler_filename': None, 'ssl_private_key': '', 'scheduler_groups': None, 'password': '<ask>', 'request_queue_size': 5, 'ssl_certificate': '', 'cronjob': False, 'numthreads': None, 'quiet': False, 'interfaces': None, 'import_models': False, 'timeout': 10, 'plain': False, 'nobanner': False}>"
p2279
asbasbasbag57
(g73
g59
NtRp2280
(dp2281
g62
(dp2282
sg71
g2190
sg64
(lp2283
g57
(g78
g59
NtRp2284
(dp2285
g62
(dp2286
g82
g83
ssg71
g2280
sg64
(lp2287
g1136
asbag57
(g78
g59
NtRp2288
(dp2289
g62
(dp2290
g89
g90
ssg71
g2280
sg64
(lp2291
S':'
asbag57
(g78
g59
NtRp2292
(dp2293
g62
(dp2294
sg71
g2280
sg64
(lp2295
g57
(g58
g59
NtRp2296
(dp2297
g62
(dp2298
g70
I4
ssg71
g2292
sg64
(lp2299
S'set([])'
p2300
asbasbasbag57
(g73
g59
NtRp2301
(dp2302
g62
(dp2303
sg71
g2190
sg64
(lp2304
g57
(g78
g59
NtRp2305
(dp2306
g62
(dp2307
g82
g83
ssg71
g2301
sg64
(lp2308
g1158
asbag57
(g78
g59
NtRp2309
(dp2310
g62
(dp2311
g89
g90
ssg71
g2301
sg64
(lp2312
S':'
asbag57
(g78
g59
NtRp2313
(dp2314
g62
(dp2315
sg71
g2301
sg64
(lp2316
g57
(g58
g59
NtRp2317
(dp2318
g62
(dp2319
g70
I4
ssg71
g2313
sg64
(lp2320
g100
asbasbasbag57
(g73
g59
NtRp2321
(dp2322
g62
(dp2323
sg71
g2190
sg64
(lp2324
g57
(g78
g59
NtRp2325
(dp2326
g62
(dp2327
g82
g83
ssg71
g2321
sg64
(lp2328
g1179
asbag57
(g78
g59
NtRp2329
(dp2330
g62
(dp2331
g89
g90
ssg71
g2321
sg64
(lp2332
S':'
asbag57
(g78
g59
NtRp2333
(dp2334
g62
(dp2335
sg71
g2321
sg64
(lp2336
g57
(g58
g59
NtRp2337
(dp2338
g62
(dp2339
g70
I4
ssg71
g2333
sg64
(lp2340
g1192
asbasbasbag57
(g73
g59
NtRp2341
(dp2342
g62
(dp2343
sg71
g2190
sg64
(lp2344
g57
(g78
g59
NtRp2345
(dp2346
g62
(dp2347
g82
g83
ssg71
g2341
sg64
(lp2348
g1355
asbag57
(g78
g59
NtRp2349
(dp2350
g62
(dp2351
g89
g90
ssg71
g2341
sg64
(lp2352
S':'
asbag57
(g78
g59
NtRp2353
(dp2354
g62
(dp2355
sg71
g2341
sg64
(lp2356
g57
(g58
g59
NtRp2357
(dp2358
g62
(dp2359
g70
I4
ssg71
g2353
sg64
(lp2360
g100
asbasbasbag57
(g73
g59
NtRp2361
(dp2362
g62
(dp2363
sg71
g2190
sg64
(lp2364
g57
(g78
g59
NtRp2365
(dp2366
g62
(dp2367
g82
g83
ssg71
g2361
sg64
(lp2368
g1376
asbag57
(g78
g59
NtRp2369
(dp2370
g62
(dp2371
g89
g90
ssg71
g2361
sg64
(lp2372
S':'
asbag57
(g78
g59
NtRp2373
(dp2374
g62
(dp2375
sg71
g2361
sg64
(lp2376
g57
(g58
g59
NtRp2377
(dp2378
g62
(dp2379
g70
I4
ssg71
g2373
sg64
(lp2380
g100
asbasbasbag57
(g73
g59
NtRp2381
(dp2382
g62
(dp2383
sg71
g2190
sg64
(lp2384
g57
(g78
g59
NtRp2385
(dp2386
g62
(dp2387
g82
g83
ssg71
g2381
sg64
(lp2388
g1397
asbag57
(g78
g59
NtRp2389
(dp2390
g62
(dp2391
g89
g90
ssg71
g2381
sg64
(lp2392
S':'
asbag57
(g78
g59
NtRp2393
(dp2394
g62
(dp2395
sg71
g2381
sg64
(lp2396
g57
(g58
g59
NtRp2397
(dp2398
g62
(dp2399
g70
I4
ssg71
g2393
sg64
(lp2400
g57
(g66
g59
NtRp2401
(dp2402
g62
(dp2403
g70
I3
ssg71
Nsg64
(lp2404
g57
(g73
g59
NtRp2405
(dp2406
g62
(dp2407
sg71
g2401
sg64
(lp2408
g57
(g78
g59
NtRp2409
(dp2410
g62
(dp2411
sg71
g2405
sg64
(lp2412
g57
(g58
g59
NtRp2413
(dp2414
g62
(dp2415
g70
I3
ssg71
g2409
sg64
(lp2416
g1426
asbasbasbag57
(g73
g59
NtRp2417
(dp2418
g62
(dp2419
sg71
g2401
sg64
(lp2420
g57
(g78
g59
NtRp2421
(dp2422
g62
(dp2423
sg71
g2417
sg64
(lp2424
g57
(g58
g59
NtRp2425
(dp2426
g62
(dp2427
g70
I3
ssg71
g2421
sg64
(lp2428
g1439
asbasbasbag57
(g73
g59
NtRp2429
(dp2430
g62
(dp2431
sg71
g2401
sg64
(lp2432
g57
(g78
g59
NtRp2433
(dp2434
g62
(dp2435
sg71
g2429
sg64
(lp2436
g57
(g58
g59
NtRp2437
(dp2438
g62
(dp2439
g70
I3
ssg71
g2433
sg64
(lp2440
g1452
asbasbasbag57
(g73
g59
NtRp2441
(dp2442
g62
(dp2443
sg71
g2401
sg64
(lp2444
g57
(g78
g59
NtRp2445
(dp2446
g62
(dp2447
sg71
g2441
sg64
(lp2448
g57
(g58
g59
NtRp2449
(dp2450
g62
(dp2451
g70
I3
ssg71
g2445
sg64
(lp2452
g1465
asbasbasbag57
(g73
g59
NtRp2453
(dp2454
g62
(dp2455
sg71
g2401
sg64
(lp2456
g57
(g78
g59
NtRp2457
(dp2458
g62
(dp2459
sg71
g2453
sg64
(lp2460
g57
(g58
g59
NtRp2461
(dp2462
g62
(dp2463
g70
I3
ssg71
g2457
sg64
(lp2464
g1478
asbasbasbag57
(g73
g59
NtRp2465
(dp2466
g62
(dp2467
sg71
g2401
sg64
(lp2468
g57
(g78
g59
NtRp2469
(dp2470
g62
(dp2471
sg71
g2465
sg64
(lp2472
g57
(g58
g59
NtRp2473
(dp2474
g62
(dp2475
g70
I3
ssg71
g2469
sg64
(lp2476
g1491
asbasbasbag57
(g73
g59
NtRp2477
(dp2478
g62
(dp2479
sg71
g2401
sg64
(lp2480
g57
(g78
g59
NtRp2481
(dp2482
g62
(dp2483
sg71
g2477
sg64
(lp2484
g57
(g58
g59
NtRp2485
(dp2486
g62
(dp2487
g70
I3
ssg71
g2481
sg64
(lp2488
g1504
asbasbasbag57
(g73
g59
NtRp2489
(dp2490
g62
(dp2491
sg71
g2401
sg64
(lp2492
g57
(g78
g59
NtRp2493
(dp2494
g62
(dp2495
sg71
g2489
sg64
(lp2496
g57
(g58
g59
NtRp2497
(dp2498
g62
(dp2499
g70
I3
ssg71
g2493
sg64
(lp2500
g1517
asbasbasbag57
(g73
g59
NtRp2501
(dp2502
g62
(dp2503
sg71
g2401
sg64
(lp2504
g57
(g78
g59
NtRp2505
(dp2506
g62
(dp2507
sg71
g2501
sg64
(lp2508
g57
(g58
g59
NtRp2509
(dp2510
g62
(dp2511
g70
I3
ssg71
g2505
sg64
(lp2512
g1530
asbasbasbasbasbasbasbag57
(g73
g59
NtRp2513
(dp2514
g62
(dp2515
sg71
g2190
sg64
(lp2516
g57
(g78
g59
NtRp2517
(dp2518
g62
(dp2519
g82
g83
ssg71
g2513
sg64
(lp2520
g1798
asbag57
(g78
g59
NtRp2521
(dp2522
g62
(dp2523
g89
g90
ssg71
g2513
sg64
(lp2524
S':'
asbag57
(g78
g59
NtRp2525
(dp2526
g62
(dp2527
sg71
g2513
sg64
(lp2528
g57
(g58
g59
NtRp2529
(dp2530
g62
(dp2531
g70
I4
ssg71
g2525
sg64
(lp2532
g57
(g66
g59
NtRp2533
(dp2534
g62
(dp2535
g70
I3
ssg71
Nsg64
(lp2536
g57
(g73
g59
NtRp2537
(dp2538
g62
(dp2539
sg71
g2533
sg64
(lp2540
g57
(g78
g59
NtRp2541
(dp2542
g62
(dp2543
sg71
g2537
sg64
(lp2544
g57
(g58
g59
NtRp2545
(dp2546
g62
(dp2547
g70
I3
ssg71
g2541
sg64
(lp2548
S'2'
asbasbasbag57
(g73
g59
NtRp2549
(dp2550
g62
(dp2551
sg71
g2533
sg64
(lp2552
g57
(g78
g59
NtRp2553
(dp2554
g62
(dp2555
sg71
g2549
sg64
(lp2556
g57
(g58
g59
NtRp2557
(dp2558
g62
(dp2559
g70
I3
ssg71
g2553
sg64
(lp2560
S'3'
asbasbasbag57
(g73
g59
NtRp2561
(dp2562
g62
(dp2563
sg71
g2533
sg64
(lp2564
g57
(g78
g59
NtRp2565
(dp2566
g62
(dp2567
sg71
g2561
sg64
(lp2568
g57
(g58
g59
NtRp2569
(dp2570
g62
(dp2571
g70
I3
ssg71
g2565
sg64
(lp2572
S'2'
asbasbasbag57
(g73
g59
NtRp2573
(dp2574
g62
(dp2575
sg71
g2533
sg64
(lp2576
g57
(g78
g59
NtRp2577
(dp2578
g62
(dp2579
sg71
g2573
sg64
(lp2580
g57
(g58
g59
NtRp2581
(dp2582
g62
(dp2583
g70
I3
ssg71
g2577
sg64
(lp2584
S'datetime.datetime(2012, 12, 17, 15, 3, 30)'
p2585
asbasbasbag57
(g73
g59
NtRp2586
(dp2587
g62
(dp2588
sg71
g2533
sg64
(lp2589
g57
(g78
g59
NtRp2590
(dp2591
g62
(dp2592
sg71
g2586
sg64
(lp2593
g57
(g58
g59
NtRp2594
(dp2595
g62
(dp2596
g70
I3
ssg71
g2590
sg64
(lp2597
g1876
asbasbasbasbasbasbasbasbasbasbasbag57
(g73
g59
NtRp2598
(dp2599
g62
(dp2600
sg71
g67
sg64
(lp2601
g57
(g78
g59
NtRp2602
(dp2603
g62
(dp2604
g82
g83
ssg71
g2598
sg64
(lp2605
S'is_https'
p2606
asbag57
(g78
g59
NtRp2607
(dp2608
g62
(dp2609
g89
g90
ssg71
g2598
sg64
(lp2610
S':'
asbag57
(g78
g59
NtRp2611
(dp2612
g62
(dp2613
sg71
g2598
sg64
(lp2614
g57
(g58
g59
NtRp2615
(dp2616
g62
(dp2617
g70
I5
ssg71
g2611
sg64
(lp2618
g100
asbasbasbag57
(g73
g59
NtRp2619
(dp2620
g62
(dp2621
sg71
g67
sg64
(lp2622
g57
(g78
g59
NtRp2623
(dp2624
g62
(dp2625
g82
g83
ssg71
g2619
sg64
(lp2626
S'is_local'
p2627
asbag57
(g78
g59
NtRp2628
(dp2629
g62
(dp2630
g89
g90
ssg71
g2619
sg64
(lp2631
S':'
asbag57
(g78
g59
NtRp2632
(dp2633
g62
(dp2634
sg71
g2619
sg64
(lp2635
g57
(g58
g59
NtRp2636
(dp2637
g62
(dp2638
g70
I5
ssg71
g2632
sg64
(lp2639
g1985
asbasbasbag57
(g73
g59
NtRp2640
(dp2641
g62
(dp2642
sg71
g67
sg64
(lp2643
g57
(g78
g59
NtRp2644
(dp2645
g62
(dp2646
g82
g83
ssg71
g2640
sg64
(lp2647
S'is_restful'
p2648
asbag57
(g78
g59
NtRp2649
(dp2650
g62
(dp2651
g89
g90
ssg71
g2640
sg64
(lp2652
S':'
asbag57
(g78
g59
NtRp2653
(dp2654
g62
(dp2655
sg71
g2640
sg64
(lp2656
g57
(g58
g59
NtRp2657
(dp2658
g62
(dp2659
g70
I5
ssg71
g2653
sg64
(lp2660
g100
asbasbasbag57
(g73
g59
NtRp2661
(dp2662
g62
(dp2663
sg71
g67
sg64
(lp2664
g57
(g78
g59
NtRp2665
(dp2666
g62
(dp2667
g82
g83
ssg71
g2661
sg64
(lp2668
S'now'
p2669
asbag57
(g78
g59
NtRp2670
(dp2671
g62
(dp2672
g89
g90
ssg71
g2661
sg64
(lp2673
S':'
asbag57
(g78
g59
NtRp2674
(dp2675
g62
(dp2676
sg71
g2661
sg64
(lp2677
g57
(g58
g59
NtRp2678
(dp2679
g62
(dp2680
g70
I5
ssg71
g2674
sg64
(lp2681
S'datetime.datetime(2013, 8, 26, 19, 41, 46, 905551)'
p2682
asbasbasbag57
(g73
g59
NtRp2683
(dp2684
g62
(dp2685
sg71
g67
sg64
(lp2686
g57
(g78
g59
NtRp2687
(dp2688
g62
(dp2689
g82
g83
ssg71
g2683
sg64
(lp2690
S'post_vars'
p2691
asbag57
(g78
g59
NtRp2692
(dp2693
g62
(dp2694
g89
g90
ssg71
g2683
sg64
(lp2695
S':'
asbag57
(g78
g59
NtRp2696
(dp2697
g62
(dp2698
sg71
g2683
sg64
(lp2699
g57
(g58
g59
NtRp2700
(dp2701
g62
(dp2702
g70
I5
ssg71
g2696
sg64
(lp2703
g57
(g66
g59
NtRp2704
(dp2705
g62
(dp2706
g70
I4
ssg71
Nsg64
(lp2707
sbasbasbasbag57
(g73
g59
NtRp2708
(dp2709
g62
(dp2710
sg71
g67
sg64
(lp2711
g57
(g78
g59
NtRp2712
(dp2713
g62
(dp2714
g82
g83
ssg71
g2708
sg64
(lp2715
S'raw_args'
p2716
asbag57
(g78
g59
NtRp2717
(dp2718
g62
(dp2719
g89
g90
ssg71
g2708
sg64
(lp2720
S':'
asbag57
(g78
g59
NtRp2721
(dp2722
g62
(dp2723
sg71
g2708
sg64
(lp2724
g57
(g58
g59
NtRp2725
(dp2726
g62
(dp2727
g70
I5
ssg71
g2721
sg64
(lp2728
S''
asbasbasbag57
(g73
g59
NtRp2729
(dp2730
g62
(dp2731
sg71
g67
sg64
(lp2732
g57
(g78
g59
NtRp2733
(dp2734
g62
(dp2735
g82
g83
ssg71
g2729
sg64
(lp2736
S'raw_extension'
p2737
asbag57
(g78
g59
NtRp2738
(dp2739
g62
(dp2740
g89
g90
ssg71
g2729
sg64
(lp2741
S':'
asbag57
(g78
g59
NtRp2742
(dp2743
g62
(dp2744
sg71
g2729
sg64
(lp2745
g57
(g58
g59
NtRp2746
(dp2747
g62
(dp2748
g70
I5
ssg71
g2742
sg64
(lp2749
S'None'
p2750
asbasbasbag57
(g73
g59
NtRp2751
(dp2752
g62
(dp2753
sg71
g67
sg64
(lp2754
g57
(g78
g59
NtRp2755
(dp2756
g62
(dp2757
g82
g83
ssg71
g2751
sg64
(lp2758
S'url'
p2759
asbag57
(g78
g59
NtRp2760
(dp2761
g62
(dp2762
g89
g90
ssg71
g2751
sg64
(lp2763
S':'
asbag57
(g78
g59
NtRp2764
(dp2765
g62
(dp2766
sg71
g2751
sg64
(lp2767
g57
(g58
g59
NtRp2768
(dp2769
g62
(dp2770
g70
I5
ssg71
g2764
sg64
(lp2771
g1552
asbasbasbag57
(g73
g59
NtRp2772
(dp2773
g62
(dp2774
sg71
g67
sg64
(lp2775
g57
(g78
g59
NtRp2776
(dp2777
g62
(dp2778
g82
g83
ssg71
g2772
sg64
(lp2779
S'utcnow'
p2780
asbag57
(g78
g59
NtRp2781
(dp2782
g62
(dp2783
g89
g90
ssg71
g2772
sg64
(lp2784
S':'
asbag57
(g78
g59
NtRp2785
(dp2786
g62
(dp2787
sg71
g2772
sg64
(lp2788
g57
(g58
g59
NtRp2789
(dp2790
g62
(dp2791
g70
I5
ssg71
g2785
sg64
(lp2792
S'datetime.datetime(2013, 8, 26, 14, 11, 46, 905611)'
p2793
asbasbasbag57
(g73
g59
NtRp2794
(dp2795
g62
(dp2796
sg71
g67
sg64
(lp2797
g57
(g78
g59
NtRp2798
(dp2799
g62
(dp2800
g82
g83
ssg71
g2794
sg64
(lp2801
S'uuid'
p2802
asbag57
(g78
g59
NtRp2803
(dp2804
g62
(dp2805
g89
g90
ssg71
g2794
sg64
(lp2806
S':'
asbag57
(g78
g59
NtRp2807
(dp2808
g62
(dp2809
sg71
g2794
sg64
(lp2810
g57
(g58
g59
NtRp2811
(dp2812
g62
(dp2813
g70
I5
ssg71
g2807
sg64
(lp2814
S'Assignment_2/127.0.0.1.2013-08-26.19-41-46.868aea5c-04ab-4381-afe4-6b371799852f'
p2815
asbasbasbag57
(g73
g59
NtRp2816
(dp2817
g62
(dp2818
sg71
g67
sg64
(lp2819
g57
(g78
g59
NtRp2820
(dp2821
g62
(dp2822
g82
g83
ssg71
g2816
sg64
(lp2823
S'vars'
p2824
asbag57
(g78
g59
NtRp2825
(dp2826
g62
(dp2827
g89
g90
ssg71
g2816
sg64
(lp2828
S':'
asbag57
(g78
g59
NtRp2829
(dp2830
g62
(dp2831
sg71
g2816
sg64
(lp2832
g57
(g58
g59
NtRp2833
(dp2834
g62
(dp2835
g70
I5
ssg71
g2829
sg64
(lp2836
g57
(g66
g59
NtRp2837
(dp2838
g62
(dp2839
g70
I4
ssg71
Nsg64
(lp2840
sbasbasbasbag57
(g73
g59
NtRp2841
(dp2842
g62
(dp2843
sg71
g67
sg64
(lp2844
g57
(g78
g59
NtRp2845
(dp2846
g62
(dp2847
g82
g83
ssg71
g2841
sg64
(lp2848
S'wsgi'
p2849
asbag57
(g78
g59
NtRp2850
(dp2851
g62
(dp2852
g89
g90
ssg71
g2841
sg64
(lp2853
S':'
asbag57
(g78
g59
NtRp2854
(dp2855
g62
(dp2856
sg71
g2841
sg64
(lp2857
g57
(g58
g59
NtRp2858
(dp2859
g62
(dp2860
g70
I5
ssg71
g2854
sg64
(lp2861
g57
(g66
g59
NtRp2862
(dp2863
g62
(dp2864
g70
I4
ssg71
Nsg64
(lp2865
g57
(g73
g59
NtRp2866
(dp2867
g62
(dp2868
sg71
g2862
sg64
(lp2869
g57
(g78
g59
NtRp2870
(dp2871
g62
(dp2872
g82
g83
ssg71
g2866
sg64
(lp2873
S'environ'
p2874
asbag57
(g78
g59
NtRp2875
(dp2876
g62
(dp2877
g89
g90
ssg71
g2866
sg64
(lp2878
S':'
asbag57
(g78
g59
NtRp2879
(dp2880
g62
(dp2881
sg71
g2866
sg64
(lp2882
g57
(g58
g59
NtRp2883
(dp2884
g62
(dp2885
g70
I4
ssg71
g2879
sg64
(lp2886
g57
(g66
g59
NtRp2887
(dp2888
g62
(dp2889
g70
I3
ssg71
Nsg64
(lp2890
g57
(g73
g59
NtRp2891
(dp2892
g62
(dp2893
sg71
g2887
sg64
(lp2894
g57
(g78
g59
NtRp2895
(dp2896
g62
(dp2897
g82
g83
ssg71
g2891
sg64
(lp2898
S'HTTP_ACCEPT'
p2899
asbag57
(g78
g59
NtRp2900
(dp2901
g62
(dp2902
g89
g90
ssg71
g2891
sg64
(lp2903
S':'
asbag57
(g78
g59
NtRp2904
(dp2905
g62
(dp2906
sg71
g2891
sg64
(lp2907
g57
(g58
g59
NtRp2908
(dp2909
g62
(dp2910
g70
I3
ssg71
g2904
sg64
(lp2911
g1214
asbasbasbag57
(g73
g59
NtRp2912
(dp2913
g62
(dp2914
sg71
g2887
sg64
(lp2915
g57
(g78
g59
NtRp2916
(dp2917
g62
(dp2918
g82
g83
ssg71
g2912
sg64
(lp2919
S'HTTP_ACCEPT_ENCODING'
p2920
asbag57
(g78
g59
NtRp2921
(dp2922
g62
(dp2923
g89
g90
ssg71
g2912
sg64
(lp2924
S':'
asbag57
(g78
g59
NtRp2925
(dp2926
g62
(dp2927
sg71
g2912
sg64
(lp2928
g57
(g58
g59
NtRp2929
(dp2930
g62
(dp2931
g70
I3
ssg71
g2925
sg64
(lp2932
g1236
asbasbasbag57
(g73
g59
NtRp2933
(dp2934
g62
(dp2935
sg71
g2887
sg64
(lp2936
g57
(g78
g59
NtRp2937
(dp2938
g62
(dp2939
g82
g83
ssg71
g2933
sg64
(lp2940
S'HTTP_ACCEPT_LANGUAGE'
p2941
asbag57
(g78
g59
NtRp2942
(dp2943
g62
(dp2944
g89
g90
ssg71
g2933
sg64
(lp2945
S':'
asbag57
(g78
g59
NtRp2946
(dp2947
g62
(dp2948
sg71
g2933
sg64
(lp2949
g57
(g58
g59
NtRp2950
(dp2951
g62
(dp2952
g70
I3
ssg71
g2946
sg64
(lp2953
g1258
asbasbasbag57
(g73
g59
NtRp2954
(dp2955
g62
(dp2956
sg71
g2887
sg64
(lp2957
g57
(g78
g59
NtRp2958
(dp2959
g62
(dp2960
g82
g83
ssg71
g2954
sg64
(lp2961
S'HTTP_CONNECTION'
p2962
asbag57
(g78
g59
NtRp2963
(dp2964
g62
(dp2965
g89
g90
ssg71
g2954
sg64
(lp2966
S':'
asbag57
(g78
g59
NtRp2967
(dp2968
g62
(dp2969
sg71
g2954
sg64
(lp2970
g57
(g58
g59
NtRp2971
(dp2972
g62
(dp2973
g70
I3
ssg71
g2967
sg64
(lp2974
g1280
asbasbasbag57
(g73
g59
NtRp2975
(dp2976
g62
(dp2977
sg71
g2887
sg64
(lp2978
g57
(g78
g59
NtRp2979
(dp2980
g62
(dp2981
g82
g83
ssg71
g2975
sg64
(lp2982
S'HTTP_COOKIE'
p2983
asbag57
(g78
g59
NtRp2984
(dp2985
g62
(dp2986
g89
g90
ssg71
g2975
sg64
(lp2987
S':'
asbag57
(g78
g59
NtRp2988
(dp2989
g62
(dp2990
sg71
g2975
sg64
(lp2991
g57
(g58
g59
NtRp2992
(dp2993
g62
(dp2994
g70
I3
ssg71
g2988
sg64
(lp2995
g1302
asbasbasbag57
(g73
g59
NtRp2996
(dp2997
g62
(dp2998
sg71
g2887
sg64
(lp2999
g57
(g78
g59
NtRp3000
(dp3001
g62
(dp3002
g82
g83
ssg71
g2996
sg64
(lp3003
S'HTTP_HOST'
p3004
asbag57
(g78
g59
NtRp3005
(dp3006
g62
(dp3007
g89
g90
ssg71
g2996
sg64
(lp3008
S':'
asbag57
(g78
g59
NtRp3009
(dp3010
g62
(dp3011
sg71
g2996
sg64
(lp3012
g57
(g58
g59
NtRp3013
(dp3014
g62
(dp3015
g70
I3
ssg71
g3009
sg64
(lp3016
g1324
asbasbasbag57
(g73
g59
NtRp3017
(dp3018
g62
(dp3019
sg71
g2887
sg64
(lp3020
g57
(g78
g59
NtRp3021
(dp3022
g62
(dp3023
g82
g83
ssg71
g3017
sg64
(lp3024
S'HTTP_USER_AGENT'
p3025
asbag57
(g78
g59
NtRp3026
(dp3027
g62
(dp3028
g89
g90
ssg71
g3017
sg64
(lp3029
S':'
asbag57
(g78
g59
NtRp3030
(dp3031
g62
(dp3032
sg71
g3017
sg64
(lp3033
g57
(g58
g59
NtRp3034
(dp3035
g62
(dp3036
g70
I3
ssg71
g3030
sg64
(lp3037
g1346
asbasbasbag57
(g73
g59
NtRp3038
(dp3039
g62
(dp3040
sg71
g2887
sg64
(lp3041
g57
(g78
g59
NtRp3042
(dp3043
g62
(dp3044
g82
g83
ssg71
g3038
sg64
(lp3045
S'PATH_INFO'
p3046
asbag57
(g78
g59
NtRp3047
(dp3048
g62
(dp3049
g89
g90
ssg71
g3038
sg64
(lp3050
S':'
asbag57
(g78
g59
NtRp3051
(dp3052
g62
(dp3053
sg71
g3038
sg64
(lp3054
g57
(g58
g59
NtRp3055
(dp3056
g62
(dp3057
g70
I3
ssg71
g3051
sg64
(lp3058
g1552
asbasbasbag57
(g73
g59
NtRp3059
(dp3060
g62
(dp3061
sg71
g2887
sg64
(lp3062
g57
(g78
g59
NtRp3063
(dp3064
g62
(dp3065
g82
g83
ssg71
g3059
sg64
(lp3066
S'QUERY_STRING'
p3067
asbag57
(g78
g59
NtRp3068
(dp3069
g62
(dp3070
g89
g90
ssg71
g3059
sg64
(lp3071
S':'
asbag57
(g78
g59
NtRp3072
(dp3073
g62
(dp3074
sg71
g3059
sg64
(lp3075
g57
(g58
g59
NtRp3076
(dp3077
g62
(dp3078
g70
I3
ssg71
g3072
sg64
(lp3079
S''
asbasbasbag57
(g73
g59
NtRp3080
(dp3081
g62
(dp3082
sg71
g2887
sg64
(lp3083
g57
(g78
g59
NtRp3084
(dp3085
g62
(dp3086
g82
g83
ssg71
g3080
sg64
(lp3087
S'REMOTE_ADDR'
p3088
asbag57
(g78
g59
NtRp3089
(dp3090
g62
(dp3091
g89
g90
ssg71
g3080
sg64
(lp3092
S':'
asbag57
(g78
g59
NtRp3093
(dp3094
g62
(dp3095
sg71
g3080
sg64
(lp3096
g57
(g58
g59
NtRp3097
(dp3098
g62
(dp3099
g70
I3
ssg71
g3093
sg64
(lp3100
g212
asbasbasbag57
(g73
g59
NtRp3101
(dp3102
g62
(dp3103
sg71
g2887
sg64
(lp3104
g57
(g78
g59
NtRp3105
(dp3106
g62
(dp3107
g82
g83
ssg71
g3101
sg64
(lp3108
S'REMOTE_PORT'
p3109
asbag57
(g78
g59
NtRp3110
(dp3111
g62
(dp3112
g89
g90
ssg71
g3101
sg64
(lp3113
S':'
asbag57
(g78
g59
NtRp3114
(dp3115
g62
(dp3116
sg71
g3101
sg64
(lp3117
g57
(g58
g59
NtRp3118
(dp3119
g62
(dp3120
g70
I3
ssg71
g3114
sg64
(lp3121
g1616
asbasbasbag57
(g73
g59
NtRp3122
(dp3123
g62
(dp3124
sg71
g2887
sg64
(lp3125
g57
(g78
g59
NtRp3126
(dp3127
g62
(dp3128
g82
g83
ssg71
g3122
sg64
(lp3129
S'REQUEST_METHOD'
p3130
asbag57
(g78
g59
NtRp3131
(dp3132
g62
(dp3133
g89
g90
ssg71
g3122
sg64
(lp3134
S':'
asbag57
(g78
g59
NtRp3135
(dp3136
g62
(dp3137
sg71
g3122
sg64
(lp3138
g57
(g58
g59
NtRp3139
(dp3140
g62
(dp3141
g70
I3
ssg71
g3135
sg64
(lp3142
g1638
asbasbasbag57
(g73
g59
NtRp3143
(dp3144
g62
(dp3145
sg71
g2887
sg64
(lp3146
g57
(g78
g59
NtRp3147
(dp3148
g62
(dp3149
g82
g83
ssg71
g3143
sg64
(lp3150
S'REQUEST_URI'
p3151
asbag57
(g78
g59
NtRp3152
(dp3153
g62
(dp3154
g89
g90
ssg71
g3143
sg64
(lp3155
S':'
asbag57
(g78
g59
NtRp3156
(dp3157
g62
(dp3158
sg71
g3143
sg64
(lp3159
g57
(g58
g59
NtRp3160
(dp3161
g62
(dp3162
g70
I3
ssg71
g3156
sg64
(lp3163
g1552
asbasbasbag57
(g73
g59
NtRp3164
(dp3165
g62
(dp3166
sg71
g2887
sg64
(lp3167
g57
(g78
g59
NtRp3168
(dp3169
g62
(dp3170
g82
g83
ssg71
g3164
sg64
(lp3171
S'SCRIPT_NAME'
p3172
asbag57
(g78
g59
NtRp3173
(dp3174
g62
(dp3175
g89
g90
ssg71
g3164
sg64
(lp3176
S':'
asbag57
(g78
g59
NtRp3177
(dp3178
g62
(dp3179
sg71
g3164
sg64
(lp3180
g57
(g58
g59
NtRp3181
(dp3182
g62
(dp3183
g70
I3
ssg71
g3177
sg64
(lp3184
S''
asbasbasbag57
(g73
g59
NtRp3185
(dp3186
g62
(dp3187
sg71
g2887
sg64
(lp3188
g57
(g78
g59
NtRp3189
(dp3190
g62
(dp3191
g82
g83
ssg71
g3185
sg64
(lp3192
S'SERVER_NAME'
p3193
asbag57
(g78
g59
NtRp3194
(dp3195
g62
(dp3196
g89
g90
ssg71
g3185
sg64
(lp3197
S':'
asbag57
(g78
g59
NtRp3198
(dp3199
g62
(dp3200
sg71
g3185
sg64
(lp3201
g57
(g58
g59
NtRp3202
(dp3203
g62
(dp3204
g70
I3
ssg71
g3198
sg64
(lp3205
g1702
asbasbasbag57
(g73
g59
NtRp3206
(dp3207
g62
(dp3208
sg71
g2887
sg64
(lp3209
g57
(g78
g59
NtRp3210
(dp3211
g62
(dp3212
g82
g83
ssg71
g3206
sg64
(lp3213
S'SERVER_PORT'
p3214
asbag57
(g78
g59
NtRp3215
(dp3216
g62
(dp3217
g89
g90
ssg71
g3206
sg64
(lp3218
S':'
asbag57
(g78
g59
NtRp3219
(dp3220
g62
(dp3221
sg71
g3206
sg64
(lp3222
g57
(g58
g59
NtRp3223
(dp3224
g62
(dp3225
g70
I3
ssg71
g3219
sg64
(lp3226
g1724
asbasbasbag57
(g73
g59
NtRp3227
(dp3228
g62
(dp3229
sg71
g2887
sg64
(lp3230
g57
(g78
g59
NtRp3231
(dp3232
g62
(dp3233
g82
g83
ssg71
g3227
sg64
(lp3234
S'SERVER_PROTOCOL'
p3235
asbag57
(g78
g59
NtRp3236
(dp3237
g62
(dp3238
g89
g90
ssg71
g3227
sg64
(lp3239
S':'
asbag57
(g78
g59
NtRp3240
(dp3241
g62
(dp3242
sg71
g3227
sg64
(lp3243
g57
(g58
g59
NtRp3244
(dp3245
g62
(dp3246
g70
I3
ssg71
g3240
sg64
(lp3247
g1746
asbasbasbag57
(g73
g59
NtRp3248
(dp3249
g62
(dp3250
sg71
g2887
sg64
(lp3251
g57
(g78
g59
NtRp3252
(dp3253
g62
(dp3254
g82
g83
ssg71
g3248
sg64
(lp3255
S'SERVER_SOFTWARE'
p3256
asbag57
(g78
g59
NtRp3257
(dp3258
g62
(dp3259
g89
g90
ssg71
g3248
sg64
(lp3260
S':'
asbag57
(g78
g59
NtRp3261
(dp3262
g62
(dp3263
sg71
g3248
sg64
(lp3264
g57
(g58
g59
NtRp3265
(dp3266
g62
(dp3267
g70
I3
ssg71
g3261
sg64
(lp3268
g1768
asbasbasbag57
(g73
g59
NtRp3269
(dp3270
g62
(dp3271
sg71
g2887
sg64
(lp3272
g57
(g78
g59
NtRp3273
(dp3274
g62
(dp3275
g82
g83
ssg71
g3269
sg64
(lp3276
S'wsgi.errors'
p3277
asbag57
(g78
g59
NtRp3278
(dp3279
g62
(dp3280
g89
g90
ssg71
g3269
sg64
(lp3281
S':'
asbag57
(g78
g59
NtRp3282
(dp3283
g62
(dp3284
sg71
g3269
sg64
(lp3285
g57
(g58
g59
NtRp3286
(dp3287
g62
(dp3288
g70
I3
ssg71
g3282
sg64
(lp3289
S"<open file '<stderr>', mode 'w' at 0x7f8fa085a270>"
p3290
asbasbasbag57
(g73
g59
NtRp3291
(dp3292
g62
(dp3293
sg71
g2887
sg64
(lp3294
g57
(g78
g59
NtRp3295
(dp3296
g62
(dp3297
g82
g83
ssg71
g3291
sg64
(lp3298
S'wsgi.file_wrapper'
p3299
asbag57
(g78
g59
NtRp3300
(dp3301
g62
(dp3302
g89
g90
ssg71
g3291
sg64
(lp3303
S':'
asbag57
(g78
g59
NtRp3304
(dp3305
g62
(dp3306
sg71
g3291
sg64
(lp3307
g57
(g58
g59
NtRp3308
(dp3309
g62
(dp3310
g70
I3
ssg71
g3304
sg64
(lp3311
S'<class wsgiref.util.FileWrapper at 0x2964e20>'
p3312
asbasbasbag57
(g73
g59
NtRp3313
(dp3314
g62
(dp3315
sg71
g2887
sg64
(lp3316
g57
(g78
g59
NtRp3317
(dp3318
g62
(dp3319
g82
g83
ssg71
g3313
sg64
(lp3320
S'wsgi.input'
p3321
asbag57
(g78
g59
NtRp3322
(dp3323
g62
(dp3324
g89
g90
ssg71
g3313
sg64
(lp3325
S':'
asbag57
(g78
g59
NtRp3326
(dp3327
g62
(dp3328
sg71
g3313
sg64
(lp3329
g57
(g58
g59
NtRp3330
(dp3331
g62
(dp3332
g70
I3
ssg71
g3326
sg64
(lp3333
S'<cStringIO.StringO object at 0x7f8f883eb2d0>'
p3334
asbasbasbag57
(g73
g59
NtRp3335
(dp3336
g62
(dp3337
sg71
g2887
sg64
(lp3338
g57
(g78
g59
NtRp3339
(dp3340
g62
(dp3341
g82
g83
ssg71
g3335
sg64
(lp3342
S'wsgi.multiprocess'
p3343
asbag57
(g78
g59
NtRp3344
(dp3345
g62
(dp3346
g89
g90
ssg71
g3335
sg64
(lp3347
S':'
asbag57
(g78
g59
NtRp3348
(dp3349
g62
(dp3350
sg71
g3335
sg64
(lp3351
g57
(g58
g59
NtRp3352
(dp3353
g62
(dp3354
g70
I3
ssg71
g3348
sg64
(lp3355
g100
asbasbasbag57
(g73
g59
NtRp3356
(dp3357
g62
(dp3358
sg71
g2887
sg64
(lp3359
g57
(g78
g59
NtRp3360
(dp3361
g62
(dp3362
g82
g83
ssg71
g3356
sg64
(lp3363
S'wsgi.multithread'
p3364
asbag57
(g78
g59
NtRp3365
(dp3366
g62
(dp3367
g89
g90
ssg71
g3356
sg64
(lp3368
S':'
asbag57
(g78
g59
NtRp3369
(dp3370
g62
(dp3371
sg71
g3356
sg64
(lp3372
g57
(g58
g59
NtRp3373
(dp3374
g62
(dp3375
g70
I3
ssg71
g3369
sg64
(lp3376
g1985
asbasbasbag57
(g73
g59
NtRp3377
(dp3378
g62
(dp3379
sg71
g2887
sg64
(lp3380
g57
(g78
g59
NtRp3381
(dp3382
g62
(dp3383
g82
g83
ssg71
g3377
sg64
(lp3384
S'wsgi.run_once'
p3385
asbag57
(g78
g59
NtRp3386
(dp3387
g62
(dp3388
g89
g90
ssg71
g3377
sg64
(lp3389
S':'
asbag57
(g78
g59
NtRp3390
(dp3391
g62
(dp3392
sg71
g3377
sg64
(lp3393
g57
(g58
g59
NtRp3394
(dp3395
g62
(dp3396
g70
I3
ssg71
g3390
sg64
(lp3397
g100
asbasbasbag57
(g73
g59
NtRp3398
(dp3399
g62
(dp3400
sg71
g2887
sg64
(lp3401
g57
(g78
g59
NtRp3402
(dp3403
g62
(dp3404
g82
g83
ssg71
g3398
sg64
(lp3405
S'wsgi.url_scheme'
p3406
asbag57
(g78
g59
NtRp3407
(dp3408
g62
(dp3409
g89
g90
ssg71
g3398
sg64
(lp3410
S':'
asbag57
(g78
g59
NtRp3411
(dp3412
g62
(dp3413
sg71
g3398
sg64
(lp3414
g57
(g58
g59
NtRp3415
(dp3416
g62
(dp3417
g70
I3
ssg71
g3411
sg64
(lp3418
g2028
asbasbasbag57
(g73
g59
NtRp3419
(dp3420
g62
(dp3421
sg71
g2887
sg64
(lp3422
g57
(g78
g59
NtRp3423
(dp3424
g62
(dp3425
g82
g83
ssg71
g3419
sg64
(lp3426
S'wsgi.version'
p3427
asbag57
(g78
g59
NtRp3428
(dp3429
g62
(dp3430
g89
g90
ssg71
g3419
sg64
(lp3431
S':'
asbag57
(g78
g59
NtRp3432
(dp3433
g62
(dp3434
sg71
g3419
sg64
(lp3435
g57
(g58
g59
NtRp3436
(dp3437
g62
(dp3438
g70
I3
ssg71
g3432
sg64
(lp3439
S'1'
asbasbasbasbasbasbasbasbasbasbasbasbasbsS'frames'
p3440
(lp3441
(dp3442
S'file'
p3443
S'/home/shipra/Desktop/Semester 1.2/ITWS-2/web2py/gluon/restricted.py'
p3444
sS'dump'
p3445
(dp3446
S'environment'
p3447
S"{'A': <class 'gluon.html.A'>, 'Auth': <class 'gluon.tools.Auth'>, 'B': <class 'gluon.html.B'>, 'BEAUTIFY': <class 'gluon.html.BEAUTIFY'>, 'BODY': <class 'gluon.html.BODY'>, 'BR': <class 'gluon.html.BR'>, 'BUTTON': <class 'gluon.html.BUTTON'>, 'CAT': <class 'gluon.html.CAT'>, 'CENTER': <class 'gluon.html.CENTER'>, 'CLEANUP': <class 'gluon.validators.CLEANUP'>, ...}"
p3448
sS'ccode'
p3449
S'<code object <module> at 0x7f8f7c698930, file "/...Assignment_2/views/default/display.html", line 1>'
p3450
ssS'lnum'
p3451
I212
sS'lines'
p3452
(dp3453
I207
S'    try:'
p3454
sI208
S'        if isinstance(code, types.CodeType):'
p3455
sI209
S'            ccode = code'
p3456
sI210
S'        else:'
p3457
sI211
S'            ccode = compile2(code, layer)'
p3458
sI212
S'        exec ccode in environment'
p3459
sI213
S'    except HTTP:'
p3460
sI214
S'        raise'
p3461
sI215
S'    except RestrictedError:'
p3462
sI216
S'        # do not encapsulate (obfuscate) the original RestrictedError'
p3463
ssS'call'
p3464
S'(code=\'response.write(\\\'<!DOCTYPE html>\\\\n<!-- paulirish...."></script>\\\\n</body>\\\\n</html>\\\\n\\\\n\\\', escape=False)\', environment={\'A\': <class \'gluon.html.A\'>, \'Auth\': <class \'gluon.tools.Auth\'>, \'B\': <class \'gluon.html.B\'>, \'BEAUTIFY\': <class \'gluon.html.BEAUTIFY\'>, \'BODY\': <class \'gluon.html.BODY\'>, \'BR\': <class \'gluon.html.BR\'>, \'BUTTON\': <class \'gluon.html.BUTTON\'>, \'CAT\': <class \'gluon.html.CAT\'>, \'CENTER\': <class \'gluon.html.CENTER\'>, \'CLEANUP\': <class \'gluon.validators.CLEANUP\'>, ...}, layer=\'/home/shipra/Desktop/Semester 1.2/ITWS-2/web2py/applications/Assignment_2/views/default/display.html\')'
p3465
sS'func'
p3466
S'restricted'
p3467
sa(dp3468
g3443
S'/home/shipra/Desktop/Semester 1.2/ITWS-2/web2py/applications/Assignment_2/views/default/display.html'
p3469
sg3445
(dp3470
sg3451
I85
sg3452
(dp3471
I76
S'response.write(\'\\n\\n        <div class="\', escape=False)'
p3472
sI77
S'response.write(middle_columns)'
p3473
sI78
S'response.write(\'">\\n            \', escape=False)'
p3474
sI79
S"response.write('\\n            ', escape=False)"
p3475
sI80
S"response.write('\\n<ol>\\n\\t', escape=False)"
p3476
sI81
S'for i in range(len(categ)):'
p3477
sI82
S"    response.write('\\n\\t', escape=False)"
p3478
sI83
S'    x="http://127.0.0.1:8000/Assignment_2/default/categ_display/"'
p3479
sI84
S"    response.write('\\n\\t', escape=False)"
p3480
sI85
S"    r=requests.post(x,categ[i]['Cname'])"
p3481
sI86
S"    response.write('\\n\\t<a href=', escape=False)"
p3482
sI87
S'    response.write(r)'
p3483
sI88
S"    response.write('><li>', escape=False)"
p3484
sI89
S"    response.write(categ[i]['Cname'])"
p3485
sI90
S"    response.write('</li><br/></a>\\n\\t', escape=False)"
p3486
sI91
S'    pass'
p3487
sI92
S"response.write('\\n</ol>\\n\\n', escape=False)"
p3488
sI93
S"response.write('\\n            ', escape=False)"
p3489
sI94
S"response.write('\\n        </div>\\n\\n        ', escape=False)"
p3490
sI95
S'if right_sidebar_enabled:'
p3491
ssg3464
S'()'
p3492
sg3466
S'<module>'
p3493
sasS'pyver'
p3494
S'Python 2.7.3: /usr/bin/python'
p3495
sS'session'
p3496
g57
(g58
g59
NtRp3497
(dp3498
g62
(dp3499
sg64
(lp3500
g57
(g66
g59
NtRp3501
(dp3502
g62
(dp3503
g70
I5
ssg71
Nsg64
(lp3504
g57
(g73
g59
NtRp3505
(dp3506
g62
(dp3507
sg71
g3501
sg64
(lp3508
g57
(g78
g59
NtRp3509
(dp3510
g62
(dp3511
g82
g83
ssg71
g3505
sg64
(lp3512
S'auth'
p3513
asbag57
(g78
g59
NtRp3514
(dp3515
g62
(dp3516
g89
g90
ssg71
g3505
sg64
(lp3517
S':'
asbag57
(g78
g59
NtRp3518
(dp3519
g62
(dp3520
sg71
g3505
sg64
(lp3521
g57
(g58
g59
NtRp3522
(dp3523
g62
(dp3524
g70
I5
ssg71
g3518
sg64
(lp3525
g57
(g66
g59
NtRp3526
(dp3527
g62
(dp3528
g70
I4
ssg71
Nsg64
(lp3529
g57
(g73
g59
NtRp3530
(dp3531
g62
(dp3532
sg71
g3526
sg64
(lp3533
g57
(g78
g59
NtRp3534
(dp3535
g62
(dp3536
g82
g83
ssg71
g3530
sg64
(lp3537
S'expiration'
p3538
asbag57
(g78
g59
NtRp3539
(dp3540
g62
(dp3541
g89
g90
ssg71
g3530
sg64
(lp3542
S':'
asbag57
(g78
g59
NtRp3543
(dp3544
g62
(dp3545
sg71
g3530
sg64
(lp3546
g57
(g58
g59
NtRp3547
(dp3548
g62
(dp3549
g70
I4
ssg71
g3543
sg64
(lp3550
S'3600'
p3551
asbasbasbag57
(g73
g59
NtRp3552
(dp3553
g62
(dp3554
sg71
g3526
sg64
(lp3555
g57
(g78
g59
NtRp3556
(dp3557
g62
(dp3558
g82
g83
ssg71
g3552
sg64
(lp3559
S'hmac_key'
p3560
asbag57
(g78
g59
NtRp3561
(dp3562
g62
(dp3563
g89
g90
ssg71
g3552
sg64
(lp3564
S':'
asbag57
(g78
g59
NtRp3565
(dp3566
g62
(dp3567
sg71
g3552
sg64
(lp3568
g57
(g58
g59
NtRp3569
(dp3570
g62
(dp3571
g70
I4
ssg71
g3565
sg64
(lp3572
S'19b6be16-473c-43aa-85c0-9213dc5eee79'
p3573
asbasbasbag57
(g73
g59
NtRp3574
(dp3575
g62
(dp3576
sg71
g3526
sg64
(lp3577
g57
(g78
g59
NtRp3578
(dp3579
g62
(dp3580
g82
g83
ssg71
g3574
sg64
(lp3581
S'last_visit'
p3582
asbag57
(g78
g59
NtRp3583
(dp3584
g62
(dp3585
g89
g90
ssg71
g3574
sg64
(lp3586
S':'
asbag57
(g78
g59
NtRp3587
(dp3588
g62
(dp3589
sg71
g3574
sg64
(lp3590
g57
(g58
g59
NtRp3591
(dp3592
g62
(dp3593
g70
I4
ssg71
g3587
sg64
(lp3594
S'datetime.datetime(2013, 8, 26, 19, 37, 44, 703089)'
p3595
asbasbasbag57
(g73
g59
NtRp3596
(dp3597
g62
(dp3598
sg71
g3526
sg64
(lp3599
g57
(g78
g59
NtRp3600
(dp3601
g62
(dp3602
g82
g83
ssg71
g3596
sg64
(lp3603
S'remember'
p3604
asbag57
(g78
g59
NtRp3605
(dp3606
g62
(dp3607
g89
g90
ssg71
g3596
sg64
(lp3608
S':'
asbag57
(g78
g59
NtRp3609
(dp3610
g62
(dp3611
sg71
g3596
sg64
(lp3612
g57
(g58
g59
NtRp3613
(dp3614
g62
(dp3615
g70
I4
ssg71
g3609
sg64
(lp3616
g100
asbasbasbag57
(g73
g59
NtRp3617
(dp3618
g62
(dp3619
sg71
g3526
sg64
(lp3620
g57
(g78
g59
NtRp3621
(dp3622
g62
(dp3623
g82
g83
ssg71
g3617
sg64
(lp3624
S'user'
p3625
asbag57
(g78
g59
NtRp3626
(dp3627
g62
(dp3628
g89
g90
ssg71
g3617
sg64
(lp3629
S':'
asbag57
(g78
g59
NtRp3630
(dp3631
g62
(dp3632
sg71
g3617
sg64
(lp3633
g57
(g58
g59
NtRp3634
(dp3635
g62
(dp3636
g70
I4
ssg71
g3630
sg64
(lp3637
g57
(g66
g59
NtRp3638
(dp3639
g62
(dp3640
g70
I3
ssg71
Nsg64
(lp3641
g57
(g73
g59
NtRp3642
(dp3643
g62
(dp3644
sg71
g3638
sg64
(lp3645
g57
(g78
g59
NtRp3646
(dp3647
g62
(dp3648
g82
g83
ssg71
g3642
sg64
(lp3649
S'email'
p3650
asbag57
(g78
g59
NtRp3651
(dp3652
g62
(dp3653
g89
g90
ssg71
g3642
sg64
(lp3654
S':'
asbag57
(g78
g59
NtRp3655
(dp3656
g62
(dp3657
sg71
g3642
sg64
(lp3658
g57
(g58
g59
NtRp3659
(dp3660
g62
(dp3661
g70
I3
ssg71
g3655
sg64
(lp3662
S'vanya.jauhal@gmail.com'
p3663
asbasbasbag57
(g73
g59
NtRp3664
(dp3665
g62
(dp3666
sg71
g3638
sg64
(lp3667
g57
(g78
g59
NtRp3668
(dp3669
g62
(dp3670
g82
g83
ssg71
g3664
sg64
(lp3671
S'first_name'
p3672
asbag57
(g78
g59
NtRp3673
(dp3674
g62
(dp3675
g89
g90
ssg71
g3664
sg64
(lp3676
S':'
asbag57
(g78
g59
NtRp3677
(dp3678
g62
(dp3679
sg71
g3664
sg64
(lp3680
g57
(g58
g59
NtRp3681
(dp3682
g62
(dp3683
g70
I3
ssg71
g3677
sg64
(lp3684
S'vanya'
p3685
asbasbasbag57
(g73
g59
NtRp3686
(dp3687
g62
(dp3688
sg71
g3638
sg64
(lp3689
g57
(g78
g59
NtRp3690
(dp3691
g62
(dp3692
g82
g83
ssg71
g3686
sg64
(lp3693
S'id'
p3694
asbag57
(g78
g59
NtRp3695
(dp3696
g62
(dp3697
g89
g90
ssg71
g3686
sg64
(lp3698
S':'
asbag57
(g78
g59
NtRp3699
(dp3700
g62
(dp3701
sg71
g3686
sg64
(lp3702
g57
(g58
g59
NtRp3703
(dp3704
g62
(dp3705
g70
I3
ssg71
g3699
sg64
(lp3706
S'4'
asbasbasbag57
(g73
g59
NtRp3707
(dp3708
g62
(dp3709
sg71
g3638
sg64
(lp3710
g57
(g78
g59
NtRp3711
(dp3712
g62
(dp3713
g82
g83
ssg71
g3707
sg64
(lp3714
S'last_name'
p3715
asbag57
(g78
g59
NtRp3716
(dp3717
g62
(dp3718
g89
g90
ssg71
g3707
sg64
(lp3719
S':'
asbag57
(g78
g59
NtRp3720
(dp3721
g62
(dp3722
sg71
g3707
sg64
(lp3723
g57
(g58
g59
NtRp3724
(dp3725
g62
(dp3726
g70
I3
ssg71
g3720
sg64
(lp3727
S'jauhal'
p3728
asbasbasbag57
(g73
g59
NtRp3729
(dp3730
g62
(dp3731
sg71
g3638
sg64
(lp3732
g57
(g78
g59
NtRp3733
(dp3734
g62
(dp3735
g82
g83
ssg71
g3729
sg64
(lp3736
S'registration_id'
p3737
asbag57
(g78
g59
NtRp3738
(dp3739
g62
(dp3740
g89
g90
ssg71
g3729
sg64
(lp3741
S':'
asbag57
(g78
g59
NtRp3742
(dp3743
g62
(dp3744
sg71
g3729
sg64
(lp3745
g57
(g58
g59
NtRp3746
(dp3747
g62
(dp3748
g70
I3
ssg71
g3742
sg64
(lp3749
S''
asbasbasbag57
(g73
g59
NtRp3750
(dp3751
g62
(dp3752
sg71
g3638
sg64
(lp3753
g57
(g78
g59
NtRp3754
(dp3755
g62
(dp3756
g82
g83
ssg71
g3750
sg64
(lp3757
S'registration_key'
p3758
asbag57
(g78
g59
NtRp3759
(dp3760
g62
(dp3761
g89
g90
ssg71
g3750
sg64
(lp3762
S':'
asbag57
(g78
g59
NtRp3763
(dp3764
g62
(dp3765
sg71
g3750
sg64
(lp3766
g57
(g58
g59
NtRp3767
(dp3768
g62
(dp3769
g70
I3
ssg71
g3763
sg64
(lp3770
S''
asbasbasbag57
(g73
g59
NtRp3771
(dp3772
g62
(dp3773
sg71
g3638
sg64
(lp3774
g57
(g78
g59
NtRp3775
(dp3776
g62
(dp3777
g82
g83
ssg71
g3771
sg64
(lp3778
S'reset_password_key'
p3779
asbag57
(g78
g59
NtRp3780
(dp3781
g62
(dp3782
g89
g90
ssg71
g3771
sg64
(lp3783
S':'
asbag57
(g78
g59
NtRp3784
(dp3785
g62
(dp3786
sg71
g3771
sg64
(lp3787
g57
(g58
g59
NtRp3788
(dp3789
g62
(dp3790
g70
I3
ssg71
g3784
sg64
(lp3791
S''
asbasbasbag57
(g73
g59
NtRp3792
(dp3793
g62
(dp3794
sg71
g3638
sg64
(lp3795
g57
(g78
g59
NtRp3796
(dp3797
g62
(dp3798
g82
g83
ssg71
g3792
sg64
(lp3799
S'username'
p3800
asbag57
(g78
g59
NtRp3801
(dp3802
g62
(dp3803
g89
g90
ssg71
g3792
sg64
(lp3804
S':'
asbag57
(g78
g59
NtRp3805
(dp3806
g62
(dp3807
sg71
g3792
sg64
(lp3808
g57
(g58
g59
NtRp3809
(dp3810
g62
(dp3811
g70
I3
ssg71
g3805
sg64
(lp3812
S'Vanya'
p3813
asbasbasbasbasbasbasbag57
(g73
g59
NtRp3814
(dp3815
g62
(dp3816
sg71
g3526
sg64
(lp3817
g57
(g78
g59
NtRp3818
(dp3819
g62
(dp3820
g82
g83
ssg71
g3814
sg64
(lp3821
S'user_groups'
p3822
asbag57
(g78
g59
NtRp3823
(dp3824
g62
(dp3825
g89
g90
ssg71
g3814
sg64
(lp3826
S':'
asbag57
(g78
g59
NtRp3827
(dp3828
g62
(dp3829
sg71
g3814
sg64
(lp3830
g57
(g58
g59
NtRp3831
(dp3832
g62
(dp3833
g70
I4
ssg71
g3827
sg64
(lp3834
g57
(g66
g59
NtRp3835
(dp3836
g62
(dp3837
g70
I3
ssg71
Nsg64
(lp3838
g57
(g73
g59
NtRp3839
(dp3840
g62
(dp3841
sg71
g3835
sg64
(lp3842
g57
(g78
g59
NtRp3843
(dp3844
g62
(dp3845
g82
g83
ssg71
g3839
sg64
(lp3846
S'3'
asbag57
(g78
g59
NtRp3847
(dp3848
g62
(dp3849
g89
g90
ssg71
g3839
sg64
(lp3850
S':'
asbag57
(g78
g59
NtRp3851
(dp3852
g62
(dp3853
sg71
g3839
sg64
(lp3854
g57
(g58
g59
NtRp3855
(dp3856
g62
(dp3857
g70
I3
ssg71
g3851
sg64
(lp3858
S'user_4'
p3859
asbasbasbasbasbasbasbasbasbasbasbag57
(g73
g59
NtRp3860
(dp3861
g62
(dp3862
sg71
g3501
sg64
(lp3863
g57
(g78
g59
NtRp3864
(dp3865
g62
(dp3866
g82
g83
ssg71
g3860
sg64
(lp3867
S'flash'
p3868
asbag57
(g78
g59
NtRp3869
(dp3870
g62
(dp3871
g89
g90
ssg71
g3860
sg64
(lp3872
S':'
asbag57
(g78
g59
NtRp3873
(dp3874
g62
(dp3875
sg71
g3860
sg64
(lp3876
g57
(g58
g59
NtRp3877
(dp3878
g62
(dp3879
g70
I5
ssg71
g3873
sg64
(lp3880
S'None'
p3881
asbasbasbasbasbsS'etype'
p3882
S"<type 'exceptions.NameError'>"
p3883
sS'date'
p3884
S'Mon Aug 26 19:41:46 2013'
p3885
sS'response'
p3886
g57
(g58
g59
NtRp3887
(dp3888
g62
(dp3889
sg64
(lp3890
g57
(g66
g59
NtRp3891
(dp3892
g62
(dp3893
g70
I5
ssg71
Nsg64
(lp3894
g57
(g73
g59
NtRp3895
(dp3896
g62
(dp3897
sg71
g3891
sg64
(lp3898
g57
(g78
g59
NtRp3899
(dp3900
g62
(dp3901
g82
g83
ssg71
g3895
sg64
(lp3902
g155
asbag57
(g78
g59
NtRp3903
(dp3904
g62
(dp3905
g89
g90
ssg71
g3895
sg64
(lp3906
S':'
asbag57
(g78
g59
NtRp3907
(dp3908
g62
(dp3909
sg71
g3895
sg64
(lp3910
g57
(g58
g59
NtRp3911
(dp3912
g62
(dp3913
g70
I5
ssg71
g3907
sg64
(lp3914
S'<cStringIO.StringO object at 0x7f8f60267a78>'
p3915
asbasbasbag57
(g73
g59
NtRp3916
(dp3917
g62
(dp3918
sg71
g3891
sg64
(lp3919
g57
(g78
g59
NtRp3920
(dp3921
g62
(dp3922
g82
g83
ssg71
g3916
sg64
(lp3923
g243
asbag57
(g78
g59
NtRp3924
(dp3925
g62
(dp3926
g89
g90
ssg71
g3916
sg64
(lp3927
S':'
asbag57
(g78
g59
NtRp3928
(dp3929
g62
(dp3930
sg71
g3916
sg64
(lp3931
g57
(g58
g59
NtRp3932
(dp3933
g62
(dp3934
g70
I5
ssg71
g3928
sg64
(lp3935
g57
(g66
g59
NtRp3936
(dp3937
g62
(dp3938
g70
I4
ssg71
Nsg64
(lp3939
g57
(g73
g59
NtRp3940
(dp3941
g62
(dp3942
sg71
g3936
sg64
(lp3943
g57
(g78
g59
NtRp3944
(dp3945
g62
(dp3946
g82
g83
ssg71
g3940
sg64
(lp3947
S'session_id_assignment_2'
p3948
asbag57
(g78
g59
NtRp3949
(dp3950
g62
(dp3951
g89
g90
ssg71
g3940
sg64
(lp3952
S':'
asbag57
(g78
g59
NtRp3953
(dp3954
g62
(dp3955
sg71
g3940
sg64
(lp3956
g57
(g58
g59
NtRp3957
(dp3958
g62
(dp3959
g70
I4
ssg71
g3953
sg64
(lp3960
g661
ag57
(g66
g59
NtRp3961
(dp3962
g62
(dp3963
g70
I3
ssg71
Nsg64
(lp3964
g57
(g73
g59
NtRp3965
(dp3966
g62
(dp3967
sg71
g3961
sg64
(lp3968
g57
(g78
g59
NtRp3969
(dp3970
g62
(dp3971
g82
g83
ssg71
g3965
sg64
(lp3972
g294
asbag57
(g78
g59
NtRp3973
(dp3974
g62
(dp3975
g89
g90
ssg71
g3965
sg64
(lp3976
S':'
asbag57
(g78
g59
NtRp3977
(dp3978
g62
(dp3979
sg71
g3965
sg64
(lp3980
g57
(g58
g59
NtRp3981
(dp3982
g62
(dp3983
g70
I3
ssg71
g3977
sg64
(lp3984
S''
asbasbasbag57
(g73
g59
NtRp3985
(dp3986
g62
(dp3987
sg71
g3961
sg64
(lp3988
g57
(g78
g59
NtRp3989
(dp3990
g62
(dp3991
g82
g83
ssg71
g3985
sg64
(lp3992
g315
asbag57
(g78
g59
NtRp3993
(dp3994
g62
(dp3995
g89
g90
ssg71
g3985
sg64
(lp3996
S':'
asbag57
(g78
g59
NtRp3997
(dp3998
g62
(dp3999
sg71
g3985
sg64
(lp4000
g57
(g58
g59
NtRp4001
(dp4002
g62
(dp4003
g70
I3
ssg71
g3997
sg64
(lp4004
S''
asbasbasbag57
(g73
g59
NtRp4005
(dp4006
g62
(dp4007
sg71
g3961
sg64
(lp4008
g57
(g78
g59
NtRp4009
(dp4010
g62
(dp4011
g82
g83
ssg71
g4005
sg64
(lp4012
g336
asbag57
(g78
g59
NtRp4013
(dp4014
g62
(dp4015
g89
g90
ssg71
g4005
sg64
(lp4016
S':'
asbag57
(g78
g59
NtRp4017
(dp4018
g62
(dp4019
sg71
g4005
sg64
(lp4020
g57
(g58
g59
NtRp4021
(dp4022
g62
(dp4023
g70
I3
ssg71
g4017
sg64
(lp4024
S''
asbasbasbag57
(g73
g59
NtRp4025
(dp4026
g62
(dp4027
sg71
g3961
sg64
(lp4028
g57
(g78
g59
NtRp4029
(dp4030
g62
(dp4031
g82
g83
ssg71
g4025
sg64
(lp4032
g357
asbag57
(g78
g59
NtRp4033
(dp4034
g62
(dp4035
g89
g90
ssg71
g4025
sg64
(lp4036
S':'
asbag57
(g78
g59
NtRp4037
(dp4038
g62
(dp4039
sg71
g4025
sg64
(lp4040
g57
(g58
g59
NtRp4041
(dp4042
g62
(dp4043
g70
I3
ssg71
g4037
sg64
(lp4044
S''
asbasbasbag57
(g73
g59
NtRp4045
(dp4046
g62
(dp4047
sg71
g3961
sg64
(lp4048
g57
(g78
g59
NtRp4049
(dp4050
g62
(dp4051
g82
g83
ssg71
g4045
sg64
(lp4052
g378
asbag57
(g78
g59
NtRp4053
(dp4054
g62
(dp4055
g89
g90
ssg71
g4045
sg64
(lp4056
S':'
asbag57
(g78
g59
NtRp4057
(dp4058
g62
(dp4059
sg71
g4045
sg64
(lp4060
g57
(g58
g59
NtRp4061
(dp4062
g62
(dp4063
g70
I3
ssg71
g4057
sg64
(lp4064
S''
asbasbasbag57
(g73
g59
NtRp4065
(dp4066
g62
(dp4067
sg71
g3961
sg64
(lp4068
g57
(g78
g59
NtRp4069
(dp4070
g62
(dp4071
g82
g83
ssg71
g4065
sg64
(lp4072
g399
asbag57
(g78
g59
NtRp4073
(dp4074
g62
(dp4075
g89
g90
ssg71
g4065
sg64
(lp4076
S':'
asbag57
(g78
g59
NtRp4077
(dp4078
g62
(dp4079
sg71
g4065
sg64
(lp4080
g57
(g58
g59
NtRp4081
(dp4082
g62
(dp4083
g70
I3
ssg71
g4077
sg64
(lp4084
S'/'
asbasbasbag57
(g73
g59
NtRp4085
(dp4086
g62
(dp4087
sg71
g3961
sg64
(lp4088
g57
(g78
g59
NtRp4089
(dp4090
g62
(dp4091
g82
g83
ssg71
g4085
sg64
(lp4092
g420
asbag57
(g78
g59
NtRp4093
(dp4094
g62
(dp4095
g89
g90
ssg71
g4085
sg64
(lp4096
S':'
asbag57
(g78
g59
NtRp4097
(dp4098
g62
(dp4099
sg71
g4085
sg64
(lp4100
g57
(g58
g59
NtRp4101
(dp4102
g62
(dp4103
g70
I3
ssg71
g4097
sg64
(lp4104
S''
asbasbasbag57
(g73
g59
NtRp4105
(dp4106
g62
(dp4107
sg71
g3961
sg64
(lp4108
g57
(g78
g59
NtRp4109
(dp4110
g62
(dp4111
g82
g83
ssg71
g4105
sg64
(lp4112
g441
asbag57
(g78
g59
NtRp4113
(dp4114
g62
(dp4115
g89
g90
ssg71
g4105
sg64
(lp4116
S':'
asbag57
(g78
g59
NtRp4117
(dp4118
g62
(dp4119
sg71
g4105
sg64
(lp4120
g57
(g58
g59
NtRp4121
(dp4122
g62
(dp4123
g70
I3
ssg71
g4117
sg64
(lp4124
S''
asbasbasbasbasbasbasbasbasbasbasbag57
(g73
g59
NtRp4125
(dp4126
g62
(dp4127
sg71
g3891
sg64
(lp4128
g57
(g78
g59
NtRp4129
(dp4130
g62
(dp4131
g82
g83
ssg71
g4125
sg64
(lp4132
S'delimiters'
p4133
asbag57
(g78
g59
NtRp4134
(dp4135
g62
(dp4136
g89
g90
ssg71
g4125
sg64
(lp4137
S':'
asbag57
(g78
g59
NtRp4138
(dp4139
g62
(dp4140
sg71
g4125
sg64
(lp4141
g57
(g58
g59
NtRp4142
(dp4143
g62
(dp4144
g70
I5
ssg71
g4138
sg64
(lp4145
g57
(g66
g59
NtRp4146
(dp4147
g62
(dp4148
g70
I4
ssg71
Nsg64
(lp4149
g57
(g73
g59
NtRp4150
(dp4151
g62
(dp4152
sg71
g4146
sg64
(lp4153
g57
(g78
g59
NtRp4154
(dp4155
g62
(dp4156
sg71
g4150
sg64
(lp4157
g57
(g58
g59
NtRp4158
(dp4159
g62
(dp4160
g70
I4
ssg71
g4154
sg64
(lp4161
S'{{'
p4162
asbasbasbag57
(g73
g59
NtRp4163
(dp4164
g62
(dp4165
sg71
g4146
sg64
(lp4166
g57
(g78
g59
NtRp4167
(dp4168
g62
(dp4169
sg71
g4163
sg64
(lp4170
g57
(g58
g59
NtRp4171
(dp4172
g62
(dp4173
g70
I4
ssg71
g4167
sg64
(lp4174
S'}}'
p4175
asbasbasbasbasbasbasbag57
(g73
g59
NtRp4176
(dp4177
g62
(dp4178
sg71
g3891
sg64
(lp4179
g57
(g78
g59
NtRp4180
(dp4181
g62
(dp4182
g82
g83
ssg71
g4176
sg64
(lp4183
S'files'
p4184
asbag57
(g78
g59
NtRp4185
(dp4186
g62
(dp4187
g89
g90
ssg71
g4176
sg64
(lp4188
S':'
asbag57
(g78
g59
NtRp4189
(dp4190
g62
(dp4191
sg71
g4176
sg64
(lp4192
g57
(g58
g59
NtRp4193
(dp4194
g62
(dp4195
g70
I5
ssg71
g4189
sg64
(lp4196
g57
(g66
g59
NtRp4197
(dp4198
g62
(dp4199
g70
I4
ssg71
Nsg64
(lp4200
g57
(g73
g59
NtRp4201
(dp4202
g62
(dp4203
sg71
g4197
sg64
(lp4204
g57
(g78
g59
NtRp4205
(dp4206
g62
(dp4207
sg71
g4201
sg64
(lp4208
g57
(g58
g59
NtRp4209
(dp4210
g62
(dp4211
g70
I4
ssg71
g4205
sg64
(lp4212
S'/Assignment_2/static/js/jquery.js'
p4213
asbasbasbag57
(g73
g59
NtRp4214
(dp4215
g62
(dp4216
sg71
g4197
sg64
(lp4217
g57
(g78
g59
NtRp4218
(dp4219
g62
(dp4220
sg71
g4214
sg64
(lp4221
g57
(g58
g59
NtRp4222
(dp4223
g62
(dp4224
g70
I4
ssg71
g4218
sg64
(lp4225
S'/Assignment_2/static/css/calendar.css'
p4226
asbasbasbag57
(g73
g59
NtRp4227
(dp4228
g62
(dp4229
sg71
g4197
sg64
(lp4230
g57
(g78
g59
NtRp4231
(dp4232
g62
(dp4233
sg71
g4227
sg64
(lp4234
g57
(g58
g59
NtRp4235
(dp4236
g62
(dp4237
g70
I4
ssg71
g4231
sg64
(lp4238
S'/Assignment_2/static/js/calendar.js'
p4239
asbasbasbag57
(g73
g59
NtRp4240
(dp4241
g62
(dp4242
sg71
g4197
sg64
(lp4243
g57
(g78
g59
NtRp4244
(dp4245
g62
(dp4246
sg71
g4240
sg64
(lp4247
g57
(g58
g59
NtRp4248
(dp4249
g62
(dp4250
g70
I4
ssg71
g4244
sg64
(lp4251
S'/Assignment_2/static/js/web2py.js'
p4252
asbasbasbag57
(g73
g59
NtRp4253
(dp4254
g62
(dp4255
sg71
g4197
sg64
(lp4256
g57
(g78
g59
NtRp4257
(dp4258
g62
(dp4259
sg71
g4253
sg64
(lp4260
g57
(g58
g59
NtRp4261
(dp4262
g62
(dp4263
g70
I4
ssg71
g4257
sg64
(lp4264
S'/Assignment_2/static/css/web2py.css'
p4265
asbasbasbag57
(g73
g59
NtRp4266
(dp4267
g62
(dp4268
sg71
g4197
sg64
(lp4269
g57
(g78
g59
NtRp4270
(dp4271
g62
(dp4272
sg71
g4266
sg64
(lp4273
g57
(g58
g59
NtRp4274
(dp4275
g62
(dp4276
g70
I4
ssg71
g4270
sg64
(lp4277
S'/Assignment_2/static/css/bootstrap.min.css'
p4278
asbasbasbag57
(g73
g59
NtRp4279
(dp4280
g62
(dp4281
sg71
g4197
sg64
(lp4282
g57
(g78
g59
NtRp4283
(dp4284
g62
(dp4285
sg71
g4279
sg64
(lp4286
g57
(g58
g59
NtRp4287
(dp4288
g62
(dp4289
g70
I4
ssg71
g4283
sg64
(lp4290
S'/Assignment_2/static/css/bootstrap-responsive.min.css'
p4291
asbasbasbag57
(g73
g59
NtRp4292
(dp4293
g62
(dp4294
sg71
g4197
sg64
(lp4295
g57
(g78
g59
NtRp4296
(dp4297
g62
(dp4298
sg71
g4292
sg64
(lp4299
g57
(g58
g59
NtRp4300
(dp4301
g62
(dp4302
g70
I4
ssg71
g4296
sg64
(lp4303
S'/Assignment_2/static/css/web2py_bootstrap.css'
p4304
asbasbasbasbasbasbasbag57
(g73
g59
NtRp4305
(dp4306
g62
(dp4307
sg71
g3891
sg64
(lp4308
g57
(g78
g59
NtRp4309
(dp4310
g62
(dp4311
g82
g83
ssg71
g4305
sg64
(lp4312
S'flash'
p4313
asbag57
(g78
g59
NtRp4314
(dp4315
g62
(dp4316
g89
g90
ssg71
g4305
sg64
(lp4317
S':'
asbag57
(g78
g59
NtRp4318
(dp4319
g62
(dp4320
sg71
g4305
sg64
(lp4321
g57
(g58
g59
NtRp4322
(dp4323
g62
(dp4324
g70
I5
ssg71
g4318
sg64
(lp4325
S''
asbasbasbag57
(g73
g59
NtRp4326
(dp4327
g62
(dp4328
sg71
g3891
sg64
(lp4329
g57
(g78
g59
NtRp4330
(dp4331
g62
(dp4332
g82
g83
ssg71
g4326
sg64
(lp4333
S'generic_patterns'
p4334
asbag57
(g78
g59
NtRp4335
(dp4336
g62
(dp4337
g89
g90
ssg71
g4326
sg64
(lp4338
S':'
asbag57
(g78
g59
NtRp4339
(dp4340
g62
(dp4341
sg71
g4326
sg64
(lp4342
g57
(g58
g59
NtRp4343
(dp4344
g62
(dp4345
g70
I5
ssg71
g4339
sg64
(lp4346
g57
(g66
g59
NtRp4347
(dp4348
g62
(dp4349
g70
I4
ssg71
Nsg64
(lp4350
g57
(g73
g59
NtRp4351
(dp4352
g62
(dp4353
sg71
g4347
sg64
(lp4354
g57
(g78
g59
NtRp4355
(dp4356
g62
(dp4357
sg71
g4351
sg64
(lp4358
g57
(g58
g59
NtRp4359
(dp4360
g62
(dp4361
g70
I4
ssg71
g4355
sg64
(lp4362
S'*'
asbasbasbasbasbasbasbag57
(g73
g59
NtRp4363
(dp4364
g62
(dp4365
sg71
g3891
sg64
(lp4366
g57
(g78
g59
NtRp4367
(dp4368
g62
(dp4369
g82
g83
ssg71
g4363
sg64
(lp4370
S'google_analytics_id'
p4371
asbag57
(g78
g59
NtRp4372
(dp4373
g62
(dp4374
g89
g90
ssg71
g4363
sg64
(lp4375
S':'
asbag57
(g78
g59
NtRp4376
(dp4377
g62
(dp4378
sg71
g4363
sg64
(lp4379
g57
(g58
g59
NtRp4380
(dp4381
g62
(dp4382
g70
I5
ssg71
g4376
sg64
(lp4383
S'None'
p4384
asbasbasbag57
(g73
g59
NtRp4385
(dp4386
g62
(dp4387
sg71
g3891
sg64
(lp4388
g57
(g78
g59
NtRp4389
(dp4390
g62
(dp4391
g82
g83
ssg71
g4385
sg64
(lp4392
S'headers'
p4393
asbag57
(g78
g59
NtRp4394
(dp4395
g62
(dp4396
g89
g90
ssg71
g4385
sg64
(lp4397
S':'
asbag57
(g78
g59
NtRp4398
(dp4399
g62
(dp4400
sg71
g4385
sg64
(lp4401
g57
(g58
g59
NtRp4402
(dp4403
g62
(dp4404
g70
I5
ssg71
g4398
sg64
(lp4405
g57
(g66
g59
NtRp4406
(dp4407
g62
(dp4408
g70
I4
ssg71
Nsg64
(lp4409
g57
(g73
g59
NtRp4410
(dp4411
g62
(dp4412
sg71
g4406
sg64
(lp4413
g57
(g78
g59
NtRp4414
(dp4415
g62
(dp4416
g82
g83
ssg71
g4410
sg64
(lp4417
S'X-Powered-By'
p4418
asbag57
(g78
g59
NtRp4419
(dp4420
g62
(dp4421
g89
g90
ssg71
g4410
sg64
(lp4422
S':'
asbag57
(g78
g59
NtRp4423
(dp4424
g62
(dp4425
sg71
g4410
sg64
(lp4426
g57
(g58
g59
NtRp4427
(dp4428
g62
(dp4429
g70
I4
ssg71
g4423
sg64
(lp4430
S'web2py'
p4431
asbasbasbasbasbasbasbag57
(g73
g59
NtRp4432
(dp4433
g62
(dp4434
sg71
g3891
sg64
(lp4435
g57
(g78
g59
NtRp4436
(dp4437
g62
(dp4438
g82
g83
ssg71
g4432
sg64
(lp4439
S'logo'
p4440
asbag57
(g78
g59
NtRp4441
(dp4442
g62
(dp4443
g89
g90
ssg71
g4432
sg64
(lp4444
S':'
asbag57
(g78
g59
NtRp4445
(dp4446
g62
(dp4447
sg71
g4432
sg64
(lp4448
g57
(g58
g59
NtRp4449
(dp4450
g62
(dp4451
g70
I5
ssg71
g4445
sg64
(lp4452
g57
(cgluon.html
A
p4453
g59
NtRp4454
(dp4455
g62
(dp4456
S'_class'
p4457
S'brand'
p4458
sS'_href'
p4459
S'http://www.web2py.com/'
p4460
ssg71
Nsg64
(lp4461
g57
(cgluon.html
B
p4462
g59
NtRp4463
(dp4464
g62
(dp4465
sg71
g4454
sg64
(lp4466
S'web'
p4467
ag57
(cgluon.html
SPAN
p4468
g59
NtRp4469
(dp4470
g62
(dp4471
sg71
g4463
sg64
(lp4472
I2
asbaS'py'
p4473
asbacgluon.html
XML_unpickle
p4474
(S's\r\x00\x00\x00&trade;&nbsp;'
tRp4475
asbasbasbasbag57
(g73
g59
NtRp4476
(dp4477
g62
(dp4478
sg71
g3891
sg64
(lp4479
g57
(g78
g59
NtRp4480
(dp4481
g62
(dp4482
g82
g83
ssg71
g4476
sg64
(lp4483
S'menu'
p4484
asbag57
(g78
g59
NtRp4485
(dp4486
g62
(dp4487
g89
g90
ssg71
g4476
sg64
(lp4488
S':'
asbag57
(g78
g59
NtRp4489
(dp4490
g62
(dp4491
sg71
g4476
sg64
(lp4492
g57
(g58
g59
NtRp4493
(dp4494
g62
(dp4495
g70
I5
ssg71
g4489
sg64
(lp4496
g57
(g66
g59
NtRp4497
(dp4498
g62
(dp4499
g70
I4
ssg71
Nsg64
(lp4500
g57
(g73
g59
NtRp4501
(dp4502
g62
(dp4503
sg71
g4497
sg64
(lp4504
g57
(g78
g59
NtRp4505
(dp4506
g62
(dp4507
sg71
g4501
sg64
(lp4508
g57
(g58
g59
NtRp4509
(dp4510
g62
(dp4511
g70
I4
ssg71
g4505
sg64
(lp4512
g57
(g66
g59
NtRp4513
(dp4514
g62
(dp4515
g70
I3
ssg71
Nsg64
(lp4516
g57
(g73
g59
NtRp4517
(dp4518
g62
(dp4519
sg71
g4513
sg64
(lp4520
g57
(g78
g59
NtRp4521
(dp4522
g62
(dp4523
sg71
g4517
sg64
(lp4524
g57
(g58
g59
NtRp4525
(dp4526
g62
(dp4527
g70
I3
ssg71
g4521
sg64
(lp4528
cgluon.languages
lazyT_unpickle
p4529
(S's\x04\x00\x00\x00Home'
tRp4530
asbasbasbag57
(g73
g59
NtRp4531
(dp4532
g62
(dp4533
sg71
g4513
sg64
(lp4534
g57
(g78
g59
NtRp4535
(dp4536
g62
(dp4537
sg71
g4531
sg64
(lp4538
g57
(g58
g59
NtRp4539
(dp4540
g62
(dp4541
g70
I3
ssg71
g4535
sg64
(lp4542
g100
asbasbasbag57
(g73
g59
NtRp4543
(dp4544
g62
(dp4545
sg71
g4513
sg64
(lp4546
g57
(g78
g59
NtRp4547
(dp4548
g62
(dp4549
sg71
g4543
sg64
(lp4550
g57
(g58
g59
NtRp4551
(dp4552
g62
(dp4553
g70
I3
ssg71
g4547
sg64
(lp4554
S'/Assignment_2/default/index'
p4555
asbasbasbag57
(g73
g59
NtRp4556
(dp4557
g62
(dp4558
sg71
g4513
sg64
(lp4559
g57
(g78
g59
NtRp4560
(dp4561
g62
(dp4562
sg71
g4556
sg64
(lp4563
g57
(g58
g59
NtRp4564
(dp4565
g62
(dp4566
g70
I3
ssg71
g4560
sg64
(lp4567
g57
(g66
g59
NtRp4568
(dp4569
g62
(dp4570
g70
I2
ssg71
Nsg64
(lp4571
sbasbasbasbasbasbasbasbag57
(g73
g59
NtRp4572
(dp4573
g62
(dp4574
sg71
g4497
sg64
(lp4575
g57
(g78
g59
NtRp4576
(dp4577
g62
(dp4578
sg71
g4572
sg64
(lp4579
g57
(g58
g59
NtRp4580
(dp4581
g62
(dp4582
g70
I4
ssg71
g4576
sg64
(lp4583
g57
(g66
g59
NtRp4584
(dp4585
g62
(dp4586
g70
I3
ssg71
Nsg64
(lp4587
g57
(g73
g59
NtRp4588
(dp4589
g62
(dp4590
sg71
g4584
sg64
(lp4591
g57
(g78
g59
NtRp4592
(dp4593
g62
(dp4594
sg71
g4588
sg64
(lp4595
g57
(g58
g59
NtRp4596
(dp4597
g62
(dp4598
g70
I3
ssg71
g4592
sg64
(lp4599
g57
(g4468
g59
NtRp4600
(dp4601
g62
(dp4602
g4457
S'highlighted'
p4603
ssg71
g57
(g4453
g59
NtRp4604
(dp4605
g62
(dp4606
g4459
S'http://web2py.com'
p4607
ssg71
g57
(cgluon.html
LI
p4608
g59
NtRp4609
(dp4610
g62
(dp4611
g4457
S'dropdown'
p4612
ssg71
g57
(cgluon.html
UL
p4613
g59
NtRp4614
(dp4615
g62
(dp4616
S'mobile'
p4617
I00
sS'ul_class'
p4618
S'dropdown-menu'
p4619
sS'li_last'
p4620
S'web2py-menu-last'
p4621
sS'li_class'
p4622
g4612
sS'li_first'
p4623
S'web2py-menu-first'
p4624
sg4457
S'nav'
p4625
sS'li_active'
p4626
S'web2py-menu-active'
p4627
ssg71
Nsg64
(lp4628
g57
(g4608
g59
NtRp4629
(dp4630
g62
(dp4631
g4457
g4624
ssg71
g4614
sg64
(lp4632
g57
(g4453
g59
NtRp4633
(dp4634
g62
(dp4635
g4459
g4555
ssg71
g4629
sg64
(lp4636
g4530
asbasbag4609
asbsg64
(lp4637
g4604
ag57
(g4613
g59
NtRp4638
(dp4639
g62
(dp4640
g4457
g4619
ssg71
g4609
sg64
(lp4641
g57
(g4608
g59
NtRp4642
(dp4643
g62
(dp4644
sg71
g4638
sg64
(lp4645
g57
(g4453
g59
NtRp4646
(dp4647
g62
(dp4648
g4459
S'/admin/default/site'
p4649
ssg71
g4642
sg64
(lp4650
g4529
(S's\x08\x00\x00\x00My Sites'
tRp4651
asbasbag57
(g4608
g59
NtRp4652
(dp4653
g62
(dp4654
g4457
g4612
ssg71
g4638
sg64
(lp4655
g57
(g4453
g59
NtRp4656
(dp4657
g62
(dp4658
g4459
S'/admin/default/design/Assignment_2'
p4659
ssg71
g4652
sg64
(lp4660
g4529
(S's\x08\x00\x00\x00This App'
tRp4661
asbag57
(g4613
g59
NtRp4662
(dp4663
g62
(dp4664
g4457
g4619
ssg71
g4652
sg64
(lp4665
g57
(g4608
g59
NtRp4666
(dp4667
g62
(dp4668
sg71
g4662
sg64
(lp4669
g57
(g4453
g59
NtRp4670
(dp4671
g62
(dp4672
g4459
S'/admin/default/edit/Assignment_2/controllers/default.py'
p4673
ssg71
g4666
sg64
(lp4674
g4529
(S's\n\x00\x00\x00Controller'
tRp4675
asbasbag57
(g4608
g59
NtRp4676
(dp4677
g62
(dp4678
sg71
g4662
sg64
(lp4679
g57
(g4453
g59
NtRp4680
(dp4681
g62
(dp4682
g4459
S'/admin/default/edit/Assignment_2/views/default/display.html'
p4683
ssg71
g4676
sg64
(lp4684
g4529
(S's\x04\x00\x00\x00View'
tRp4685
asbasbag57
(g4608
g59
NtRp4686
(dp4687
g62
(dp4688
sg71
g4662
sg64
(lp4689
g57
(g4453
g59
NtRp4690
(dp4691
g62
(dp4692
g4459
S'/admin/default/edit/Assignment_2/views/layout.html'
p4693
ssg71
g4686
sg64
(lp4694
g4529
(S's\x06\x00\x00\x00Layout'
tRp4695
asbasbag57
(g4608
g59
NtRp4696
(dp4697
g62
(dp4698
sg71
g4662
sg64
(lp4699
g57
(g4453
g59
NtRp4700
(dp4701
g62
(dp4702
g4459
S'/admin/default/edit/Assignment_2/static/css/web2py.css'
p4703
ssg71
g4696
sg64
(lp4704
g4529
(S's\n\x00\x00\x00Stylesheet'
tRp4705
asbasbag57
(g4608
g59
NtRp4706
(dp4707
g62
(dp4708
sg71
g4662
sg64
(lp4709
g57
(g4453
g59
NtRp4710
(dp4711
g62
(dp4712
g4459
S'/admin/default/edit/Assignment_2/models/db.py'
p4713
ssg71
g4706
sg64
(lp4714
g4529
(S's\x08\x00\x00\x00DB Model'
tRp4715
asbasbag57
(g4608
g59
NtRp4716
(dp4717
g62
(dp4718
sg71
g4662
sg64
(lp4719
g57
(g4453
g59
NtRp4720
(dp4721
g62
(dp4722
g4459
S'/admin/default/edit/Assignment_2/models/menu.py'
p4723
ssg71
g4716
sg64
(lp4724
g4529
(S's\n\x00\x00\x00Menu Model'
tRp4725
asbasbag57
(g4608
g59
NtRp4726
(dp4727
g62
(dp4728
sg71
g4662
sg64
(lp4729
g57
(g4453
g59
NtRp4730
(dp4731
g62
(dp4732
g4459
S'/Assignment_2/appadmin/index'
p4733
ssg71
g4726
sg64
(lp4734
g4529
(S's\x08\x00\x00\x00Database'
tRp4735
asbasbag57
(g4608
g59
NtRp4736
(dp4737
g62
(dp4738
sg71
g4662
sg64
(lp4739
g57
(g4453
g59
NtRp4740
(dp4741
g62
(dp4742
g4459
S'/admin/default/errors/Assignment_2'
p4743
ssg71
g4736
sg64
(lp4744
g4529
(S's\x06\x00\x00\x00Errors'
tRp4745
asbasbag57
(g4608
g59
NtRp4746
(dp4747
g62
(dp4748
sg71
g4662
sg64
(lp4749
g57
(g4453
g59
NtRp4750
(dp4751
g62
(dp4752
g4459
S'/admin/default/about/Assignment_2'
p4753
ssg71
g4746
sg64
(lp4754
g4529
(S's\x05\x00\x00\x00About'
tRp4755
asbasbasbasbag57
(g4608
g59
NtRp4756
(dp4757
g62
(dp4758
g4457
g4612
ssg71
g4638
sg64
(lp4759
g57
(g4453
g59
NtRp4760
(dp4761
g62
(dp4762
g4459
S'http://www.web2py.com'
p4763
ssg71
g4756
sg64
(lp4764
S'web2py.com'
p4765
asbag57
(g4613
g59
NtRp4766
(dp4767
g62
(dp4768
g4457
g4619
ssg71
g4756
sg64
(lp4769
g57
(g4608
g59
NtRp4770
(dp4771
g62
(dp4772
sg71
g4766
sg64
(lp4773
g57
(g4453
g59
NtRp4774
(dp4775
g62
(dp4776
g4459
S'http://www.web2py.com/examples/default/download'
p4777
ssg71
g4770
sg64
(lp4778
g4529
(S's\x08\x00\x00\x00Download'
tRp4779
asbasbag57
(g4608
g59
NtRp4780
(dp4781
g62
(dp4782
sg71
g4766
sg64
(lp4783
g57
(g4453
g59
NtRp4784
(dp4785
g62
(dp4786
g4459
S'http://www.web2py.com/examples/default/support'
p4787
ssg71
g4780
sg64
(lp4788
g4529
(S's\x07\x00\x00\x00Support'
tRp4789
asbasbag57
(g4608
g59
NtRp4790
(dp4791
g62
(dp4792
sg71
g4766
sg64
(lp4793
g57
(g4453
g59
NtRp4794
(dp4795
g62
(dp4796
g4459
S'http://web2py.com/demo_admin'
p4797
ssg71
g4790
sg64
(lp4798
g4529
(S's\x04\x00\x00\x00Demo'
tRp4799
asbasbag57
(g4608
g59
NtRp4800
(dp4801
g62
(dp4802
sg71
g4766
sg64
(lp4803
g57
(g4453
g59
NtRp4804
(dp4805
g62
(dp4806
g4459
S'http://web2py.com/examples/default/examples'
p4807
ssg71
g4800
sg64
(lp4808
g4529
(S's\x0e\x00\x00\x00Quick Examples'
tRp4809
asbasbag57
(g4608
g59
NtRp4810
(dp4811
g62
(dp4812
sg71
g4766
sg64
(lp4813
g57
(g4453
g59
NtRp4814
(dp4815
g62
(dp4816
g4459
S'http://web2py.com/AlterEgo'
p4817
ssg71
g4810
sg64
(lp4818
g4529
(S's\x03\x00\x00\x00FAQ'
tRp4819
asbasbag57
(g4608
g59
NtRp4820
(dp4821
g62
(dp4822
sg71
g4766
sg64
(lp4823
g57
(g4453
g59
NtRp4824
(dp4825
g62
(dp4826
g4459
S'http://www.web2py.com/examples/default/videos/'
p4827
ssg71
g4820
sg64
(lp4828
g4529
(S's\x06\x00\x00\x00Videos'
tRp4829
asbasbag57
(g4608
g59
NtRp4830
(dp4831
g62
(dp4832
sg71
g4766
sg64
(lp4833
g57
(g4453
g59
NtRp4834
(dp4835
g62
(dp4836
g4459
S'http://web2py.com/appliances'
p4837
ssg71
g4830
sg64
(lp4838
g4529
(S's\x11\x00\x00\x00Free Applications'
tRp4839
asbasbag57
(g4608
g59
NtRp4840
(dp4841
g62
(dp4842
sg71
g4766
sg64
(lp4843
g57
(g4453
g59
NtRp4844
(dp4845
g62
(dp4846
g4459
S'http://web2py.com/plugins'
p4847
ssg71
g4840
sg64
(lp4848
g4529
(S's\x07\x00\x00\x00Plugins'
tRp4849
asbasbag57
(g4608
g59
NtRp4850
(dp4851
g62
(dp4852
sg71
g4766
sg64
(lp4853
g57
(g4453
g59
NtRp4854
(dp4855
g62
(dp4856
g4459
S'http://web2py.com/layouts'
p4857
ssg71
g4850
sg64
(lp4858
g4529
(S's\x07\x00\x00\x00Layouts'
tRp4859
asbasbag57
(g4608
g59
NtRp4860
(dp4861
g62
(dp4862
sg71
g4766
sg64
(lp4863
g57
(g4453
g59
NtRp4864
(dp4865
g62
(dp4866
g4459
S'http://web2pyslices.com/'
p4867
ssg71
g4860
sg64
(lp4868
g4529
(S's\x07\x00\x00\x00Recipes'
tRp4869
asbasbag57
(g4608
g59
NtRp4870
(dp4871
g62
(dp4872
sg71
g4766
sg64
(lp4873
g57
(g4453
g59
NtRp4874
(dp4875
g62
(dp4876
g4459
S'http://web2py.com/semantic'
p4877
ssg71
g4870
sg64
(lp4878
g4529
(S's\x08\x00\x00\x00Semantic'
tRp4879
asbasbasbasbag57
(g4608
g59
NtRp4880
(dp4881
g62
(dp4882
g4457
g4612
ssg71
g4638
sg64
(lp4883
g57
(g4453
g59
NtRp4884
(dp4885
g62
(dp4886
g4459
S'http://www.web2py.com/book'
p4887
ssg71
g4880
sg64
(lp4888
g4529
(S's\r\x00\x00\x00Documentation'
tRp4889
asbag57
(g4613
g59
NtRp4890
(dp4891
g62
(dp4892
g4457
g4619
ssg71
g4880
sg64
(lp4893
g57
(g4608
g59
NtRp4894
(dp4895
g62
(dp4896
sg71
g4890
sg64
(lp4897
g57
(g4453
g59
NtRp4898
(dp4899
g62
(dp4900
g4459
S'http://www.web2py.com/book/default/chapter/00'
p4901
ssg71
g4894
sg64
(lp4902
g4529
(S's\x07\x00\x00\x00Preface'
tRp4903
asbasbag57
(g4608
g59
NtRp4904
(dp4905
g62
(dp4906
sg71
g4890
sg64
(lp4907
g57
(g4453
g59
NtRp4908
(dp4909
g62
(dp4910
g4459
S'http://www.web2py.com/book/default/chapter/01'
p4911
ssg71
g4904
sg64
(lp4912
g4529
(S's\x0c\x00\x00\x00Introduction'
tRp4913
asbasbag57
(g4608
g59
NtRp4914
(dp4915
g62
(dp4916
sg71
g4890
sg64
(lp4917
g57
(g4453
g59
NtRp4918
(dp4919
g62
(dp4920
g4459
S'http://www.web2py.com/book/default/chapter/02'
p4921
ssg71
g4914
sg64
(lp4922
g4529
(S's\x06\x00\x00\x00Python'
tRp4923
asbasbag57
(g4608
g59
NtRp4924
(dp4925
g62
(dp4926
sg71
g4890
sg64
(lp4927
g57
(g4453
g59
NtRp4928
(dp4929
g62
(dp4930
g4459
S'http://www.web2py.com/book/default/chapter/03'
p4931
ssg71
g4924
sg64
(lp4932
g4529
(S's\x08\x00\x00\x00Overview'
tRp4933
asbasbag57
(g4608
g59
NtRp4934
(dp4935
g62
(dp4936
sg71
g4890
sg64
(lp4937
g57
(g4453
g59
NtRp4938
(dp4939
g62
(dp4940
g4459
S'http://www.web2py.com/book/default/chapter/04'
p4941
ssg71
g4934
sg64
(lp4942
g4529
(S's\x08\x00\x00\x00The Core'
tRp4943
asbasbag57
(g4608
g59
NtRp4944
(dp4945
g62
(dp4946
sg71
g4890
sg64
(lp4947
g57
(g4453
g59
NtRp4948
(dp4949
g62
(dp4950
g4459
S'http://www.web2py.com/book/default/chapter/05'
p4951
ssg71
g4944
sg64
(lp4952
g4529
(S's\t\x00\x00\x00The Views'
tRp4953
asbasbag57
(g4608
g59
NtRp4954
(dp4955
g62
(dp4956
sg71
g4890
sg64
(lp4957
g57
(g4453
g59
NtRp4958
(dp4959
g62
(dp4960
g4459
S'http://www.web2py.com/book/default/chapter/06'
p4961
ssg71
g4954
sg64
(lp4962
g4529
(S's\x08\x00\x00\x00Database'
tRp4963
asbasbag57
(g4608
g59
NtRp4964
(dp4965
g62
(dp4966
sg71
g4890
sg64
(lp4967
g57
(g4453
g59
NtRp4968
(dp4969
g62
(dp4970
g4459
S'http://www.web2py.com/book/default/chapter/07'
p4971
ssg71
g4964
sg64
(lp4972
g4529
(S's\x14\x00\x00\x00Forms and Validators'
tRp4973
asbasbag57
(g4608
g59
NtRp4974
(dp4975
g62
(dp4976
sg71
g4890
sg64
(lp4977
g57
(g4453
g59
NtRp4978
(dp4979
g62
(dp4980
g4459
S'http://www.web2py.com/book/default/chapter/08'
p4981
ssg71
g4974
sg64
(lp4982
g4529
(S's\r\x00\x00\x00Email and SMS'
tRp4983
asbasbag57
(g4608
g59
NtRp4984
(dp4985
g62
(dp4986
sg71
g4890
sg64
(lp4987
g57
(g4453
g59
NtRp4988
(dp4989
g62
(dp4990
g4459
S'http://www.web2py.com/book/default/chapter/09'
p4991
ssg71
g4984
sg64
(lp4992
g4529
(S's\x0e\x00\x00\x00Access Control'
tRp4993
asbasbag57
(g4608
g59
NtRp4994
(dp4995
g62
(dp4996
sg71
g4890
sg64
(lp4997
g57
(g4453
g59
NtRp4998
(dp4999
g62
(dp5000
g4459
S'http://www.web2py.com/book/default/chapter/10'
p5001
ssg71
g4994
sg64
(lp5002
g4529
(S's\x08\x00\x00\x00Services'
tRp5003
asbasbag57
(g4608
g59
NtRp5004
(dp5005
g62
(dp5006
sg71
g4890
sg64
(lp5007
g57
(g4453
g59
NtRp5008
(dp5009
g62
(dp5010
g4459
S'http://www.web2py.com/book/default/chapter/11'
p5011
ssg71
g5004
sg64
(lp5012
g4529
(S's\x0c\x00\x00\x00Ajax Recipes'
tRp5013
asbasbag57
(g4608
g59
NtRp5014
(dp5015
g62
(dp5016
sg71
g4890
sg64
(lp5017
g57
(g4453
g59
NtRp5018
(dp5019
g62
(dp5020
g4459
S'http://www.web2py.com/book/default/chapter/12'
p5021
ssg71
g5014
sg64
(lp5022
g4529
(S's\x16\x00\x00\x00Components and Plugins'
tRp5023
asbasbag57
(g4608
g59
NtRp5024
(dp5025
g62
(dp5026
sg71
g4890
sg64
(lp5027
g57
(g4453
g59
NtRp5028
(dp5029
g62
(dp5030
g4459
S'http://www.web2py.com/book/default/chapter/13'
p5031
ssg71
g5024
sg64
(lp5032
g4529
(S's\x12\x00\x00\x00Deployment Recipes'
tRp5033
asbasbag57
(g4608
g59
NtRp5034
(dp5035
g62
(dp5036
sg71
g4890
sg64
(lp5037
g57
(g4453
g59
NtRp5038
(dp5039
g62
(dp5040
g4459
S'http://www.web2py.com/book/default/chapter/14'
p5041
ssg71
g5034
sg64
(lp5042
g4529
(S's\r\x00\x00\x00Other Recipes'
tRp5043
asbasbag57
(g4608
g59
NtRp5044
(dp5045
g62
(dp5046
sg71
g4890
sg64
(lp5047
g57
(g4453
g59
NtRp5048
(dp5049
g62
(dp5050
g4459
S'http://stores.lulu.com/web2py'
p5051
ssg71
g5044
sg64
(lp5052
g4529
(S's\r\x00\x00\x00Buy this book'
tRp5053
asbasbasbasbag57
(g4608
g59
NtRp5054
(dp5055
g62
(dp5056
g4457
g4612
ssg71
g4638
sg64
(lp5057
g57
(g4453
g59
NtRp5058
(dp5059
g62
(dp5060
S'_onclick'
p5061
S'javascript:void(0);return false;'
p5062
sg4459
S'#'
ssg71
g5054
sg64
(lp5063
g4529
(S's\t\x00\x00\x00Community'
tRp5064
asbag57
(g4613
g59
NtRp5065
(dp5066
g62
(dp5067
g4457
g4619
ssg71
g5054
sg64
(lp5068
g57
(g4608
g59
NtRp5069
(dp5070
g62
(dp5071
sg71
g5065
sg64
(lp5072
g57
(g4453
g59
NtRp5073
(dp5074
g62
(dp5075
g4459
S'http://www.web2py.com/examples/default/usergroups'
p5076
ssg71
g5069
sg64
(lp5077
g4529
(S's\x06\x00\x00\x00Groups'
tRp5078
asbasbag57
(g4608
g59
NtRp5079
(dp5080
g62
(dp5081
sg71
g5065
sg64
(lp5082
g57
(g4453
g59
NtRp5083
(dp5084
g62
(dp5085
g4459
S'http://twitter.com/web2py'
p5086
ssg71
g5079
sg64
(lp5087
g4529
(S's\x07\x00\x00\x00Twitter'
tRp5088
asbasbag57
(g4608
g59
NtRp5089
(dp5090
g62
(dp5091
sg71
g5065
sg64
(lp5092
g57
(g4453
g59
NtRp5093
(dp5094
g62
(dp5095
g4459
S'http://webchat.freenode.net/?channels=web2py'
p5096
ssg71
g5089
sg64
(lp5097
g4529
(S's\t\x00\x00\x00Live Chat'
tRp5098
asbasbasbasbag57
(g4608
g59
NtRp5099
(dp5100
g62
(dp5101
g4457
g4612
ssg71
g4638
sg64
(lp5102
g57
(g4453
g59
NtRp5103
(dp5104
g62
(dp5105
g5061
g5062
sg4459
S'#'
ssg71
g5099
sg64
(lp5106
g4529
(S's\x07\x00\x00\x00Plugins'
tRp5107
asbag57
(g4613
g59
NtRp5108
(dp5109
g62
(dp5110
g4457
g4619
ssg71
g5099
sg64
(lp5111
g57
(g4608
g59
NtRp5112
(dp5113
g62
(dp5114
sg71
g5108
sg64
(lp5115
g57
(g4453
g59
NtRp5116
(dp5117
g62
(dp5118
g4459
S'http://web2py.com/examples/default/download'
p5119
ssg71
g5112
sg64
(lp5120
S'plugin_wiki'
p5121
asbasbag57
(g4608
g59
NtRp5122
(dp5123
g62
(dp5124
sg71
g5108
sg64
(lp5125
g57
(g4453
g59
NtRp5126
(dp5127
g62
(dp5128
g4459
g4847
ssg71
g5122
sg64
(lp5129
g4529
(S's\r\x00\x00\x00Other Plugins'
tRp5130
asbasbag57
(g4608
g59
NtRp5131
(dp5132
g62
(dp5133
sg71
g5108
sg64
(lp5134
g57
(g4453
g59
NtRp5135
(dp5136
g62
(dp5137
g4459
g4857
ssg71
g5131
sg64
(lp5138
g4529
(S's\x0e\x00\x00\x00Layout Plugins'
tRp5139
asbasbasbasbasbasbsg64
(lp5140
g4600
asbsg64
(lp5141
g4431
asbasbasbasbag57
(g73
g59
NtRp5142
(dp5143
g62
(dp5144
sg71
g4584
sg64
(lp5145
g57
(g78
g59
NtRp5146
(dp5147
g62
(dp5148
sg71
g5142
sg64
(lp5149
g57
(g58
g59
NtRp5150
(dp5151
g62
(dp5152
g70
I3
ssg71
g5146
sg64
(lp5153
g100
asbasbasbag57
(g73
g59
NtRp5154
(dp5155
g62
(dp5156
sg71
g4584
sg64
(lp5157
g57
(g78
g59
NtRp5158
(dp5159
g62
(dp5160
sg71
g5154
sg64
(lp5161
g57
(g58
g59
NtRp5162
(dp5163
g62
(dp5164
g70
I3
ssg71
g5158
sg64
(lp5165
g4607
asbasbasbag57
(g73
g59
NtRp5166
(dp5167
g62
(dp5168
sg71
g4584
sg64
(lp5169
g57
(g78
g59
NtRp5170
(dp5171
g62
(dp5172
sg71
g5166
sg64
(lp5173
g57
(g58
g59
NtRp5174
(dp5175
g62
(dp5176
g70
I3
ssg71
g5170
sg64
(lp5177
g57
(g66
g59
NtRp5178
(dp5179
g62
(dp5180
g70
I2
ssg71
Nsg64
(lp5181
g57
(g73
g59
NtRp5182
(dp5183
g62
(dp5184
sg71
g5178
sg64
(lp5185
g57
(g78
g59
NtRp5186
(dp5187
g62
(dp5188
sg71
g5182
sg64
(lp5189
g57
(g58
g59
NtRp5190
(dp5191
g62
(dp5192
g70
I2
ssg71
g5186
sg64
(lp5193
g57
(g66
g59
NtRp5194
(dp5195
g62
(dp5196
g70
I1
ssg71
Nsg64
(lp5197
g57
(g73
g59
NtRp5198
(dp5199
g62
(dp5200
sg71
g5194
sg64
(lp5201
g57
(g78
g59
NtRp5202
(dp5203
g62
(dp5204
sg71
g5198
sg64
(lp5205
g57
(g58
g59
NtRp5206
(dp5207
g62
(dp5208
g70
I1
ssg71
g5202
sg64
(lp5209
g4651
asbasbasbag57
(g73
g59
NtRp5210
(dp5211
g62
(dp5212
sg71
g5194
sg64
(lp5213
g57
(g78
g59
NtRp5214
(dp5215
g62
(dp5216
sg71
g5210
sg64
(lp5217
g57
(g58
g59
NtRp5218
(dp5219
g62
(dp5220
g70
I1
ssg71
g5214
sg64
(lp5221
I00
asbasbasbag57
(g73
g59
NtRp5222
(dp5223
g62
(dp5224
sg71
g5194
sg64
(lp5225
g57
(g78
g59
NtRp5226
(dp5227
g62
(dp5228
sg71
g5222
sg64
(lp5229
g57
(g58
g59
NtRp5230
(dp5231
g62
(dp5232
g70
I1
ssg71
g5226
sg64
(lp5233
g4649
asbasbasbasbasbasbasbag57
(g73
g59
NtRp5234
(dp5235
g62
(dp5236
sg71
g5178
sg64
(lp5237
g57
(g78
g59
NtRp5238
(dp5239
g62
(dp5240
sg71
g5234
sg64
(lp5241
g57
(g58
g59
NtRp5242
(dp5243
g62
(dp5244
g70
I2
ssg71
g5238
sg64
(lp5245
g57
(g66
g59
NtRp5246
(dp5247
g62
(dp5248
g70
I1
ssg71
Nsg64
(lp5249
g57
(g73
g59
NtRp5250
(dp5251
g62
(dp5252
sg71
g5246
sg64
(lp5253
g57
(g78
g59
NtRp5254
(dp5255
g62
(dp5256
sg71
g5250
sg64
(lp5257
g57
(g58
g59
NtRp5258
(dp5259
g62
(dp5260
g70
I1
ssg71
g5254
sg64
(lp5261
g4661
asbasbasbag57
(g73
g59
NtRp5262
(dp5263
g62
(dp5264
sg71
g5246
sg64
(lp5265
g57
(g78
g59
NtRp5266
(dp5267
g62
(dp5268
sg71
g5262
sg64
(lp5269
g57
(g58
g59
NtRp5270
(dp5271
g62
(dp5272
g70
I1
ssg71
g5266
sg64
(lp5273
I00
asbasbasbag57
(g73
g59
NtRp5274
(dp5275
g62
(dp5276
sg71
g5246
sg64
(lp5277
g57
(g78
g59
NtRp5278
(dp5279
g62
(dp5280
sg71
g5274
sg64
(lp5281
g57
(g58
g59
NtRp5282
(dp5283
g62
(dp5284
g70
I1
ssg71
g5278
sg64
(lp5285
g4659
asbasbasbag57
(g73
g59
NtRp5286
(dp5287
g62
(dp5288
sg71
g5246
sg64
(lp5289
g57
(g78
g59
NtRp5290
(dp5291
g62
(dp5292
sg71
g5286
sg64
(lp5293
g57
(g58
g59
NtRp5294
(dp5295
g62
(dp5296
g70
I1
ssg71
g5290
sg64
(lp5297
(lp5298
(g4675
I00
g4673
tp5299
a(g4685
I00
g4683
tp5300
a(g4695
I00
g4693
tp5301
a(g4705
I00
g4703
tp5302
a(g4715
I00
g4713
tp5303
a(g4725
I00
g4723
tp5304
a(g4735
I00
g4733
tp5305
a(g4745
I00
g4743
tp5306
a(g4755
I00
g4753
tp5307
aasbasbasbasbasbasbasbag57
(g73
g59
NtRp5308
(dp5309
g62
(dp5310
sg71
g5178
sg64
(lp5311
g57
(g78
g59
NtRp5312
(dp5313
g62
(dp5314
sg71
g5308
sg64
(lp5315
g57
(g58
g59
NtRp5316
(dp5317
g62
(dp5318
g70
I2
ssg71
g5312
sg64
(lp5319
g57
(g66
g59
NtRp5320
(dp5321
g62
(dp5322
g70
I1
ssg71
Nsg64
(lp5323
g57
(g73
g59
NtRp5324
(dp5325
g62
(dp5326
sg71
g5320
sg64
(lp5327
g57
(g78
g59
NtRp5328
(dp5329
g62
(dp5330
sg71
g5324
sg64
(lp5331
g57
(g58
g59
NtRp5332
(dp5333
g62
(dp5334
g70
I1
ssg71
g5328
sg64
(lp5335
g4765
asbasbasbag57
(g73
g59
NtRp5336
(dp5337
g62
(dp5338
sg71
g5320
sg64
(lp5339
g57
(g78
g59
NtRp5340
(dp5341
g62
(dp5342
sg71
g5336
sg64
(lp5343
g57
(g58
g59
NtRp5344
(dp5345
g62
(dp5346
g70
I1
ssg71
g5340
sg64
(lp5347
I00
asbasbasbag57
(g73
g59
NtRp5348
(dp5349
g62
(dp5350
sg71
g5320
sg64
(lp5351
g57
(g78
g59
NtRp5352
(dp5353
g62
(dp5354
sg71
g5348
sg64
(lp5355
g57
(g58
g59
NtRp5356
(dp5357
g62
(dp5358
g70
I1
ssg71
g5352
sg64
(lp5359
g4763
asbasbasbag57
(g73
g59
NtRp5360
(dp5361
g62
(dp5362
sg71
g5320
sg64
(lp5363
g57
(g78
g59
NtRp5364
(dp5365
g62
(dp5366
sg71
g5360
sg64
(lp5367
g57
(g58
g59
NtRp5368
(dp5369
g62
(dp5370
g70
I1
ssg71
g5364
sg64
(lp5371
(lp5372
(g4779
I00
g4777
tp5373
a(g4789
I00
g4787
tp5374
a(g4799
I00
g4797
tp5375
a(g4809
I00
g4807
tp5376
a(g4819
I00
g4817
tp5377
a(g4829
I00
g4827
tp5378
a(g4839
I00
g4837
tp5379
a(g4849
I00
g4847
tp5380
a(g4859
I00
g4857
tp5381
a(g4869
I00
g4867
tp5382
a(g4879
I00
g4877
tp5383
aasbasbasbasbasbasbasbag57
(g73
g59
NtRp5384
(dp5385
g62
(dp5386
sg71
g5178
sg64
(lp5387
g57
(g78
g59
NtRp5388
(dp5389
g62
(dp5390
sg71
g5384
sg64
(lp5391
g57
(g58
g59
NtRp5392
(dp5393
g62
(dp5394
g70
I2
ssg71
g5388
sg64
(lp5395
g57
(g66
g59
NtRp5396
(dp5397
g62
(dp5398
g70
I1
ssg71
Nsg64
(lp5399
g57
(g73
g59
NtRp5400
(dp5401
g62
(dp5402
sg71
g5396
sg64
(lp5403
g57
(g78
g59
NtRp5404
(dp5405
g62
(dp5406
sg71
g5400
sg64
(lp5407
g57
(g58
g59
NtRp5408
(dp5409
g62
(dp5410
g70
I1
ssg71
g5404
sg64
(lp5411
g4889
asbasbasbag57
(g73
g59
NtRp5412
(dp5413
g62
(dp5414
sg71
g5396
sg64
(lp5415
g57
(g78
g59
NtRp5416
(dp5417
g62
(dp5418
sg71
g5412
sg64
(lp5419
g57
(g58
g59
NtRp5420
(dp5421
g62
(dp5422
g70
I1
ssg71
g5416
sg64
(lp5423
I00
asbasbasbag57
(g73
g59
NtRp5424
(dp5425
g62
(dp5426
sg71
g5396
sg64
(lp5427
g57
(g78
g59
NtRp5428
(dp5429
g62
(dp5430
sg71
g5424
sg64
(lp5431
g57
(g58
g59
NtRp5432
(dp5433
g62
(dp5434
g70
I1
ssg71
g5428
sg64
(lp5435
g4887
asbasbasbag57
(g73
g59
NtRp5436
(dp5437
g62
(dp5438
sg71
g5396
sg64
(lp5439
g57
(g78
g59
NtRp5440
(dp5441
g62
(dp5442
sg71
g5436
sg64
(lp5443
g57
(g58
g59
NtRp5444
(dp5445
g62
(dp5446
g70
I1
ssg71
g5440
sg64
(lp5447
(lp5448
(g4903
I00
g4901
tp5449
a(g4913
I00
g4911
tp5450
a(g4923
I00
g4921
tp5451
a(g4933
I00
g4931
tp5452
a(g4943
I00
g4941
tp5453
a(g4953
I00
g4951
tp5454
a(g4963
I00
g4961
tp5455
a(g4973
I00
g4971
tp5456
a(g4983
I00
g4981
tp5457
a(g4993
I00
g4991
tp5458
a(g5003
I00
g5001
tp5459
a(g5013
I00
g5011
tp5460
a(g5023
I00
g5021
tp5461
a(g5033
I00
g5031
tp5462
a(g5043
I00
g5041
tp5463
a(g5053
I00
g5051
tp5464
aasbasbasbasbasbasbasbag57
(g73
g59
NtRp5465
(dp5466
g62
(dp5467
sg71
g5178
sg64
(lp5468
g57
(g78
g59
NtRp5469
(dp5470
g62
(dp5471
sg71
g5465
sg64
(lp5472
g57
(g58
g59
NtRp5473
(dp5474
g62
(dp5475
g70
I2
ssg71
g5469
sg64
(lp5476
g57
(g66
g59
NtRp5477
(dp5478
g62
(dp5479
g70
I1
ssg71
Nsg64
(lp5480
g57
(g73
g59
NtRp5481
(dp5482
g62
(dp5483
sg71
g5477
sg64
(lp5484
g57
(g78
g59
NtRp5485
(dp5486
g62
(dp5487
sg71
g5481
sg64
(lp5488
g57
(g58
g59
NtRp5489
(dp5490
g62
(dp5491
g70
I1
ssg71
g5485
sg64
(lp5492
g5064
asbasbasbag57
(g73
g59
NtRp5493
(dp5494
g62
(dp5495
sg71
g5477
sg64
(lp5496
g57
(g78
g59
NtRp5497
(dp5498
g62
(dp5499
sg71
g5493
sg64
(lp5500
g57
(g58
g59
NtRp5501
(dp5502
g62
(dp5503
g70
I1
ssg71
g5497
sg64
(lp5504
I00
asbasbasbag57
(g73
g59
NtRp5505
(dp5506
g62
(dp5507
sg71
g5477
sg64
(lp5508
g57
(g78
g59
NtRp5509
(dp5510
g62
(dp5511
sg71
g5505
sg64
(lp5512
g57
(g58
g59
NtRp5513
(dp5514
g62
(dp5515
g70
I1
ssg71
g5509
sg64
(lp5516
Nasbasbasbag57
(g73
g59
NtRp5517
(dp5518
g62
(dp5519
sg71
g5477
sg64
(lp5520
g57
(g78
g59
NtRp5521
(dp5522
g62
(dp5523
sg71
g5517
sg64
(lp5524
g57
(g58
g59
NtRp5525
(dp5526
g62
(dp5527
g70
I1
ssg71
g5521
sg64
(lp5528
(lp5529
(g5078
I00
g5076
tp5530
a(g5088
I00
g5086
tp5531
a(g5098
I00
g5096
tp5532
aasbasbasbasbasbasbasbag57
(g73
g59
NtRp5533
(dp5534
g62
(dp5535
sg71
g5178
sg64
(lp5536
g57
(g78
g59
NtRp5537
(dp5538
g62
(dp5539
sg71
g5533
sg64
(lp5540
g57
(g58
g59
NtRp5541
(dp5542
g62
(dp5543
g70
I2
ssg71
g5537
sg64
(lp5544
g57
(g66
g59
NtRp5545
(dp5546
g62
(dp5547
g70
I1
ssg71
Nsg64
(lp5548
g57
(g73
g59
NtRp5549
(dp5550
g62
(dp5551
sg71
g5545
sg64
(lp5552
g57
(g78
g59
NtRp5553
(dp5554
g62
(dp5555
sg71
g5549
sg64
(lp5556
g57
(g58
g59
NtRp5557
(dp5558
g62
(dp5559
g70
I1
ssg71
g5553
sg64
(lp5560
g5107
asbasbasbag57
(g73
g59
NtRp5561
(dp5562
g62
(dp5563
sg71
g5545
sg64
(lp5564
g57
(g78
g59
NtRp5565
(dp5566
g62
(dp5567
sg71
g5561
sg64
(lp5568
g57
(g58
g59
NtRp5569
(dp5570
g62
(dp5571
g70
I1
ssg71
g5565
sg64
(lp5572
I00
asbasbasbag57
(g73
g59
NtRp5573
(dp5574
g62
(dp5575
sg71
g5545
sg64
(lp5576
g57
(g78
g59
NtRp5577
(dp5578
g62
(dp5579
sg71
g5573
sg64
(lp5580
g57
(g58
g59
NtRp5581
(dp5582
g62
(dp5583
g70
I1
ssg71
g5577
sg64
(lp5584
Nasbasbasbag57
(g73
g59
NtRp5585
(dp5586
g62
(dp5587
sg71
g5545
sg64
(lp5588
g57
(g78
g59
NtRp5589
(dp5590
g62
(dp5591
sg71
g5585
sg64
(lp5592
g57
(g58
g59
NtRp5593
(dp5594
g62
(dp5595
g70
I1
ssg71
g5589
sg64
(lp5596
(lp5597
(g5121
I00
g5119
tp5598
a(g5130
I00
g4847
tp5599
a(g5139
I00
g4857
tp5600
aasbasbasbasbasbasbasbasbasbasbasbasbasbasbasbasbasbasbasbag57
(g73
g59
NtRp5601
(dp5602
g62
(dp5603
sg71
g3891
sg64
(lp5604
g57
(g78
g59
NtRp5605
(dp5606
g62
(dp5607
g82
g83
ssg71
g5601
sg64
(lp5608
S'meta'
p5609
asbag57
(g78
g59
NtRp5610
(dp5611
g62
(dp5612
g89
g90
ssg71
g5601
sg64
(lp5613
S':'
asbag57
(g78
g59
NtRp5614
(dp5615
g62
(dp5616
sg71
g5601
sg64
(lp5617
g57
(g58
g59
NtRp5618
(dp5619
g62
(dp5620
g70
I5
ssg71
g5614
sg64
(lp5621
g57
(g66
g59
NtRp5622
(dp5623
g62
(dp5624
g70
I4
ssg71
Nsg64
(lp5625
g57
(g73
g59
NtRp5626
(dp5627
g62
(dp5628
sg71
g5622
sg64
(lp5629
g57
(g78
g59
NtRp5630
(dp5631
g62
(dp5632
g82
g83
ssg71
g5626
sg64
(lp5633
S'author'
p5634
asbag57
(g78
g59
NtRp5635
(dp5636
g62
(dp5637
g89
g90
ssg71
g5626
sg64
(lp5638
S':'
asbag57
(g78
g59
NtRp5639
(dp5640
g62
(dp5641
sg71
g5626
sg64
(lp5642
g57
(g58
g59
NtRp5643
(dp5644
g62
(dp5645
g70
I4
ssg71
g5639
sg64
(lp5646
S'Your Name <you@example.com>'
p5647
asbasbasbag57
(g73
g59
NtRp5648
(dp5649
g62
(dp5650
sg71
g5622
sg64
(lp5651
g57
(g78
g59
NtRp5652
(dp5653
g62
(dp5654
g82
g83
ssg71
g5648
sg64
(lp5655
S'description'
p5656
asbag57
(g78
g59
NtRp5657
(dp5658
g62
(dp5659
g89
g90
ssg71
g5648
sg64
(lp5660
S':'
asbag57
(g78
g59
NtRp5661
(dp5662
g62
(dp5663
sg71
g5648
sg64
(lp5664
g57
(g58
g59
NtRp5665
(dp5666
g62
(dp5667
g70
I4
ssg71
g5661
sg64
(lp5668
S'a cool new app'
p5669
asbasbasbag57
(g73
g59
NtRp5670
(dp5671
g62
(dp5672
sg71
g5622
sg64
(lp5673
g57
(g78
g59
NtRp5674
(dp5675
g62
(dp5676
g82
g83
ssg71
g5670
sg64
(lp5677
S'generator'
p5678
asbag57
(g78
g59
NtRp5679
(dp5680
g62
(dp5681
g89
g90
ssg71
g5670
sg64
(lp5682
S':'
asbag57
(g78
g59
NtRp5683
(dp5684
g62
(dp5685
sg71
g5670
sg64
(lp5686
g57
(g58
g59
NtRp5687
(dp5688
g62
(dp5689
g70
I4
ssg71
g5683
sg64
(lp5690
S'Web2py Web Framework'
p5691
asbasbasbag57
(g73
g59
NtRp5692
(dp5693
g62
(dp5694
sg71
g5622
sg64
(lp5695
g57
(g78
g59
NtRp5696
(dp5697
g62
(dp5698
g82
g83
ssg71
g5692
sg64
(lp5699
S'keywords'
p5700
asbag57
(g78
g59
NtRp5701
(dp5702
g62
(dp5703
g89
g90
ssg71
g5692
sg64
(lp5704
S':'
asbag57
(g78
g59
NtRp5705
(dp5706
g62
(dp5707
sg71
g5692
sg64
(lp5708
g57
(g58
g59
NtRp5709
(dp5710
g62
(dp5711
g70
I4
ssg71
g5705
sg64
(lp5712
S'web2py, python, framework'
p5713
asbasbasbasbasbasbasbag57
(g73
g59
NtRp5714
(dp5715
g62
(dp5716
sg71
g3891
sg64
(lp5717
g57
(g78
g59
NtRp5718
(dp5719
g62
(dp5720
g82
g83
ssg71
g5714
sg64
(lp5721
S'models_to_run'
p5722
asbag57
(g78
g59
NtRp5723
(dp5724
g62
(dp5725
g89
g90
ssg71
g5714
sg64
(lp5726
S':'
asbag57
(g78
g59
NtRp5727
(dp5728
g62
(dp5729
sg71
g5714
sg64
(lp5730
g57
(g58
g59
NtRp5731
(dp5732
g62
(dp5733
g70
I5
ssg71
g5727
sg64
(lp5734
g57
(g66
g59
NtRp5735
(dp5736
g62
(dp5737
g70
I4
ssg71
Nsg64
(lp5738
g57
(g73
g59
NtRp5739
(dp5740
g62
(dp5741
sg71
g5735
sg64
(lp5742
g57
(g78
g59
NtRp5743
(dp5744
g62
(dp5745
sg71
g5739
sg64
(lp5746
g57
(g58
g59
NtRp5747
(dp5748
g62
(dp5749
g70
I4
ssg71
g5743
sg64
(lp5750
S'^\\w+\\.py$'
p5751
asbasbasbag57
(g73
g59
NtRp5752
(dp5753
g62
(dp5754
sg71
g5735
sg64
(lp5755
g57
(g78
g59
NtRp5756
(dp5757
g62
(dp5758
sg71
g5752
sg64
(lp5759
g57
(g58
g59
NtRp5760
(dp5761
g62
(dp5762
g70
I4
ssg71
g5756
sg64
(lp5763
S'^default/\\w+\\.py$'
p5764
asbasbasbag57
(g73
g59
NtRp5765
(dp5766
g62
(dp5767
sg71
g5735
sg64
(lp5768
g57
(g78
g59
NtRp5769
(dp5770
g62
(dp5771
sg71
g5765
sg64
(lp5772
g57
(g58
g59
NtRp5773
(dp5774
g62
(dp5775
g70
I4
ssg71
g5769
sg64
(lp5776
S'^default/display/\\w+\\.py$'
p5777
asbasbasbasbasbasbasbag57
(g73
g59
NtRp5778
(dp5779
g62
(dp5780
sg71
g3891
sg64
(lp5781
g57
(g78
g59
NtRp5782
(dp5783
g62
(dp5784
g82
g83
ssg71
g5778
sg64
(lp5785
S'postprocessing'
p5786
asbag57
(g78
g59
NtRp5787
(dp5788
g62
(dp5789
g89
g90
ssg71
g5778
sg64
(lp5790
S':'
asbag57
(g78
g59
NtRp5791
(dp5792
g62
(dp5793
sg71
g5778
sg64
(lp5794
g57
(g58
g59
NtRp5795
(dp5796
g62
(dp5797
g70
I5
ssg71
g5791
sg64
(lp5798
g57
(g66
g59
NtRp5799
(dp5800
g62
(dp5801
g70
I4
ssg71
Nsg64
(lp5802
sbasbasbasbag57
(g73
g59
NtRp5803
(dp5804
g62
(dp5805
sg71
g3891
sg64
(lp5806
g57
(g78
g59
NtRp5807
(dp5808
g62
(dp5809
g82
g83
ssg71
g5803
sg64
(lp5810
S'session_cookie_expires'
p5811
asbag57
(g78
g59
NtRp5812
(dp5813
g62
(dp5814
g89
g90
ssg71
g5803
sg64
(lp5815
S':'
asbag57
(g78
g59
NtRp5816
(dp5817
g62
(dp5818
sg71
g5803
sg64
(lp5819
g57
(g58
g59
NtRp5820
(dp5821
g62
(dp5822
g70
I5
ssg71
g5816
sg64
(lp5823
S'None'
p5824
asbasbasbag57
(g73
g59
NtRp5825
(dp5826
g62
(dp5827
sg71
g3891
sg64
(lp5828
g57
(g78
g59
NtRp5829
(dp5830
g62
(dp5831
g82
g83
ssg71
g5825
sg64
(lp5832
S'session_data_name'
p5833
asbag57
(g78
g59
NtRp5834
(dp5835
g62
(dp5836
g89
g90
ssg71
g5825
sg64
(lp5837
S':'
asbag57
(g78
g59
NtRp5838
(dp5839
g62
(dp5840
sg71
g5825
sg64
(lp5841
g57
(g58
g59
NtRp5842
(dp5843
g62
(dp5844
g70
I5
ssg71
g5838
sg64
(lp5845
S'session_data_assignment_2'
p5846
asbasbasbag57
(g73
g59
NtRp5847
(dp5848
g62
(dp5849
sg71
g3891
sg64
(lp5850
g57
(g78
g59
NtRp5851
(dp5852
g62
(dp5853
g82
g83
ssg71
g5847
sg64
(lp5854
S'session_file'
p5855
asbag57
(g78
g59
NtRp5856
(dp5857
g62
(dp5858
g89
g90
ssg71
g5847
sg64
(lp5859
S':'
asbag57
(g78
g59
NtRp5860
(dp5861
g62
(dp5862
sg71
g5847
sg64
(lp5863
g57
(g58
g59
NtRp5864
(dp5865
g62
(dp5866
g70
I5
ssg71
g5860
sg64
(lp5867
S"<open file '/home/shipra/Desktop/Semester 1.2/ITWS-2/web2py/applications/Assignment_2/sessions/127.0.0.1-c3bf420d-fab5-418a-a226-75e7c25cbfd0', mode 'rb+' at 0x7f8f602688a0>"
p5868
asbasbasbag57
(g73
g59
NtRp5869
(dp5870
g62
(dp5871
sg71
g3891
sg64
(lp5872
g57
(g78
g59
NtRp5873
(dp5874
g62
(dp5875
g82
g83
ssg71
g5869
sg64
(lp5876
S'session_filename'
p5877
asbag57
(g78
g59
NtRp5878
(dp5879
g62
(dp5880
g89
g90
ssg71
g5869
sg64
(lp5881
S':'
asbag57
(g78
g59
NtRp5882
(dp5883
g62
(dp5884
sg71
g5869
sg64
(lp5885
g57
(g58
g59
NtRp5886
(dp5887
g62
(dp5888
g70
I5
ssg71
g5882
sg64
(lp5889
S'/home/shipra/Desktop/Semester 1.2/ITWS-2/web2py/applications/Assignment_2/sessions/127.0.0.1-c3bf420d-fab5-418a-a226-75e7c25cbfd0'
p5890
asbasbasbag57
(g73
g59
NtRp5891
(dp5892
g62
(dp5893
sg71
g3891
sg64
(lp5894
g57
(g78
g59
NtRp5895
(dp5896
g62
(dp5897
g82
g83
ssg71
g5891
sg64
(lp5898
S'session_id'
p5899
asbag57
(g78
g59
NtRp5900
(dp5901
g62
(dp5902
g89
g90
ssg71
g5891
sg64
(lp5903
S':'
asbag57
(g78
g59
NtRp5904
(dp5905
g62
(dp5906
sg71
g5891
sg64
(lp5907
g57
(g58
g59
NtRp5908
(dp5909
g62
(dp5910
g70
I5
ssg71
g5904
sg64
(lp5911
g661
asbasbasbag57
(g73
g59
NtRp5912
(dp5913
g62
(dp5914
sg71
g3891
sg64
(lp5915
g57
(g78
g59
NtRp5916
(dp5917
g62
(dp5918
g82
g83
ssg71
g5912
sg64
(lp5919
S'session_id_name'
p5920
asbag57
(g78
g59
NtRp5921
(dp5922
g62
(dp5923
g89
g90
ssg71
g5912
sg64
(lp5924
S':'
asbag57
(g78
g59
NtRp5925
(dp5926
g62
(dp5927
sg71
g5912
sg64
(lp5928
g57
(g58
g59
NtRp5929
(dp5930
g62
(dp5931
g70
I5
ssg71
g5925
sg64
(lp5932
g3948
asbasbasbag57
(g73
g59
NtRp5933
(dp5934
g62
(dp5935
sg71
g3891
sg64
(lp5936
g57
(g78
g59
NtRp5937
(dp5938
g62
(dp5939
g82
g83
ssg71
g5933
sg64
(lp5940
S'session_locked'
p5941
asbag57
(g78
g59
NtRp5942
(dp5943
g62
(dp5944
g89
g90
ssg71
g5933
sg64
(lp5945
S':'
asbag57
(g78
g59
NtRp5946
(dp5947
g62
(dp5948
sg71
g5933
sg64
(lp5949
g57
(g58
g59
NtRp5950
(dp5951
g62
(dp5952
g70
I5
ssg71
g5946
sg64
(lp5953
g1985
asbasbasbag57
(g73
g59
NtRp5954
(dp5955
g62
(dp5956
sg71
g3891
sg64
(lp5957
g57
(g78
g59
NtRp5958
(dp5959
g62
(dp5960
g82
g83
ssg71
g5954
sg64
(lp5961
S'session_new'
p5962
asbag57
(g78
g59
NtRp5963
(dp5964
g62
(dp5965
g89
g90
ssg71
g5954
sg64
(lp5966
S':'
asbag57
(g78
g59
NtRp5967
(dp5968
g62
(dp5969
sg71
g5954
sg64
(lp5970
g57
(g58
g59
NtRp5971
(dp5972
g62
(dp5973
g70
I5
ssg71
g5967
sg64
(lp5974
g100
asbasbasbag57
(g73
g59
NtRp5975
(dp5976
g62
(dp5977
sg71
g3891
sg64
(lp5978
g57
(g78
g59
NtRp5979
(dp5980
g62
(dp5981
g82
g83
ssg71
g5975
sg64
(lp5982
S'session_storage_type'
p5983
asbag57
(g78
g59
NtRp5984
(dp5985
g62
(dp5986
g89
g90
ssg71
g5975
sg64
(lp5987
S':'
asbag57
(g78
g59
NtRp5988
(dp5989
g62
(dp5990
sg71
g5975
sg64
(lp5991
g57
(g58
g59
NtRp5992
(dp5993
g62
(dp5994
g70
I5
ssg71
g5988
sg64
(lp5995
g3443
asbasbasbag57
(g73
g59
NtRp5996
(dp5997
g62
(dp5998
sg71
g3891
sg64
(lp5999
g57
(g78
g59
NtRp6000
(dp6001
g62
(dp6002
g82
g83
ssg71
g5996
sg64
(lp6003
S'status'
p6004
asbag57
(g78
g59
NtRp6005
(dp6006
g62
(dp6007
g89
g90
ssg71
g5996
sg64
(lp6008
S':'
asbag57
(g78
g59
NtRp6009
(dp6010
g62
(dp6011
sg71
g5996
sg64
(lp6012
g57
(g58
g59
NtRp6013
(dp6014
g62
(dp6015
g70
I5
ssg71
g6009
sg64
(lp6016
S'200'
p6017
asbasbasbag57
(g73
g59
NtRp6018
(dp6019
g62
(dp6020
sg71
g3891
sg64
(lp6021
g57
(g78
g59
NtRp6022
(dp6023
g62
(dp6024
g82
g83
ssg71
g6018
sg64
(lp6025
S'subtitle'
p6026
asbag57
(g78
g59
NtRp6027
(dp6028
g62
(dp6029
g89
g90
ssg71
g6018
sg64
(lp6030
S':'
asbag57
(g78
g59
NtRp6031
(dp6032
g62
(dp6033
sg71
g6018
sg64
(lp6034
g57
(g58
g59
NtRp6035
(dp6036
g62
(dp6037
g70
I5
ssg71
g6031
sg64
(lp6038
g4529
(S's\r\x00\x00\x00customize me!'
tRp6039
asbasbasbag57
(g73
g59
NtRp6040
(dp6041
g62
(dp6042
sg71
g3891
sg64
(lp6043
g57
(g78
g59
NtRp6044
(dp6045
g62
(dp6046
g82
g83
ssg71
g6040
sg64
(lp6047
S'title'
p6048
asbag57
(g78
g59
NtRp6049
(dp6050
g62
(dp6051
g89
g90
ssg71
g6040
sg64
(lp6052
S':'
asbag57
(g78
g59
NtRp6053
(dp6054
g62
(dp6055
sg71
g6040
sg64
(lp6056
g57
(g58
g59
NtRp6057
(dp6058
g62
(dp6059
g70
I5
ssg71
g6053
sg64
(lp6060
S'Assignment 2'
p6061
asbasbasbag57
(g73
g59
NtRp6062
(dp6063
g62
(dp6064
sg71
g3891
sg64
(lp6065
g57
(g78
g59
NtRp6066
(dp6067
g62
(dp6068
g82
g83
ssg71
g6062
sg64
(lp6069
S'view'
p6070
asbag57
(g78
g59
NtRp6071
(dp6072
g62
(dp6073
g89
g90
ssg71
g6062
sg64
(lp6074
S':'
asbag57
(g78
g59
NtRp6075
(dp6076
g62
(dp6077
sg71
g6062
sg64
(lp6078
g57
(g58
g59
NtRp6079
(dp6080
g62
(dp6081
g70
I5
ssg71
g6075
sg64
(lp6082
S'default/display.html'
p6083
asbasbasbasbasbsS'locals'
p6084
(dp6085
S'Service'
p6086
S"<class 'gluon.tools.Service'>"
p6087
sS'OBJECT'
p6088
S"<class 'gluon.html.OBJECT'>"
p6089
sS'SQLDB'
p6090
S"<class 'gluon.dal.DAL'>"
p6091
sg3496
S"<Storage {'_formkey[login]': 'a7b2693f-41c1-42e8...: '', 'id': 4}>, 'user_groups': {3: 'user_4'}}>}>"
p6092
sS'LINK'
p6093
S"<class 'gluon.html.LINK'>"
p6094
sS'BR'
p6095
S"<class 'gluon.html.BR'>"
p6096
sS'local_import'
p6097
S'<function <lambda>>'
p6098
sS'OPTGROUP'
p6099
S"<class 'gluon.html.OPTGROUP'>"
p6100
sS'__package__'
p6101
S'None'
p6102
sS'PRE'
p6103
S"<class 'gluon.html.PRE'>"
p6104
sS'IS_INT_IN_RANGE'
p6105
S"<class 'gluon.validators.IS_INT_IN_RANGE'>"
p6106
sS'left_sidebar_enabled'
p6107
g100
sS'IS_LOWER'
p6108
S"<class 'gluon.validators.IS_LOWER'>"
p6109
sS'IS_STRONG'
p6110
S"<class 'gluon.validators.IS_STRONG'>"
p6111
sS'cache'
p6112
S'<gluon.cache.Cache object>'
p6113
sS'IS_IN_DB'
p6114
S"<class 'gluon.validators.IS_IN_DB'>"
p6115
sS'TAG'
p6116
S'<gluon.html.__TAG__ object>'
p6117
sS'SQLField'
p6118
S"<class 'gluon.dal.Field'>"
p6119
sS'mail'
p6120
S'<gluon.tools.Mail object>'
p6121
sS'BODY'
p6122
S"<class 'gluon.html.BODY'>"
p6123
sS'IS_DATE_IN_RANGE'
p6124
S"<class 'gluon.validators.IS_DATE_IN_RANGE'>"
p6125
sS'IFRAME'
p6126
S"<class 'gluon.html.IFRAME'>"
p6127
sS'URL'
p6128
S'<function URL>'
p6129
sS'__file__'
p6130
S"'/home/shipra/Desktop/Semester 1.2/ITWS-2/web2py/applications/Assignment_2/views/default/display.html'"
p6131
sS'db'
p6132
S'<DAL uri="sqlite://storage.sqlite">'
p6133
sS'auth'
p6134
S'<gluon.tools.Auth object>'
p6135
sS'P'
S"<class 'gluon.html.P'>"
p6136
sS'TFOOT'
p6137
S"<class 'gluon.html.TFOOT'>"
p6138
sS'XHTML'
p6139
S"<class 'gluon.html.XHTML'>"
p6140
sS'ON'
p6141
g1985
sS'OL'
p6142
S"<class 'gluon.html.OL'>"
p6143
sS'TEXTAREA'
p6144
S"<class 'gluon.html.TEXTAREA'>"
p6145
sS'MENU'
p6146
S"<class 'gluon.html.MENU'>"
p6147
sS'IS_IMAGE'
p6148
S"<class 'gluon.validators.IS_IMAGE'>"
p6149
sS'x'
S"'http://127.0.0.1:8000/Assignment_2/default/categ_display/'"
p6150
sS'EM'
p6151
S"<class 'gluon.html.EM'>"
p6152
sS'CODE'
p6153
S"<class 'gluon.html.CODE'>"
p6154
sS'HTTP'
p6155
S"<class 'gluon.http.HTTP'>"
p6156
sS'HR'
p6157
S"<class 'gluon.html.HR'>"
p6158
sS'IS_DATETIME'
p6159
S"<class 'gluon.validators.IS_DATETIME'>"
p6160
sS'STYLE'
p6161
S"<class 'gluon.html.STYLE'>"
p6162
sS'LABEL'
p6163
S"<class 'gluon.html.LABEL'>"
p6164
sS'CLEANUP'
p6165
S"<class 'gluon.validators.CLEANUP'>"
p6166
sS'plugins'
p6167
S'<gluon.tools.PluginManager object>'
p6168
sS'SELECT'
p6169
S"<class 'gluon.html.SELECT'>"
p6170
sS'use_janrain'
p6171
S'<function use_janrain>'
p6172
sS'CENTER'
p6173
S"<class 'gluon.html.CENTER'>"
p6174
sS'prettydate'
p6175
S'<function prettydate>'
p6176
sS'Crud'
p6177
S"<class 'gluon.tools.Crud'>"
p6178
sS'Auth'
p6179
S"<class 'gluon.tools.Auth'>"
p6180
sS'DEVELOPMENT_MENU'
p6181
g1985
sS'__builtins__'
p6182
S"{'ArithmeticError': <type 'exceptions.ArithmeticError'>, 'AssertionError': <type 'exceptions.AssertionError'>, 'AttributeError': <type 'exceptions.AttributeError'>, 'BaseException': <type 'exceptions.BaseException'>, 'BufferError': <type 'exceptions.BufferError'>, 'BytesWarning': <type 'exceptions.BytesWarning'>, 'DeprecationWarning': <type 'exceptions.DeprecationWarning'>, 'EOFError': <type 'exceptions.EOFError'>, 'Ellipsis': Ellipsis, 'EnvironmentError': <type 'exceptions.EnvironmentError'>, ...}"
p6183
sS'HTML'
p6184
S"<class 'gluon.html.HTML'>"
p6185
sS'SQLFORM'
p6186
S"<class 'gluon.sqlhtml.SQLFORM'>"
p6187
sS'LOAD'
p6188
S'<function LOAD>'
p6189
sS'redirect'
p6190
S'<function redirect>'
p6191
sS'FIELDSET'
p6192
S"<class 'gluon.html.FIELDSET'>"
p6193
sS'IS_EQUAL_TO'
p6194
S"<class 'gluon.validators.IS_EQUAL_TO'>"
p6195
sS'embed64'
p6196
S'<function embed64>'
p6197
sS'IS_LIST_OF'
p6198
S"<class 'gluon.validators.IS_LIST_OF'>"
p6199
sS'INPUT'
p6200
S"<class 'gluon.html.INPUT'>"
p6201
sS'EMBED'
p6202
S"<class 'gluon.html.EMBED'>"
p6203
sS'_'
S'<function _>'
p6204
sS'H2'
p6205
S"<class 'gluon.html.H2'>"
p6206
sS'H3'
p6207
S"<class 'gluon.html.H3'>"
p6208
sS'BUTTON'
p6209
S"<class 'gluon.html.BUTTON'>"
p6210
sS'H1'
p6211
S"<class 'gluon.html.H1'>"
p6212
sS'H6'
p6213
S"<class 'gluon.html.H6'>"
p6214
sS'H4'
p6215
S"<class 'gluon.html.H4'>"
p6216
sS'H5'
p6217
S"<class 'gluon.html.H5'>"
p6218
sS'UL'
p6219
S"<class 'gluon.html.UL'>"
p6220
sS'IS_UPPER'
p6221
S"<class 'gluon.validators.IS_UPPER'>"
p6222
sS'xmlescape'
p6223
S'<function xmlescape>'
p6224
sS'IS_TIME'
p6225
S"<class 'gluon.validators.IS_TIME'>"
p6226
sS'OPTION'
p6227
S"<class 'gluon.html.OPTION'>"
p6228
sS'TITLE'
p6229
S"<class 'gluon.html.TITLE'>"
p6230
sS'CRYPT'
p6231
S"<class 'gluon.validators.CRYPT'>"
p6232
sS'IS_EMPTY_OR'
p6233
S"<class 'gluon.validators.IS_EMPTY_OR'>"
p6234
sS'MARKMIN'
p6235
S"<class 'gluon.html.MARKMIN'>"
p6236
sS'__name__'
p6237
S"'__restricted__'"
p6238
sS'STRONG'
p6239
S"<class 'gluon.html.STRONG'>"
p6240
sS'COL'
p6241
S"<class 'gluon.html.COL'>"
p6242
sS'service'
p6243
S'<gluon.tools.Service object>'
p6244
sS'SCRIPT'
p6245
S"<class 'gluon.html.SCRIPT'>"
p6246
sS'is_mobile'
p6247
g100
sS'TABLE'
p6248
S"<class 'gluon.html.TABLE'>"
p6249
sS'IS_IPV4'
p6250
S"<class 'gluon.validators.IS_IPV4'>"
p6251
sS'IS_LENGTH'
p6252
S"<class 'gluon.validators.IS_LENGTH'>"
p6253
sS'XML'
p6254
S"<class 'gluon.html.XML'>"
p6255
sS'B'
S"<class 'gluon.html.B'>"
p6256
sS'IMG'
p6257
S"<class 'gluon.html.IMG'>"
p6258
sS'SQLTABLE'
p6259
S"<class 'gluon.sqlhtml.SQLTABLE'>"
p6260
sS'IS_MATCH'
p6261
S"<class 'gluon.validators.IS_MATCH'>"
p6262
sS'IS_ALPHANUMERIC'
p6263
S"<class 'gluon.validators.IS_ALPHANUMERIC'>"
p6264
sS'SPAN'
p6265
S"<class 'gluon.html.SPAN'>"
p6266
sS'IS_SLUG'
p6267
S"<class 'gluon.validators.IS_SLUG'>"
p6268
sS'BEAUTIFY'
p6269
S"<class 'gluon.html.BEAUTIFY'>"
p6270
sS'META'
p6271
S"<class 'gluon.html.META'>"
p6272
sS'IS_DATE'
p6273
S"<class 'gluon.validators.IS_DATE'>"
p6274
sS'IS_EMAIL'
p6275
S"<class 'gluon.validators.IS_EMAIL'>"
p6276
sS'IS_NOT_EMPTY'
p6277
S"<class 'gluon.validators.IS_NOT_EMPTY'>"
p6278
sS'IS_FLOAT_IN_RANGE'
p6279
S"<class 'gluon.validators.IS_FLOAT_IN_RANGE'>"
p6280
sS'TBODY'
p6281
S"<class 'gluon.html.TBODY'>"
p6282
sS'CAT'
p6283
S"<class 'gluon.html.CAT'>"
p6284
sS'Field'
p6285
S"<class 'gluon.dal.Field'>"
p6286
sS'middle_columns'
p6287
S"'span12'"
p6288
sS'DIV'
p6289
S"<class 'gluon.html.DIV'>"
p6290
sS'LEGEND'
p6291
S"<class 'gluon.html.LEGEND'>"
p6292
sS'COLGROUP'
p6293
S"<class 'gluon.html.COLGROUP'>"
p6294
sS'DAL'
p6295
S"<class 'gluon.dal.DAL'>"
p6296
sS'TT'
p6297
S"<class 'gluon.html.TT'>"
p6298
sS'TR'
p6299
S"<class 'gluon.html.TR'>"
p6300
sS'LI'
p6301
S"<class 'gluon.html.LI'>"
p6302
sS'right_sidebar_enabled'
p6303
g100
sS'TH'
p6304
S"<class 'gluon.html.TH'>"
p6305
sS'TD'
p6306
S"<class 'gluon.html.TD'>"
p6307
sS'PluginManager'
p6308
S"<class 'gluon.tools.PluginManager'>"
p6309
sS'IS_URL'
p6310
S"<class 'gluon.validators.IS_URL'>"
p6311
sS'A'
S"<class 'gluon.html.A'>"
p6312
sS'categ'
p6313
S'<Rows (9)>'
p6314
sS'HEAD'
p6315
S"<class 'gluon.html.HEAD'>"
p6316
sS'IS_DATETIME_IN_RANGE'
p6317
S"<class 'gluon.validators.IS_DATETIME_IN_RANGE'>"
p6318
sS'FORM'
p6319
S"<class 'gluon.html.FORM'>"
p6320
sS'I'
S"<class 'gluon.html.I'>"
p6321
sS'crud'
p6322
S'<gluon.tools.Crud object>'
p6323
sS'IS_NOT_IN_DB'
p6324
S"<class 'gluon.validators.IS_NOT_IN_DB'>"
p6325
sg3886
S"<Storage {'body': <cStringIO.StringO object at 0...0x7f8f600aade8>, 'view': 'default/display.html'}>"
p6326
sS'THEAD'
p6327
S"<class 'gluon.html.THEAD'>"
p6328
sS'IS_NULL_OR'
p6329
S"<class 'gluon.validators.IS_EMPTY_OR'>"
p6330
sS'i'
S'0'
sg56
S"<Storage {'function': 'display', 'body': <cStrin...tions/Assignment_2/', 'post_vars': <Storage {}>}>"
p6331
sS'IS_EXPR'
p6332
S"<class 'gluon.validators.IS_EXPR'>"
p6333
sS'T'
S'<gluon.languages.translator object>'
p6334
sS'IS_IN_SET'
p6335
S"<class 'gluon.validators.IS_IN_SET'>"
p6336
sS'IS_UPLOAD_FILENAME'
p6337
S"<class 'gluon.validators.IS_UPLOAD_FILENAME'>"
p6338
sS'IS_DECIMAL_IN_RANGE'
p6339
S"<class 'gluon.validators.IS_DECIMAL_IN_RANGE'>"
p6340
sssS'traceback'
p6341
S'Traceback (most recent call last):\n  File "/home/shipra/Desktop/Semester 1.2/ITWS-2/web2py/gluon/restricted.py", line 212, in restricted\n    exec ccode in environment\n  File "/home/shipra/Desktop/Semester 1.2/ITWS-2/web2py/applications/Assignment_2/views/default/display.html", line 85, in <module>\nNameError: name \'requests\' is not defined\n'
p6342
s.