(dp1
S'output'
p2
S"<type 'exceptions.IndexError'> list index out of range"
p3
sS'layer'
p4
S'/home/shipra/Desktop/Semester 1.2/ITWS-2/web2py/applications/Assignment_2/controllers/default.py'
p5
sS'code'
p6
S'# -*- coding: utf-8 -*-\n# this file is released under public domain and you can use without limitations\n\n#########################################################################\n## This is a samples controller\n## - index is the default action of any application\n## - user is required for authentication and authorization\n## - download is for downloading files uploaded in the db (does streaming)\n## - call exposes all registered services (none by default)\n#########################################################################\ndef display():\n\tc=auth.user_id\n\tcateg=db(db.Category.id>0).select(db.Category.ALL)\n\treturn locals()\n\t\ndef categ_display():\n\tif request.get_vars.message:\n\t\tresponse.flash=request.get_vars.message\n\telse:\n\t\tresponse.flash=\'WELCOME!\'\n\tif auth.user:\n\t\tc1=int(auth.user_id)\n\telse:\n\t\tc1=None\n\tc=request.args[0]\n\tnews=db(db.Post.Category==c).select(orderby=~(db.Post.ranking))\n\treturn locals()\n\n@auth.requires_login()\ndef index():\n     \'auth\' in globals()\n     if auth.user:\n\t    c1=auth.user_id \n\t    response.flash=T("Welcome to web2py!")\n\t    if(c1==3):\n\t\t    redirect(URL(\'admin\'))\n\t    else:\n\t\t    redirect(URL(\'client\'))\n     return locals()\n@auth.requires_login()\ndef admin():\n\tif(auth.user_id!=3):\n\t\tredirect(URL(\'user\'))\n\t\'auth\' in globals()\n\tif auth.user:\n\t\treturn locals()\n@auth.requires_login()\ndef admin_userdel():\n\tif(auth.user_id!=3):\n\t\tredirect(URL(\'user\'))\n\tform=SQLFORM.factory(\n\t\t\tdb.Field(\'Userid\',\'integer\',db.auth_user,requires=IS_IN_DB(db,\'auth_user.id\',\'auth_user.first_name\'),label=\'Select name\'))\n\tif form.accepts(request.vars,session):\n\t\tredirect(URL(r=request,f=\'delete_user?id=%d\' %int(form.vars.Userid)))\n\telif form.errors:\n\t\tresponse.flash=\'Errors in form\'\n\treturn dict(form=form)\n@auth.requires_login()\ndef delete_user():\n\tuserid=int(request.vars.id)\n\tdb(db.auth_user.id==userid).delete()\n\tx=db(db.Like_post.userid==userid).select()\n\ty=db(db.Dislike.userid==userid).select()\n\tfor i in range(len(x)):\n\t\tdb(db.Post.id==x[i][\'postid\']).update(ranking=db.Post.ranking-5)\n\tfor i in range(len(y)):\n\t\tdb(db.Post.id==y[i][\'postid\']).update(ranking=db.Post.ranking+3)\n\tdb(db.Like_post.userid==userid).delete()\n\tdb(db.Dislike.userid==userid).delete()\n\tdb(db.Post.userid==userid).delete()\n\tdb(db.Comm.userid==userid).delete()\n\tsession.flash=\'User deleted\'\n\treturn locals()\n\n@auth.requires_login()\ndef del_post():\n\tc=int(request.args[0])\n\tc1=request.args[1]\n\tdb(db.Post.id == c).delete()\n\tredirect(URL("categ_display/"+c1))\n\treturn locals()\n\n@auth.requires_login()\ndef edit_post():\n\tdb.Post.ranking.readable=True\n\tdb.Post.userid.readable=True\n\tdb.Post.ranking.writable=False\n\tdb.Post.userid.writable=False\n\tdb.Post.Category.readable=True\n\tc=int(request.args[0])\n\tc1=request.args[1]\n\tform=SQLFORM(db.Post,c)\n\tif form.accepts(request.vars,session):\n\t\tresponse.flash=\'Post updated\'\n\t\tredirect(URL("categ_display/"+c1))\n\telif form.errors:\n\t\tresponse.flash=\'Errors in form\'\n\treturn dict(form=form)\n\n@auth.requires_login()\ndef like_post():\n\tc2=request.args[1]\n\tc1=auth.user_id\n\tc=int(request.args[0])\n\tdb(db.Like_post.postid==c and db.Like_post.userid==c1).delete()\n\tdb(db.Dislike.postid==c and db.Dislike.userid==c1).delete()\n\tdb.Like_post.insert(userid=c1,postid=c)\n\tx=db(db.Like_post.postid==c).select()\n\ty=db(c==db.Dislike.postid).select()\n\tdb(db.Post.id==c).update(ranking=100+len(x)*5-len(y)*3)\n\tmessage="Likes"\n\tredirect(URL("categ_display.html?message="+message+"/"+c2))\n\treturn locals()\n\n@auth.requires_login()\ndef dislike_post():\n\tc2=request.args[1]\n\tc1=auth.user_id\n\tc=int(request.args[0])\n\tdb(db.Like_post.postid==c and db.Like_post.userid==c1).delete()\n\tdb(db.Dislike.postid==c and db.Dislike.userid==c1).delete()\n\tdb.Dislike.insert(userid=c1,postid=c)\n\tx=db(db.Like_post.postid==c).select()\n\ty=db(db.Dislike.postid==c).select()\n\tdb(db.Post.id==c).update(ranking=100+len(x)*5-len(y)*3)\n\tsession.flash=\'Post disliked\'\n\tredirect(URL("categ_display/"+c2))\n\treturn locals()\n\n@auth.requires_login()\n\ndef comm_post():\n\tc2=request.args[1]\n\tc1=auth.user_id\n\tc=int(request.args[0])\n\tuser=db(db.auth_user.id==c1).select(db.auth_user.first_name)\n\tdb.Comm.cdate.default=request.now.date()\n\tdb.Comm.ctime.default=request.now\n\tcomments=db(db.Comm.postid==c).select()\n\tdb.Comm.ctime.readable=False\n\tdb.Comm.ctime.writable=False\n\tdb.Comm.cdate.readable=False\n\tdb.Comm.cdate.writable=False\n\tdb.Comm.userid.readable=False\n\tdb.Comm.userid.writable=False\n\tdb.Comm.postid.readable=False\n\tdb.Comm.postid.writable=False\n\tdb.Comm.userid.default=c1\n\tdb.Comm.postid.default=c\n\tform=SQLFORM(db.Comm)\n\tif form.accepts(request.vars,session):\n\t\tresponse.flash=\'Commented on post!\'\n\t\tredirect(URL("categ_display/"+c2))\n\telif form.errors:\n\t\tresponse.flash(\'Errors in form\')\n\treturn locals()\n\n@auth.requires_login()\ndef category():\n\t\'auth\' in globals()\n\tif auth.user:\n\t\tform=SQLFORM(db.Category)\n\t\tif form.process().accepted:\n\t\t\tresponse.flash=\'form accepted\'\n\t\telif form.errors:\n\t\t\tresponse.flash=\'form has errors\'\n\t\treturn dict(form=form)\n\n@auth.requires_login()\ndef client():\n\treturn locals()\n\ndef user():\n    """\n    exposes:\n    http://..../[app]/default/user/login\n    http://..../[app]/default/user/logout\n    http://..../[app]/default/user/register\n    http://..../[app]/default/user/profile\n    http://..../[app]/default/user/retrieve_password\n    http://..../[app]/default/user/change_password\n    use @auth.requires_login()\n        @auth.requires_membership(\'group name\')\n        @auth.requires_permission(\'read\',\'table name\',record_id)\n    to decorate functions that need access control\n    """\n    return dict(form=auth())\n@auth.requires_login()\ndef post():\n\tc=auth.user_id\n\tdb.Post.pdate.default=request.now.date()\n\tdb.Post.ptime.default=request.now\n\tdb.Post.userid.default=c\n\tdb.Post.userid.readable=False\n\tdb.Post.userid.writable=False\n\tdb.Post.ptime.readable=False\n\tdb.Post.ptime.writable=False\n\tdb.Post.pdate.readable=False\n\tdb.Post.pdate.writable=False\n\tdb.Post.ranking.default=100\n\tdb.Post.ranking.readable=False\n\tdb.Post.ranking.writable=False\n\tform=SQLFORM(db.Post)\n\tif form.process().accepted:\n\t\tresponse.flash=\'form accepted\'\n\telif form.errors:\n\t\tresponse.flash=\'form has errors\'\n\treturn locals()\n\ndef download():\n\treturn response.download(request, db)\n\n\ndef call():\n    """\n\n\tdb.Post.userid.default=c\n\tdb.Post.userid.readable=False\n\tdb.Post.userid.writable=False\n\tdb.Post.ranking.default=100\n\tdb.Post.ranking.readable=False\n\tdb.Post.ranking.writable=False\n\tform=SQLFORM(db.Post)\n\tif form.process().accepted:\n\t\tresponse.flash=\'form accepted\'\n\telif form.errors:\n\t\tresponse.flash=\'form has errors\'\n\treturn dict(form=form)\n    """\n\ndef download():\n    """\n    allows downloading of uploaded files\n    http://..../[app]/default/download/[filename]\n    """\n    return response.download(request, db)\n\n\ndef call():\n    """\n    exposes services. for example:\n    http://..../[app]/default/call/jsonrpc\n    decorate with @services.jsonrpc the functions to expose\n    supports xml, json, xmlrpc, jsonrpc, amfrpc, rss, csv\n    """\n    return service()\n\n\n@auth.requires_signature()\ndef data():\n    """\n    http://..../[app]/default/data/tables\n    http://..../[app]/default/data/create/[table]\n    http://..../[app]/default/data/read/[table]/[id]\n    http://..../[app]/default/data/update/[table]/[id]\n    http://..../[app]/default/data/delete/[table]/[id]\n    http://..../[app]/default/data/select/[table]\n    http://..../[app]/default/data/search/[table]\n    but URLs must be signed, i.e. linked with\n      A(\'table\',_href=URL(\'data/tables\',user_signature=True))\n    or with the signed load operator\n      LOAD(\'default\',\'data.load\',args=\'tables\',ajax=True,user_signature=True)\n    """\n    return dict(form=crud())\n\nresponse._vars=response._caller(categ_display)\n'
p7
sS'snapshot'
p8
(dp9
S'exception'
p10
(dp11
S'__hash__'
p12
S"<method-wrapper '__hash__' of exceptions.IndexError object>"
p13
sS'__setattr__'
p14
S"<method-wrapper '__setattr__' of exceptions.IndexError object>"
p15
sS'__reduce_ex__'
p16
S'<built-in method __reduce_ex__ of exceptions.IndexError object>'
p17
sS'__getslice__'
p18
S"<method-wrapper '__getslice__' of exceptions.IndexError object>"
p19
sS'__getitem__'
p20
S"<method-wrapper '__getitem__' of exceptions.IndexError object>"
p21
sS'__setstate__'
p22
S'<built-in method __setstate__ of exceptions.IndexError object>'
p23
sS'args'
p24
S"('list index out of range',)"
p25
sS'__reduce__'
p26
S'<built-in method __reduce__ of exceptions.IndexError object>'
p27
sS'__str__'
p28
S"<method-wrapper '__str__' of exceptions.IndexError object>"
p29
sS'__format__'
p30
S'<built-in method __format__ of exceptions.IndexError object>'
p31
sS'__getattribute__'
p32
S"<method-wrapper '__getattribute__' of exceptions.IndexError object>"
p33
sS'__class__'
p34
S"<type 'exceptions.IndexError'>"
p35
sS'__unicode__'
p36
S'<built-in method __unicode__ of exceptions.IndexError object>'
p37
sS'__delattr__'
p38
S"<method-wrapper '__delattr__' of exceptions.IndexError object>"
p39
sS'__subclasshook__'
p40
S'<built-in method __subclasshook__ of type object>'
p41
sS'__repr__'
p42
S"<method-wrapper '__repr__' of exceptions.IndexError object>"
p43
sS'__dict__'
p44
S'{}'
p45
sS'__sizeof__'
p46
S'<built-in method __sizeof__ of exceptions.IndexError object>'
p47
sS'__doc__'
p48
S"'Sequence index out of range.'"
p49
sS'__init__'
p50
S"<method-wrapper '__init__' of exceptions.IndexError object>"
p51
sS'__new__'
p52
S'<built-in method __new__ of type object>'
p53
ssS'evalue'
p54
S'list index out of range'
p55
sS'request'
p56
ccopy_reg
_reconstructor
p57
(cgluon.html
BEAUTIFY
p58
c__builtin__
object
p59
NtRp60
(dp61
S'attributes'
p62
(dp63
sS'components'
p64
(lp65
g57
(cgluon.html
TABLE
p66
g59
NtRp67
(dp68
g62
(dp69
S'level'
p70
I5
ssS'parent'
p71
Nsg64
(lp72
g57
(cgluon.html
TR
p73
g59
NtRp74
(dp75
g62
(dp76
sg71
g67
sg64
(lp77
g57
(cgluon.html
TD
p78
g59
NtRp79
(dp80
g62
(dp81
S'_style'
p82
S'font-weight:bold;vertical-align:top'
p83
ssg71
g74
sg64
(lp84
S'ajax'
p85
asbag57
(g78
g59
NtRp86
(dp87
g62
(dp88
S'_valign'
p89
S'top'
p90
ssg71
g74
sg64
(lp91
S':'
asbag57
(g78
g59
NtRp92
(dp93
g62
(dp94
sg71
g74
sg64
(lp95
g57
(g58
g59
NtRp96
(dp97
g62
(dp98
g70
I5
ssg71
g92
sg64
(lp99
S'False'
p100
asbasbasbag57
(g73
g59
NtRp101
(dp102
g62
(dp103
sg71
g67
sg64
(lp104
g57
(g78
g59
NtRp105
(dp106
g62
(dp107
g82
g83
ssg71
g101
sg64
(lp108
S'application'
p109
asbag57
(g78
g59
NtRp110
(dp111
g62
(dp112
g89
g90
ssg71
g101
sg64
(lp113
S':'
asbag57
(g78
g59
NtRp114
(dp115
g62
(dp116
sg71
g101
sg64
(lp117
g57
(g58
g59
NtRp118
(dp119
g62
(dp120
g70
I5
ssg71
g114
sg64
(lp121
S'Assignment_2'
p122
asbasbasbag57
(g73
g59
NtRp123
(dp124
g62
(dp125
sg71
g67
sg64
(lp126
g57
(g78
g59
NtRp127
(dp128
g62
(dp129
g82
g83
ssg71
g123
sg64
(lp130
g24
asbag57
(g78
g59
NtRp131
(dp132
g62
(dp133
g89
g90
ssg71
g123
sg64
(lp134
S':'
asbag57
(g78
g59
NtRp135
(dp136
g62
(dp137
sg71
g123
sg64
(lp138
g57
(g58
g59
NtRp139
(dp140
g62
(dp141
g70
I5
ssg71
g135
sg64
(lp142
g57
(g66
g59
NtRp143
(dp144
g62
(dp145
g70
I4
ssg71
Nsg64
(lp146
sbasbasbasbag57
(g73
g59
NtRp147
(dp148
g62
(dp149
sg71
g67
sg64
(lp150
g57
(g78
g59
NtRp151
(dp152
g62
(dp153
g82
g83
ssg71
g147
sg64
(lp154
S'body'
p155
asbag57
(g78
g59
NtRp156
(dp157
g62
(dp158
g89
g90
ssg71
g147
sg64
(lp159
S':'
asbag57
(g78
g59
NtRp160
(dp161
g62
(dp162
sg71
g147
sg64
(lp163
g57
(g58
g59
NtRp164
(dp165
g62
(dp166
g70
I5
ssg71
g160
sg64
(lp167
S'<cStringIO.StringO object at 0x7f20cc7eb1b8>'
p168
asbasbasbag57
(g73
g59
NtRp169
(dp170
g62
(dp171
sg71
g67
sg64
(lp172
g57
(g78
g59
NtRp173
(dp174
g62
(dp175
g82
g83
ssg71
g169
sg64
(lp176
S'cid'
p177
asbag57
(g78
g59
NtRp178
(dp179
g62
(dp180
g89
g90
ssg71
g169
sg64
(lp181
S':'
asbag57
(g78
g59
NtRp182
(dp183
g62
(dp184
sg71
g169
sg64
(lp185
g57
(g58
g59
NtRp186
(dp187
g62
(dp188
g70
I5
ssg71
g182
sg64
(lp189
S'None'
p190
asbasbasbag57
(g73
g59
NtRp191
(dp192
g62
(dp193
sg71
g67
sg64
(lp194
g57
(g78
g59
NtRp195
(dp196
g62
(dp197
g82
g83
ssg71
g191
sg64
(lp198
S'client'
p199
asbag57
(g78
g59
NtRp200
(dp201
g62
(dp202
g89
g90
ssg71
g191
sg64
(lp203
S':'
asbag57
(g78
g59
NtRp204
(dp205
g62
(dp206
sg71
g191
sg64
(lp207
g57
(g58
g59
NtRp208
(dp209
g62
(dp210
g70
I5
ssg71
g204
sg64
(lp211
S'127.0.0.1'
p212
asbasbasbag57
(g73
g59
NtRp213
(dp214
g62
(dp215
sg71
g67
sg64
(lp216
g57
(g78
g59
NtRp217
(dp218
g62
(dp219
g82
g83
ssg71
g213
sg64
(lp220
S'controller'
p221
asbag57
(g78
g59
NtRp222
(dp223
g62
(dp224
g89
g90
ssg71
g213
sg64
(lp225
S':'
asbag57
(g78
g59
NtRp226
(dp227
g62
(dp228
sg71
g213
sg64
(lp229
g57
(g58
g59
NtRp230
(dp231
g62
(dp232
g70
I5
ssg71
g226
sg64
(lp233
S'default'
p234
asbasbasbag57
(g73
g59
NtRp235
(dp236
g62
(dp237
sg71
g67
sg64
(lp238
g57
(g78
g59
NtRp239
(dp240
g62
(dp241
g82
g83
ssg71
g235
sg64
(lp242
S'cookies'
p243
asbag57
(g78
g59
NtRp244
(dp245
g62
(dp246
g89
g90
ssg71
g235
sg64
(lp247
S':'
asbag57
(g78
g59
NtRp248
(dp249
g62
(dp250
sg71
g235
sg64
(lp251
g57
(g58
g59
NtRp252
(dp253
g62
(dp254
g70
I5
ssg71
g248
sg64
(lp255
g57
(g66
g59
NtRp256
(dp257
g62
(dp258
g70
I4
ssg71
Nsg64
(lp259
g57
(g73
g59
NtRp260
(dp261
g62
(dp262
sg71
g256
sg64
(lp263
g57
(g78
g59
NtRp264
(dp265
g62
(dp266
g82
g83
ssg71
g260
sg64
(lp267
S'mp_2093ad9ff9c5428a2228386de2f2b0e4_mixpanel'
p268
asbag57
(g78
g59
NtRp269
(dp270
g62
(dp271
g89
g90
ssg71
g260
sg64
(lp272
S':'
asbag57
(g78
g59
NtRp273
(dp274
g62
(dp275
sg71
g260
sg64
(lp276
g57
(g58
g59
NtRp277
(dp278
g62
(dp279
g70
I4
ssg71
g273
sg64
(lp280
S'%7B%22distinct_id%22%3A%20%2262ffc2d0-7b9f-0130-efb0-22000a1cbb2a%22%2C%22is_registered_user%22%3A%20false%2C%22%24initial_referrer%22%3A%20%22%24direct%22%2C%22%24initial_referring_domain%22%3A%20%22%24direct%22%7D'
p281
ag57
(g66
g59
NtRp282
(dp283
g62
(dp284
g70
I3
ssg71
Nsg64
(lp285
g57
(g73
g59
NtRp286
(dp287
g62
(dp288
sg71
g282
sg64
(lp289
g57
(g78
g59
NtRp290
(dp291
g62
(dp292
g82
g83
ssg71
g286
sg64
(lp293
S'comment'
p294
asbag57
(g78
g59
NtRp295
(dp296
g62
(dp297
g89
g90
ssg71
g286
sg64
(lp298
S':'
asbag57
(g78
g59
NtRp299
(dp300
g62
(dp301
sg71
g286
sg64
(lp302
g57
(g58
g59
NtRp303
(dp304
g62
(dp305
g70
I3
ssg71
g299
sg64
(lp306
S''
asbasbasbag57
(g73
g59
NtRp307
(dp308
g62
(dp309
sg71
g282
sg64
(lp310
g57
(g78
g59
NtRp311
(dp312
g62
(dp313
g82
g83
ssg71
g307
sg64
(lp314
S'domain'
p315
asbag57
(g78
g59
NtRp316
(dp317
g62
(dp318
g89
g90
ssg71
g307
sg64
(lp319
S':'
asbag57
(g78
g59
NtRp320
(dp321
g62
(dp322
sg71
g307
sg64
(lp323
g57
(g58
g59
NtRp324
(dp325
g62
(dp326
g70
I3
ssg71
g320
sg64
(lp327
S''
asbasbasbag57
(g73
g59
NtRp328
(dp329
g62
(dp330
sg71
g282
sg64
(lp331
g57
(g78
g59
NtRp332
(dp333
g62
(dp334
g82
g83
ssg71
g328
sg64
(lp335
S'expires'
p336
asbag57
(g78
g59
NtRp337
(dp338
g62
(dp339
g89
g90
ssg71
g328
sg64
(lp340
S':'
asbag57
(g78
g59
NtRp341
(dp342
g62
(dp343
sg71
g328
sg64
(lp344
g57
(g58
g59
NtRp345
(dp346
g62
(dp347
g70
I3
ssg71
g341
sg64
(lp348
S''
asbasbasbag57
(g73
g59
NtRp349
(dp350
g62
(dp351
sg71
g282
sg64
(lp352
g57
(g78
g59
NtRp353
(dp354
g62
(dp355
g82
g83
ssg71
g349
sg64
(lp356
S'httponly'
p357
asbag57
(g78
g59
NtRp358
(dp359
g62
(dp360
g89
g90
ssg71
g349
sg64
(lp361
S':'
asbag57
(g78
g59
NtRp362
(dp363
g62
(dp364
sg71
g349
sg64
(lp365
g57
(g58
g59
NtRp366
(dp367
g62
(dp368
g70
I3
ssg71
g362
sg64
(lp369
S''
asbasbasbag57
(g73
g59
NtRp370
(dp371
g62
(dp372
sg71
g282
sg64
(lp373
g57
(g78
g59
NtRp374
(dp375
g62
(dp376
g82
g83
ssg71
g370
sg64
(lp377
S'max-age'
p378
asbag57
(g78
g59
NtRp379
(dp380
g62
(dp381
g89
g90
ssg71
g370
sg64
(lp382
S':'
asbag57
(g78
g59
NtRp383
(dp384
g62
(dp385
sg71
g370
sg64
(lp386
g57
(g58
g59
NtRp387
(dp388
g62
(dp389
g70
I3
ssg71
g383
sg64
(lp390
S''
asbasbasbag57
(g73
g59
NtRp391
(dp392
g62
(dp393
sg71
g282
sg64
(lp394
g57
(g78
g59
NtRp395
(dp396
g62
(dp397
g82
g83
ssg71
g391
sg64
(lp398
S'path'
p399
asbag57
(g78
g59
NtRp400
(dp401
g62
(dp402
g89
g90
ssg71
g391
sg64
(lp403
S':'
asbag57
(g78
g59
NtRp404
(dp405
g62
(dp406
sg71
g391
sg64
(lp407
g57
(g58
g59
NtRp408
(dp409
g62
(dp410
g70
I3
ssg71
g404
sg64
(lp411
S''
asbasbasbag57
(g73
g59
NtRp412
(dp413
g62
(dp414
sg71
g282
sg64
(lp415
g57
(g78
g59
NtRp416
(dp417
g62
(dp418
g82
g83
ssg71
g412
sg64
(lp419
S'secure'
p420
asbag57
(g78
g59
NtRp421
(dp422
g62
(dp423
g89
g90
ssg71
g412
sg64
(lp424
S':'
asbag57
(g78
g59
NtRp425
(dp426
g62
(dp427
sg71
g412
sg64
(lp428
g57
(g58
g59
NtRp429
(dp430
g62
(dp431
g70
I3
ssg71
g425
sg64
(lp432
S''
asbasbasbag57
(g73
g59
NtRp433
(dp434
g62
(dp435
sg71
g282
sg64
(lp436
g57
(g78
g59
NtRp437
(dp438
g62
(dp439
g82
g83
ssg71
g433
sg64
(lp440
S'version'
p441
asbag57
(g78
g59
NtRp442
(dp443
g62
(dp444
g89
g90
ssg71
g433
sg64
(lp445
S':'
asbag57
(g78
g59
NtRp446
(dp447
g62
(dp448
sg71
g433
sg64
(lp449
g57
(g58
g59
NtRp450
(dp451
g62
(dp452
g70
I3
ssg71
g446
sg64
(lp453
S''
asbasbasbasbasbasbasbag57
(g73
g59
NtRp454
(dp455
g62
(dp456
sg71
g256
sg64
(lp457
g57
(g78
g59
NtRp458
(dp459
g62
(dp460
g82
g83
ssg71
g454
sg64
(lp461
S'session_id_admin'
p462
asbag57
(g78
g59
NtRp463
(dp464
g62
(dp465
g89
g90
ssg71
g454
sg64
(lp466
S':'
asbag57
(g78
g59
NtRp467
(dp468
g62
(dp469
sg71
g454
sg64
(lp470
g57
(g58
g59
NtRp471
(dp472
g62
(dp473
g70
I4
ssg71
g467
sg64
(lp474
S'127.0.0.1-29035540-3849-480e-844c-005b6db423a0'
p475
ag57
(g66
g59
NtRp476
(dp477
g62
(dp478
g70
I3
ssg71
Nsg64
(lp479
g57
(g73
g59
NtRp480
(dp481
g62
(dp482
sg71
g476
sg64
(lp483
g57
(g78
g59
NtRp484
(dp485
g62
(dp486
g82
g83
ssg71
g480
sg64
(lp487
g294
asbag57
(g78
g59
NtRp488
(dp489
g62
(dp490
g89
g90
ssg71
g480
sg64
(lp491
S':'
asbag57
(g78
g59
NtRp492
(dp493
g62
(dp494
sg71
g480
sg64
(lp495
g57
(g58
g59
NtRp496
(dp497
g62
(dp498
g70
I3
ssg71
g492
sg64
(lp499
S''
asbasbasbag57
(g73
g59
NtRp500
(dp501
g62
(dp502
sg71
g476
sg64
(lp503
g57
(g78
g59
NtRp504
(dp505
g62
(dp506
g82
g83
ssg71
g500
sg64
(lp507
g315
asbag57
(g78
g59
NtRp508
(dp509
g62
(dp510
g89
g90
ssg71
g500
sg64
(lp511
S':'
asbag57
(g78
g59
NtRp512
(dp513
g62
(dp514
sg71
g500
sg64
(lp515
g57
(g58
g59
NtRp516
(dp517
g62
(dp518
g70
I3
ssg71
g512
sg64
(lp519
S''
asbasbasbag57
(g73
g59
NtRp520
(dp521
g62
(dp522
sg71
g476
sg64
(lp523
g57
(g78
g59
NtRp524
(dp525
g62
(dp526
g82
g83
ssg71
g520
sg64
(lp527
g336
asbag57
(g78
g59
NtRp528
(dp529
g62
(dp530
g89
g90
ssg71
g520
sg64
(lp531
S':'
asbag57
(g78
g59
NtRp532
(dp533
g62
(dp534
sg71
g520
sg64
(lp535
g57
(g58
g59
NtRp536
(dp537
g62
(dp538
g70
I3
ssg71
g532
sg64
(lp539
S''
asbasbasbag57
(g73
g59
NtRp540
(dp541
g62
(dp542
sg71
g476
sg64
(lp543
g57
(g78
g59
NtRp544
(dp545
g62
(dp546
g82
g83
ssg71
g540
sg64
(lp547
g357
asbag57
(g78
g59
NtRp548
(dp549
g62
(dp550
g89
g90
ssg71
g540
sg64
(lp551
S':'
asbag57
(g78
g59
NtRp552
(dp553
g62
(dp554
sg71
g540
sg64
(lp555
g57
(g58
g59
NtRp556
(dp557
g62
(dp558
g70
I3
ssg71
g552
sg64
(lp559
S''
asbasbasbag57
(g73
g59
NtRp560
(dp561
g62
(dp562
sg71
g476
sg64
(lp563
g57
(g78
g59
NtRp564
(dp565
g62
(dp566
g82
g83
ssg71
g560
sg64
(lp567
g378
asbag57
(g78
g59
NtRp568
(dp569
g62
(dp570
g89
g90
ssg71
g560
sg64
(lp571
S':'
asbag57
(g78
g59
NtRp572
(dp573
g62
(dp574
sg71
g560
sg64
(lp575
g57
(g58
g59
NtRp576
(dp577
g62
(dp578
g70
I3
ssg71
g572
sg64
(lp579
S''
asbasbasbag57
(g73
g59
NtRp580
(dp581
g62
(dp582
sg71
g476
sg64
(lp583
g57
(g78
g59
NtRp584
(dp585
g62
(dp586
g82
g83
ssg71
g580
sg64
(lp587
g399
asbag57
(g78
g59
NtRp588
(dp589
g62
(dp590
g89
g90
ssg71
g580
sg64
(lp591
S':'
asbag57
(g78
g59
NtRp592
(dp593
g62
(dp594
sg71
g580
sg64
(lp595
g57
(g58
g59
NtRp596
(dp597
g62
(dp598
g70
I3
ssg71
g592
sg64
(lp599
S''
asbasbasbag57
(g73
g59
NtRp600
(dp601
g62
(dp602
sg71
g476
sg64
(lp603
g57
(g78
g59
NtRp604
(dp605
g62
(dp606
g82
g83
ssg71
g600
sg64
(lp607
g420
asbag57
(g78
g59
NtRp608
(dp609
g62
(dp610
g89
g90
ssg71
g600
sg64
(lp611
S':'
asbag57
(g78
g59
NtRp612
(dp613
g62
(dp614
sg71
g600
sg64
(lp615
g57
(g58
g59
NtRp616
(dp617
g62
(dp618
g70
I3
ssg71
g612
sg64
(lp619
S''
asbasbasbag57
(g73
g59
NtRp620
(dp621
g62
(dp622
sg71
g476
sg64
(lp623
g57
(g78
g59
NtRp624
(dp625
g62
(dp626
g82
g83
ssg71
g620
sg64
(lp627
g441
asbag57
(g78
g59
NtRp628
(dp629
g62
(dp630
g89
g90
ssg71
g620
sg64
(lp631
S':'
asbag57
(g78
g59
NtRp632
(dp633
g62
(dp634
sg71
g620
sg64
(lp635
g57
(g58
g59
NtRp636
(dp637
g62
(dp638
g70
I3
ssg71
g632
sg64
(lp639
S''
asbasbasbasbasbasbasbag57
(g73
g59
NtRp640
(dp641
g62
(dp642
sg71
g256
sg64
(lp643
g57
(g78
g59
NtRp644
(dp645
g62
(dp646
g82
g83
ssg71
g640
sg64
(lp647
S'session_id_assignment_2'
p648
asbag57
(g78
g59
NtRp649
(dp650
g62
(dp651
g89
g90
ssg71
g640
sg64
(lp652
S':'
asbag57
(g78
g59
NtRp653
(dp654
g62
(dp655
sg71
g640
sg64
(lp656
g57
(g58
g59
NtRp657
(dp658
g62
(dp659
g70
I4
ssg71
g653
sg64
(lp660
S'127.0.0.1-0036fb1c-fa58-480c-915d-54bdd0161dfd'
p661
ag57
(g66
g59
NtRp662
(dp663
g62
(dp664
g70
I3
ssg71
Nsg64
(lp665
g57
(g73
g59
NtRp666
(dp667
g62
(dp668
sg71
g662
sg64
(lp669
g57
(g78
g59
NtRp670
(dp671
g62
(dp672
g82
g83
ssg71
g666
sg64
(lp673
g294
asbag57
(g78
g59
NtRp674
(dp675
g62
(dp676
g89
g90
ssg71
g666
sg64
(lp677
S':'
asbag57
(g78
g59
NtRp678
(dp679
g62
(dp680
sg71
g666
sg64
(lp681
g57
(g58
g59
NtRp682
(dp683
g62
(dp684
g70
I3
ssg71
g678
sg64
(lp685
S''
asbasbasbag57
(g73
g59
NtRp686
(dp687
g62
(dp688
sg71
g662
sg64
(lp689
g57
(g78
g59
NtRp690
(dp691
g62
(dp692
g82
g83
ssg71
g686
sg64
(lp693
g315
asbag57
(g78
g59
NtRp694
(dp695
g62
(dp696
g89
g90
ssg71
g686
sg64
(lp697
S':'
asbag57
(g78
g59
NtRp698
(dp699
g62
(dp700
sg71
g686
sg64
(lp701
g57
(g58
g59
NtRp702
(dp703
g62
(dp704
g70
I3
ssg71
g698
sg64
(lp705
S''
asbasbasbag57
(g73
g59
NtRp706
(dp707
g62
(dp708
sg71
g662
sg64
(lp709
g57
(g78
g59
NtRp710
(dp711
g62
(dp712
g82
g83
ssg71
g706
sg64
(lp713
g336
asbag57
(g78
g59
NtRp714
(dp715
g62
(dp716
g89
g90
ssg71
g706
sg64
(lp717
S':'
asbag57
(g78
g59
NtRp718
(dp719
g62
(dp720
sg71
g706
sg64
(lp721
g57
(g58
g59
NtRp722
(dp723
g62
(dp724
g70
I3
ssg71
g718
sg64
(lp725
S''
asbasbasbag57
(g73
g59
NtRp726
(dp727
g62
(dp728
sg71
g662
sg64
(lp729
g57
(g78
g59
NtRp730
(dp731
g62
(dp732
g82
g83
ssg71
g726
sg64
(lp733
g357
asbag57
(g78
g59
NtRp734
(dp735
g62
(dp736
g89
g90
ssg71
g726
sg64
(lp737
S':'
asbag57
(g78
g59
NtRp738
(dp739
g62
(dp740
sg71
g726
sg64
(lp741
g57
(g58
g59
NtRp742
(dp743
g62
(dp744
g70
I3
ssg71
g738
sg64
(lp745
S''
asbasbasbag57
(g73
g59
NtRp746
(dp747
g62
(dp748
sg71
g662
sg64
(lp749
g57
(g78
g59
NtRp750
(dp751
g62
(dp752
g82
g83
ssg71
g746
sg64
(lp753
g378
asbag57
(g78
g59
NtRp754
(dp755
g62
(dp756
g89
g90
ssg71
g746
sg64
(lp757
S':'
asbag57
(g78
g59
NtRp758
(dp759
g62
(dp760
sg71
g746
sg64
(lp761
g57
(g58
g59
NtRp762
(dp763
g62
(dp764
g70
I3
ssg71
g758
sg64
(lp765
S''
asbasbasbag57
(g73
g59
NtRp766
(dp767
g62
(dp768
sg71
g662
sg64
(lp769
g57
(g78
g59
NtRp770
(dp771
g62
(dp772
g82
g83
ssg71
g766
sg64
(lp773
g399
asbag57
(g78
g59
NtRp774
(dp775
g62
(dp776
g89
g90
ssg71
g766
sg64
(lp777
S':'
asbag57
(g78
g59
NtRp778
(dp779
g62
(dp780
sg71
g766
sg64
(lp781
g57
(g58
g59
NtRp782
(dp783
g62
(dp784
g70
I3
ssg71
g778
sg64
(lp785
S''
asbasbasbag57
(g73
g59
NtRp786
(dp787
g62
(dp788
sg71
g662
sg64
(lp789
g57
(g78
g59
NtRp790
(dp791
g62
(dp792
g82
g83
ssg71
g786
sg64
(lp793
g420
asbag57
(g78
g59
NtRp794
(dp795
g62
(dp796
g89
g90
ssg71
g786
sg64
(lp797
S':'
asbag57
(g78
g59
NtRp798
(dp799
g62
(dp800
sg71
g786
sg64
(lp801
g57
(g58
g59
NtRp802
(dp803
g62
(dp804
g70
I3
ssg71
g798
sg64
(lp805
S''
asbasbasbag57
(g73
g59
NtRp806
(dp807
g62
(dp808
sg71
g662
sg64
(lp809
g57
(g78
g59
NtRp810
(dp811
g62
(dp812
g82
g83
ssg71
g806
sg64
(lp813
g441
asbag57
(g78
g59
NtRp814
(dp815
g62
(dp816
g89
g90
ssg71
g806
sg64
(lp817
S':'
asbag57
(g78
g59
NtRp818
(dp819
g62
(dp820
sg71
g806
sg64
(lp821
g57
(g58
g59
NtRp822
(dp823
g62
(dp824
g70
I3
ssg71
g818
sg64
(lp825
S''
asbasbasbasbasbasbasbag57
(g73
g59
NtRp826
(dp827
g62
(dp828
sg71
g256
sg64
(lp829
g57
(g78
g59
NtRp830
(dp831
g62
(dp832
g82
g83
ssg71
g826
sg64
(lp833
S'session_id_welcome'
p834
asbag57
(g78
g59
NtRp835
(dp836
g62
(dp837
g89
g90
ssg71
g826
sg64
(lp838
S':'
asbag57
(g78
g59
NtRp839
(dp840
g62
(dp841
sg71
g826
sg64
(lp842
g57
(g58
g59
NtRp843
(dp844
g62
(dp845
g70
I4
ssg71
g839
sg64
(lp846
S'127.0.0.1-51ff2c10-1037-48b2-b021-d4a1792466f9'
p847
ag57
(g66
g59
NtRp848
(dp849
g62
(dp850
g70
I3
ssg71
Nsg64
(lp851
g57
(g73
g59
NtRp852
(dp853
g62
(dp854
sg71
g848
sg64
(lp855
g57
(g78
g59
NtRp856
(dp857
g62
(dp858
g82
g83
ssg71
g852
sg64
(lp859
g294
asbag57
(g78
g59
NtRp860
(dp861
g62
(dp862
g89
g90
ssg71
g852
sg64
(lp863
S':'
asbag57
(g78
g59
NtRp864
(dp865
g62
(dp866
sg71
g852
sg64
(lp867
g57
(g58
g59
NtRp868
(dp869
g62
(dp870
g70
I3
ssg71
g864
sg64
(lp871
S''
asbasbasbag57
(g73
g59
NtRp872
(dp873
g62
(dp874
sg71
g848
sg64
(lp875
g57
(g78
g59
NtRp876
(dp877
g62
(dp878
g82
g83
ssg71
g872
sg64
(lp879
g315
asbag57
(g78
g59
NtRp880
(dp881
g62
(dp882
g89
g90
ssg71
g872
sg64
(lp883
S':'
asbag57
(g78
g59
NtRp884
(dp885
g62
(dp886
sg71
g872
sg64
(lp887
g57
(g58
g59
NtRp888
(dp889
g62
(dp890
g70
I3
ssg71
g884
sg64
(lp891
S''
asbasbasbag57
(g73
g59
NtRp892
(dp893
g62
(dp894
sg71
g848
sg64
(lp895
g57
(g78
g59
NtRp896
(dp897
g62
(dp898
g82
g83
ssg71
g892
sg64
(lp899
g336
asbag57
(g78
g59
NtRp900
(dp901
g62
(dp902
g89
g90
ssg71
g892
sg64
(lp903
S':'
asbag57
(g78
g59
NtRp904
(dp905
g62
(dp906
sg71
g892
sg64
(lp907
g57
(g58
g59
NtRp908
(dp909
g62
(dp910
g70
I3
ssg71
g904
sg64
(lp911
S''
asbasbasbag57
(g73
g59
NtRp912
(dp913
g62
(dp914
sg71
g848
sg64
(lp915
g57
(g78
g59
NtRp916
(dp917
g62
(dp918
g82
g83
ssg71
g912
sg64
(lp919
g357
asbag57
(g78
g59
NtRp920
(dp921
g62
(dp922
g89
g90
ssg71
g912
sg64
(lp923
S':'
asbag57
(g78
g59
NtRp924
(dp925
g62
(dp926
sg71
g912
sg64
(lp927
g57
(g58
g59
NtRp928
(dp929
g62
(dp930
g70
I3
ssg71
g924
sg64
(lp931
S''
asbasbasbag57
(g73
g59
NtRp932
(dp933
g62
(dp934
sg71
g848
sg64
(lp935
g57
(g78
g59
NtRp936
(dp937
g62
(dp938
g82
g83
ssg71
g932
sg64
(lp939
g378
asbag57
(g78
g59
NtRp940
(dp941
g62
(dp942
g89
g90
ssg71
g932
sg64
(lp943
S':'
asbag57
(g78
g59
NtRp944
(dp945
g62
(dp946
sg71
g932
sg64
(lp947
g57
(g58
g59
NtRp948
(dp949
g62
(dp950
g70
I3
ssg71
g944
sg64
(lp951
S''
asbasbasbag57
(g73
g59
NtRp952
(dp953
g62
(dp954
sg71
g848
sg64
(lp955
g57
(g78
g59
NtRp956
(dp957
g62
(dp958
g82
g83
ssg71
g952
sg64
(lp959
g399
asbag57
(g78
g59
NtRp960
(dp961
g62
(dp962
g89
g90
ssg71
g952
sg64
(lp963
S':'
asbag57
(g78
g59
NtRp964
(dp965
g62
(dp966
sg71
g952
sg64
(lp967
g57
(g58
g59
NtRp968
(dp969
g62
(dp970
g70
I3
ssg71
g964
sg64
(lp971
S''
asbasbasbag57
(g73
g59
NtRp972
(dp973
g62
(dp974
sg71
g848
sg64
(lp975
g57
(g78
g59
NtRp976
(dp977
g62
(dp978
g82
g83
ssg71
g972
sg64
(lp979
g420
asbag57
(g78
g59
NtRp980
(dp981
g62
(dp982
g89
g90
ssg71
g972
sg64
(lp983
S':'
asbag57
(g78
g59
NtRp984
(dp985
g62
(dp986
sg71
g972
sg64
(lp987
g57
(g58
g59
NtRp988
(dp989
g62
(dp990
g70
I3
ssg71
g984
sg64
(lp991
S''
asbasbasbag57
(g73
g59
NtRp992
(dp993
g62
(dp994
sg71
g848
sg64
(lp995
g57
(g78
g59
NtRp996
(dp997
g62
(dp998
g82
g83
ssg71
g992
sg64
(lp999
g441
asbag57
(g78
g59
NtRp1000
(dp1001
g62
(dp1002
g89
g90
ssg71
g992
sg64
(lp1003
S':'
asbag57
(g78
g59
NtRp1004
(dp1005
g62
(dp1006
sg71
g992
sg64
(lp1007
g57
(g58
g59
NtRp1008
(dp1009
g62
(dp1010
g70
I3
ssg71
g1004
sg64
(lp1011
S''
asbasbasbasbasbasbasbasbasbasbasbag57
(g73
g59
NtRp1012
(dp1013
g62
(dp1014
sg71
g67
sg64
(lp1015
g57
(g78
g59
NtRp1016
(dp1017
g62
(dp1018
g82
g83
ssg71
g1012
sg64
(lp1019
S'env'
p1020
asbag57
(g78
g59
NtRp1021
(dp1022
g62
(dp1023
g89
g90
ssg71
g1012
sg64
(lp1024
S':'
asbag57
(g78
g59
NtRp1025
(dp1026
g62
(dp1027
sg71
g1012
sg64
(lp1028
g57
(g58
g59
NtRp1029
(dp1030
g62
(dp1031
g70
I5
ssg71
g1025
sg64
(lp1032
g57
(g66
g59
NtRp1033
(dp1034
g62
(dp1035
g70
I4
ssg71
Nsg64
(lp1036
g57
(g73
g59
NtRp1037
(dp1038
g62
(dp1039
sg71
g1033
sg64
(lp1040
g57
(g78
g59
NtRp1041
(dp1042
g62
(dp1043
g82
g83
ssg71
g1037
sg64
(lp1044
S'app_folders'
p1045
asbag57
(g78
g59
NtRp1046
(dp1047
g62
(dp1048
g89
g90
ssg71
g1037
sg64
(lp1049
S':'
asbag57
(g78
g59
NtRp1050
(dp1051
g62
(dp1052
sg71
g1037
sg64
(lp1053
g57
(g58
g59
NtRp1054
(dp1055
g62
(dp1056
g70
I4
ssg71
g1050
sg64
(lp1057
S"set(['/home/shipra/Desktop/Semester 1.2/ITWS-2/web2py/applications/Assignment_2/', '/home/shipra/Desktop/Semester 1.2/ITWS-2/web2py/applications/welcome/', '/home/shipra/Desktop/Semester 1.2/ITWS-2/web2py/applications/admin/'])"
p1058
asbasbasbag57
(g73
g59
NtRp1059
(dp1060
g62
(dp1061
sg71
g1033
sg64
(lp1062
g57
(g78
g59
NtRp1063
(dp1064
g62
(dp1065
g82
g83
ssg71
g1059
sg64
(lp1066
S'applications_parent'
p1067
asbag57
(g78
g59
NtRp1068
(dp1069
g62
(dp1070
g89
g90
ssg71
g1059
sg64
(lp1071
S':'
asbag57
(g78
g59
NtRp1072
(dp1073
g62
(dp1074
sg71
g1059
sg64
(lp1075
g57
(g58
g59
NtRp1076
(dp1077
g62
(dp1078
g70
I4
ssg71
g1072
sg64
(lp1079
S'/home/shipra/Desktop/Semester 1.2/ITWS-2/web2py'
p1080
asbasbasbag57
(g73
g59
NtRp1081
(dp1082
g62
(dp1083
sg71
g1033
sg64
(lp1084
g57
(g78
g59
NtRp1085
(dp1086
g62
(dp1087
g82
g83
ssg71
g1081
sg64
(lp1088
S'cmd_args'
p1089
asbag57
(g78
g59
NtRp1090
(dp1091
g62
(dp1092
g89
g90
ssg71
g1081
sg64
(lp1093
S':'
asbag57
(g78
g59
NtRp1094
(dp1095
g62
(dp1096
sg71
g1081
sg64
(lp1097
g57
(g58
g59
NtRp1098
(dp1099
g62
(dp1100
g70
I4
ssg71
g1094
sg64
(lp1101
g57
(g66
g59
NtRp1102
(dp1103
g62
(dp1104
g70
I3
ssg71
Nsg64
(lp1105
sbasbasbasbag57
(g73
g59
NtRp1106
(dp1107
g62
(dp1108
sg71
g1033
sg64
(lp1109
g57
(g78
g59
NtRp1110
(dp1111
g62
(dp1112
g82
g83
ssg71
g1106
sg64
(lp1113
S'cmd_options'
p1114
asbag57
(g78
g59
NtRp1115
(dp1116
g62
(dp1117
g89
g90
ssg71
g1106
sg64
(lp1118
S':'
asbag57
(g78
g59
NtRp1119
(dp1120
g62
(dp1121
sg71
g1106
sg64
(lp1122
g57
(g58
g59
NtRp1123
(dp1124
g62
(dp1125
g70
I4
ssg71
g1119
sg64
(lp1126
S"<Values at 0x20be290: {'verbose': False, 'ip': '127.0.0.1', 'with_scheduler': False, 'ips': ['10.1.129.70', '192.168.122.1', 'fe80::e611:5bff:fe38:8d0d%p5p1'], 'shutdown_timeout': 5, 'taskbar': False, 'port': 8000, 'maxthreads': None, 'softcron': False, 'server_name': 'shipra', 'bpython': False, 'nogui': False, 'pid_filename': 'httpserver.pid', 'extcron': False, 'runcron': False, 'run_system_tests': False, 'test': None, 'folder': '/home/shipra/Desktop/Semester 1.2/ITWS-2/web2py', 'config': '', 'minthreads': None, 'winservice': '', 'shell': None, 'run': '', 'log_filename': 'httpserver.log', 'debuglevel': 30, 'args': [''], 'socket_timeout': 5, 'ssl_ca_certificate': None, 'scheduler': None, 'profiler_filename': None, 'ssl_private_key': '', 'scheduler_groups': None, 'password': '<ask>', 'request_queue_size': 5, 'ssl_certificate': '', 'cronjob': False, 'numthreads': None, 'quiet': False, 'interfaces': None, 'import_models': False, 'timeout': 10, 'plain': False, 'nobanner': False}>"
p1127
asbasbasbag57
(g73
g59
NtRp1128
(dp1129
g62
(dp1130
sg71
g1033
sg64
(lp1131
g57
(g78
g59
NtRp1132
(dp1133
g62
(dp1134
g82
g83
ssg71
g1128
sg64
(lp1135
S'db_sessions'
p1136
asbag57
(g78
g59
NtRp1137
(dp1138
g62
(dp1139
g89
g90
ssg71
g1128
sg64
(lp1140
S':'
asbag57
(g78
g59
NtRp1141
(dp1142
g62
(dp1143
sg71
g1128
sg64
(lp1144
g57
(g58
g59
NtRp1145
(dp1146
g62
(dp1147
g70
I4
ssg71
g1141
sg64
(lp1148
S'set([])'
p1149
asbasbasbag57
(g73
g59
NtRp1150
(dp1151
g62
(dp1152
sg71
g1033
sg64
(lp1153
g57
(g78
g59
NtRp1154
(dp1155
g62
(dp1156
g82
g83
ssg71
g1150
sg64
(lp1157
S'debugging'
p1158
asbag57
(g78
g59
NtRp1159
(dp1160
g62
(dp1161
g89
g90
ssg71
g1150
sg64
(lp1162
S':'
asbag57
(g78
g59
NtRp1163
(dp1164
g62
(dp1165
sg71
g1150
sg64
(lp1166
g57
(g58
g59
NtRp1167
(dp1168
g62
(dp1169
g70
I4
ssg71
g1163
sg64
(lp1170
g100
asbasbasbag57
(g73
g59
NtRp1171
(dp1172
g62
(dp1173
sg71
g1033
sg64
(lp1174
g57
(g78
g59
NtRp1175
(dp1176
g62
(dp1177
g82
g83
ssg71
g1171
sg64
(lp1178
S'gluon_parent'
p1179
asbag57
(g78
g59
NtRp1180
(dp1181
g62
(dp1182
g89
g90
ssg71
g1171
sg64
(lp1183
S':'
asbag57
(g78
g59
NtRp1184
(dp1185
g62
(dp1186
sg71
g1171
sg64
(lp1187
g57
(g58
g59
NtRp1188
(dp1189
g62
(dp1190
g70
I4
ssg71
g1184
sg64
(lp1191
S'/home/shipra/Desktop/Semester 1.2/ITWS-2/web2py'
p1192
asbasbasbag57
(g73
g59
NtRp1193
(dp1194
g62
(dp1195
sg71
g1033
sg64
(lp1196
g57
(g78
g59
NtRp1197
(dp1198
g62
(dp1199
g82
g83
ssg71
g1193
sg64
(lp1200
S'http_accept'
p1201
asbag57
(g78
g59
NtRp1202
(dp1203
g62
(dp1204
g89
g90
ssg71
g1193
sg64
(lp1205
S':'
asbag57
(g78
g59
NtRp1206
(dp1207
g62
(dp1208
sg71
g1193
sg64
(lp1209
g57
(g58
g59
NtRp1210
(dp1211
g62
(dp1212
g70
I4
ssg71
g1206
sg64
(lp1213
S'text/html,application/xhtml+xml,application/xml;q=0.9,*/*;q=0.8'
p1214
asbasbasbag57
(g73
g59
NtRp1215
(dp1216
g62
(dp1217
sg71
g1033
sg64
(lp1218
g57
(g78
g59
NtRp1219
(dp1220
g62
(dp1221
g82
g83
ssg71
g1215
sg64
(lp1222
S'http_accept_encoding'
p1223
asbag57
(g78
g59
NtRp1224
(dp1225
g62
(dp1226
g89
g90
ssg71
g1215
sg64
(lp1227
S':'
asbag57
(g78
g59
NtRp1228
(dp1229
g62
(dp1230
sg71
g1215
sg64
(lp1231
g57
(g58
g59
NtRp1232
(dp1233
g62
(dp1234
g70
I4
ssg71
g1228
sg64
(lp1235
S'gzip, deflate'
p1236
asbasbasbag57
(g73
g59
NtRp1237
(dp1238
g62
(dp1239
sg71
g1033
sg64
(lp1240
g57
(g78
g59
NtRp1241
(dp1242
g62
(dp1243
g82
g83
ssg71
g1237
sg64
(lp1244
S'http_accept_language'
p1245
asbag57
(g78
g59
NtRp1246
(dp1247
g62
(dp1248
g89
g90
ssg71
g1237
sg64
(lp1249
S':'
asbag57
(g78
g59
NtRp1250
(dp1251
g62
(dp1252
sg71
g1237
sg64
(lp1253
g57
(g58
g59
NtRp1254
(dp1255
g62
(dp1256
g70
I4
ssg71
g1250
sg64
(lp1257
S'en-us,en;q=0.5'
p1258
asbasbasbag57
(g73
g59
NtRp1259
(dp1260
g62
(dp1261
sg71
g1033
sg64
(lp1262
g57
(g78
g59
NtRp1263
(dp1264
g62
(dp1265
g82
g83
ssg71
g1259
sg64
(lp1266
S'http_connection'
p1267
asbag57
(g78
g59
NtRp1268
(dp1269
g62
(dp1270
g89
g90
ssg71
g1259
sg64
(lp1271
S':'
asbag57
(g78
g59
NtRp1272
(dp1273
g62
(dp1274
sg71
g1259
sg64
(lp1275
g57
(g58
g59
NtRp1276
(dp1277
g62
(dp1278
g70
I4
ssg71
g1272
sg64
(lp1279
S'keep-alive'
p1280
asbasbasbag57
(g73
g59
NtRp1281
(dp1282
g62
(dp1283
sg71
g1033
sg64
(lp1284
g57
(g78
g59
NtRp1285
(dp1286
g62
(dp1287
g82
g83
ssg71
g1281
sg64
(lp1288
S'http_cookie'
p1289
asbag57
(g78
g59
NtRp1290
(dp1291
g62
(dp1292
g89
g90
ssg71
g1281
sg64
(lp1293
S':'
asbag57
(g78
g59
NtRp1294
(dp1295
g62
(dp1296
sg71
g1281
sg64
(lp1297
g57
(g58
g59
NtRp1298
(dp1299
g62
(dp1300
g70
I4
ssg71
g1294
sg64
(lp1301
S'__utma=96992031.1334412862.1364672878.1364672878.1364718243.2; __utmz=96992031.1364672878.1.1.utmcsr=(direct)|utmccn=(direct)|utmcmd=(none); __lc.visitor_id.1195381=S1364672235.4faffcf2d2; __ar_v4=OWHSPOGHTNEIPPPBMHVFTA%3A20130329%3A12%7CAMEDRHI4VZG4TIA2AZ565D%3A20130329%3A12%7CWAEQXC4B2NH3DDBR3TZM6I%3A20130329%3A12; mp_2093ad9ff9c5428a2228386de2f2b0e4_mixpanel=%7B%22distinct_id%22%3A%20%2262ffc2d0-7b9f-0130-efb0-22000a1cbb2a%22%2C%22is_registered_user%22%3A%20false%2C%22%24initial_referrer%22%3A%20%22%24direct%22%2C%22%24initial_referring_domain%22%3A%20%22%24direct%22%7D; session_id_welcome=127.0.0.1-51ff2c10-1037-48b2-b021-d4a1792466f9; session_id_admin=127.0.0.1-29035540-3849-480e-844c-005b6db423a0; session_id_assignment_2=127.0.0.1-0036fb1c-fa58-480c-915d-54bdd0161dfd'
p1302
asbasbasbag57
(g73
g59
NtRp1303
(dp1304
g62
(dp1305
sg71
g1033
sg64
(lp1306
g57
(g78
g59
NtRp1307
(dp1308
g62
(dp1309
g82
g83
ssg71
g1303
sg64
(lp1310
S'http_host'
p1311
asbag57
(g78
g59
NtRp1312
(dp1313
g62
(dp1314
g89
g90
ssg71
g1303
sg64
(lp1315
S':'
asbag57
(g78
g59
NtRp1316
(dp1317
g62
(dp1318
sg71
g1303
sg64
(lp1319
g57
(g58
g59
NtRp1320
(dp1321
g62
(dp1322
g70
I4
ssg71
g1316
sg64
(lp1323
S'127.0.0.1:8000'
p1324
asbasbasbag57
(g73
g59
NtRp1325
(dp1326
g62
(dp1327
sg71
g1033
sg64
(lp1328
g57
(g78
g59
NtRp1329
(dp1330
g62
(dp1331
g82
g83
ssg71
g1325
sg64
(lp1332
S'http_user_agent'
p1333
asbag57
(g78
g59
NtRp1334
(dp1335
g62
(dp1336
g89
g90
ssg71
g1325
sg64
(lp1337
S':'
asbag57
(g78
g59
NtRp1338
(dp1339
g62
(dp1340
sg71
g1325
sg64
(lp1341
g57
(g58
g59
NtRp1342
(dp1343
g62
(dp1344
g70
I4
ssg71
g1338
sg64
(lp1345
S'Mozilla/5.0 (X11; Linux x86_64; rv:12.0) Gecko/20100101 Firefox/12.0'
p1346
asbasbasbag57
(g73
g59
NtRp1347
(dp1348
g62
(dp1349
sg71
g1033
sg64
(lp1350
g57
(g78
g59
NtRp1351
(dp1352
g62
(dp1353
g82
g83
ssg71
g1347
sg64
(lp1354
S'is_jython'
p1355
asbag57
(g78
g59
NtRp1356
(dp1357
g62
(dp1358
g89
g90
ssg71
g1347
sg64
(lp1359
S':'
asbag57
(g78
g59
NtRp1360
(dp1361
g62
(dp1362
sg71
g1347
sg64
(lp1363
g57
(g58
g59
NtRp1364
(dp1365
g62
(dp1366
g70
I4
ssg71
g1360
sg64
(lp1367
g100
asbasbasbag57
(g73
g59
NtRp1368
(dp1369
g62
(dp1370
sg71
g1033
sg64
(lp1371
g57
(g78
g59
NtRp1372
(dp1373
g62
(dp1374
g82
g83
ssg71
g1368
sg64
(lp1375
S'is_pypy'
p1376
asbag57
(g78
g59
NtRp1377
(dp1378
g62
(dp1379
g89
g90
ssg71
g1368
sg64
(lp1380
S':'
asbag57
(g78
g59
NtRp1381
(dp1382
g62
(dp1383
sg71
g1368
sg64
(lp1384
g57
(g58
g59
NtRp1385
(dp1386
g62
(dp1387
g70
I4
ssg71
g1381
sg64
(lp1388
g100
asbasbasbag57
(g73
g59
NtRp1389
(dp1390
g62
(dp1391
sg71
g1033
sg64
(lp1392
g57
(g78
g59
NtRp1393
(dp1394
g62
(dp1395
g82
g83
ssg71
g1389
sg64
(lp1396
S'local_hosts'
p1397
asbag57
(g78
g59
NtRp1398
(dp1399
g62
(dp1400
g89
g90
ssg71
g1389
sg64
(lp1401
S':'
asbag57
(g78
g59
NtRp1402
(dp1403
g62
(dp1404
sg71
g1389
sg64
(lp1405
g57
(g58
g59
NtRp1406
(dp1407
g62
(dp1408
g70
I4
ssg71
g1402
sg64
(lp1409
g57
(g66
g59
NtRp1410
(dp1411
g62
(dp1412
g70
I3
ssg71
Nsg64
(lp1413
g57
(g73
g59
NtRp1414
(dp1415
g62
(dp1416
sg71
g1410
sg64
(lp1417
g57
(g78
g59
NtRp1418
(dp1419
g62
(dp1420
sg71
g1414
sg64
(lp1421
g57
(g58
g59
NtRp1422
(dp1423
g62
(dp1424
g70
I3
ssg71
g1418
sg64
(lp1425
S'192.168.122.1'
p1426
asbasbasbag57
(g73
g59
NtRp1427
(dp1428
g62
(dp1429
sg71
g1410
sg64
(lp1430
g57
(g78
g59
NtRp1431
(dp1432
g62
(dp1433
sg71
g1427
sg64
(lp1434
g57
(g58
g59
NtRp1435
(dp1436
g62
(dp1437
g70
I3
ssg71
g1431
sg64
(lp1438
S'::ffff:127.0.0.1'
p1439
asbasbasbag57
(g73
g59
NtRp1440
(dp1441
g62
(dp1442
sg71
g1410
sg64
(lp1443
g57
(g78
g59
NtRp1444
(dp1445
g62
(dp1446
sg71
g1440
sg64
(lp1447
g57
(g58
g59
NtRp1448
(dp1449
g62
(dp1450
g70
I3
ssg71
g1444
sg64
(lp1451
S'::1'
p1452
asbasbasbag57
(g73
g59
NtRp1453
(dp1454
g62
(dp1455
sg71
g1410
sg64
(lp1456
g57
(g78
g59
NtRp1457
(dp1458
g62
(dp1459
sg71
g1453
sg64
(lp1460
g57
(g58
g59
NtRp1461
(dp1462
g62
(dp1463
g70
I3
ssg71
g1457
sg64
(lp1464
S'10.1.129.70'
p1465
asbasbasbag57
(g73
g59
NtRp1466
(dp1467
g62
(dp1468
sg71
g1410
sg64
(lp1469
g57
(g78
g59
NtRp1470
(dp1471
g62
(dp1472
sg71
g1466
sg64
(lp1473
g57
(g58
g59
NtRp1474
(dp1475
g62
(dp1476
g70
I3
ssg71
g1470
sg64
(lp1477
S'fe80::e611:5bff:fe38:8d0d%p5p1'
p1478
asbasbasbag57
(g73
g59
NtRp1479
(dp1480
g62
(dp1481
sg71
g1410
sg64
(lp1482
g57
(g78
g59
NtRp1483
(dp1484
g62
(dp1485
sg71
g1479
sg64
(lp1486
g57
(g58
g59
NtRp1487
(dp1488
g62
(dp1489
g70
I3
ssg71
g1483
sg64
(lp1490
S'127.0.0.1'
p1491
asbasbasbag57
(g73
g59
NtRp1492
(dp1493
g62
(dp1494
sg71
g1410
sg64
(lp1495
g57
(g78
g59
NtRp1496
(dp1497
g62
(dp1498
sg71
g1492
sg64
(lp1499
g57
(g58
g59
NtRp1500
(dp1501
g62
(dp1502
g70
I3
ssg71
g1496
sg64
(lp1503
S'shipra'
p1504
asbasbasbasbasbasbasbag57
(g73
g59
NtRp1505
(dp1506
g62
(dp1507
sg71
g1033
sg64
(lp1508
g57
(g78
g59
NtRp1509
(dp1510
g62
(dp1511
g82
g83
ssg71
g1505
sg64
(lp1512
S'path_info'
p1513
asbag57
(g78
g59
NtRp1514
(dp1515
g62
(dp1516
g89
g90
ssg71
g1505
sg64
(lp1517
S':'
asbag57
(g78
g59
NtRp1518
(dp1519
g62
(dp1520
sg71
g1505
sg64
(lp1521
g57
(g58
g59
NtRp1522
(dp1523
g62
(dp1524
g70
I4
ssg71
g1518
sg64
(lp1525
S'/Assignment_2/default/categ_display.html'
p1526
asbasbasbag57
(g73
g59
NtRp1527
(dp1528
g62
(dp1529
sg71
g1033
sg64
(lp1530
g57
(g78
g59
NtRp1531
(dp1532
g62
(dp1533
g82
g83
ssg71
g1527
sg64
(lp1534
S'query_string'
p1535
asbag57
(g78
g59
NtRp1536
(dp1537
g62
(dp1538
g89
g90
ssg71
g1527
sg64
(lp1539
S':'
asbag57
(g78
g59
NtRp1540
(dp1541
g62
(dp1542
sg71
g1527
sg64
(lp1543
g57
(g58
g59
NtRp1544
(dp1545
g62
(dp1546
g70
I4
ssg71
g1540
sg64
(lp1547
S'message=Likes/World'
p1548
asbasbasbag57
(g73
g59
NtRp1549
(dp1550
g62
(dp1551
sg71
g1033
sg64
(lp1552
g57
(g78
g59
NtRp1553
(dp1554
g62
(dp1555
g82
g83
ssg71
g1549
sg64
(lp1556
S'remote_addr'
p1557
asbag57
(g78
g59
NtRp1558
(dp1559
g62
(dp1560
g89
g90
ssg71
g1549
sg64
(lp1561
S':'
asbag57
(g78
g59
NtRp1562
(dp1563
g62
(dp1564
sg71
g1549
sg64
(lp1565
g57
(g58
g59
NtRp1566
(dp1567
g62
(dp1568
g70
I4
ssg71
g1562
sg64
(lp1569
g212
asbasbasbag57
(g73
g59
NtRp1570
(dp1571
g62
(dp1572
sg71
g1033
sg64
(lp1573
g57
(g78
g59
NtRp1574
(dp1575
g62
(dp1576
g82
g83
ssg71
g1570
sg64
(lp1577
S'remote_port'
p1578
asbag57
(g78
g59
NtRp1579
(dp1580
g62
(dp1581
g89
g90
ssg71
g1570
sg64
(lp1582
S':'
asbag57
(g78
g59
NtRp1583
(dp1584
g62
(dp1585
sg71
g1570
sg64
(lp1586
g57
(g58
g59
NtRp1587
(dp1588
g62
(dp1589
g70
I4
ssg71
g1583
sg64
(lp1590
S'39591'
p1591
asbasbasbag57
(g73
g59
NtRp1592
(dp1593
g62
(dp1594
sg71
g1033
sg64
(lp1595
g57
(g78
g59
NtRp1596
(dp1597
g62
(dp1598
g82
g83
ssg71
g1592
sg64
(lp1599
S'request_method'
p1600
asbag57
(g78
g59
NtRp1601
(dp1602
g62
(dp1603
g89
g90
ssg71
g1592
sg64
(lp1604
S':'
asbag57
(g78
g59
NtRp1605
(dp1606
g62
(dp1607
sg71
g1592
sg64
(lp1608
g57
(g58
g59
NtRp1609
(dp1610
g62
(dp1611
g70
I4
ssg71
g1605
sg64
(lp1612
S'GET'
p1613
asbasbasbag57
(g73
g59
NtRp1614
(dp1615
g62
(dp1616
sg71
g1033
sg64
(lp1617
g57
(g78
g59
NtRp1618
(dp1619
g62
(dp1620
g82
g83
ssg71
g1614
sg64
(lp1621
S'request_uri'
p1622
asbag57
(g78
g59
NtRp1623
(dp1624
g62
(dp1625
g89
g90
ssg71
g1614
sg64
(lp1626
S':'
asbag57
(g78
g59
NtRp1627
(dp1628
g62
(dp1629
sg71
g1614
sg64
(lp1630
g57
(g58
g59
NtRp1631
(dp1632
g62
(dp1633
g70
I4
ssg71
g1627
sg64
(lp1634
S'/Assignment_2/default/categ_display.html?message=Likes/World'
p1635
asbasbasbag57
(g73
g59
NtRp1636
(dp1637
g62
(dp1638
sg71
g1033
sg64
(lp1639
g57
(g78
g59
NtRp1640
(dp1641
g62
(dp1642
g82
g83
ssg71
g1636
sg64
(lp1643
S'script_name'
p1644
asbag57
(g78
g59
NtRp1645
(dp1646
g62
(dp1647
g89
g90
ssg71
g1636
sg64
(lp1648
S':'
asbag57
(g78
g59
NtRp1649
(dp1650
g62
(dp1651
sg71
g1636
sg64
(lp1652
g57
(g58
g59
NtRp1653
(dp1654
g62
(dp1655
g70
I4
ssg71
g1649
sg64
(lp1656
S''
asbasbasbag57
(g73
g59
NtRp1657
(dp1658
g62
(dp1659
sg71
g1033
sg64
(lp1660
g57
(g78
g59
NtRp1661
(dp1662
g62
(dp1663
g82
g83
ssg71
g1657
sg64
(lp1664
S'server_name'
p1665
asbag57
(g78
g59
NtRp1666
(dp1667
g62
(dp1668
g89
g90
ssg71
g1657
sg64
(lp1669
S':'
asbag57
(g78
g59
NtRp1670
(dp1671
g62
(dp1672
sg71
g1657
sg64
(lp1673
g57
(g58
g59
NtRp1674
(dp1675
g62
(dp1676
g70
I4
ssg71
g1670
sg64
(lp1677
S'shipra'
p1678
asbasbasbag57
(g73
g59
NtRp1679
(dp1680
g62
(dp1681
sg71
g1033
sg64
(lp1682
g57
(g78
g59
NtRp1683
(dp1684
g62
(dp1685
g82
g83
ssg71
g1679
sg64
(lp1686
S'server_port'
p1687
asbag57
(g78
g59
NtRp1688
(dp1689
g62
(dp1690
g89
g90
ssg71
g1679
sg64
(lp1691
S':'
asbag57
(g78
g59
NtRp1692
(dp1693
g62
(dp1694
sg71
g1679
sg64
(lp1695
g57
(g58
g59
NtRp1696
(dp1697
g62
(dp1698
g70
I4
ssg71
g1692
sg64
(lp1699
S'8000'
p1700
asbasbasbag57
(g73
g59
NtRp1701
(dp1702
g62
(dp1703
sg71
g1033
sg64
(lp1704
g57
(g78
g59
NtRp1705
(dp1706
g62
(dp1707
g82
g83
ssg71
g1701
sg64
(lp1708
S'server_protocol'
p1709
asbag57
(g78
g59
NtRp1710
(dp1711
g62
(dp1712
g89
g90
ssg71
g1701
sg64
(lp1713
S':'
asbag57
(g78
g59
NtRp1714
(dp1715
g62
(dp1716
sg71
g1701
sg64
(lp1717
g57
(g58
g59
NtRp1718
(dp1719
g62
(dp1720
g70
I4
ssg71
g1714
sg64
(lp1721
S'HTTP/1.1'
p1722
asbasbasbag57
(g73
g59
NtRp1723
(dp1724
g62
(dp1725
sg71
g1033
sg64
(lp1726
g57
(g78
g59
NtRp1727
(dp1728
g62
(dp1729
g82
g83
ssg71
g1723
sg64
(lp1730
S'server_software'
p1731
asbag57
(g78
g59
NtRp1732
(dp1733
g62
(dp1734
g89
g90
ssg71
g1723
sg64
(lp1735
S':'
asbag57
(g78
g59
NtRp1736
(dp1737
g62
(dp1738
sg71
g1723
sg64
(lp1739
g57
(g58
g59
NtRp1740
(dp1741
g62
(dp1742
g70
I4
ssg71
g1736
sg64
(lp1743
S'Rocket 1.2.6'
p1744
asbasbasbag57
(g73
g59
NtRp1745
(dp1746
g62
(dp1747
sg71
g1033
sg64
(lp1748
g57
(g78
g59
NtRp1749
(dp1750
g62
(dp1751
g82
g83
ssg71
g1745
sg64
(lp1752
S'web2py_path'
p1753
asbag57
(g78
g59
NtRp1754
(dp1755
g62
(dp1756
g89
g90
ssg71
g1745
sg64
(lp1757
S':'
asbag57
(g78
g59
NtRp1758
(dp1759
g62
(dp1760
sg71
g1745
sg64
(lp1761
g57
(g58
g59
NtRp1762
(dp1763
g62
(dp1764
g70
I4
ssg71
g1758
sg64
(lp1765
g1080
asbasbasbag57
(g73
g59
NtRp1766
(dp1767
g62
(dp1768
sg71
g1033
sg64
(lp1769
g57
(g78
g59
NtRp1770
(dp1771
g62
(dp1772
g82
g83
ssg71
g1766
sg64
(lp1773
S'web2py_version'
p1774
asbag57
(g78
g59
NtRp1775
(dp1776
g62
(dp1777
g89
g90
ssg71
g1766
sg64
(lp1778
S':'
asbag57
(g78
g59
NtRp1779
(dp1780
g62
(dp1781
sg71
g1766
sg64
(lp1782
g57
(g58
g59
NtRp1783
(dp1784
g62
(dp1785
g70
I4
ssg71
g1779
sg64
(lp1786
g57
(g66
g59
NtRp1787
(dp1788
g62
(dp1789
g70
I3
ssg71
Nsg64
(lp1790
g57
(g73
g59
NtRp1791
(dp1792
g62
(dp1793
sg71
g1787
sg64
(lp1794
g57
(g78
g59
NtRp1795
(dp1796
g62
(dp1797
sg71
g1791
sg64
(lp1798
g57
(g58
g59
NtRp1799
(dp1800
g62
(dp1801
g70
I3
ssg71
g1795
sg64
(lp1802
S'2'
asbasbasbag57
(g73
g59
NtRp1803
(dp1804
g62
(dp1805
sg71
g1787
sg64
(lp1806
g57
(g78
g59
NtRp1807
(dp1808
g62
(dp1809
sg71
g1803
sg64
(lp1810
g57
(g58
g59
NtRp1811
(dp1812
g62
(dp1813
g70
I3
ssg71
g1807
sg64
(lp1814
S'3'
asbasbasbag57
(g73
g59
NtRp1815
(dp1816
g62
(dp1817
sg71
g1787
sg64
(lp1818
g57
(g78
g59
NtRp1819
(dp1820
g62
(dp1821
sg71
g1815
sg64
(lp1822
g57
(g58
g59
NtRp1823
(dp1824
g62
(dp1825
g70
I3
ssg71
g1819
sg64
(lp1826
S'2'
asbasbasbag57
(g73
g59
NtRp1827
(dp1828
g62
(dp1829
sg71
g1787
sg64
(lp1830
g57
(g78
g59
NtRp1831
(dp1832
g62
(dp1833
sg71
g1827
sg64
(lp1834
g57
(g58
g59
NtRp1835
(dp1836
g62
(dp1837
g70
I3
ssg71
g1831
sg64
(lp1838
S'datetime.datetime(2012, 12, 17, 15, 3, 30)'
p1839
asbasbasbag57
(g73
g59
NtRp1840
(dp1841
g62
(dp1842
sg71
g1787
sg64
(lp1843
g57
(g78
g59
NtRp1844
(dp1845
g62
(dp1846
sg71
g1840
sg64
(lp1847
g57
(g58
g59
NtRp1848
(dp1849
g62
(dp1850
g70
I3
ssg71
g1844
sg64
(lp1851
S'stable'
p1852
asbasbasbasbasbasbasbag57
(g73
g59
NtRp1853
(dp1854
g62
(dp1855
sg71
g1033
sg64
(lp1856
g57
(g78
g59
NtRp1857
(dp1858
g62
(dp1859
g82
g83
ssg71
g1853
sg64
(lp1860
S'wsgi_errors'
p1861
asbag57
(g78
g59
NtRp1862
(dp1863
g62
(dp1864
g89
g90
ssg71
g1853
sg64
(lp1865
S':'
asbag57
(g78
g59
NtRp1866
(dp1867
g62
(dp1868
sg71
g1853
sg64
(lp1869
g57
(g58
g59
NtRp1870
(dp1871
g62
(dp1872
g70
I4
ssg71
g1866
sg64
(lp1873
S"<open file '<stderr>', mode 'w' at 0x7f210e5dd270>"
p1874
asbasbasbag57
(g73
g59
NtRp1875
(dp1876
g62
(dp1877
sg71
g1033
sg64
(lp1878
g57
(g78
g59
NtRp1879
(dp1880
g62
(dp1881
g82
g83
ssg71
g1875
sg64
(lp1882
S'wsgi_file_wrapper'
p1883
asbag57
(g78
g59
NtRp1884
(dp1885
g62
(dp1886
g89
g90
ssg71
g1875
sg64
(lp1887
S':'
asbag57
(g78
g59
NtRp1888
(dp1889
g62
(dp1890
sg71
g1875
sg64
(lp1891
g57
(g58
g59
NtRp1892
(dp1893
g62
(dp1894
g70
I4
ssg71
g1888
sg64
(lp1895
S'<class wsgiref.util.FileWrapper at 0x2048e20>'
p1896
asbasbasbag57
(g73
g59
NtRp1897
(dp1898
g62
(dp1899
sg71
g1033
sg64
(lp1900
g57
(g78
g59
NtRp1901
(dp1902
g62
(dp1903
g82
g83
ssg71
g1897
sg64
(lp1904
S'wsgi_input'
p1905
asbag57
(g78
g59
NtRp1906
(dp1907
g62
(dp1908
g89
g90
ssg71
g1897
sg64
(lp1909
S':'
asbag57
(g78
g59
NtRp1910
(dp1911
g62
(dp1912
sg71
g1897
sg64
(lp1913
g57
(g58
g59
NtRp1914
(dp1915
g62
(dp1916
g70
I4
ssg71
g1910
sg64
(lp1917
S'<socket._fileobject object at 0x7f20e824df50>'
p1918
asbasbasbag57
(g73
g59
NtRp1919
(dp1920
g62
(dp1921
sg71
g1033
sg64
(lp1922
g57
(g78
g59
NtRp1923
(dp1924
g62
(dp1925
g82
g83
ssg71
g1919
sg64
(lp1926
S'wsgi_multiprocess'
p1927
asbag57
(g78
g59
NtRp1928
(dp1929
g62
(dp1930
g89
g90
ssg71
g1919
sg64
(lp1931
S':'
asbag57
(g78
g59
NtRp1932
(dp1933
g62
(dp1934
sg71
g1919
sg64
(lp1935
g57
(g58
g59
NtRp1936
(dp1937
g62
(dp1938
g70
I4
ssg71
g1932
sg64
(lp1939
g100
asbasbasbag57
(g73
g59
NtRp1940
(dp1941
g62
(dp1942
sg71
g1033
sg64
(lp1943
g57
(g78
g59
NtRp1944
(dp1945
g62
(dp1946
g82
g83
ssg71
g1940
sg64
(lp1947
S'wsgi_multithread'
p1948
asbag57
(g78
g59
NtRp1949
(dp1950
g62
(dp1951
g89
g90
ssg71
g1940
sg64
(lp1952
S':'
asbag57
(g78
g59
NtRp1953
(dp1954
g62
(dp1955
sg71
g1940
sg64
(lp1956
g57
(g58
g59
NtRp1957
(dp1958
g62
(dp1959
g70
I4
ssg71
g1953
sg64
(lp1960
S'True'
p1961
asbasbasbag57
(g73
g59
NtRp1962
(dp1963
g62
(dp1964
sg71
g1033
sg64
(lp1965
g57
(g78
g59
NtRp1966
(dp1967
g62
(dp1968
g82
g83
ssg71
g1962
sg64
(lp1969
S'wsgi_run_once'
p1970
asbag57
(g78
g59
NtRp1971
(dp1972
g62
(dp1973
g89
g90
ssg71
g1962
sg64
(lp1974
S':'
asbag57
(g78
g59
NtRp1975
(dp1976
g62
(dp1977
sg71
g1962
sg64
(lp1978
g57
(g58
g59
NtRp1979
(dp1980
g62
(dp1981
g70
I4
ssg71
g1975
sg64
(lp1982
g100
asbasbasbag57
(g73
g59
NtRp1983
(dp1984
g62
(dp1985
sg71
g1033
sg64
(lp1986
g57
(g78
g59
NtRp1987
(dp1988
g62
(dp1989
g82
g83
ssg71
g1983
sg64
(lp1990
S'wsgi_url_scheme'
p1991
asbag57
(g78
g59
NtRp1992
(dp1993
g62
(dp1994
g89
g90
ssg71
g1983
sg64
(lp1995
S':'
asbag57
(g78
g59
NtRp1996
(dp1997
g62
(dp1998
sg71
g1983
sg64
(lp1999
g57
(g58
g59
NtRp2000
(dp2001
g62
(dp2002
g70
I4
ssg71
g1996
sg64
(lp2003
S'http'
p2004
asbasbasbag57
(g73
g59
NtRp2005
(dp2006
g62
(dp2007
sg71
g1033
sg64
(lp2008
g57
(g78
g59
NtRp2009
(dp2010
g62
(dp2011
g82
g83
ssg71
g2005
sg64
(lp2012
S'wsgi_version'
p2013
asbag57
(g78
g59
NtRp2014
(dp2015
g62
(dp2016
g89
g90
ssg71
g2005
sg64
(lp2017
S':'
asbag57
(g78
g59
NtRp2018
(dp2019
g62
(dp2020
sg71
g2005
sg64
(lp2021
g57
(g58
g59
NtRp2022
(dp2023
g62
(dp2024
g70
I4
ssg71
g2018
sg64
(lp2025
g57
(g66
g59
NtRp2026
(dp2027
g62
(dp2028
g70
I3
ssg71
Nsg64
(lp2029
g57
(g73
g59
NtRp2030
(dp2031
g62
(dp2032
sg71
g2026
sg64
(lp2033
g57
(g78
g59
NtRp2034
(dp2035
g62
(dp2036
sg71
g2030
sg64
(lp2037
g57
(g58
g59
NtRp2038
(dp2039
g62
(dp2040
g70
I3
ssg71
g2034
sg64
(lp2041
S'1'
asbasbasbag57
(g73
g59
NtRp2042
(dp2043
g62
(dp2044
sg71
g2026
sg64
(lp2045
g57
(g78
g59
NtRp2046
(dp2047
g62
(dp2048
sg71
g2042
sg64
(lp2049
g57
(g58
g59
NtRp2050
(dp2051
g62
(dp2052
g70
I3
ssg71
g2046
sg64
(lp2053
S'0'
asbasbasbasbasbasbasbasbasbasbasbag57
(g73
g59
NtRp2054
(dp2055
g62
(dp2056
sg71
g67
sg64
(lp2057
g57
(g78
g59
NtRp2058
(dp2059
g62
(dp2060
g82
g83
ssg71
g2054
sg64
(lp2061
S'extension'
p2062
asbag57
(g78
g59
NtRp2063
(dp2064
g62
(dp2065
g89
g90
ssg71
g2054
sg64
(lp2066
S':'
asbag57
(g78
g59
NtRp2067
(dp2068
g62
(dp2069
sg71
g2054
sg64
(lp2070
g57
(g58
g59
NtRp2071
(dp2072
g62
(dp2073
g70
I5
ssg71
g2067
sg64
(lp2074
S'html'
p2075
asbasbasbag57
(g73
g59
NtRp2076
(dp2077
g62
(dp2078
sg71
g67
sg64
(lp2079
g57
(g78
g59
NtRp2080
(dp2081
g62
(dp2082
g82
g83
ssg71
g2076
sg64
(lp2083
S'folder'
p2084
asbag57
(g78
g59
NtRp2085
(dp2086
g62
(dp2087
g89
g90
ssg71
g2076
sg64
(lp2088
S':'
asbag57
(g78
g59
NtRp2089
(dp2090
g62
(dp2091
sg71
g2076
sg64
(lp2092
g57
(g58
g59
NtRp2093
(dp2094
g62
(dp2095
g70
I5
ssg71
g2089
sg64
(lp2096
S'/home/shipra/Desktop/Semester 1.2/ITWS-2/web2py/applications/Assignment_2/'
p2097
asbasbasbag57
(g73
g59
NtRp2098
(dp2099
g62
(dp2100
sg71
g67
sg64
(lp2101
g57
(g78
g59
NtRp2102
(dp2103
g62
(dp2104
g82
g83
ssg71
g2098
sg64
(lp2105
S'function'
p2106
asbag57
(g78
g59
NtRp2107
(dp2108
g62
(dp2109
g89
g90
ssg71
g2098
sg64
(lp2110
S':'
asbag57
(g78
g59
NtRp2111
(dp2112
g62
(dp2113
sg71
g2098
sg64
(lp2114
g57
(g58
g59
NtRp2115
(dp2116
g62
(dp2117
g70
I5
ssg71
g2111
sg64
(lp2118
S'categ_display'
p2119
asbasbasbag57
(g73
g59
NtRp2120
(dp2121
g62
(dp2122
sg71
g67
sg64
(lp2123
g57
(g78
g59
NtRp2124
(dp2125
g62
(dp2126
g82
g83
ssg71
g2120
sg64
(lp2127
S'get_vars'
p2128
asbag57
(g78
g59
NtRp2129
(dp2130
g62
(dp2131
g89
g90
ssg71
g2120
sg64
(lp2132
S':'
asbag57
(g78
g59
NtRp2133
(dp2134
g62
(dp2135
sg71
g2120
sg64
(lp2136
g57
(g58
g59
NtRp2137
(dp2138
g62
(dp2139
g70
I5
ssg71
g2133
sg64
(lp2140
g57
(g66
g59
NtRp2141
(dp2142
g62
(dp2143
g70
I4
ssg71
Nsg64
(lp2144
g57
(g73
g59
NtRp2145
(dp2146
g62
(dp2147
sg71
g2141
sg64
(lp2148
g57
(g78
g59
NtRp2149
(dp2150
g62
(dp2151
g82
g83
ssg71
g2145
sg64
(lp2152
S'message'
p2153
asbag57
(g78
g59
NtRp2154
(dp2155
g62
(dp2156
g89
g90
ssg71
g2145
sg64
(lp2157
S':'
asbag57
(g78
g59
NtRp2158
(dp2159
g62
(dp2160
sg71
g2145
sg64
(lp2161
g57
(g58
g59
NtRp2162
(dp2163
g62
(dp2164
g70
I4
ssg71
g2158
sg64
(lp2165
S'Likes/World'
p2166
asbasbasbasbasbasbasbag57
(g73
g59
NtRp2167
(dp2168
g62
(dp2169
sg71
g67
sg64
(lp2170
g57
(g78
g59
NtRp2171
(dp2172
g62
(dp2173
g82
g83
ssg71
g2167
sg64
(lp2174
S'global_settings'
p2175
asbag57
(g78
g59
NtRp2176
(dp2177
g62
(dp2178
g89
g90
ssg71
g2167
sg64
(lp2179
S':'
asbag57
(g78
g59
NtRp2180
(dp2181
g62
(dp2182
sg71
g2167
sg64
(lp2183
g57
(g58
g59
NtRp2184
(dp2185
g62
(dp2186
g70
I5
ssg71
g2180
sg64
(lp2187
g57
(g66
g59
NtRp2188
(dp2189
g62
(dp2190
g70
I4
ssg71
Nsg64
(lp2191
g57
(g73
g59
NtRp2192
(dp2193
g62
(dp2194
sg71
g2188
sg64
(lp2195
g57
(g78
g59
NtRp2196
(dp2197
g62
(dp2198
g82
g83
ssg71
g2192
sg64
(lp2199
g1045
asbag57
(g78
g59
NtRp2200
(dp2201
g62
(dp2202
g89
g90
ssg71
g2192
sg64
(lp2203
S':'
asbag57
(g78
g59
NtRp2204
(dp2205
g62
(dp2206
sg71
g2192
sg64
(lp2207
g57
(g58
g59
NtRp2208
(dp2209
g62
(dp2210
g70
I4
ssg71
g2204
sg64
(lp2211
S"set(['/home/shipra/Desktop/Semester 1.2/ITWS-2/web2py/applications/Assignment_2/', '/home/shipra/Desktop/Semester 1.2/ITWS-2/web2py/applications/welcome/', '/home/shipra/Desktop/Semester 1.2/ITWS-2/web2py/applications/admin/'])"
p2212
asbasbasbag57
(g73
g59
NtRp2213
(dp2214
g62
(dp2215
sg71
g2188
sg64
(lp2216
g57
(g78
g59
NtRp2217
(dp2218
g62
(dp2219
g82
g83
ssg71
g2213
sg64
(lp2220
g1067
asbag57
(g78
g59
NtRp2221
(dp2222
g62
(dp2223
g89
g90
ssg71
g2213
sg64
(lp2224
S':'
asbag57
(g78
g59
NtRp2225
(dp2226
g62
(dp2227
sg71
g2213
sg64
(lp2228
g57
(g58
g59
NtRp2229
(dp2230
g62
(dp2231
g70
I4
ssg71
g2225
sg64
(lp2232
g1080
asbasbasbag57
(g73
g59
NtRp2233
(dp2234
g62
(dp2235
sg71
g2188
sg64
(lp2236
g57
(g78
g59
NtRp2237
(dp2238
g62
(dp2239
g82
g83
ssg71
g2233
sg64
(lp2240
g1089
asbag57
(g78
g59
NtRp2241
(dp2242
g62
(dp2243
g89
g90
ssg71
g2233
sg64
(lp2244
S':'
asbag57
(g78
g59
NtRp2245
(dp2246
g62
(dp2247
sg71
g2233
sg64
(lp2248
g57
(g58
g59
NtRp2249
(dp2250
g62
(dp2251
g70
I4
ssg71
g2245
sg64
(lp2252
g57
(g66
g59
NtRp2253
(dp2254
g62
(dp2255
g70
I3
ssg71
Nsg64
(lp2256
sbasbasbasbag57
(g73
g59
NtRp2257
(dp2258
g62
(dp2259
sg71
g2188
sg64
(lp2260
g57
(g78
g59
NtRp2261
(dp2262
g62
(dp2263
g82
g83
ssg71
g2257
sg64
(lp2264
g1114
asbag57
(g78
g59
NtRp2265
(dp2266
g62
(dp2267
g89
g90
ssg71
g2257
sg64
(lp2268
S':'
asbag57
(g78
g59
NtRp2269
(dp2270
g62
(dp2271
sg71
g2257
sg64
(lp2272
g57
(g58
g59
NtRp2273
(dp2274
g62
(dp2275
g70
I4
ssg71
g2269
sg64
(lp2276
S"<Values at 0x20be290: {'verbose': False, 'ip': '127.0.0.1', 'with_scheduler': False, 'ips': ['10.1.129.70', '192.168.122.1', 'fe80::e611:5bff:fe38:8d0d%p5p1'], 'shutdown_timeout': 5, 'taskbar': False, 'port': 8000, 'maxthreads': None, 'softcron': False, 'server_name': 'shipra', 'bpython': False, 'nogui': False, 'pid_filename': 'httpserver.pid', 'extcron': False, 'runcron': False, 'run_system_tests': False, 'test': None, 'folder': '/home/shipra/Desktop/Semester 1.2/ITWS-2/web2py', 'config': '', 'minthreads': None, 'winservice': '', 'shell': None, 'run': '', 'log_filename': 'httpserver.log', 'debuglevel': 30, 'args': [''], 'socket_timeout': 5, 'ssl_ca_certificate': None, 'scheduler': None, 'profiler_filename': None, 'ssl_private_key': '', 'scheduler_groups': None, 'password': '<ask>', 'request_queue_size': 5, 'ssl_certificate': '', 'cronjob': False, 'numthreads': None, 'quiet': False, 'interfaces': None, 'import_models': False, 'timeout': 10, 'plain': False, 'nobanner': False}>"
p2277
asbasbasbag57
(g73
g59
NtRp2278
(dp2279
g62
(dp2280
sg71
g2188
sg64
(lp2281
g57
(g78
g59
NtRp2282
(dp2283
g62
(dp2284
g82
g83
ssg71
g2278
sg64
(lp2285
g1136
asbag57
(g78
g59
NtRp2286
(dp2287
g62
(dp2288
g89
g90
ssg71
g2278
sg64
(lp2289
S':'
asbag57
(g78
g59
NtRp2290
(dp2291
g62
(dp2292
sg71
g2278
sg64
(lp2293
g57
(g58
g59
NtRp2294
(dp2295
g62
(dp2296
g70
I4
ssg71
g2290
sg64
(lp2297
S'set([])'
p2298
asbasbasbag57
(g73
g59
NtRp2299
(dp2300
g62
(dp2301
sg71
g2188
sg64
(lp2302
g57
(g78
g59
NtRp2303
(dp2304
g62
(dp2305
g82
g83
ssg71
g2299
sg64
(lp2306
g1158
asbag57
(g78
g59
NtRp2307
(dp2308
g62
(dp2309
g89
g90
ssg71
g2299
sg64
(lp2310
S':'
asbag57
(g78
g59
NtRp2311
(dp2312
g62
(dp2313
sg71
g2299
sg64
(lp2314
g57
(g58
g59
NtRp2315
(dp2316
g62
(dp2317
g70
I4
ssg71
g2311
sg64
(lp2318
g100
asbasbasbag57
(g73
g59
NtRp2319
(dp2320
g62
(dp2321
sg71
g2188
sg64
(lp2322
g57
(g78
g59
NtRp2323
(dp2324
g62
(dp2325
g82
g83
ssg71
g2319
sg64
(lp2326
g1179
asbag57
(g78
g59
NtRp2327
(dp2328
g62
(dp2329
g89
g90
ssg71
g2319
sg64
(lp2330
S':'
asbag57
(g78
g59
NtRp2331
(dp2332
g62
(dp2333
sg71
g2319
sg64
(lp2334
g57
(g58
g59
NtRp2335
(dp2336
g62
(dp2337
g70
I4
ssg71
g2331
sg64
(lp2338
g1192
asbasbasbag57
(g73
g59
NtRp2339
(dp2340
g62
(dp2341
sg71
g2188
sg64
(lp2342
g57
(g78
g59
NtRp2343
(dp2344
g62
(dp2345
g82
g83
ssg71
g2339
sg64
(lp2346
g1355
asbag57
(g78
g59
NtRp2347
(dp2348
g62
(dp2349
g89
g90
ssg71
g2339
sg64
(lp2350
S':'
asbag57
(g78
g59
NtRp2351
(dp2352
g62
(dp2353
sg71
g2339
sg64
(lp2354
g57
(g58
g59
NtRp2355
(dp2356
g62
(dp2357
g70
I4
ssg71
g2351
sg64
(lp2358
g100
asbasbasbag57
(g73
g59
NtRp2359
(dp2360
g62
(dp2361
sg71
g2188
sg64
(lp2362
g57
(g78
g59
NtRp2363
(dp2364
g62
(dp2365
g82
g83
ssg71
g2359
sg64
(lp2366
g1376
asbag57
(g78
g59
NtRp2367
(dp2368
g62
(dp2369
g89
g90
ssg71
g2359
sg64
(lp2370
S':'
asbag57
(g78
g59
NtRp2371
(dp2372
g62
(dp2373
sg71
g2359
sg64
(lp2374
g57
(g58
g59
NtRp2375
(dp2376
g62
(dp2377
g70
I4
ssg71
g2371
sg64
(lp2378
g100
asbasbasbag57
(g73
g59
NtRp2379
(dp2380
g62
(dp2381
sg71
g2188
sg64
(lp2382
g57
(g78
g59
NtRp2383
(dp2384
g62
(dp2385
g82
g83
ssg71
g2379
sg64
(lp2386
g1397
asbag57
(g78
g59
NtRp2387
(dp2388
g62
(dp2389
g89
g90
ssg71
g2379
sg64
(lp2390
S':'
asbag57
(g78
g59
NtRp2391
(dp2392
g62
(dp2393
sg71
g2379
sg64
(lp2394
g57
(g58
g59
NtRp2395
(dp2396
g62
(dp2397
g70
I4
ssg71
g2391
sg64
(lp2398
g57
(g66
g59
NtRp2399
(dp2400
g62
(dp2401
g70
I3
ssg71
Nsg64
(lp2402
g57
(g73
g59
NtRp2403
(dp2404
g62
(dp2405
sg71
g2399
sg64
(lp2406
g57
(g78
g59
NtRp2407
(dp2408
g62
(dp2409
sg71
g2403
sg64
(lp2410
g57
(g58
g59
NtRp2411
(dp2412
g62
(dp2413
g70
I3
ssg71
g2407
sg64
(lp2414
g1426
asbasbasbag57
(g73
g59
NtRp2415
(dp2416
g62
(dp2417
sg71
g2399
sg64
(lp2418
g57
(g78
g59
NtRp2419
(dp2420
g62
(dp2421
sg71
g2415
sg64
(lp2422
g57
(g58
g59
NtRp2423
(dp2424
g62
(dp2425
g70
I3
ssg71
g2419
sg64
(lp2426
g1439
asbasbasbag57
(g73
g59
NtRp2427
(dp2428
g62
(dp2429
sg71
g2399
sg64
(lp2430
g57
(g78
g59
NtRp2431
(dp2432
g62
(dp2433
sg71
g2427
sg64
(lp2434
g57
(g58
g59
NtRp2435
(dp2436
g62
(dp2437
g70
I3
ssg71
g2431
sg64
(lp2438
g1452
asbasbasbag57
(g73
g59
NtRp2439
(dp2440
g62
(dp2441
sg71
g2399
sg64
(lp2442
g57
(g78
g59
NtRp2443
(dp2444
g62
(dp2445
sg71
g2439
sg64
(lp2446
g57
(g58
g59
NtRp2447
(dp2448
g62
(dp2449
g70
I3
ssg71
g2443
sg64
(lp2450
g1465
asbasbasbag57
(g73
g59
NtRp2451
(dp2452
g62
(dp2453
sg71
g2399
sg64
(lp2454
g57
(g78
g59
NtRp2455
(dp2456
g62
(dp2457
sg71
g2451
sg64
(lp2458
g57
(g58
g59
NtRp2459
(dp2460
g62
(dp2461
g70
I3
ssg71
g2455
sg64
(lp2462
g1478
asbasbasbag57
(g73
g59
NtRp2463
(dp2464
g62
(dp2465
sg71
g2399
sg64
(lp2466
g57
(g78
g59
NtRp2467
(dp2468
g62
(dp2469
sg71
g2463
sg64
(lp2470
g57
(g58
g59
NtRp2471
(dp2472
g62
(dp2473
g70
I3
ssg71
g2467
sg64
(lp2474
g1491
asbasbasbag57
(g73
g59
NtRp2475
(dp2476
g62
(dp2477
sg71
g2399
sg64
(lp2478
g57
(g78
g59
NtRp2479
(dp2480
g62
(dp2481
sg71
g2475
sg64
(lp2482
g57
(g58
g59
NtRp2483
(dp2484
g62
(dp2485
g70
I3
ssg71
g2479
sg64
(lp2486
g1504
asbasbasbasbasbasbasbag57
(g73
g59
NtRp2487
(dp2488
g62
(dp2489
sg71
g2188
sg64
(lp2490
g57
(g78
g59
NtRp2491
(dp2492
g62
(dp2493
g82
g83
ssg71
g2487
sg64
(lp2494
g1774
asbag57
(g78
g59
NtRp2495
(dp2496
g62
(dp2497
g89
g90
ssg71
g2487
sg64
(lp2498
S':'
asbag57
(g78
g59
NtRp2499
(dp2500
g62
(dp2501
sg71
g2487
sg64
(lp2502
g57
(g58
g59
NtRp2503
(dp2504
g62
(dp2505
g70
I4
ssg71
g2499
sg64
(lp2506
g57
(g66
g59
NtRp2507
(dp2508
g62
(dp2509
g70
I3
ssg71
Nsg64
(lp2510
g57
(g73
g59
NtRp2511
(dp2512
g62
(dp2513
sg71
g2507
sg64
(lp2514
g57
(g78
g59
NtRp2515
(dp2516
g62
(dp2517
sg71
g2511
sg64
(lp2518
g57
(g58
g59
NtRp2519
(dp2520
g62
(dp2521
g70
I3
ssg71
g2515
sg64
(lp2522
S'2'
asbasbasbag57
(g73
g59
NtRp2523
(dp2524
g62
(dp2525
sg71
g2507
sg64
(lp2526
g57
(g78
g59
NtRp2527
(dp2528
g62
(dp2529
sg71
g2523
sg64
(lp2530
g57
(g58
g59
NtRp2531
(dp2532
g62
(dp2533
g70
I3
ssg71
g2527
sg64
(lp2534
S'3'
asbasbasbag57
(g73
g59
NtRp2535
(dp2536
g62
(dp2537
sg71
g2507
sg64
(lp2538
g57
(g78
g59
NtRp2539
(dp2540
g62
(dp2541
sg71
g2535
sg64
(lp2542
g57
(g58
g59
NtRp2543
(dp2544
g62
(dp2545
g70
I3
ssg71
g2539
sg64
(lp2546
S'2'
asbasbasbag57
(g73
g59
NtRp2547
(dp2548
g62
(dp2549
sg71
g2507
sg64
(lp2550
g57
(g78
g59
NtRp2551
(dp2552
g62
(dp2553
sg71
g2547
sg64
(lp2554
g57
(g58
g59
NtRp2555
(dp2556
g62
(dp2557
g70
I3
ssg71
g2551
sg64
(lp2558
S'datetime.datetime(2012, 12, 17, 15, 3, 30)'
p2559
asbasbasbag57
(g73
g59
NtRp2560
(dp2561
g62
(dp2562
sg71
g2507
sg64
(lp2563
g57
(g78
g59
NtRp2564
(dp2565
g62
(dp2566
sg71
g2560
sg64
(lp2567
g57
(g58
g59
NtRp2568
(dp2569
g62
(dp2570
g70
I3
ssg71
g2564
sg64
(lp2571
g1852
asbasbasbasbasbasbasbasbasbasbasbag57
(g73
g59
NtRp2572
(dp2573
g62
(dp2574
sg71
g67
sg64
(lp2575
g57
(g78
g59
NtRp2576
(dp2577
g62
(dp2578
g82
g83
ssg71
g2572
sg64
(lp2579
S'is_https'
p2580
asbag57
(g78
g59
NtRp2581
(dp2582
g62
(dp2583
g89
g90
ssg71
g2572
sg64
(lp2584
S':'
asbag57
(g78
g59
NtRp2585
(dp2586
g62
(dp2587
sg71
g2572
sg64
(lp2588
g57
(g58
g59
NtRp2589
(dp2590
g62
(dp2591
g70
I5
ssg71
g2585
sg64
(lp2592
g100
asbasbasbag57
(g73
g59
NtRp2593
(dp2594
g62
(dp2595
sg71
g67
sg64
(lp2596
g57
(g78
g59
NtRp2597
(dp2598
g62
(dp2599
g82
g83
ssg71
g2593
sg64
(lp2600
S'is_local'
p2601
asbag57
(g78
g59
NtRp2602
(dp2603
g62
(dp2604
g89
g90
ssg71
g2593
sg64
(lp2605
S':'
asbag57
(g78
g59
NtRp2606
(dp2607
g62
(dp2608
sg71
g2593
sg64
(lp2609
g57
(g58
g59
NtRp2610
(dp2611
g62
(dp2612
g70
I5
ssg71
g2606
sg64
(lp2613
g1961
asbasbasbag57
(g73
g59
NtRp2614
(dp2615
g62
(dp2616
sg71
g67
sg64
(lp2617
g57
(g78
g59
NtRp2618
(dp2619
g62
(dp2620
g82
g83
ssg71
g2614
sg64
(lp2621
S'is_restful'
p2622
asbag57
(g78
g59
NtRp2623
(dp2624
g62
(dp2625
g89
g90
ssg71
g2614
sg64
(lp2626
S':'
asbag57
(g78
g59
NtRp2627
(dp2628
g62
(dp2629
sg71
g2614
sg64
(lp2630
g57
(g58
g59
NtRp2631
(dp2632
g62
(dp2633
g70
I5
ssg71
g2627
sg64
(lp2634
g100
asbasbasbag57
(g73
g59
NtRp2635
(dp2636
g62
(dp2637
sg71
g67
sg64
(lp2638
g57
(g78
g59
NtRp2639
(dp2640
g62
(dp2641
g82
g83
ssg71
g2635
sg64
(lp2642
S'now'
p2643
asbag57
(g78
g59
NtRp2644
(dp2645
g62
(dp2646
g89
g90
ssg71
g2635
sg64
(lp2647
S':'
asbag57
(g78
g59
NtRp2648
(dp2649
g62
(dp2650
sg71
g2635
sg64
(lp2651
g57
(g58
g59
NtRp2652
(dp2653
g62
(dp2654
g70
I5
ssg71
g2648
sg64
(lp2655
S'datetime.datetime(2013, 9, 2, 13, 36, 52, 494026)'
p2656
asbasbasbag57
(g73
g59
NtRp2657
(dp2658
g62
(dp2659
sg71
g67
sg64
(lp2660
g57
(g78
g59
NtRp2661
(dp2662
g62
(dp2663
g82
g83
ssg71
g2657
sg64
(lp2664
S'post_vars'
p2665
asbag57
(g78
g59
NtRp2666
(dp2667
g62
(dp2668
g89
g90
ssg71
g2657
sg64
(lp2669
S':'
asbag57
(g78
g59
NtRp2670
(dp2671
g62
(dp2672
sg71
g2657
sg64
(lp2673
g57
(g58
g59
NtRp2674
(dp2675
g62
(dp2676
g70
I5
ssg71
g2670
sg64
(lp2677
g57
(g66
g59
NtRp2678
(dp2679
g62
(dp2680
g70
I4
ssg71
Nsg64
(lp2681
sbasbasbasbag57
(g73
g59
NtRp2682
(dp2683
g62
(dp2684
sg71
g67
sg64
(lp2685
g57
(g78
g59
NtRp2686
(dp2687
g62
(dp2688
g82
g83
ssg71
g2682
sg64
(lp2689
S'raw_args'
p2690
asbag57
(g78
g59
NtRp2691
(dp2692
g62
(dp2693
g89
g90
ssg71
g2682
sg64
(lp2694
S':'
asbag57
(g78
g59
NtRp2695
(dp2696
g62
(dp2697
sg71
g2682
sg64
(lp2698
g57
(g58
g59
NtRp2699
(dp2700
g62
(dp2701
g70
I5
ssg71
g2695
sg64
(lp2702
S''
asbasbasbag57
(g73
g59
NtRp2703
(dp2704
g62
(dp2705
sg71
g67
sg64
(lp2706
g57
(g78
g59
NtRp2707
(dp2708
g62
(dp2709
g82
g83
ssg71
g2703
sg64
(lp2710
S'raw_extension'
p2711
asbag57
(g78
g59
NtRp2712
(dp2713
g62
(dp2714
g89
g90
ssg71
g2703
sg64
(lp2715
S':'
asbag57
(g78
g59
NtRp2716
(dp2717
g62
(dp2718
sg71
g2703
sg64
(lp2719
g57
(g58
g59
NtRp2720
(dp2721
g62
(dp2722
g70
I5
ssg71
g2716
sg64
(lp2723
g2075
asbasbasbag57
(g73
g59
NtRp2724
(dp2725
g62
(dp2726
sg71
g67
sg64
(lp2727
g57
(g78
g59
NtRp2728
(dp2729
g62
(dp2730
g82
g83
ssg71
g2724
sg64
(lp2731
S'url'
p2732
asbag57
(g78
g59
NtRp2733
(dp2734
g62
(dp2735
g89
g90
ssg71
g2724
sg64
(lp2736
S':'
asbag57
(g78
g59
NtRp2737
(dp2738
g62
(dp2739
sg71
g2724
sg64
(lp2740
g57
(g58
g59
NtRp2741
(dp2742
g62
(dp2743
g70
I5
ssg71
g2737
sg64
(lp2744
g1526
asbasbasbag57
(g73
g59
NtRp2745
(dp2746
g62
(dp2747
sg71
g67
sg64
(lp2748
g57
(g78
g59
NtRp2749
(dp2750
g62
(dp2751
g82
g83
ssg71
g2745
sg64
(lp2752
S'utcnow'
p2753
asbag57
(g78
g59
NtRp2754
(dp2755
g62
(dp2756
g89
g90
ssg71
g2745
sg64
(lp2757
S':'
asbag57
(g78
g59
NtRp2758
(dp2759
g62
(dp2760
sg71
g2745
sg64
(lp2761
g57
(g58
g59
NtRp2762
(dp2763
g62
(dp2764
g70
I5
ssg71
g2758
sg64
(lp2765
S'datetime.datetime(2013, 9, 2, 8, 6, 52, 494061)'
p2766
asbasbasbag57
(g73
g59
NtRp2767
(dp2768
g62
(dp2769
sg71
g67
sg64
(lp2770
g57
(g78
g59
NtRp2771
(dp2772
g62
(dp2773
g82
g83
ssg71
g2767
sg64
(lp2774
S'uuid'
p2775
asbag57
(g78
g59
NtRp2776
(dp2777
g62
(dp2778
g89
g90
ssg71
g2767
sg64
(lp2779
S':'
asbag57
(g78
g59
NtRp2780
(dp2781
g62
(dp2782
sg71
g2767
sg64
(lp2783
g57
(g58
g59
NtRp2784
(dp2785
g62
(dp2786
g70
I5
ssg71
g2780
sg64
(lp2787
S'Assignment_2/127.0.0.1.2013-09-02.13-36-52.7353bb48-68ef-47e3-806c-4cd4df95153c'
p2788
asbasbasbag57
(g73
g59
NtRp2789
(dp2790
g62
(dp2791
sg71
g67
sg64
(lp2792
g57
(g78
g59
NtRp2793
(dp2794
g62
(dp2795
g82
g83
ssg71
g2789
sg64
(lp2796
S'vars'
p2797
asbag57
(g78
g59
NtRp2798
(dp2799
g62
(dp2800
g89
g90
ssg71
g2789
sg64
(lp2801
S':'
asbag57
(g78
g59
NtRp2802
(dp2803
g62
(dp2804
sg71
g2789
sg64
(lp2805
g57
(g58
g59
NtRp2806
(dp2807
g62
(dp2808
g70
I5
ssg71
g2802
sg64
(lp2809
g57
(g66
g59
NtRp2810
(dp2811
g62
(dp2812
g70
I4
ssg71
Nsg64
(lp2813
g57
(g73
g59
NtRp2814
(dp2815
g62
(dp2816
sg71
g2810
sg64
(lp2817
g57
(g78
g59
NtRp2818
(dp2819
g62
(dp2820
g82
g83
ssg71
g2814
sg64
(lp2821
g2153
asbag57
(g78
g59
NtRp2822
(dp2823
g62
(dp2824
g89
g90
ssg71
g2814
sg64
(lp2825
S':'
asbag57
(g78
g59
NtRp2826
(dp2827
g62
(dp2828
sg71
g2814
sg64
(lp2829
g57
(g58
g59
NtRp2830
(dp2831
g62
(dp2832
g70
I4
ssg71
g2826
sg64
(lp2833
g2166
asbasbasbasbasbasbasbag57
(g73
g59
NtRp2834
(dp2835
g62
(dp2836
sg71
g67
sg64
(lp2837
g57
(g78
g59
NtRp2838
(dp2839
g62
(dp2840
g82
g83
ssg71
g2834
sg64
(lp2841
S'wsgi'
p2842
asbag57
(g78
g59
NtRp2843
(dp2844
g62
(dp2845
g89
g90
ssg71
g2834
sg64
(lp2846
S':'
asbag57
(g78
g59
NtRp2847
(dp2848
g62
(dp2849
sg71
g2834
sg64
(lp2850
g57
(g58
g59
NtRp2851
(dp2852
g62
(dp2853
g70
I5
ssg71
g2847
sg64
(lp2854
g57
(g66
g59
NtRp2855
(dp2856
g62
(dp2857
g70
I4
ssg71
Nsg64
(lp2858
g57
(g73
g59
NtRp2859
(dp2860
g62
(dp2861
sg71
g2855
sg64
(lp2862
g57
(g78
g59
NtRp2863
(dp2864
g62
(dp2865
g82
g83
ssg71
g2859
sg64
(lp2866
S'environ'
p2867
asbag57
(g78
g59
NtRp2868
(dp2869
g62
(dp2870
g89
g90
ssg71
g2859
sg64
(lp2871
S':'
asbag57
(g78
g59
NtRp2872
(dp2873
g62
(dp2874
sg71
g2859
sg64
(lp2875
g57
(g58
g59
NtRp2876
(dp2877
g62
(dp2878
g70
I4
ssg71
g2872
sg64
(lp2879
g57
(g66
g59
NtRp2880
(dp2881
g62
(dp2882
g70
I3
ssg71
Nsg64
(lp2883
g57
(g73
g59
NtRp2884
(dp2885
g62
(dp2886
sg71
g2880
sg64
(lp2887
g57
(g78
g59
NtRp2888
(dp2889
g62
(dp2890
g82
g83
ssg71
g2884
sg64
(lp2891
S'HTTP_ACCEPT'
p2892
asbag57
(g78
g59
NtRp2893
(dp2894
g62
(dp2895
g89
g90
ssg71
g2884
sg64
(lp2896
S':'
asbag57
(g78
g59
NtRp2897
(dp2898
g62
(dp2899
sg71
g2884
sg64
(lp2900
g57
(g58
g59
NtRp2901
(dp2902
g62
(dp2903
g70
I3
ssg71
g2897
sg64
(lp2904
g1214
asbasbasbag57
(g73
g59
NtRp2905
(dp2906
g62
(dp2907
sg71
g2880
sg64
(lp2908
g57
(g78
g59
NtRp2909
(dp2910
g62
(dp2911
g82
g83
ssg71
g2905
sg64
(lp2912
S'HTTP_ACCEPT_ENCODING'
p2913
asbag57
(g78
g59
NtRp2914
(dp2915
g62
(dp2916
g89
g90
ssg71
g2905
sg64
(lp2917
S':'
asbag57
(g78
g59
NtRp2918
(dp2919
g62
(dp2920
sg71
g2905
sg64
(lp2921
g57
(g58
g59
NtRp2922
(dp2923
g62
(dp2924
g70
I3
ssg71
g2918
sg64
(lp2925
g1236
asbasbasbag57
(g73
g59
NtRp2926
(dp2927
g62
(dp2928
sg71
g2880
sg64
(lp2929
g57
(g78
g59
NtRp2930
(dp2931
g62
(dp2932
g82
g83
ssg71
g2926
sg64
(lp2933
S'HTTP_ACCEPT_LANGUAGE'
p2934
asbag57
(g78
g59
NtRp2935
(dp2936
g62
(dp2937
g89
g90
ssg71
g2926
sg64
(lp2938
S':'
asbag57
(g78
g59
NtRp2939
(dp2940
g62
(dp2941
sg71
g2926
sg64
(lp2942
g57
(g58
g59
NtRp2943
(dp2944
g62
(dp2945
g70
I3
ssg71
g2939
sg64
(lp2946
g1258
asbasbasbag57
(g73
g59
NtRp2947
(dp2948
g62
(dp2949
sg71
g2880
sg64
(lp2950
g57
(g78
g59
NtRp2951
(dp2952
g62
(dp2953
g82
g83
ssg71
g2947
sg64
(lp2954
S'HTTP_CONNECTION'
p2955
asbag57
(g78
g59
NtRp2956
(dp2957
g62
(dp2958
g89
g90
ssg71
g2947
sg64
(lp2959
S':'
asbag57
(g78
g59
NtRp2960
(dp2961
g62
(dp2962
sg71
g2947
sg64
(lp2963
g57
(g58
g59
NtRp2964
(dp2965
g62
(dp2966
g70
I3
ssg71
g2960
sg64
(lp2967
g1280
asbasbasbag57
(g73
g59
NtRp2968
(dp2969
g62
(dp2970
sg71
g2880
sg64
(lp2971
g57
(g78
g59
NtRp2972
(dp2973
g62
(dp2974
g82
g83
ssg71
g2968
sg64
(lp2975
S'HTTP_COOKIE'
p2976
asbag57
(g78
g59
NtRp2977
(dp2978
g62
(dp2979
g89
g90
ssg71
g2968
sg64
(lp2980
S':'
asbag57
(g78
g59
NtRp2981
(dp2982
g62
(dp2983
sg71
g2968
sg64
(lp2984
g57
(g58
g59
NtRp2985
(dp2986
g62
(dp2987
g70
I3
ssg71
g2981
sg64
(lp2988
g1302
asbasbasbag57
(g73
g59
NtRp2989
(dp2990
g62
(dp2991
sg71
g2880
sg64
(lp2992
g57
(g78
g59
NtRp2993
(dp2994
g62
(dp2995
g82
g83
ssg71
g2989
sg64
(lp2996
S'HTTP_HOST'
p2997
asbag57
(g78
g59
NtRp2998
(dp2999
g62
(dp3000
g89
g90
ssg71
g2989
sg64
(lp3001
S':'
asbag57
(g78
g59
NtRp3002
(dp3003
g62
(dp3004
sg71
g2989
sg64
(lp3005
g57
(g58
g59
NtRp3006
(dp3007
g62
(dp3008
g70
I3
ssg71
g3002
sg64
(lp3009
g1324
asbasbasbag57
(g73
g59
NtRp3010
(dp3011
g62
(dp3012
sg71
g2880
sg64
(lp3013
g57
(g78
g59
NtRp3014
(dp3015
g62
(dp3016
g82
g83
ssg71
g3010
sg64
(lp3017
S'HTTP_USER_AGENT'
p3018
asbag57
(g78
g59
NtRp3019
(dp3020
g62
(dp3021
g89
g90
ssg71
g3010
sg64
(lp3022
S':'
asbag57
(g78
g59
NtRp3023
(dp3024
g62
(dp3025
sg71
g3010
sg64
(lp3026
g57
(g58
g59
NtRp3027
(dp3028
g62
(dp3029
g70
I3
ssg71
g3023
sg64
(lp3030
g1346
asbasbasbag57
(g73
g59
NtRp3031
(dp3032
g62
(dp3033
sg71
g2880
sg64
(lp3034
g57
(g78
g59
NtRp3035
(dp3036
g62
(dp3037
g82
g83
ssg71
g3031
sg64
(lp3038
S'PATH_INFO'
p3039
asbag57
(g78
g59
NtRp3040
(dp3041
g62
(dp3042
g89
g90
ssg71
g3031
sg64
(lp3043
S':'
asbag57
(g78
g59
NtRp3044
(dp3045
g62
(dp3046
sg71
g3031
sg64
(lp3047
g57
(g58
g59
NtRp3048
(dp3049
g62
(dp3050
g70
I3
ssg71
g3044
sg64
(lp3051
g1526
asbasbasbag57
(g73
g59
NtRp3052
(dp3053
g62
(dp3054
sg71
g2880
sg64
(lp3055
g57
(g78
g59
NtRp3056
(dp3057
g62
(dp3058
g82
g83
ssg71
g3052
sg64
(lp3059
S'QUERY_STRING'
p3060
asbag57
(g78
g59
NtRp3061
(dp3062
g62
(dp3063
g89
g90
ssg71
g3052
sg64
(lp3064
S':'
asbag57
(g78
g59
NtRp3065
(dp3066
g62
(dp3067
sg71
g3052
sg64
(lp3068
g57
(g58
g59
NtRp3069
(dp3070
g62
(dp3071
g70
I3
ssg71
g3065
sg64
(lp3072
g1548
asbasbasbag57
(g73
g59
NtRp3073
(dp3074
g62
(dp3075
sg71
g2880
sg64
(lp3076
g57
(g78
g59
NtRp3077
(dp3078
g62
(dp3079
g82
g83
ssg71
g3073
sg64
(lp3080
S'REMOTE_ADDR'
p3081
asbag57
(g78
g59
NtRp3082
(dp3083
g62
(dp3084
g89
g90
ssg71
g3073
sg64
(lp3085
S':'
asbag57
(g78
g59
NtRp3086
(dp3087
g62
(dp3088
sg71
g3073
sg64
(lp3089
g57
(g58
g59
NtRp3090
(dp3091
g62
(dp3092
g70
I3
ssg71
g3086
sg64
(lp3093
g212
asbasbasbag57
(g73
g59
NtRp3094
(dp3095
g62
(dp3096
sg71
g2880
sg64
(lp3097
g57
(g78
g59
NtRp3098
(dp3099
g62
(dp3100
g82
g83
ssg71
g3094
sg64
(lp3101
S'REMOTE_PORT'
p3102
asbag57
(g78
g59
NtRp3103
(dp3104
g62
(dp3105
g89
g90
ssg71
g3094
sg64
(lp3106
S':'
asbag57
(g78
g59
NtRp3107
(dp3108
g62
(dp3109
sg71
g3094
sg64
(lp3110
g57
(g58
g59
NtRp3111
(dp3112
g62
(dp3113
g70
I3
ssg71
g3107
sg64
(lp3114
g1591
asbasbasbag57
(g73
g59
NtRp3115
(dp3116
g62
(dp3117
sg71
g2880
sg64
(lp3118
g57
(g78
g59
NtRp3119
(dp3120
g62
(dp3121
g82
g83
ssg71
g3115
sg64
(lp3122
S'REQUEST_METHOD'
p3123
asbag57
(g78
g59
NtRp3124
(dp3125
g62
(dp3126
g89
g90
ssg71
g3115
sg64
(lp3127
S':'
asbag57
(g78
g59
NtRp3128
(dp3129
g62
(dp3130
sg71
g3115
sg64
(lp3131
g57
(g58
g59
NtRp3132
(dp3133
g62
(dp3134
g70
I3
ssg71
g3128
sg64
(lp3135
g1613
asbasbasbag57
(g73
g59
NtRp3136
(dp3137
g62
(dp3138
sg71
g2880
sg64
(lp3139
g57
(g78
g59
NtRp3140
(dp3141
g62
(dp3142
g82
g83
ssg71
g3136
sg64
(lp3143
S'REQUEST_URI'
p3144
asbag57
(g78
g59
NtRp3145
(dp3146
g62
(dp3147
g89
g90
ssg71
g3136
sg64
(lp3148
S':'
asbag57
(g78
g59
NtRp3149
(dp3150
g62
(dp3151
sg71
g3136
sg64
(lp3152
g57
(g58
g59
NtRp3153
(dp3154
g62
(dp3155
g70
I3
ssg71
g3149
sg64
(lp3156
g1635
asbasbasbag57
(g73
g59
NtRp3157
(dp3158
g62
(dp3159
sg71
g2880
sg64
(lp3160
g57
(g78
g59
NtRp3161
(dp3162
g62
(dp3163
g82
g83
ssg71
g3157
sg64
(lp3164
S'SCRIPT_NAME'
p3165
asbag57
(g78
g59
NtRp3166
(dp3167
g62
(dp3168
g89
g90
ssg71
g3157
sg64
(lp3169
S':'
asbag57
(g78
g59
NtRp3170
(dp3171
g62
(dp3172
sg71
g3157
sg64
(lp3173
g57
(g58
g59
NtRp3174
(dp3175
g62
(dp3176
g70
I3
ssg71
g3170
sg64
(lp3177
S''
asbasbasbag57
(g73
g59
NtRp3178
(dp3179
g62
(dp3180
sg71
g2880
sg64
(lp3181
g57
(g78
g59
NtRp3182
(dp3183
g62
(dp3184
g82
g83
ssg71
g3178
sg64
(lp3185
S'SERVER_NAME'
p3186
asbag57
(g78
g59
NtRp3187
(dp3188
g62
(dp3189
g89
g90
ssg71
g3178
sg64
(lp3190
S':'
asbag57
(g78
g59
NtRp3191
(dp3192
g62
(dp3193
sg71
g3178
sg64
(lp3194
g57
(g58
g59
NtRp3195
(dp3196
g62
(dp3197
g70
I3
ssg71
g3191
sg64
(lp3198
g1678
asbasbasbag57
(g73
g59
NtRp3199
(dp3200
g62
(dp3201
sg71
g2880
sg64
(lp3202
g57
(g78
g59
NtRp3203
(dp3204
g62
(dp3205
g82
g83
ssg71
g3199
sg64
(lp3206
S'SERVER_PORT'
p3207
asbag57
(g78
g59
NtRp3208
(dp3209
g62
(dp3210
g89
g90
ssg71
g3199
sg64
(lp3211
S':'
asbag57
(g78
g59
NtRp3212
(dp3213
g62
(dp3214
sg71
g3199
sg64
(lp3215
g57
(g58
g59
NtRp3216
(dp3217
g62
(dp3218
g70
I3
ssg71
g3212
sg64
(lp3219
g1700
asbasbasbag57
(g73
g59
NtRp3220
(dp3221
g62
(dp3222
sg71
g2880
sg64
(lp3223
g57
(g78
g59
NtRp3224
(dp3225
g62
(dp3226
g82
g83
ssg71
g3220
sg64
(lp3227
S'SERVER_PROTOCOL'
p3228
asbag57
(g78
g59
NtRp3229
(dp3230
g62
(dp3231
g89
g90
ssg71
g3220
sg64
(lp3232
S':'
asbag57
(g78
g59
NtRp3233
(dp3234
g62
(dp3235
sg71
g3220
sg64
(lp3236
g57
(g58
g59
NtRp3237
(dp3238
g62
(dp3239
g70
I3
ssg71
g3233
sg64
(lp3240
g1722
asbasbasbag57
(g73
g59
NtRp3241
(dp3242
g62
(dp3243
sg71
g2880
sg64
(lp3244
g57
(g78
g59
NtRp3245
(dp3246
g62
(dp3247
g82
g83
ssg71
g3241
sg64
(lp3248
S'SERVER_SOFTWARE'
p3249
asbag57
(g78
g59
NtRp3250
(dp3251
g62
(dp3252
g89
g90
ssg71
g3241
sg64
(lp3253
S':'
asbag57
(g78
g59
NtRp3254
(dp3255
g62
(dp3256
sg71
g3241
sg64
(lp3257
g57
(g58
g59
NtRp3258
(dp3259
g62
(dp3260
g70
I3
ssg71
g3254
sg64
(lp3261
g1744
asbasbasbag57
(g73
g59
NtRp3262
(dp3263
g62
(dp3264
sg71
g2880
sg64
(lp3265
g57
(g78
g59
NtRp3266
(dp3267
g62
(dp3268
g82
g83
ssg71
g3262
sg64
(lp3269
S'wsgi.errors'
p3270
asbag57
(g78
g59
NtRp3271
(dp3272
g62
(dp3273
g89
g90
ssg71
g3262
sg64
(lp3274
S':'
asbag57
(g78
g59
NtRp3275
(dp3276
g62
(dp3277
sg71
g3262
sg64
(lp3278
g57
(g58
g59
NtRp3279
(dp3280
g62
(dp3281
g70
I3
ssg71
g3275
sg64
(lp3282
S"<open file '<stderr>', mode 'w' at 0x7f210e5dd270>"
p3283
asbasbasbag57
(g73
g59
NtRp3284
(dp3285
g62
(dp3286
sg71
g2880
sg64
(lp3287
g57
(g78
g59
NtRp3288
(dp3289
g62
(dp3290
g82
g83
ssg71
g3284
sg64
(lp3291
S'wsgi.file_wrapper'
p3292
asbag57
(g78
g59
NtRp3293
(dp3294
g62
(dp3295
g89
g90
ssg71
g3284
sg64
(lp3296
S':'
asbag57
(g78
g59
NtRp3297
(dp3298
g62
(dp3299
sg71
g3284
sg64
(lp3300
g57
(g58
g59
NtRp3301
(dp3302
g62
(dp3303
g70
I3
ssg71
g3297
sg64
(lp3304
S'<class wsgiref.util.FileWrapper at 0x2048e20>'
p3305
asbasbasbag57
(g73
g59
NtRp3306
(dp3307
g62
(dp3308
sg71
g2880
sg64
(lp3309
g57
(g78
g59
NtRp3310
(dp3311
g62
(dp3312
g82
g83
ssg71
g3306
sg64
(lp3313
S'wsgi.input'
p3314
asbag57
(g78
g59
NtRp3315
(dp3316
g62
(dp3317
g89
g90
ssg71
g3306
sg64
(lp3318
S':'
asbag57
(g78
g59
NtRp3319
(dp3320
g62
(dp3321
sg71
g3306
sg64
(lp3322
g57
(g58
g59
NtRp3323
(dp3324
g62
(dp3325
g70
I3
ssg71
g3319
sg64
(lp3326
S'<cStringIO.StringO object at 0x7f20cc7eb1b8>'
p3327
asbasbasbag57
(g73
g59
NtRp3328
(dp3329
g62
(dp3330
sg71
g2880
sg64
(lp3331
g57
(g78
g59
NtRp3332
(dp3333
g62
(dp3334
g82
g83
ssg71
g3328
sg64
(lp3335
S'wsgi.multiprocess'
p3336
asbag57
(g78
g59
NtRp3337
(dp3338
g62
(dp3339
g89
g90
ssg71
g3328
sg64
(lp3340
S':'
asbag57
(g78
g59
NtRp3341
(dp3342
g62
(dp3343
sg71
g3328
sg64
(lp3344
g57
(g58
g59
NtRp3345
(dp3346
g62
(dp3347
g70
I3
ssg71
g3341
sg64
(lp3348
g100
asbasbasbag57
(g73
g59
NtRp3349
(dp3350
g62
(dp3351
sg71
g2880
sg64
(lp3352
g57
(g78
g59
NtRp3353
(dp3354
g62
(dp3355
g82
g83
ssg71
g3349
sg64
(lp3356
S'wsgi.multithread'
p3357
asbag57
(g78
g59
NtRp3358
(dp3359
g62
(dp3360
g89
g90
ssg71
g3349
sg64
(lp3361
S':'
asbag57
(g78
g59
NtRp3362
(dp3363
g62
(dp3364
sg71
g3349
sg64
(lp3365
g57
(g58
g59
NtRp3366
(dp3367
g62
(dp3368
g70
I3
ssg71
g3362
sg64
(lp3369
g1961
asbasbasbag57
(g73
g59
NtRp3370
(dp3371
g62
(dp3372
sg71
g2880
sg64
(lp3373
g57
(g78
g59
NtRp3374
(dp3375
g62
(dp3376
g82
g83
ssg71
g3370
sg64
(lp3377
S'wsgi.run_once'
p3378
asbag57
(g78
g59
NtRp3379
(dp3380
g62
(dp3381
g89
g90
ssg71
g3370
sg64
(lp3382
S':'
asbag57
(g78
g59
NtRp3383
(dp3384
g62
(dp3385
sg71
g3370
sg64
(lp3386
g57
(g58
g59
NtRp3387
(dp3388
g62
(dp3389
g70
I3
ssg71
g3383
sg64
(lp3390
g100
asbasbasbag57
(g73
g59
NtRp3391
(dp3392
g62
(dp3393
sg71
g2880
sg64
(lp3394
g57
(g78
g59
NtRp3395
(dp3396
g62
(dp3397
g82
g83
ssg71
g3391
sg64
(lp3398
S'wsgi.url_scheme'
p3399
asbag57
(g78
g59
NtRp3400
(dp3401
g62
(dp3402
g89
g90
ssg71
g3391
sg64
(lp3403
S':'
asbag57
(g78
g59
NtRp3404
(dp3405
g62
(dp3406
sg71
g3391
sg64
(lp3407
g57
(g58
g59
NtRp3408
(dp3409
g62
(dp3410
g70
I3
ssg71
g3404
sg64
(lp3411
g2004
asbasbasbag57
(g73
g59
NtRp3412
(dp3413
g62
(dp3414
sg71
g2880
sg64
(lp3415
g57
(g78
g59
NtRp3416
(dp3417
g62
(dp3418
g82
g83
ssg71
g3412
sg64
(lp3419
S'wsgi.version'
p3420
asbag57
(g78
g59
NtRp3421
(dp3422
g62
(dp3423
g89
g90
ssg71
g3412
sg64
(lp3424
S':'
asbag57
(g78
g59
NtRp3425
(dp3426
g62
(dp3427
sg71
g3412
sg64
(lp3428
g57
(g58
g59
NtRp3429
(dp3430
g62
(dp3431
g70
I3
ssg71
g3425
sg64
(lp3432
S'1'
asbasbasbasbasbasbasbasbasbasbasbasbasbsS'frames'
p3433
(lp3434
(dp3435
S'file'
p3436
S'/home/shipra/Desktop/Semester 1.2/ITWS-2/web2py/gluon/restricted.py'
p3437
sS'dump'
p3438
(dp3439
S'environment'
p3440
S"{'A': <class 'gluon.html.A'>, 'Auth': <class 'gluon.tools.Auth'>, 'B': <class 'gluon.html.B'>, 'BEAUTIFY': <class 'gluon.html.BEAUTIFY'>, 'BODY': <class 'gluon.html.BODY'>, 'BR': <class 'gluon.html.BR'>, 'BUTTON': <class 'gluon.html.BUTTON'>, 'CAT': <class 'gluon.html.CAT'>, 'CENTER': <class 'gluon.html.CENTER'>, 'CLEANUP': <class 'gluon.validators.CLEANUP'>, ...}"
p3441
sS'ccode'
p3442
S'<code object <module> at 0x7f20cc7f31b0, file "/...ns/Assignment_2/controllers/default.py", line 11>'
p3443
ssS'lnum'
p3444
I212
sS'lines'
p3445
(dp3446
I207
S'    try:'
p3447
sI208
S'        if isinstance(code, types.CodeType):'
p3448
sI209
S'            ccode = code'
p3449
sI210
S'        else:'
p3450
sI211
S'            ccode = compile2(code, layer)'
p3451
sI212
S'        exec ccode in environment'
p3452
sI213
S'    except HTTP:'
p3453
sI214
S'        raise'
p3454
sI215
S'    except RestrictedError:'
p3455
sI216
S'        # do not encapsulate (obfuscate) the original RestrictedError'
p3456
ssS'call'
p3457
S"(code='# -*- coding: utf-8 -*-\\n# this file is released ...\\n\\nresponse._vars=response._caller(categ_display)\\n', environment={'A': <class 'gluon.html.A'>, 'Auth': <class 'gluon.tools.Auth'>, 'B': <class 'gluon.html.B'>, 'BEAUTIFY': <class 'gluon.html.BEAUTIFY'>, 'BODY': <class 'gluon.html.BODY'>, 'BR': <class 'gluon.html.BR'>, 'BUTTON': <class 'gluon.html.BUTTON'>, 'CAT': <class 'gluon.html.CAT'>, 'CENTER': <class 'gluon.html.CENTER'>, 'CLEANUP': <class 'gluon.validators.CLEANUP'>, ...}, layer='/home/shipra/Desktop/Semester 1.2/ITWS-2/web2py/applications/Assignment_2/controllers/default.py')"
p3458
sS'func'
p3459
S'restricted'
p3460
sa(dp3461
g3436
S'/home/shipra/Desktop/Semester 1.2/ITWS-2/web2py/applications/Assignment_2/controllers/default.py'
p3462
sg3438
(dp3463
sg3444
I266
sg3445
(dp3464
I256
S'    http://..../[app]/default/data/delete/[table]/[id]'
p3465
sI257
S'    http://..../[app]/default/data/select/[table]'
p3466
sI258
S'    http://..../[app]/default/data/search/[table]'
p3467
sI259
S'    but URLs must be signed, i.e. linked with'
p3468
sI260
S"      A('table',_href=URL('data/tables',user_signature=True))"
p3469
sI261
S'    or with the signed load operator'
p3470
sI262
S"      LOAD('default','data.load',args='tables',ajax=True,user_signature=True)"
p3471
sI263
S'    """'
p3472
sI264
S'    return dict(form=crud())'
p3473
sI255
S'    http://..../[app]/default/data/update/[table]/[id]'
p3474
ssg3457
S'()'
p3475
sg3459
S'<module>'
p3476
sa(dp3477
g3436
S'/home/shipra/Desktop/Semester 1.2/ITWS-2/web2py/gluon/globals.py'
p3478
sg3438
(dp3479
S'self'
p3480
S'undefined'
p3481
sS'f'
S'<function categ_display>'
p3482
ssg3444
I193
sg3445
(dp3483
I192
S'        self._vars = None'
p3484
sI193
S'        self._caller = lambda f: f()'
p3485
sI194
S'        self._view_environment = None'
p3486
sI195
S'        self._custom_commit = None'
p3487
sI196
S'        self._custom_rollback = None'
p3488
sI197
S''
sI188
S'        self.menu = []             # used by the default view layout'
p3489
sI189
S'        self.files = []            # used by web2py_ajax.html'
p3490
sI190
S'        self.generic_patterns = []  # patterns to allow generic views'
p3491
sI191
S"        self.delimiters = ('{{', '}}')"
p3492
ssg3457
S'(f=<function categ_display>)'
p3493
sg3459
S'<lambda>'
p3494
sa(dp3495
g3436
S'/home/shipra/Desktop/Semester 1.2/ITWS-2/web2py/applications/Assignment_2/controllers/default.py'
p3496
sg3438
(dp3497
S'global request'
p3498
S"<Storage {'function': 'categ_display', 'body': <...tions/Assignment_2/', 'post_vars': <Storage {}>}>"
p3499
sS'request.args'
p3500
S'[]'
p3501
sS'c'
g3481
ssg3444
I25
sg3445
(dp3502
I20
S"\t\tresponse.flash='WELCOME!'"
p3503
sI21
S'\tif auth.user:'
p3504
sI22
S'\t\tc1=int(auth.user_id)'
p3505
sI23
S'\telse:'
p3506
sI24
S'\t\tc1=None'
p3507
sI25
S'\tc=request.args[0]'
p3508
sI26
S'\tnews=db(db.Post.Category==c).select(orderby=~(db.Post.ranking))'
p3509
sI27
S'\treturn locals()'
p3510
sI28
S''
sI29
S'@auth.requires_login()'
p3511
ssg3457
S'()'
p3512
sg3459
S'categ_display'
p3513
sasS'pyver'
p3514
S'Python 2.7.3: /usr/bin/python'
p3515
sS'session'
p3516
g57
(g58
g59
NtRp3517
(dp3518
g62
(dp3519
sg64
(lp3520
g57
(g66
g59
NtRp3521
(dp3522
g62
(dp3523
g70
I5
ssg71
Nsg64
(lp3524
g57
(g73
g59
NtRp3525
(dp3526
g62
(dp3527
sg71
g3521
sg64
(lp3528
g57
(g78
g59
NtRp3529
(dp3530
g62
(dp3531
g82
g83
ssg71
g3525
sg64
(lp3532
S'auth'
p3533
asbag57
(g78
g59
NtRp3534
(dp3535
g62
(dp3536
g89
g90
ssg71
g3525
sg64
(lp3537
S':'
asbag57
(g78
g59
NtRp3538
(dp3539
g62
(dp3540
sg71
g3525
sg64
(lp3541
g57
(g58
g59
NtRp3542
(dp3543
g62
(dp3544
g70
I5
ssg71
g3538
sg64
(lp3545
g57
(g66
g59
NtRp3546
(dp3547
g62
(dp3548
g70
I4
ssg71
Nsg64
(lp3549
g57
(g73
g59
NtRp3550
(dp3551
g62
(dp3552
sg71
g3546
sg64
(lp3553
g57
(g78
g59
NtRp3554
(dp3555
g62
(dp3556
g82
g83
ssg71
g3550
sg64
(lp3557
S'expiration'
p3558
asbag57
(g78
g59
NtRp3559
(dp3560
g62
(dp3561
g89
g90
ssg71
g3550
sg64
(lp3562
S':'
asbag57
(g78
g59
NtRp3563
(dp3564
g62
(dp3565
sg71
g3550
sg64
(lp3566
g57
(g58
g59
NtRp3567
(dp3568
g62
(dp3569
g70
I4
ssg71
g3563
sg64
(lp3570
S'3600'
p3571
asbasbasbag57
(g73
g59
NtRp3572
(dp3573
g62
(dp3574
sg71
g3546
sg64
(lp3575
g57
(g78
g59
NtRp3576
(dp3577
g62
(dp3578
g82
g83
ssg71
g3572
sg64
(lp3579
S'hmac_key'
p3580
asbag57
(g78
g59
NtRp3581
(dp3582
g62
(dp3583
g89
g90
ssg71
g3572
sg64
(lp3584
S':'
asbag57
(g78
g59
NtRp3585
(dp3586
g62
(dp3587
sg71
g3572
sg64
(lp3588
g57
(g58
g59
NtRp3589
(dp3590
g62
(dp3591
g70
I4
ssg71
g3585
sg64
(lp3592
S'ba16a544-5149-433f-8d58-e170b1c40bcf'
p3593
asbasbasbag57
(g73
g59
NtRp3594
(dp3595
g62
(dp3596
sg71
g3546
sg64
(lp3597
g57
(g78
g59
NtRp3598
(dp3599
g62
(dp3600
g82
g83
ssg71
g3594
sg64
(lp3601
S'last_visit'
p3602
asbag57
(g78
g59
NtRp3603
(dp3604
g62
(dp3605
g89
g90
ssg71
g3594
sg64
(lp3606
S':'
asbag57
(g78
g59
NtRp3607
(dp3608
g62
(dp3609
sg71
g3594
sg64
(lp3610
g57
(g58
g59
NtRp3611
(dp3612
g62
(dp3613
g70
I4
ssg71
g3607
sg64
(lp3614
S'datetime.datetime(2013, 9, 2, 13, 32, 5, 41693)'
p3615
asbasbasbag57
(g73
g59
NtRp3616
(dp3617
g62
(dp3618
sg71
g3546
sg64
(lp3619
g57
(g78
g59
NtRp3620
(dp3621
g62
(dp3622
g82
g83
ssg71
g3616
sg64
(lp3623
S'remember'
p3624
asbag57
(g78
g59
NtRp3625
(dp3626
g62
(dp3627
g89
g90
ssg71
g3616
sg64
(lp3628
S':'
asbag57
(g78
g59
NtRp3629
(dp3630
g62
(dp3631
sg71
g3616
sg64
(lp3632
g57
(g58
g59
NtRp3633
(dp3634
g62
(dp3635
g70
I4
ssg71
g3629
sg64
(lp3636
g100
asbasbasbag57
(g73
g59
NtRp3637
(dp3638
g62
(dp3639
sg71
g3546
sg64
(lp3640
g57
(g78
g59
NtRp3641
(dp3642
g62
(dp3643
g82
g83
ssg71
g3637
sg64
(lp3644
S'user'
p3645
asbag57
(g78
g59
NtRp3646
(dp3647
g62
(dp3648
g89
g90
ssg71
g3637
sg64
(lp3649
S':'
asbag57
(g78
g59
NtRp3650
(dp3651
g62
(dp3652
sg71
g3637
sg64
(lp3653
g57
(g58
g59
NtRp3654
(dp3655
g62
(dp3656
g70
I4
ssg71
g3650
sg64
(lp3657
g57
(g66
g59
NtRp3658
(dp3659
g62
(dp3660
g70
I3
ssg71
Nsg64
(lp3661
g57
(g73
g59
NtRp3662
(dp3663
g62
(dp3664
sg71
g3658
sg64
(lp3665
g57
(g78
g59
NtRp3666
(dp3667
g62
(dp3668
g82
g83
ssg71
g3662
sg64
(lp3669
S'email'
p3670
asbag57
(g78
g59
NtRp3671
(dp3672
g62
(dp3673
g89
g90
ssg71
g3662
sg64
(lp3674
S':'
asbag57
(g78
g59
NtRp3675
(dp3676
g62
(dp3677
sg71
g3662
sg64
(lp3678
g57
(g58
g59
NtRp3679
(dp3680
g62
(dp3681
g70
I3
ssg71
g3675
sg64
(lp3682
S'bangashipra@gmail.com'
p3683
asbasbasbag57
(g73
g59
NtRp3684
(dp3685
g62
(dp3686
sg71
g3658
sg64
(lp3687
g57
(g78
g59
NtRp3688
(dp3689
g62
(dp3690
g82
g83
ssg71
g3684
sg64
(lp3691
S'first_name'
p3692
asbag57
(g78
g59
NtRp3693
(dp3694
g62
(dp3695
g89
g90
ssg71
g3684
sg64
(lp3696
S':'
asbag57
(g78
g59
NtRp3697
(dp3698
g62
(dp3699
sg71
g3684
sg64
(lp3700
g57
(g58
g59
NtRp3701
(dp3702
g62
(dp3703
g70
I3
ssg71
g3697
sg64
(lp3704
S'Shipra'
p3705
asbasbasbag57
(g73
g59
NtRp3706
(dp3707
g62
(dp3708
sg71
g3658
sg64
(lp3709
g57
(g78
g59
NtRp3710
(dp3711
g62
(dp3712
g82
g83
ssg71
g3706
sg64
(lp3713
S'id'
p3714
asbag57
(g78
g59
NtRp3715
(dp3716
g62
(dp3717
g89
g90
ssg71
g3706
sg64
(lp3718
S':'
asbag57
(g78
g59
NtRp3719
(dp3720
g62
(dp3721
sg71
g3706
sg64
(lp3722
g57
(g58
g59
NtRp3723
(dp3724
g62
(dp3725
g70
I3
ssg71
g3719
sg64
(lp3726
S'3'
asbasbasbag57
(g73
g59
NtRp3727
(dp3728
g62
(dp3729
sg71
g3658
sg64
(lp3730
g57
(g78
g59
NtRp3731
(dp3732
g62
(dp3733
g82
g83
ssg71
g3727
sg64
(lp3734
S'last_name'
p3735
asbag57
(g78
g59
NtRp3736
(dp3737
g62
(dp3738
g89
g90
ssg71
g3727
sg64
(lp3739
S':'
asbag57
(g78
g59
NtRp3740
(dp3741
g62
(dp3742
sg71
g3727
sg64
(lp3743
g57
(g58
g59
NtRp3744
(dp3745
g62
(dp3746
g70
I3
ssg71
g3740
sg64
(lp3747
S'Banga'
p3748
asbasbasbag57
(g73
g59
NtRp3749
(dp3750
g62
(dp3751
sg71
g3658
sg64
(lp3752
g57
(g78
g59
NtRp3753
(dp3754
g62
(dp3755
g82
g83
ssg71
g3749
sg64
(lp3756
S'registration_id'
p3757
asbag57
(g78
g59
NtRp3758
(dp3759
g62
(dp3760
g89
g90
ssg71
g3749
sg64
(lp3761
S':'
asbag57
(g78
g59
NtRp3762
(dp3763
g62
(dp3764
sg71
g3749
sg64
(lp3765
g57
(g58
g59
NtRp3766
(dp3767
g62
(dp3768
g70
I3
ssg71
g3762
sg64
(lp3769
S''
asbasbasbag57
(g73
g59
NtRp3770
(dp3771
g62
(dp3772
sg71
g3658
sg64
(lp3773
g57
(g78
g59
NtRp3774
(dp3775
g62
(dp3776
g82
g83
ssg71
g3770
sg64
(lp3777
S'registration_key'
p3778
asbag57
(g78
g59
NtRp3779
(dp3780
g62
(dp3781
g89
g90
ssg71
g3770
sg64
(lp3782
S':'
asbag57
(g78
g59
NtRp3783
(dp3784
g62
(dp3785
sg71
g3770
sg64
(lp3786
g57
(g58
g59
NtRp3787
(dp3788
g62
(dp3789
g70
I3
ssg71
g3783
sg64
(lp3790
S''
asbasbasbag57
(g73
g59
NtRp3791
(dp3792
g62
(dp3793
sg71
g3658
sg64
(lp3794
g57
(g78
g59
NtRp3795
(dp3796
g62
(dp3797
g82
g83
ssg71
g3791
sg64
(lp3798
S'reset_password_key'
p3799
asbag57
(g78
g59
NtRp3800
(dp3801
g62
(dp3802
g89
g90
ssg71
g3791
sg64
(lp3803
S':'
asbag57
(g78
g59
NtRp3804
(dp3805
g62
(dp3806
sg71
g3791
sg64
(lp3807
g57
(g58
g59
NtRp3808
(dp3809
g62
(dp3810
g70
I3
ssg71
g3804
sg64
(lp3811
S''
asbasbasbag57
(g73
g59
NtRp3812
(dp3813
g62
(dp3814
sg71
g3658
sg64
(lp3815
g57
(g78
g59
NtRp3816
(dp3817
g62
(dp3818
g82
g83
ssg71
g3812
sg64
(lp3819
S'username'
p3820
asbag57
(g78
g59
NtRp3821
(dp3822
g62
(dp3823
g89
g90
ssg71
g3812
sg64
(lp3824
S':'
asbag57
(g78
g59
NtRp3825
(dp3826
g62
(dp3827
sg71
g3812
sg64
(lp3828
g57
(g58
g59
NtRp3829
(dp3830
g62
(dp3831
g70
I3
ssg71
g3825
sg64
(lp3832
S'admin'
p3833
asbasbasbasbasbasbasbag57
(g73
g59
NtRp3834
(dp3835
g62
(dp3836
sg71
g3546
sg64
(lp3837
g57
(g78
g59
NtRp3838
(dp3839
g62
(dp3840
g82
g83
ssg71
g3834
sg64
(lp3841
S'user_groups'
p3842
asbag57
(g78
g59
NtRp3843
(dp3844
g62
(dp3845
g89
g90
ssg71
g3834
sg64
(lp3846
S':'
asbag57
(g78
g59
NtRp3847
(dp3848
g62
(dp3849
sg71
g3834
sg64
(lp3850
g57
(g58
g59
NtRp3851
(dp3852
g62
(dp3853
g70
I4
ssg71
g3847
sg64
(lp3854
g57
(g66
g59
NtRp3855
(dp3856
g62
(dp3857
g70
I3
ssg71
Nsg64
(lp3858
g57
(g73
g59
NtRp3859
(dp3860
g62
(dp3861
sg71
g3855
sg64
(lp3862
g57
(g78
g59
NtRp3863
(dp3864
g62
(dp3865
g82
g83
ssg71
g3859
sg64
(lp3866
S'2'
asbag57
(g78
g59
NtRp3867
(dp3868
g62
(dp3869
g89
g90
ssg71
g3859
sg64
(lp3870
S':'
asbag57
(g78
g59
NtRp3871
(dp3872
g62
(dp3873
sg71
g3859
sg64
(lp3874
g57
(g58
g59
NtRp3875
(dp3876
g62
(dp3877
g70
I3
ssg71
g3871
sg64
(lp3878
S'user_3'
p3879
asbasbasbasbasbasbasbasbasbasbasbag57
(g73
g59
NtRp3880
(dp3881
g62
(dp3882
sg71
g3521
sg64
(lp3883
g57
(g78
g59
NtRp3884
(dp3885
g62
(dp3886
g82
g83
ssg71
g3880
sg64
(lp3887
S'flash'
p3888
asbag57
(g78
g59
NtRp3889
(dp3890
g62
(dp3891
g89
g90
ssg71
g3880
sg64
(lp3892
S':'
asbag57
(g78
g59
NtRp3893
(dp3894
g62
(dp3895
sg71
g3880
sg64
(lp3896
g57
(g58
g59
NtRp3897
(dp3898
g62
(dp3899
g70
I5
ssg71
g3893
sg64
(lp3900
S'None'
p3901
asbasbasbasbasbsS'etype'
p3902
S"<type 'exceptions.IndexError'>"
p3903
sS'date'
p3904
S'Mon Sep  2 13:36:52 2013'
p3905
sS'response'
p3906
g57
(g58
g59
NtRp3907
(dp3908
g62
(dp3909
sg64
(lp3910
g57
(g66
g59
NtRp3911
(dp3912
g62
(dp3913
g70
I5
ssg71
Nsg64
(lp3914
g57
(g73
g59
NtRp3915
(dp3916
g62
(dp3917
sg71
g3911
sg64
(lp3918
g57
(g78
g59
NtRp3919
(dp3920
g62
(dp3921
g82
g83
ssg71
g3915
sg64
(lp3922
g155
asbag57
(g78
g59
NtRp3923
(dp3924
g62
(dp3925
g89
g90
ssg71
g3915
sg64
(lp3926
S':'
asbag57
(g78
g59
NtRp3927
(dp3928
g62
(dp3929
sg71
g3915
sg64
(lp3930
g57
(g58
g59
NtRp3931
(dp3932
g62
(dp3933
g70
I5
ssg71
g3927
sg64
(lp3934
S'<cStringIO.StringO object at 0x7f20c42f1fb8>'
p3935
asbasbasbag57
(g73
g59
NtRp3936
(dp3937
g62
(dp3938
sg71
g3911
sg64
(lp3939
g57
(g78
g59
NtRp3940
(dp3941
g62
(dp3942
g82
g83
ssg71
g3936
sg64
(lp3943
g243
asbag57
(g78
g59
NtRp3944
(dp3945
g62
(dp3946
g89
g90
ssg71
g3936
sg64
(lp3947
S':'
asbag57
(g78
g59
NtRp3948
(dp3949
g62
(dp3950
sg71
g3936
sg64
(lp3951
g57
(g58
g59
NtRp3952
(dp3953
g62
(dp3954
g70
I5
ssg71
g3948
sg64
(lp3955
g57
(g66
g59
NtRp3956
(dp3957
g62
(dp3958
g70
I4
ssg71
Nsg64
(lp3959
g57
(g73
g59
NtRp3960
(dp3961
g62
(dp3962
sg71
g3956
sg64
(lp3963
g57
(g78
g59
NtRp3964
(dp3965
g62
(dp3966
g82
g83
ssg71
g3960
sg64
(lp3967
S'session_id_assignment_2'
p3968
asbag57
(g78
g59
NtRp3969
(dp3970
g62
(dp3971
g89
g90
ssg71
g3960
sg64
(lp3972
S':'
asbag57
(g78
g59
NtRp3973
(dp3974
g62
(dp3975
sg71
g3960
sg64
(lp3976
g57
(g58
g59
NtRp3977
(dp3978
g62
(dp3979
g70
I4
ssg71
g3973
sg64
(lp3980
g661
ag57
(g66
g59
NtRp3981
(dp3982
g62
(dp3983
g70
I3
ssg71
Nsg64
(lp3984
g57
(g73
g59
NtRp3985
(dp3986
g62
(dp3987
sg71
g3981
sg64
(lp3988
g57
(g78
g59
NtRp3989
(dp3990
g62
(dp3991
g82
g83
ssg71
g3985
sg64
(lp3992
g294
asbag57
(g78
g59
NtRp3993
(dp3994
g62
(dp3995
g89
g90
ssg71
g3985
sg64
(lp3996
S':'
asbag57
(g78
g59
NtRp3997
(dp3998
g62
(dp3999
sg71
g3985
sg64
(lp4000
g57
(g58
g59
NtRp4001
(dp4002
g62
(dp4003
g70
I3
ssg71
g3997
sg64
(lp4004
S''
asbasbasbag57
(g73
g59
NtRp4005
(dp4006
g62
(dp4007
sg71
g3981
sg64
(lp4008
g57
(g78
g59
NtRp4009
(dp4010
g62
(dp4011
g82
g83
ssg71
g4005
sg64
(lp4012
g315
asbag57
(g78
g59
NtRp4013
(dp4014
g62
(dp4015
g89
g90
ssg71
g4005
sg64
(lp4016
S':'
asbag57
(g78
g59
NtRp4017
(dp4018
g62
(dp4019
sg71
g4005
sg64
(lp4020
g57
(g58
g59
NtRp4021
(dp4022
g62
(dp4023
g70
I3
ssg71
g4017
sg64
(lp4024
S''
asbasbasbag57
(g73
g59
NtRp4025
(dp4026
g62
(dp4027
sg71
g3981
sg64
(lp4028
g57
(g78
g59
NtRp4029
(dp4030
g62
(dp4031
g82
g83
ssg71
g4025
sg64
(lp4032
g336
asbag57
(g78
g59
NtRp4033
(dp4034
g62
(dp4035
g89
g90
ssg71
g4025
sg64
(lp4036
S':'
asbag57
(g78
g59
NtRp4037
(dp4038
g62
(dp4039
sg71
g4025
sg64
(lp4040
g57
(g58
g59
NtRp4041
(dp4042
g62
(dp4043
g70
I3
ssg71
g4037
sg64
(lp4044
S''
asbasbasbag57
(g73
g59
NtRp4045
(dp4046
g62
(dp4047
sg71
g3981
sg64
(lp4048
g57
(g78
g59
NtRp4049
(dp4050
g62
(dp4051
g82
g83
ssg71
g4045
sg64
(lp4052
g357
asbag57
(g78
g59
NtRp4053
(dp4054
g62
(dp4055
g89
g90
ssg71
g4045
sg64
(lp4056
S':'
asbag57
(g78
g59
NtRp4057
(dp4058
g62
(dp4059
sg71
g4045
sg64
(lp4060
g57
(g58
g59
NtRp4061
(dp4062
g62
(dp4063
g70
I3
ssg71
g4057
sg64
(lp4064
S''
asbasbasbag57
(g73
g59
NtRp4065
(dp4066
g62
(dp4067
sg71
g3981
sg64
(lp4068
g57
(g78
g59
NtRp4069
(dp4070
g62
(dp4071
g82
g83
ssg71
g4065
sg64
(lp4072
g378
asbag57
(g78
g59
NtRp4073
(dp4074
g62
(dp4075
g89
g90
ssg71
g4065
sg64
(lp4076
S':'
asbag57
(g78
g59
NtRp4077
(dp4078
g62
(dp4079
sg71
g4065
sg64
(lp4080
g57
(g58
g59
NtRp4081
(dp4082
g62
(dp4083
g70
I3
ssg71
g4077
sg64
(lp4084
S''
asbasbasbag57
(g73
g59
NtRp4085
(dp4086
g62
(dp4087
sg71
g3981
sg64
(lp4088
g57
(g78
g59
NtRp4089
(dp4090
g62
(dp4091
g82
g83
ssg71
g4085
sg64
(lp4092
g399
asbag57
(g78
g59
NtRp4093
(dp4094
g62
(dp4095
g89
g90
ssg71
g4085
sg64
(lp4096
S':'
asbag57
(g78
g59
NtRp4097
(dp4098
g62
(dp4099
sg71
g4085
sg64
(lp4100
g57
(g58
g59
NtRp4101
(dp4102
g62
(dp4103
g70
I3
ssg71
g4097
sg64
(lp4104
S'/'
asbasbasbag57
(g73
g59
NtRp4105
(dp4106
g62
(dp4107
sg71
g3981
sg64
(lp4108
g57
(g78
g59
NtRp4109
(dp4110
g62
(dp4111
g82
g83
ssg71
g4105
sg64
(lp4112
g420
asbag57
(g78
g59
NtRp4113
(dp4114
g62
(dp4115
g89
g90
ssg71
g4105
sg64
(lp4116
S':'
asbag57
(g78
g59
NtRp4117
(dp4118
g62
(dp4119
sg71
g4105
sg64
(lp4120
g57
(g58
g59
NtRp4121
(dp4122
g62
(dp4123
g70
I3
ssg71
g4117
sg64
(lp4124
S''
asbasbasbag57
(g73
g59
NtRp4125
(dp4126
g62
(dp4127
sg71
g3981
sg64
(lp4128
g57
(g78
g59
NtRp4129
(dp4130
g62
(dp4131
g82
g83
ssg71
g4125
sg64
(lp4132
g441
asbag57
(g78
g59
NtRp4133
(dp4134
g62
(dp4135
g89
g90
ssg71
g4125
sg64
(lp4136
S':'
asbag57
(g78
g59
NtRp4137
(dp4138
g62
(dp4139
sg71
g4125
sg64
(lp4140
g57
(g58
g59
NtRp4141
(dp4142
g62
(dp4143
g70
I3
ssg71
g4137
sg64
(lp4144
S''
asbasbasbasbasbasbasbasbasbasbasbag57
(g73
g59
NtRp4145
(dp4146
g62
(dp4147
sg71
g3911
sg64
(lp4148
g57
(g78
g59
NtRp4149
(dp4150
g62
(dp4151
g82
g83
ssg71
g4145
sg64
(lp4152
S'delimiters'
p4153
asbag57
(g78
g59
NtRp4154
(dp4155
g62
(dp4156
g89
g90
ssg71
g4145
sg64
(lp4157
S':'
asbag57
(g78
g59
NtRp4158
(dp4159
g62
(dp4160
sg71
g4145
sg64
(lp4161
g57
(g58
g59
NtRp4162
(dp4163
g62
(dp4164
g70
I5
ssg71
g4158
sg64
(lp4165
g57
(g66
g59
NtRp4166
(dp4167
g62
(dp4168
g70
I4
ssg71
Nsg64
(lp4169
g57
(g73
g59
NtRp4170
(dp4171
g62
(dp4172
sg71
g4166
sg64
(lp4173
g57
(g78
g59
NtRp4174
(dp4175
g62
(dp4176
sg71
g4170
sg64
(lp4177
g57
(g58
g59
NtRp4178
(dp4179
g62
(dp4180
g70
I4
ssg71
g4174
sg64
(lp4181
S'{{'
p4182
asbasbasbag57
(g73
g59
NtRp4183
(dp4184
g62
(dp4185
sg71
g4166
sg64
(lp4186
g57
(g78
g59
NtRp4187
(dp4188
g62
(dp4189
sg71
g4183
sg64
(lp4190
g57
(g58
g59
NtRp4191
(dp4192
g62
(dp4193
g70
I4
ssg71
g4187
sg64
(lp4194
S'}}'
p4195
asbasbasbasbasbasbasbag57
(g73
g59
NtRp4196
(dp4197
g62
(dp4198
sg71
g3911
sg64
(lp4199
g57
(g78
g59
NtRp4200
(dp4201
g62
(dp4202
g82
g83
ssg71
g4196
sg64
(lp4203
S'files'
p4204
asbag57
(g78
g59
NtRp4205
(dp4206
g62
(dp4207
g89
g90
ssg71
g4196
sg64
(lp4208
S':'
asbag57
(g78
g59
NtRp4209
(dp4210
g62
(dp4211
sg71
g4196
sg64
(lp4212
g57
(g58
g59
NtRp4213
(dp4214
g62
(dp4215
g70
I5
ssg71
g4209
sg64
(lp4216
g57
(g66
g59
NtRp4217
(dp4218
g62
(dp4219
g70
I4
ssg71
Nsg64
(lp4220
sbasbasbasbag57
(g73
g59
NtRp4221
(dp4222
g62
(dp4223
sg71
g3911
sg64
(lp4224
g57
(g78
g59
NtRp4225
(dp4226
g62
(dp4227
g82
g83
ssg71
g4221
sg64
(lp4228
S'flash'
p4229
asbag57
(g78
g59
NtRp4230
(dp4231
g62
(dp4232
g89
g90
ssg71
g4221
sg64
(lp4233
S':'
asbag57
(g78
g59
NtRp4234
(dp4235
g62
(dp4236
sg71
g4221
sg64
(lp4237
g57
(g58
g59
NtRp4238
(dp4239
g62
(dp4240
g70
I5
ssg71
g4234
sg64
(lp4241
g2166
asbasbasbag57
(g73
g59
NtRp4242
(dp4243
g62
(dp4244
sg71
g3911
sg64
(lp4245
g57
(g78
g59
NtRp4246
(dp4247
g62
(dp4248
g82
g83
ssg71
g4242
sg64
(lp4249
S'generic_patterns'
p4250
asbag57
(g78
g59
NtRp4251
(dp4252
g62
(dp4253
g89
g90
ssg71
g4242
sg64
(lp4254
S':'
asbag57
(g78
g59
NtRp4255
(dp4256
g62
(dp4257
sg71
g4242
sg64
(lp4258
g57
(g58
g59
NtRp4259
(dp4260
g62
(dp4261
g70
I5
ssg71
g4255
sg64
(lp4262
g57
(g66
g59
NtRp4263
(dp4264
g62
(dp4265
g70
I4
ssg71
Nsg64
(lp4266
g57
(g73
g59
NtRp4267
(dp4268
g62
(dp4269
sg71
g4263
sg64
(lp4270
g57
(g78
g59
NtRp4271
(dp4272
g62
(dp4273
sg71
g4267
sg64
(lp4274
g57
(g58
g59
NtRp4275
(dp4276
g62
(dp4277
g70
I4
ssg71
g4271
sg64
(lp4278
S'*'
asbasbasbasbasbasbasbag57
(g73
g59
NtRp4279
(dp4280
g62
(dp4281
sg71
g3911
sg64
(lp4282
g57
(g78
g59
NtRp4283
(dp4284
g62
(dp4285
g82
g83
ssg71
g4279
sg64
(lp4286
S'google_analytics_id'
p4287
asbag57
(g78
g59
NtRp4288
(dp4289
g62
(dp4290
g89
g90
ssg71
g4279
sg64
(lp4291
S':'
asbag57
(g78
g59
NtRp4292
(dp4293
g62
(dp4294
sg71
g4279
sg64
(lp4295
g57
(g58
g59
NtRp4296
(dp4297
g62
(dp4298
g70
I5
ssg71
g4292
sg64
(lp4299
S'None'
p4300
asbasbasbag57
(g73
g59
NtRp4301
(dp4302
g62
(dp4303
sg71
g3911
sg64
(lp4304
g57
(g78
g59
NtRp4305
(dp4306
g62
(dp4307
g82
g83
ssg71
g4301
sg64
(lp4308
S'headers'
p4309
asbag57
(g78
g59
NtRp4310
(dp4311
g62
(dp4312
g89
g90
ssg71
g4301
sg64
(lp4313
S':'
asbag57
(g78
g59
NtRp4314
(dp4315
g62
(dp4316
sg71
g4301
sg64
(lp4317
g57
(g58
g59
NtRp4318
(dp4319
g62
(dp4320
g70
I5
ssg71
g4314
sg64
(lp4321
g57
(g66
g59
NtRp4322
(dp4323
g62
(dp4324
g70
I4
ssg71
Nsg64
(lp4325
g57
(g73
g59
NtRp4326
(dp4327
g62
(dp4328
sg71
g4322
sg64
(lp4329
g57
(g78
g59
NtRp4330
(dp4331
g62
(dp4332
g82
g83
ssg71
g4326
sg64
(lp4333
S'X-Powered-By'
p4334
asbag57
(g78
g59
NtRp4335
(dp4336
g62
(dp4337
g89
g90
ssg71
g4326
sg64
(lp4338
S':'
asbag57
(g78
g59
NtRp4339
(dp4340
g62
(dp4341
sg71
g4326
sg64
(lp4342
g57
(g58
g59
NtRp4343
(dp4344
g62
(dp4345
g70
I4
ssg71
g4339
sg64
(lp4346
S'web2py'
p4347
asbasbasbasbasbasbasbag57
(g73
g59
NtRp4348
(dp4349
g62
(dp4350
sg71
g3911
sg64
(lp4351
g57
(g78
g59
NtRp4352
(dp4353
g62
(dp4354
g82
g83
ssg71
g4348
sg64
(lp4355
S'logo'
p4356
asbag57
(g78
g59
NtRp4357
(dp4358
g62
(dp4359
g89
g90
ssg71
g4348
sg64
(lp4360
S':'
asbag57
(g78
g59
NtRp4361
(dp4362
g62
(dp4363
sg71
g4348
sg64
(lp4364
g57
(g58
g59
NtRp4365
(dp4366
g62
(dp4367
g70
I5
ssg71
g4361
sg64
(lp4368
g57
(cgluon.html
A
p4369
g59
NtRp4370
(dp4371
g62
(dp4372
S'_class'
p4373
S'brand'
p4374
sS'_href'
p4375
S'http://www.web2py.com/'
p4376
ssg71
Nsg64
(lp4377
g57
(cgluon.html
B
p4378
g59
NtRp4379
(dp4380
g62
(dp4381
sg71
g4370
sg64
(lp4382
S'web'
p4383
ag57
(cgluon.html
SPAN
p4384
g59
NtRp4385
(dp4386
g62
(dp4387
sg71
g4379
sg64
(lp4388
I2
asbaS'py'
p4389
asbacgluon.html
XML_unpickle
p4390
(S's\r\x00\x00\x00&trade;&nbsp;'
tRp4391
asbasbasbasbag57
(g73
g59
NtRp4392
(dp4393
g62
(dp4394
sg71
g3911
sg64
(lp4395
g57
(g78
g59
NtRp4396
(dp4397
g62
(dp4398
g82
g83
ssg71
g4392
sg64
(lp4399
S'menu'
p4400
asbag57
(g78
g59
NtRp4401
(dp4402
g62
(dp4403
g89
g90
ssg71
g4392
sg64
(lp4404
S':'
asbag57
(g78
g59
NtRp4405
(dp4406
g62
(dp4407
sg71
g4392
sg64
(lp4408
g57
(g58
g59
NtRp4409
(dp4410
g62
(dp4411
g70
I5
ssg71
g4405
sg64
(lp4412
g57
(g66
g59
NtRp4413
(dp4414
g62
(dp4415
g70
I4
ssg71
Nsg64
(lp4416
g57
(g73
g59
NtRp4417
(dp4418
g62
(dp4419
sg71
g4413
sg64
(lp4420
g57
(g78
g59
NtRp4421
(dp4422
g62
(dp4423
sg71
g4417
sg64
(lp4424
g57
(g58
g59
NtRp4425
(dp4426
g62
(dp4427
g70
I4
ssg71
g4421
sg64
(lp4428
g57
(g66
g59
NtRp4429
(dp4430
g62
(dp4431
g70
I3
ssg71
Nsg64
(lp4432
g57
(g73
g59
NtRp4433
(dp4434
g62
(dp4435
sg71
g4429
sg64
(lp4436
g57
(g78
g59
NtRp4437
(dp4438
g62
(dp4439
sg71
g4433
sg64
(lp4440
g57
(g58
g59
NtRp4441
(dp4442
g62
(dp4443
g70
I3
ssg71
g4437
sg64
(lp4444
cgluon.languages
lazyT_unpickle
p4445
(S's\x04\x00\x00\x00Home'
tRp4446
asbasbasbag57
(g73
g59
NtRp4447
(dp4448
g62
(dp4449
sg71
g4429
sg64
(lp4450
g57
(g78
g59
NtRp4451
(dp4452
g62
(dp4453
sg71
g4447
sg64
(lp4454
g57
(g58
g59
NtRp4455
(dp4456
g62
(dp4457
g70
I3
ssg71
g4451
sg64
(lp4458
g100
asbasbasbag57
(g73
g59
NtRp4459
(dp4460
g62
(dp4461
sg71
g4429
sg64
(lp4462
g57
(g78
g59
NtRp4463
(dp4464
g62
(dp4465
sg71
g4459
sg64
(lp4466
g57
(g58
g59
NtRp4467
(dp4468
g62
(dp4469
g70
I3
ssg71
g4463
sg64
(lp4470
S'/Assignment_2/default/index'
p4471
asbasbasbag57
(g73
g59
NtRp4472
(dp4473
g62
(dp4474
sg71
g4429
sg64
(lp4475
g57
(g78
g59
NtRp4476
(dp4477
g62
(dp4478
sg71
g4472
sg64
(lp4479
g57
(g58
g59
NtRp4480
(dp4481
g62
(dp4482
g70
I3
ssg71
g4476
sg64
(lp4483
g57
(g66
g59
NtRp4484
(dp4485
g62
(dp4486
g70
I2
ssg71
Nsg64
(lp4487
sbasbasbasbasbasbasbasbag57
(g73
g59
NtRp4488
(dp4489
g62
(dp4490
sg71
g4413
sg64
(lp4491
g57
(g78
g59
NtRp4492
(dp4493
g62
(dp4494
sg71
g4488
sg64
(lp4495
g57
(g58
g59
NtRp4496
(dp4497
g62
(dp4498
g70
I4
ssg71
g4492
sg64
(lp4499
g57
(g66
g59
NtRp4500
(dp4501
g62
(dp4502
g70
I3
ssg71
Nsg64
(lp4503
g57
(g73
g59
NtRp4504
(dp4505
g62
(dp4506
sg71
g4500
sg64
(lp4507
g57
(g78
g59
NtRp4508
(dp4509
g62
(dp4510
sg71
g4504
sg64
(lp4511
g57
(g58
g59
NtRp4512
(dp4513
g62
(dp4514
g70
I3
ssg71
g4508
sg64
(lp4515
g57
(g4384
g59
NtRp4516
(dp4517
g62
(dp4518
g4373
S'highlighted'
p4519
ssg71
Nsg64
(lp4520
g4347
asbasbasbasbag57
(g73
g59
NtRp4521
(dp4522
g62
(dp4523
sg71
g4500
sg64
(lp4524
g57
(g78
g59
NtRp4525
(dp4526
g62
(dp4527
sg71
g4521
sg64
(lp4528
g57
(g58
g59
NtRp4529
(dp4530
g62
(dp4531
g70
I3
ssg71
g4525
sg64
(lp4532
g100
asbasbasbag57
(g73
g59
NtRp4533
(dp4534
g62
(dp4535
sg71
g4500
sg64
(lp4536
g57
(g78
g59
NtRp4537
(dp4538
g62
(dp4539
sg71
g4533
sg64
(lp4540
g57
(g58
g59
NtRp4541
(dp4542
g62
(dp4543
g70
I3
ssg71
g4537
sg64
(lp4544
S'http://web2py.com'
p4545
asbasbasbag57
(g73
g59
NtRp4546
(dp4547
g62
(dp4548
sg71
g4500
sg64
(lp4549
g57
(g78
g59
NtRp4550
(dp4551
g62
(dp4552
sg71
g4546
sg64
(lp4553
g57
(g58
g59
NtRp4554
(dp4555
g62
(dp4556
g70
I3
ssg71
g4550
sg64
(lp4557
g57
(g66
g59
NtRp4558
(dp4559
g62
(dp4560
g70
I2
ssg71
Nsg64
(lp4561
g57
(g73
g59
NtRp4562
(dp4563
g62
(dp4564
sg71
g4558
sg64
(lp4565
g57
(g78
g59
NtRp4566
(dp4567
g62
(dp4568
sg71
g4562
sg64
(lp4569
g57
(g58
g59
NtRp4570
(dp4571
g62
(dp4572
g70
I2
ssg71
g4566
sg64
(lp4573
g57
(g66
g59
NtRp4574
(dp4575
g62
(dp4576
g70
I1
ssg71
Nsg64
(lp4577
g57
(g73
g59
NtRp4578
(dp4579
g62
(dp4580
sg71
g4574
sg64
(lp4581
g57
(g78
g59
NtRp4582
(dp4583
g62
(dp4584
sg71
g4578
sg64
(lp4585
g57
(g58
g59
NtRp4586
(dp4587
g62
(dp4588
g70
I1
ssg71
g4582
sg64
(lp4589
g4445
(S's\x08\x00\x00\x00My Sites'
tRp4590
asbasbasbag57
(g73
g59
NtRp4591
(dp4592
g62
(dp4593
sg71
g4574
sg64
(lp4594
g57
(g78
g59
NtRp4595
(dp4596
g62
(dp4597
sg71
g4591
sg64
(lp4598
g57
(g58
g59
NtRp4599
(dp4600
g62
(dp4601
g70
I1
ssg71
g4595
sg64
(lp4602
I00
asbasbasbag57
(g73
g59
NtRp4603
(dp4604
g62
(dp4605
sg71
g4574
sg64
(lp4606
g57
(g78
g59
NtRp4607
(dp4608
g62
(dp4609
sg71
g4603
sg64
(lp4610
g57
(g58
g59
NtRp4611
(dp4612
g62
(dp4613
g70
I1
ssg71
g4607
sg64
(lp4614
S'/admin/default/site'
p4615
asbasbasbasbasbasbasbag57
(g73
g59
NtRp4616
(dp4617
g62
(dp4618
sg71
g4558
sg64
(lp4619
g57
(g78
g59
NtRp4620
(dp4621
g62
(dp4622
sg71
g4616
sg64
(lp4623
g57
(g58
g59
NtRp4624
(dp4625
g62
(dp4626
g70
I2
ssg71
g4620
sg64
(lp4627
g57
(g66
g59
NtRp4628
(dp4629
g62
(dp4630
g70
I1
ssg71
Nsg64
(lp4631
g57
(g73
g59
NtRp4632
(dp4633
g62
(dp4634
sg71
g4628
sg64
(lp4635
g57
(g78
g59
NtRp4636
(dp4637
g62
(dp4638
sg71
g4632
sg64
(lp4639
g57
(g58
g59
NtRp4640
(dp4641
g62
(dp4642
g70
I1
ssg71
g4636
sg64
(lp4643
g4445
(S's\x08\x00\x00\x00This App'
tRp4644
asbasbasbag57
(g73
g59
NtRp4645
(dp4646
g62
(dp4647
sg71
g4628
sg64
(lp4648
g57
(g78
g59
NtRp4649
(dp4650
g62
(dp4651
sg71
g4645
sg64
(lp4652
g57
(g58
g59
NtRp4653
(dp4654
g62
(dp4655
g70
I1
ssg71
g4649
sg64
(lp4656
I00
asbasbasbag57
(g73
g59
NtRp4657
(dp4658
g62
(dp4659
sg71
g4628
sg64
(lp4660
g57
(g78
g59
NtRp4661
(dp4662
g62
(dp4663
sg71
g4657
sg64
(lp4664
g57
(g58
g59
NtRp4665
(dp4666
g62
(dp4667
g70
I1
ssg71
g4661
sg64
(lp4668
S'/admin/default/design/Assignment_2'
p4669
asbasbasbag57
(g73
g59
NtRp4670
(dp4671
g62
(dp4672
sg71
g4628
sg64
(lp4673
g57
(g78
g59
NtRp4674
(dp4675
g62
(dp4676
sg71
g4670
sg64
(lp4677
g57
(g58
g59
NtRp4678
(dp4679
g62
(dp4680
g70
I1
ssg71
g4674
sg64
(lp4681
(lp4682
(g4445
(S's\n\x00\x00\x00Controller'
tRp4683
I00
S'/admin/default/edit/Assignment_2/controllers/default.py'
tp4684
a(g4445
(S's\x04\x00\x00\x00View'
tRp4685
I00
S'/admin/default/edit/Assignment_2/views/default/categ_display.html'
tp4686
a(g4445
(S's\x06\x00\x00\x00Layout'
tRp4687
I00
S'/admin/default/edit/Assignment_2/views/layout.html'
tp4688
a(g4445
(S's\n\x00\x00\x00Stylesheet'
tRp4689
I00
S'/admin/default/edit/Assignment_2/static/css/web2py.css'
tp4690
a(g4445
(S's\x08\x00\x00\x00DB Model'
tRp4691
I00
S'/admin/default/edit/Assignment_2/models/db.py'
tp4692
a(g4445
(S's\n\x00\x00\x00Menu Model'
tRp4693
I00
S'/admin/default/edit/Assignment_2/models/menu.py'
tp4694
a(g4445
(S's\x08\x00\x00\x00Database'
tRp4695
I00
S'/Assignment_2/appadmin/index'
tp4696
a(g4445
(S's\x06\x00\x00\x00Errors'
tRp4697
I00
S'/admin/default/errors/Assignment_2'
tp4698
a(g4445
(S's\x05\x00\x00\x00About'
tRp4699
I00
S'/admin/default/about/Assignment_2'
tp4700
aasbasbasbasbasbasbasbag57
(g73
g59
NtRp4701
(dp4702
g62
(dp4703
sg71
g4558
sg64
(lp4704
g57
(g78
g59
NtRp4705
(dp4706
g62
(dp4707
sg71
g4701
sg64
(lp4708
g57
(g58
g59
NtRp4709
(dp4710
g62
(dp4711
g70
I2
ssg71
g4705
sg64
(lp4712
g57
(g66
g59
NtRp4713
(dp4714
g62
(dp4715
g70
I1
ssg71
Nsg64
(lp4716
g57
(g73
g59
NtRp4717
(dp4718
g62
(dp4719
sg71
g4713
sg64
(lp4720
g57
(g78
g59
NtRp4721
(dp4722
g62
(dp4723
sg71
g4717
sg64
(lp4724
g57
(g58
g59
NtRp4725
(dp4726
g62
(dp4727
g70
I1
ssg71
g4721
sg64
(lp4728
S'web2py.com'
p4729
asbasbasbag57
(g73
g59
NtRp4730
(dp4731
g62
(dp4732
sg71
g4713
sg64
(lp4733
g57
(g78
g59
NtRp4734
(dp4735
g62
(dp4736
sg71
g4730
sg64
(lp4737
g57
(g58
g59
NtRp4738
(dp4739
g62
(dp4740
g70
I1
ssg71
g4734
sg64
(lp4741
I00
asbasbasbag57
(g73
g59
NtRp4742
(dp4743
g62
(dp4744
sg71
g4713
sg64
(lp4745
g57
(g78
g59
NtRp4746
(dp4747
g62
(dp4748
sg71
g4742
sg64
(lp4749
g57
(g58
g59
NtRp4750
(dp4751
g62
(dp4752
g70
I1
ssg71
g4746
sg64
(lp4753
S'http://www.web2py.com'
p4754
asbasbasbag57
(g73
g59
NtRp4755
(dp4756
g62
(dp4757
sg71
g4713
sg64
(lp4758
g57
(g78
g59
NtRp4759
(dp4760
g62
(dp4761
sg71
g4755
sg64
(lp4762
g57
(g58
g59
NtRp4763
(dp4764
g62
(dp4765
g70
I1
ssg71
g4759
sg64
(lp4766
(lp4767
(g4445
(S's\x08\x00\x00\x00Download'
tRp4768
I00
S'http://www.web2py.com/examples/default/download'
p4769
tp4770
a(g4445
(S's\x07\x00\x00\x00Support'
tRp4771
I00
S'http://www.web2py.com/examples/default/support'
p4772
tp4773
a(g4445
(S's\x04\x00\x00\x00Demo'
tRp4774
I00
S'http://web2py.com/demo_admin'
p4775
tp4776
a(g4445
(S's\x0e\x00\x00\x00Quick Examples'
tRp4777
I00
S'http://web2py.com/examples/default/examples'
p4778
tp4779
a(g4445
(S's\x03\x00\x00\x00FAQ'
tRp4780
I00
S'http://web2py.com/AlterEgo'
p4781
tp4782
a(g4445
(S's\x06\x00\x00\x00Videos'
tRp4783
I00
S'http://www.web2py.com/examples/default/videos/'
p4784
tp4785
a(g4445
(S's\x11\x00\x00\x00Free Applications'
tRp4786
I00
S'http://web2py.com/appliances'
p4787
tp4788
a(g4445
(S's\x07\x00\x00\x00Plugins'
tRp4789
I00
S'http://web2py.com/plugins'
p4790
tp4791
a(g4445
(S's\x07\x00\x00\x00Layouts'
tRp4792
I00
S'http://web2py.com/layouts'
p4793
tp4794
a(g4445
(S's\x07\x00\x00\x00Recipes'
tRp4795
I00
S'http://web2pyslices.com/'
p4796
tp4797
a(g4445
(S's\x08\x00\x00\x00Semantic'
tRp4798
I00
S'http://web2py.com/semantic'
p4799
tp4800
aasbasbasbasbasbasbasbag57
(g73
g59
NtRp4801
(dp4802
g62
(dp4803
sg71
g4558
sg64
(lp4804
g57
(g78
g59
NtRp4805
(dp4806
g62
(dp4807
sg71
g4801
sg64
(lp4808
g57
(g58
g59
NtRp4809
(dp4810
g62
(dp4811
g70
I2
ssg71
g4805
sg64
(lp4812
g57
(g66
g59
NtRp4813
(dp4814
g62
(dp4815
g70
I1
ssg71
Nsg64
(lp4816
g57
(g73
g59
NtRp4817
(dp4818
g62
(dp4819
sg71
g4813
sg64
(lp4820
g57
(g78
g59
NtRp4821
(dp4822
g62
(dp4823
sg71
g4817
sg64
(lp4824
g57
(g58
g59
NtRp4825
(dp4826
g62
(dp4827
g70
I1
ssg71
g4821
sg64
(lp4828
g4445
(S's\r\x00\x00\x00Documentation'
tRp4829
asbasbasbag57
(g73
g59
NtRp4830
(dp4831
g62
(dp4832
sg71
g4813
sg64
(lp4833
g57
(g78
g59
NtRp4834
(dp4835
g62
(dp4836
sg71
g4830
sg64
(lp4837
g57
(g58
g59
NtRp4838
(dp4839
g62
(dp4840
g70
I1
ssg71
g4834
sg64
(lp4841
I00
asbasbasbag57
(g73
g59
NtRp4842
(dp4843
g62
(dp4844
sg71
g4813
sg64
(lp4845
g57
(g78
g59
NtRp4846
(dp4847
g62
(dp4848
sg71
g4842
sg64
(lp4849
g57
(g58
g59
NtRp4850
(dp4851
g62
(dp4852
g70
I1
ssg71
g4846
sg64
(lp4853
S'http://www.web2py.com/book'
p4854
asbasbasbag57
(g73
g59
NtRp4855
(dp4856
g62
(dp4857
sg71
g4813
sg64
(lp4858
g57
(g78
g59
NtRp4859
(dp4860
g62
(dp4861
sg71
g4855
sg64
(lp4862
g57
(g58
g59
NtRp4863
(dp4864
g62
(dp4865
g70
I1
ssg71
g4859
sg64
(lp4866
(lp4867
(g4445
(S's\x07\x00\x00\x00Preface'
tRp4868
I00
S'http://www.web2py.com/book/default/chapter/00'
p4869
tp4870
a(g4445
(S's\x0c\x00\x00\x00Introduction'
tRp4871
I00
S'http://www.web2py.com/book/default/chapter/01'
p4872
tp4873
a(g4445
(S's\x06\x00\x00\x00Python'
tRp4874
I00
S'http://www.web2py.com/book/default/chapter/02'
p4875
tp4876
a(g4445
(S's\x08\x00\x00\x00Overview'
tRp4877
I00
S'http://www.web2py.com/book/default/chapter/03'
p4878
tp4879
a(g4445
(S's\x08\x00\x00\x00The Core'
tRp4880
I00
S'http://www.web2py.com/book/default/chapter/04'
p4881
tp4882
a(g4445
(S's\t\x00\x00\x00The Views'
tRp4883
I00
S'http://www.web2py.com/book/default/chapter/05'
p4884
tp4885
a(g4445
(S's\x08\x00\x00\x00Database'
tRp4886
I00
S'http://www.web2py.com/book/default/chapter/06'
p4887
tp4888
a(g4445
(S's\x14\x00\x00\x00Forms and Validators'
tRp4889
I00
S'http://www.web2py.com/book/default/chapter/07'
p4890
tp4891
a(g4445
(S's\r\x00\x00\x00Email and SMS'
tRp4892
I00
S'http://www.web2py.com/book/default/chapter/08'
p4893
tp4894
a(g4445
(S's\x0e\x00\x00\x00Access Control'
tRp4895
I00
S'http://www.web2py.com/book/default/chapter/09'
p4896
tp4897
a(g4445
(S's\x08\x00\x00\x00Services'
tRp4898
I00
S'http://www.web2py.com/book/default/chapter/10'
p4899
tp4900
a(g4445
(S's\x0c\x00\x00\x00Ajax Recipes'
tRp4901
I00
S'http://www.web2py.com/book/default/chapter/11'
p4902
tp4903
a(g4445
(S's\x16\x00\x00\x00Components and Plugins'
tRp4904
I00
S'http://www.web2py.com/book/default/chapter/12'
p4905
tp4906
a(g4445
(S's\x12\x00\x00\x00Deployment Recipes'
tRp4907
I00
S'http://www.web2py.com/book/default/chapter/13'
p4908
tp4909
a(g4445
(S's\r\x00\x00\x00Other Recipes'
tRp4910
I00
S'http://www.web2py.com/book/default/chapter/14'
p4911
tp4912
a(g4445
(S's\r\x00\x00\x00Buy this book'
tRp4913
I00
S'http://stores.lulu.com/web2py'
p4914
tp4915
aasbasbasbasbasbasbasbag57
(g73
g59
NtRp4916
(dp4917
g62
(dp4918
sg71
g4558
sg64
(lp4919
g57
(g78
g59
NtRp4920
(dp4921
g62
(dp4922
sg71
g4916
sg64
(lp4923
g57
(g58
g59
NtRp4924
(dp4925
g62
(dp4926
g70
I2
ssg71
g4920
sg64
(lp4927
g57
(g66
g59
NtRp4928
(dp4929
g62
(dp4930
g70
I1
ssg71
Nsg64
(lp4931
g57
(g73
g59
NtRp4932
(dp4933
g62
(dp4934
sg71
g4928
sg64
(lp4935
g57
(g78
g59
NtRp4936
(dp4937
g62
(dp4938
sg71
g4932
sg64
(lp4939
g57
(g58
g59
NtRp4940
(dp4941
g62
(dp4942
g70
I1
ssg71
g4936
sg64
(lp4943
g4445
(S's\t\x00\x00\x00Community'
tRp4944
asbasbasbag57
(g73
g59
NtRp4945
(dp4946
g62
(dp4947
sg71
g4928
sg64
(lp4948
g57
(g78
g59
NtRp4949
(dp4950
g62
(dp4951
sg71
g4945
sg64
(lp4952
g57
(g58
g59
NtRp4953
(dp4954
g62
(dp4955
g70
I1
ssg71
g4949
sg64
(lp4956
I00
asbasbasbag57
(g73
g59
NtRp4957
(dp4958
g62
(dp4959
sg71
g4928
sg64
(lp4960
g57
(g78
g59
NtRp4961
(dp4962
g62
(dp4963
sg71
g4957
sg64
(lp4964
g57
(g58
g59
NtRp4965
(dp4966
g62
(dp4967
g70
I1
ssg71
g4961
sg64
(lp4968
Nasbasbasbag57
(g73
g59
NtRp4969
(dp4970
g62
(dp4971
sg71
g4928
sg64
(lp4972
g57
(g78
g59
NtRp4973
(dp4974
g62
(dp4975
sg71
g4969
sg64
(lp4976
g57
(g58
g59
NtRp4977
(dp4978
g62
(dp4979
g70
I1
ssg71
g4973
sg64
(lp4980
(lp4981
(g4445
(S's\x06\x00\x00\x00Groups'
tRp4982
I00
S'http://www.web2py.com/examples/default/usergroups'
p4983
tp4984
a(g4445
(S's\x07\x00\x00\x00Twitter'
tRp4985
I00
S'http://twitter.com/web2py'
p4986
tp4987
a(g4445
(S's\t\x00\x00\x00Live Chat'
tRp4988
I00
S'http://webchat.freenode.net/?channels=web2py'
p4989
tp4990
aasbasbasbasbasbasbasbag57
(g73
g59
NtRp4991
(dp4992
g62
(dp4993
sg71
g4558
sg64
(lp4994
g57
(g78
g59
NtRp4995
(dp4996
g62
(dp4997
sg71
g4991
sg64
(lp4998
g57
(g58
g59
NtRp4999
(dp5000
g62
(dp5001
g70
I2
ssg71
g4995
sg64
(lp5002
g57
(g66
g59
NtRp5003
(dp5004
g62
(dp5005
g70
I1
ssg71
Nsg64
(lp5006
g57
(g73
g59
NtRp5007
(dp5008
g62
(dp5009
sg71
g5003
sg64
(lp5010
g57
(g78
g59
NtRp5011
(dp5012
g62
(dp5013
sg71
g5007
sg64
(lp5014
g57
(g58
g59
NtRp5015
(dp5016
g62
(dp5017
g70
I1
ssg71
g5011
sg64
(lp5018
g4445
(S's\x07\x00\x00\x00Plugins'
tRp5019
asbasbasbag57
(g73
g59
NtRp5020
(dp5021
g62
(dp5022
sg71
g5003
sg64
(lp5023
g57
(g78
g59
NtRp5024
(dp5025
g62
(dp5026
sg71
g5020
sg64
(lp5027
g57
(g58
g59
NtRp5028
(dp5029
g62
(dp5030
g70
I1
ssg71
g5024
sg64
(lp5031
I00
asbasbasbag57
(g73
g59
NtRp5032
(dp5033
g62
(dp5034
sg71
g5003
sg64
(lp5035
g57
(g78
g59
NtRp5036
(dp5037
g62
(dp5038
sg71
g5032
sg64
(lp5039
g57
(g58
g59
NtRp5040
(dp5041
g62
(dp5042
g70
I1
ssg71
g5036
sg64
(lp5043
Nasbasbasbag57
(g73
g59
NtRp5044
(dp5045
g62
(dp5046
sg71
g5003
sg64
(lp5047
g57
(g78
g59
NtRp5048
(dp5049
g62
(dp5050
sg71
g5044
sg64
(lp5051
g57
(g58
g59
NtRp5052
(dp5053
g62
(dp5054
g70
I1
ssg71
g5048
sg64
(lp5055
(lp5056
(S'plugin_wiki'
p5057
I00
S'http://web2py.com/examples/default/download'
p5058
tp5059
a(g4445
(S's\r\x00\x00\x00Other Plugins'
tRp5060
I00
g4790
tp5061
a(g4445
(S's\x0e\x00\x00\x00Layout Plugins'
tRp5062
I00
g4793
tp5063
aasbasbasbasbasbasbasbasbasbasbasbasbasbasbasbasbasbasbasbag57
(g73
g59
NtRp5064
(dp5065
g62
(dp5066
sg71
g3911
sg64
(lp5067
g57
(g78
g59
NtRp5068
(dp5069
g62
(dp5070
g82
g83
ssg71
g5064
sg64
(lp5071
S'meta'
p5072
asbag57
(g78
g59
NtRp5073
(dp5074
g62
(dp5075
g89
g90
ssg71
g5064
sg64
(lp5076
S':'
asbag57
(g78
g59
NtRp5077
(dp5078
g62
(dp5079
sg71
g5064
sg64
(lp5080
g57
(g58
g59
NtRp5081
(dp5082
g62
(dp5083
g70
I5
ssg71
g5077
sg64
(lp5084
g57
(g66
g59
NtRp5085
(dp5086
g62
(dp5087
g70
I4
ssg71
Nsg64
(lp5088
g57
(g73
g59
NtRp5089
(dp5090
g62
(dp5091
sg71
g5085
sg64
(lp5092
g57
(g78
g59
NtRp5093
(dp5094
g62
(dp5095
g82
g83
ssg71
g5089
sg64
(lp5096
S'author'
p5097
asbag57
(g78
g59
NtRp5098
(dp5099
g62
(dp5100
g89
g90
ssg71
g5089
sg64
(lp5101
S':'
asbag57
(g78
g59
NtRp5102
(dp5103
g62
(dp5104
sg71
g5089
sg64
(lp5105
g57
(g58
g59
NtRp5106
(dp5107
g62
(dp5108
g70
I4
ssg71
g5102
sg64
(lp5109
S'Your Name <you@example.com>'
p5110
asbasbasbag57
(g73
g59
NtRp5111
(dp5112
g62
(dp5113
sg71
g5085
sg64
(lp5114
g57
(g78
g59
NtRp5115
(dp5116
g62
(dp5117
g82
g83
ssg71
g5111
sg64
(lp5118
S'description'
p5119
asbag57
(g78
g59
NtRp5120
(dp5121
g62
(dp5122
g89
g90
ssg71
g5111
sg64
(lp5123
S':'
asbag57
(g78
g59
NtRp5124
(dp5125
g62
(dp5126
sg71
g5111
sg64
(lp5127
g57
(g58
g59
NtRp5128
(dp5129
g62
(dp5130
g70
I4
ssg71
g5124
sg64
(lp5131
S'a cool new app'
p5132
asbasbasbag57
(g73
g59
NtRp5133
(dp5134
g62
(dp5135
sg71
g5085
sg64
(lp5136
g57
(g78
g59
NtRp5137
(dp5138
g62
(dp5139
g82
g83
ssg71
g5133
sg64
(lp5140
S'generator'
p5141
asbag57
(g78
g59
NtRp5142
(dp5143
g62
(dp5144
g89
g90
ssg71
g5133
sg64
(lp5145
S':'
asbag57
(g78
g59
NtRp5146
(dp5147
g62
(dp5148
sg71
g5133
sg64
(lp5149
g57
(g58
g59
NtRp5150
(dp5151
g62
(dp5152
g70
I4
ssg71
g5146
sg64
(lp5153
S'Web2py Web Framework'
p5154
asbasbasbag57
(g73
g59
NtRp5155
(dp5156
g62
(dp5157
sg71
g5085
sg64
(lp5158
g57
(g78
g59
NtRp5159
(dp5160
g62
(dp5161
g82
g83
ssg71
g5155
sg64
(lp5162
S'keywords'
p5163
asbag57
(g78
g59
NtRp5164
(dp5165
g62
(dp5166
g89
g90
ssg71
g5155
sg64
(lp5167
S':'
asbag57
(g78
g59
NtRp5168
(dp5169
g62
(dp5170
sg71
g5155
sg64
(lp5171
g57
(g58
g59
NtRp5172
(dp5173
g62
(dp5174
g70
I4
ssg71
g5168
sg64
(lp5175
S'web2py, python, framework'
p5176
asbasbasbasbasbasbasbag57
(g73
g59
NtRp5177
(dp5178
g62
(dp5179
sg71
g3911
sg64
(lp5180
g57
(g78
g59
NtRp5181
(dp5182
g62
(dp5183
g82
g83
ssg71
g5177
sg64
(lp5184
S'models_to_run'
p5185
asbag57
(g78
g59
NtRp5186
(dp5187
g62
(dp5188
g89
g90
ssg71
g5177
sg64
(lp5189
S':'
asbag57
(g78
g59
NtRp5190
(dp5191
g62
(dp5192
sg71
g5177
sg64
(lp5193
g57
(g58
g59
NtRp5194
(dp5195
g62
(dp5196
g70
I5
ssg71
g5190
sg64
(lp5197
g57
(g66
g59
NtRp5198
(dp5199
g62
(dp5200
g70
I4
ssg71
Nsg64
(lp5201
g57
(g73
g59
NtRp5202
(dp5203
g62
(dp5204
sg71
g5198
sg64
(lp5205
g57
(g78
g59
NtRp5206
(dp5207
g62
(dp5208
sg71
g5202
sg64
(lp5209
g57
(g58
g59
NtRp5210
(dp5211
g62
(dp5212
g70
I4
ssg71
g5206
sg64
(lp5213
S'^\\w+\\.py$'
p5214
asbasbasbag57
(g73
g59
NtRp5215
(dp5216
g62
(dp5217
sg71
g5198
sg64
(lp5218
g57
(g78
g59
NtRp5219
(dp5220
g62
(dp5221
sg71
g5215
sg64
(lp5222
g57
(g58
g59
NtRp5223
(dp5224
g62
(dp5225
g70
I4
ssg71
g5219
sg64
(lp5226
S'^default/\\w+\\.py$'
p5227
asbasbasbag57
(g73
g59
NtRp5228
(dp5229
g62
(dp5230
sg71
g5198
sg64
(lp5231
g57
(g78
g59
NtRp5232
(dp5233
g62
(dp5234
sg71
g5228
sg64
(lp5235
g57
(g58
g59
NtRp5236
(dp5237
g62
(dp5238
g70
I4
ssg71
g5232
sg64
(lp5239
S'^default/categ_display/\\w+\\.py$'
p5240
asbasbasbasbasbasbasbag57
(g73
g59
NtRp5241
(dp5242
g62
(dp5243
sg71
g3911
sg64
(lp5244
g57
(g78
g59
NtRp5245
(dp5246
g62
(dp5247
g82
g83
ssg71
g5241
sg64
(lp5248
S'postprocessing'
p5249
asbag57
(g78
g59
NtRp5250
(dp5251
g62
(dp5252
g89
g90
ssg71
g5241
sg64
(lp5253
S':'
asbag57
(g78
g59
NtRp5254
(dp5255
g62
(dp5256
sg71
g5241
sg64
(lp5257
g57
(g58
g59
NtRp5258
(dp5259
g62
(dp5260
g70
I5
ssg71
g5254
sg64
(lp5261
g57
(g66
g59
NtRp5262
(dp5263
g62
(dp5264
g70
I4
ssg71
Nsg64
(lp5265
sbasbasbasbag57
(g73
g59
NtRp5266
(dp5267
g62
(dp5268
sg71
g3911
sg64
(lp5269
g57
(g78
g59
NtRp5270
(dp5271
g62
(dp5272
g82
g83
ssg71
g5266
sg64
(lp5273
S'session_cookie_expires'
p5274
asbag57
(g78
g59
NtRp5275
(dp5276
g62
(dp5277
g89
g90
ssg71
g5266
sg64
(lp5278
S':'
asbag57
(g78
g59
NtRp5279
(dp5280
g62
(dp5281
sg71
g5266
sg64
(lp5282
g57
(g58
g59
NtRp5283
(dp5284
g62
(dp5285
g70
I5
ssg71
g5279
sg64
(lp5286
S'None'
p5287
asbasbasbag57
(g73
g59
NtRp5288
(dp5289
g62
(dp5290
sg71
g3911
sg64
(lp5291
g57
(g78
g59
NtRp5292
(dp5293
g62
(dp5294
g82
g83
ssg71
g5288
sg64
(lp5295
S'session_data_name'
p5296
asbag57
(g78
g59
NtRp5297
(dp5298
g62
(dp5299
g89
g90
ssg71
g5288
sg64
(lp5300
S':'
asbag57
(g78
g59
NtRp5301
(dp5302
g62
(dp5303
sg71
g5288
sg64
(lp5304
g57
(g58
g59
NtRp5305
(dp5306
g62
(dp5307
g70
I5
ssg71
g5301
sg64
(lp5308
S'session_data_assignment_2'
p5309
asbasbasbag57
(g73
g59
NtRp5310
(dp5311
g62
(dp5312
sg71
g3911
sg64
(lp5313
g57
(g78
g59
NtRp5314
(dp5315
g62
(dp5316
g82
g83
ssg71
g5310
sg64
(lp5317
S'session_file'
p5318
asbag57
(g78
g59
NtRp5319
(dp5320
g62
(dp5321
g89
g90
ssg71
g5310
sg64
(lp5322
S':'
asbag57
(g78
g59
NtRp5323
(dp5324
g62
(dp5325
sg71
g5310
sg64
(lp5326
g57
(g58
g59
NtRp5327
(dp5328
g62
(dp5329
g70
I5
ssg71
g5323
sg64
(lp5330
S"<open file '/home/shipra/Desktop/Semester 1.2/ITWS-2/web2py/applications/Assignment_2/sessions/127.0.0.1-0036fb1c-fa58-480c-915d-54bdd0161dfd', mode 'rb+' at 0x7f20cc7cadb0>"
p5331
asbasbasbag57
(g73
g59
NtRp5332
(dp5333
g62
(dp5334
sg71
g3911
sg64
(lp5335
g57
(g78
g59
NtRp5336
(dp5337
g62
(dp5338
g82
g83
ssg71
g5332
sg64
(lp5339
S'session_filename'
p5340
asbag57
(g78
g59
NtRp5341
(dp5342
g62
(dp5343
g89
g90
ssg71
g5332
sg64
(lp5344
S':'
asbag57
(g78
g59
NtRp5345
(dp5346
g62
(dp5347
sg71
g5332
sg64
(lp5348
g57
(g58
g59
NtRp5349
(dp5350
g62
(dp5351
g70
I5
ssg71
g5345
sg64
(lp5352
S'/home/shipra/Desktop/Semester 1.2/ITWS-2/web2py/applications/Assignment_2/sessions/127.0.0.1-0036fb1c-fa58-480c-915d-54bdd0161dfd'
p5353
asbasbasbag57
(g73
g59
NtRp5354
(dp5355
g62
(dp5356
sg71
g3911
sg64
(lp5357
g57
(g78
g59
NtRp5358
(dp5359
g62
(dp5360
g82
g83
ssg71
g5354
sg64
(lp5361
S'session_id'
p5362
asbag57
(g78
g59
NtRp5363
(dp5364
g62
(dp5365
g89
g90
ssg71
g5354
sg64
(lp5366
S':'
asbag57
(g78
g59
NtRp5367
(dp5368
g62
(dp5369
sg71
g5354
sg64
(lp5370
g57
(g58
g59
NtRp5371
(dp5372
g62
(dp5373
g70
I5
ssg71
g5367
sg64
(lp5374
g661
asbasbasbag57
(g73
g59
NtRp5375
(dp5376
g62
(dp5377
sg71
g3911
sg64
(lp5378
g57
(g78
g59
NtRp5379
(dp5380
g62
(dp5381
g82
g83
ssg71
g5375
sg64
(lp5382
S'session_id_name'
p5383
asbag57
(g78
g59
NtRp5384
(dp5385
g62
(dp5386
g89
g90
ssg71
g5375
sg64
(lp5387
S':'
asbag57
(g78
g59
NtRp5388
(dp5389
g62
(dp5390
sg71
g5375
sg64
(lp5391
g57
(g58
g59
NtRp5392
(dp5393
g62
(dp5394
g70
I5
ssg71
g5388
sg64
(lp5395
g3968
asbasbasbag57
(g73
g59
NtRp5396
(dp5397
g62
(dp5398
sg71
g3911
sg64
(lp5399
g57
(g78
g59
NtRp5400
(dp5401
g62
(dp5402
g82
g83
ssg71
g5396
sg64
(lp5403
S'session_locked'
p5404
asbag57
(g78
g59
NtRp5405
(dp5406
g62
(dp5407
g89
g90
ssg71
g5396
sg64
(lp5408
S':'
asbag57
(g78
g59
NtRp5409
(dp5410
g62
(dp5411
sg71
g5396
sg64
(lp5412
g57
(g58
g59
NtRp5413
(dp5414
g62
(dp5415
g70
I5
ssg71
g5409
sg64
(lp5416
g1961
asbasbasbag57
(g73
g59
NtRp5417
(dp5418
g62
(dp5419
sg71
g3911
sg64
(lp5420
g57
(g78
g59
NtRp5421
(dp5422
g62
(dp5423
g82
g83
ssg71
g5417
sg64
(lp5424
S'session_new'
p5425
asbag57
(g78
g59
NtRp5426
(dp5427
g62
(dp5428
g89
g90
ssg71
g5417
sg64
(lp5429
S':'
asbag57
(g78
g59
NtRp5430
(dp5431
g62
(dp5432
sg71
g5417
sg64
(lp5433
g57
(g58
g59
NtRp5434
(dp5435
g62
(dp5436
g70
I5
ssg71
g5430
sg64
(lp5437
g100
asbasbasbag57
(g73
g59
NtRp5438
(dp5439
g62
(dp5440
sg71
g3911
sg64
(lp5441
g57
(g78
g59
NtRp5442
(dp5443
g62
(dp5444
g82
g83
ssg71
g5438
sg64
(lp5445
S'session_storage_type'
p5446
asbag57
(g78
g59
NtRp5447
(dp5448
g62
(dp5449
g89
g90
ssg71
g5438
sg64
(lp5450
S':'
asbag57
(g78
g59
NtRp5451
(dp5452
g62
(dp5453
sg71
g5438
sg64
(lp5454
g57
(g58
g59
NtRp5455
(dp5456
g62
(dp5457
g70
I5
ssg71
g5451
sg64
(lp5458
g3436
asbasbasbag57
(g73
g59
NtRp5459
(dp5460
g62
(dp5461
sg71
g3911
sg64
(lp5462
g57
(g78
g59
NtRp5463
(dp5464
g62
(dp5465
g82
g83
ssg71
g5459
sg64
(lp5466
S'status'
p5467
asbag57
(g78
g59
NtRp5468
(dp5469
g62
(dp5470
g89
g90
ssg71
g5459
sg64
(lp5471
S':'
asbag57
(g78
g59
NtRp5472
(dp5473
g62
(dp5474
sg71
g5459
sg64
(lp5475
g57
(g58
g59
NtRp5476
(dp5477
g62
(dp5478
g70
I5
ssg71
g5472
sg64
(lp5479
S'200'
p5480
asbasbasbag57
(g73
g59
NtRp5481
(dp5482
g62
(dp5483
sg71
g3911
sg64
(lp5484
g57
(g78
g59
NtRp5485
(dp5486
g62
(dp5487
g82
g83
ssg71
g5481
sg64
(lp5488
S'subtitle'
p5489
asbag57
(g78
g59
NtRp5490
(dp5491
g62
(dp5492
g89
g90
ssg71
g5481
sg64
(lp5493
S':'
asbag57
(g78
g59
NtRp5494
(dp5495
g62
(dp5496
sg71
g5481
sg64
(lp5497
g57
(g58
g59
NtRp5498
(dp5499
g62
(dp5500
g70
I5
ssg71
g5494
sg64
(lp5501
g4445
(S's\r\x00\x00\x00customize me!'
tRp5502
asbasbasbag57
(g73
g59
NtRp5503
(dp5504
g62
(dp5505
sg71
g3911
sg64
(lp5506
g57
(g78
g59
NtRp5507
(dp5508
g62
(dp5509
g82
g83
ssg71
g5503
sg64
(lp5510
S'title'
p5511
asbag57
(g78
g59
NtRp5512
(dp5513
g62
(dp5514
g89
g90
ssg71
g5503
sg64
(lp5515
S':'
asbag57
(g78
g59
NtRp5516
(dp5517
g62
(dp5518
sg71
g5503
sg64
(lp5519
g57
(g58
g59
NtRp5520
(dp5521
g62
(dp5522
g70
I5
ssg71
g5516
sg64
(lp5523
S'Assignment 2'
p5524
asbasbasbag57
(g73
g59
NtRp5525
(dp5526
g62
(dp5527
sg71
g3911
sg64
(lp5528
g57
(g78
g59
NtRp5529
(dp5530
g62
(dp5531
g82
g83
ssg71
g5525
sg64
(lp5532
S'view'
p5533
asbag57
(g78
g59
NtRp5534
(dp5535
g62
(dp5536
g89
g90
ssg71
g5525
sg64
(lp5537
S':'
asbag57
(g78
g59
NtRp5538
(dp5539
g62
(dp5540
sg71
g5525
sg64
(lp5541
g57
(g58
g59
NtRp5542
(dp5543
g62
(dp5544
g70
I5
ssg71
g5538
sg64
(lp5545
S'default/categ_display.html'
p5546
asbasbasbasbasbsS'locals'
p5547
(dp5548
S'c1'
p5549
S'3'
sssS'traceback'
p5550
S'Traceback (most recent call last):\n  File "/home/shipra/Desktop/Semester 1.2/ITWS-2/web2py/gluon/restricted.py", line 212, in restricted\n    exec ccode in environment\n  File "/home/shipra/Desktop/Semester 1.2/ITWS-2/web2py/applications/Assignment_2/controllers/default.py", line 266, in <module>\n  File "/home/shipra/Desktop/Semester 1.2/ITWS-2/web2py/gluon/globals.py", line 193, in <lambda>\n    self._caller = lambda f: f()\n  File "/home/shipra/Desktop/Semester 1.2/ITWS-2/web2py/applications/Assignment_2/controllers/default.py", line 25, in categ_display\n    c=request.args[0]\nIndexError: list index out of range\n'
p5551
s.