(dp1
S'output'
p2
S"<type 'exceptions.SyntaxError'> invalid syntax (categ_display.html, line 93)"
p3
sS'layer'
p4
S'/home/shipra/Desktop/Semester 1.2/ITWS-2/web2py/applications/Assignment_2/views/default/categ_display.html'
p5
sS'code'
p6
S'response.write(\'<!DOCTYPE html>\\n<!-- paulirish.com/2008/conditional-stylesheets-vs-css-hacks-answer-neither/ -->\\n<!--[if lt IE 7]><html class="ie ie6 ie-lte9 ie-lte8 ie-lte7 no-js" lang="\', escape=False)\nresponse.write(T.accepted_language or \'en\')\nresponse.write(\'"> <![endif]-->\\n<!--[if IE 7]><html class="ie ie7 ie-lte9 ie-lte8 ie-lte7 no-js" lang="\', escape=False)\nresponse.write(T.accepted_language or \'en\')\nresponse.write(\'"> <![endif]-->\\n<!--[if IE 8]><html class="ie ie8 ie-lte9 ie-lte8 no-js" lang="\', escape=False)\nresponse.write(T.accepted_language or \'en\')\nresponse.write(\'"> <![endif]-->\\n<!--[if IE 9]><html class="ie9 ie-lte9 no-js" lang="\', escape=False)\nresponse.write(T.accepted_language or \'en\')\nresponse.write(\'"> <![endif]-->\\n<!--[if (gt IE 9)|!(IE)]><!--> <html class="no-js" lang="\', escape=False)\nresponse.write(T.accepted_language or \'en\')\nresponse.write(\'"> <!--<![endif]-->\\n<head>\\n  <meta charset="utf-8" />\\n  <!-- www.phpied.com/conditional-comments-block-downloads/ -->\\n  <!-- Always force latest IE rendering engine\\n       (even in intranet) & Chrome Frame\\n       Remove this if you use the .htaccess -->\\n  <!--[if IE]>\\n      <meta http-equiv="X-UA-Compatible" content="IE=edge\', escape=False)\nresponse.write(not request.is_local and \',chrome=1\' or \'\')\nresponse.write(\'">\\n      <![endif]-->\\n\\n  <title>\', escape=False)\nresponse.write(response.title or request.application)\nresponse.write(\'</title>\\n\\n  <!-- http://dev.w3.org/html5/markup/meta.name.html -->\\n  <meta name="application-name" content="\', escape=False)\nresponse.write(request.application)\nresponse.write(\'" />\\n\\n  <!-- Speaking of Google, don\\\'t forget to set your site up:\\n       http://google.com/webmasters -->\\n  <meta name="google-site-verification" content="" />\\n\\n  <!--  Mobile Viewport Fix\\n        j.mp/mobileviewport & davidbcalhoun.com/2010/viewport-metatag\\n        device-width: Occupy full width of the screen in its current orientation\\n        initial-scale = 1.0 retains dimensions instead of zooming out if page height > device height\\n        user-scalable = yes allows the user to zoom in -->\\n  <meta name="viewport" content="width=device-width, initial-scale=1.0" />\\n\\n  <link rel="shortcut icon" href="\', escape=False)\nresponse.write(URL(\'static\',\'images/favicon.ico\'))\nresponse.write(\'" type="image/x-icon">\\n  <link rel="apple-touch-icon" href="\', escape=False)\nresponse.write(URL(\'static\',\'images/favicon.png\'))\nresponse.write(\'">\\n\\n  <!-- All JavaScript at the bottom, except for Modernizr which enables\\n       HTML5 elements & feature detects -->\\n  <script src="\', escape=False)\nresponse.write(URL(\'static\',\'js/modernizr.custom.js\'))\nresponse.write(\'"></script>\\n\\n  <!-- include stylesheets -->\\n  \', escape=False)\nresponse.files.append(URL(\'static\',\'css/web2py.css\'))\nresponse.files.append(URL(\'static\',\'css/bootstrap.min.css\'))\nresponse.files.append(URL(\'static\',\'css/bootstrap-responsive.min.css\'))\nresponse.files.append(URL(\'static\',\'css/web2py_bootstrap.css\'))\nresponse.write(\'\\n\\n  \', escape=False)\nresponse.write(\'<script type="text/javascript"><!--\\n    // These variables are used by the web2py_ajax_init function in web2py_ajax.js (which is loaded below).\\n    var w2p_ajax_confirm_message = "\', escape=False)\nresponse.write(T(\'Are you sure you want to delete this object?\'))\nresponse.write(\'";\\n    var w2p_ajax_date_format = "\', escape=False)\nresponse.write(T(\'%Y-%m-%d\'))\nresponse.write(\'";\\n    var w2p_ajax_datetime_format = "\', escape=False)\nresponse.write(T(\'%Y-%m-%d %H:%M:%S\'))\nresponse.write(\'";\\n    //--></script>\\n\', escape=False)\nresponse.files.insert(0,URL(\'static\',\'js/jquery.js\'))\nresponse.files.insert(1,URL(\'static\',\'css/calendar.css\'))\nresponse.files.insert(2,URL(\'static\',\'js/calendar.js\'))\nresponse.files.insert(3,URL(\'static\',\'js/web2py.js\'))\nresponse.include_meta()\nresponse.include_files()\nresponse.write(\'\\n\', escape=False)\nresponse.write(\'\\n\\n  \', escape=False)\n# using sidebars need to know what sidebar you want to use\nleft_sidebar_enabled = globals().get(\'left_sidebar_enabled\',False)\nright_sidebar_enabled = globals().get(\'right_sidebar_enabled\',False)\nmiddle_columns = {0:\'span12\',1:\'span9\',2:\'span6\'}[\n(left_sidebar_enabled and 1 or 0)+(right_sidebar_enabled and 1 or 0)]\nresponse.write(\'\\n\\n  <!-- uncomment here to load jquery-ui\\n       <link rel="stylesheet" href="http://ajax.googleapis.com/ajax/libs/jqueryui/1.8.16/themes/base/jquery-ui.css" type="text/css" media="all" />\\n       <script src="http://ajax.googleapis.com/ajax/libs/jqueryui/1.8.16/jquery-ui.min.js" type="text/javascript"></script>\\n       uncomment to load jquery-ui //-->\\n  <noscript><link href="\', escape=False)\nresponse.write(URL(\'static\', \'css/web2py_bootstrap_nojs.css\'))\nresponse.write(\'" rel="stylesheet" type="text/css" /></noscript>\\n  \', escape=False)\nresponse.write(\'\\n</head>\\n\\n<body>\\n  <!-- Navbar ================================================== -->\\n  <div class="navbar navbar-inverse navbar-fixed-top">\\n    <div class="flash">\', escape=False)\nresponse.write(response.flash or \'\')\nresponse.write(\'</div>\\n    <div class="navbar-inner">\\n      <div class="container">\\n        <!-- the next tag is necessary for bootstrap menus, do not remove -->\\n        <button type="button" class="btn btn-navbar" data-toggle="collapse" data-target=".nav-collapse">\\n          <span class="icon-bar"></span>\\n          <span class="icon-bar"></span>\\n          <span class="icon-bar"></span>\\n        </button>\\n\\t\', escape=False)\nresponse.write(response.logo or \'\')\nresponse.write(\'\\n        <ul id="navbar" class="nav pull-right">\', escape=False)\nresponse.write(\'auth\' in globals() and auth.navbar(mode="dropdown") or \'\')\nresponse.write(\'</ul>\\n        <div class="nav-collapse">\\n          \', escape=False)\nis_mobile=request.user_agent().is_mobile\nresponse.write(\'\\n          \', escape=False)\nif response.menu:\n    response.write(\'\\n          \', escape=False)\n    response.write(MENU(response.menu, _class=\'mobile-menu nav\' if is_mobile else \'nav\',mobile=is_mobile,li_class=\'dropdown\',ul_class=\'dropdown-menu\'))\n    response.write(\'\\n          \', escape=False)\n    pass\nresponse.write(\'\\n        </div><!--/.nav-collapse -->\\n      </div>\\n    </div>\\n  </div><!--/top navbar -->\\n\\n  <div class="container">\\n    <!-- Masthead ================================================== -->\\n    <header class="mastheader row" id="header">\\n        <div class="span12">\\n            <div class="page-header">\\n                <h1>\\n                    \', escape=False)\nresponse.write(response.title or request.application)\nresponse.write(\'\\n                    <small>\', escape=False)\nresponse.write(response.subtitle or \'\')\nresponse.write(\'</small>\\n                </h1>\\n            </div>\\n        </div>\\n    </header>\\n\\n    <section id="main" class="main row">\\n        \', escape=False)\nif left_sidebar_enabled:\n    response.write(\'\\n        <div class="span3 left-sidebar">\\n            \', escape=False)\n    response.write(\'\\n            <h3>Left Sidebar</h3>\\n            <p></p>\\n            \', escape=False)\n    response.write(\'\\n        </div>\\n        \', escape=False)\n    pass\nresponse.write(\'\\n\\n        <div class="\', escape=False)\nresponse.write(middle_columns)\nresponse.write(\'">\\n            \', escape=False)\nresponse.write(\'\\n            \', escape=False)\nresponse.write(\'\\n<h2>\', escape=False)\nresponse.write(c)\nresponse.write(\'</h2>\\n<ol>\\n\', escape=False)\nfor i in range(len(news)):\n    response.write(\'\\n<li> \\n<h4>\', escape=False)\n    response.write(news[i][\'Heading\'])\n    response.write(\':</h4><br/>\\n<a href="\', escape=False)\n    response.write(news[i][\'URL\'])\n    response.write(\'">\', escape=False)\n    response.write(news[i][\'URL\'])\n    response.write(\'</a><br/>\\nLikes:\', escape=False)\n    response.write(news[i][\'ranking\'])\n    response.write(\'<br/>\\n\', escape=False)\n    if((c1!=None and news[i][\'userid\']==c1) or (c1!=None and c1==3):\n        response.write(\'\\n<a href="http://127.0.0.1:8000/Assignment_2/default/del_post/\', escape=False)\n        response.write(news[i][\'id\'])\n        response.write(\'/\', escape=False)\n        response.write(c)\n        response.write(\'"><button name="Delete">DELETE</button></a>\\n<a href="http://127.0.0.1:8000/Assignment_2/default/edit_post/\', escape=False)\n        response.write(news[i][\'id\'])\n        response.write(\'/\', escape=False)\n        response.write(c)\n        response.write(\'"><button name="Edit">EDIT</button></a>\\n\', escape=False)\n        pass\n    response.write(\'\\n<a href="http://127.0.0.1:8000/Assignment_2/default/like_post/\', escape=False)\n    response.write(news[i][\'id\'])\n    response.write(\'/\', escape=False)\n    response.write(c)\n    response.write(\'"><button name="Like"> LIKE </button></a>\\n<a href="http://127.0.0.1:8000/Assignment_2/default/dislike_post/\', escape=False)\n    response.write(news[i][\'id\'])\n    response.write(\'/\', escape=False)\n    response.write(c)\n    response.write(\'"><button name="Dislike">DISLIKE</button></a>\\n</li>\\n\', escape=False)\n    pass\nresponse.write(\'\\n     \\n\', escape=False)\nresponse.write(\'\\n            \', escape=False)\nresponse.write(\'\\n        </div>\\n\\n        \', escape=False)\nif right_sidebar_enabled:\n    response.write(\'\\n        <div class="span3">\\n            \', escape=False)\n    response.write(\'\\n            <h3>Right Sidebar</h3>\\n            <p></p>\\n            \', escape=False)\n    response.write(\'\\n        </div>\\n        \', escape=False)\n    pass\nresponse.write(\'\\n    </section><!--/main-->\\n\\n    <!-- Footer ================================================== -->\\n    <div class="row">\\n        <footer class="footer span12" id="footer">\\n            <div class="footer-content">\\n                \', escape=False)\nresponse.write(\' <!-- this is default footer -->\\n                <div class="copyright pull-left">\', escape=False)\nresponse.write(T(\'Copyright\'))\nresponse.write(\' &#169; \', escape=False)\nresponse.write(request.now.year)\nresponse.write(\'</div>\\n                <div id="poweredBy" class="pull-right">\\n                    \', escape=False)\nresponse.write(T(\'Powered by\'))\nresponse.write(\'\\n                    <a href="http://www.web2py.com/">web2py</a>\\n                </div>\\n                \', escape=False)\nresponse.write(\'\\n            </div>\\n        </footer>\\n    </div>\\n\\n  </div> <!-- /container -->\\n\\n  <!-- The javascript =============================================\\n       (Placed at the end of the document so the pages load faster) -->\\n  <script src="\', escape=False)\nresponse.write(URL(\'static\',\'js/bootstrap.min.js\'))\nresponse.write(\'"></script>\\n  <script src="\', escape=False)\nresponse.write(URL(\'static\',\'js/web2py_bootstrap.js\'))\nresponse.write(\'"></script>\\n  <!--[if lt IE 7 ]>\\n      <script src="\', escape=False)\nresponse.write(URL(\'static\',\'js/dd_belatedpng.js\'))\nresponse.write(\'"></script>\\n      <script> DD_belatedPNG.fix(\\\'img, .png_bg\\\'); //fix any <img> or .png_bg background-images </script>\\n      <![endif]-->\\n  \\n  \', escape=False)\nif response.google_analytics_id:\n    response.write(\'\\n  <script src="\', escape=False)\n    response.write(URL(\'static\',\'js/analytics.js\'))\n    response.write(\'"></script>\\n  <script type="text/javascript">\\n  analytics.initialize({\\n    \\\'Google Analytics\\\':{trackingId:\\\'\', escape=False)\n    response.write(response.google_analytics_id)\n    response.write("\'} \\n  });</script>\\n  ", escape=False)\n    pass\nresponse.write(\'\\n  <script src="\', escape=False)\nresponse.write(URL(\'static\',\'js/share.js\',vars=dict(static=URL(\'static\',\'images\'))))\nresponse.write(\'"></script>\\n</body>\\n</html>\\n\\n\', escape=False)'
p7
sS'snapshot'
p8
(dp9
S'exception'
p10
(dp11
S'__getslice__'
p12
S"<method-wrapper '__getslice__' of exceptions.SyntaxError object>"
p13
sS'text'
p14
S'"    if((c1!=None and news[i][\'userid\']==c1) or (c1!=None and c1==3):\\n"'
p15
sS'__str__'
p16
S"<method-wrapper '__str__' of exceptions.SyntaxError object>"
p17
sS'__reduce__'
p18
S'<built-in method __reduce__ of exceptions.SyntaxError object>'
p19
sS'__dict__'
p20
S'{}'
p21
sS'__sizeof__'
p22
S'<built-in method __sizeof__ of exceptions.SyntaxError object>'
p23
sS'__init__'
p24
S"<method-wrapper '__init__' of exceptions.SyntaxError object>"
p25
sS'__setattr__'
p26
S"<method-wrapper '__setattr__' of exceptions.SyntaxError object>"
p27
sS'__reduce_ex__'
p28
S'<built-in method __reduce_ex__ of exceptions.SyntaxError object>'
p29
sS'__new__'
p30
S'<built-in method __new__ of type object>'
p31
sS'__format__'
p32
S'<built-in method __format__ of exceptions.SyntaxError object>'
p33
sS'__class__'
p34
S"<type 'exceptions.SyntaxError'>"
p35
sS'filename'
p36
S"'/home/shipra/Desktop/Semester 1.2/ITWS-2/web2py/...ons/Assignment_2/views/default/categ_display.html'"
p37
sS'lineno'
p38
S'93'
p39
sS'msg'
p40
S"'invalid syntax'"
p41
sS'__doc__'
p42
S"'Invalid syntax.'"
p43
sS'__getitem__'
p44
S"<method-wrapper '__getitem__' of exceptions.SyntaxError object>"
p45
sS'__setstate__'
p46
S'<built-in method __setstate__ of exceptions.SyntaxError object>'
p47
sS'__getattribute__'
p48
S"<method-wrapper '__getattribute__' of exceptions.SyntaxError object>"
p49
sS'print_file_and_line'
p50
S'None'
p51
sS'args'
p52
S'(\'invalid syntax\', (\'/home/shipra/Desktop/Semester 1.2/ITWS-2/web2py/...ons/Assignment_2/views/default/categ_display.html\', 93, 68, "    if((c1!=None and news[i][\'userid\']==c1) or (c1!=None and c1==3):\\n"))'
p53
sS'__subclasshook__'
p54
S'<built-in method __subclasshook__ of type object>'
p55
sS'offset'
p56
S'68'
p57
sS'__unicode__'
p58
S'<built-in method __unicode__ of exceptions.SyntaxError object>'
p59
sS'__delattr__'
p60
S"<method-wrapper '__delattr__' of exceptions.SyntaxError object>"
p61
sS'__repr__'
p62
S"<method-wrapper '__repr__' of exceptions.SyntaxError object>"
p63
sS'__hash__'
p64
S"<method-wrapper '__hash__' of exceptions.SyntaxError object>"
p65
ssS'evalue'
p66
S'invalid syntax (categ_display.html, line 93)'
p67
sS'request'
p68
ccopy_reg
_reconstructor
p69
(cgluon.html
BEAUTIFY
p70
c__builtin__
object
p71
NtRp72
(dp73
S'attributes'
p74
(dp75
sS'components'
p76
(lp77
g69
(cgluon.html
TABLE
p78
g71
NtRp79
(dp80
g74
(dp81
S'level'
p82
I5
ssS'parent'
p83
Nsg76
(lp84
g69
(cgluon.html
TR
p85
g71
NtRp86
(dp87
g74
(dp88
sg83
g79
sg76
(lp89
g69
(cgluon.html
TD
p90
g71
NtRp91
(dp92
g74
(dp93
S'_style'
p94
S'font-weight:bold;vertical-align:top'
p95
ssg83
g86
sg76
(lp96
S'ajax'
p97
asbag69
(g90
g71
NtRp98
(dp99
g74
(dp100
S'_valign'
p101
S'top'
p102
ssg83
g86
sg76
(lp103
S':'
asbag69
(g90
g71
NtRp104
(dp105
g74
(dp106
sg83
g86
sg76
(lp107
g69
(g70
g71
NtRp108
(dp109
g74
(dp110
g82
I5
ssg83
g104
sg76
(lp111
S'False'
p112
asbasbasbag69
(g85
g71
NtRp113
(dp114
g74
(dp115
sg83
g79
sg76
(lp116
g69
(g90
g71
NtRp117
(dp118
g74
(dp119
g94
g95
ssg83
g113
sg76
(lp120
S'application'
p121
asbag69
(g90
g71
NtRp122
(dp123
g74
(dp124
g101
g102
ssg83
g113
sg76
(lp125
S':'
asbag69
(g90
g71
NtRp126
(dp127
g74
(dp128
sg83
g113
sg76
(lp129
g69
(g70
g71
NtRp130
(dp131
g74
(dp132
g82
I5
ssg83
g126
sg76
(lp133
S'Assignment_2'
p134
asbasbasbag69
(g85
g71
NtRp135
(dp136
g74
(dp137
sg83
g79
sg76
(lp138
g69
(g90
g71
NtRp139
(dp140
g74
(dp141
g94
g95
ssg83
g135
sg76
(lp142
g52
asbag69
(g90
g71
NtRp143
(dp144
g74
(dp145
g101
g102
ssg83
g135
sg76
(lp146
S':'
asbag69
(g90
g71
NtRp147
(dp148
g74
(dp149
sg83
g135
sg76
(lp150
g69
(g70
g71
NtRp151
(dp152
g74
(dp153
g82
I5
ssg83
g147
sg76
(lp154
g69
(g78
g71
NtRp155
(dp156
g74
(dp157
g82
I4
ssg83
Nsg76
(lp158
g69
(g85
g71
NtRp159
(dp160
g74
(dp161
sg83
g155
sg76
(lp162
g69
(g90
g71
NtRp163
(dp164
g74
(dp165
sg83
g159
sg76
(lp166
g69
(g70
g71
NtRp167
(dp168
g74
(dp169
g82
I4
ssg83
g163
sg76
(lp170
S'World'
p171
asbasbasbasbasbasbasbag69
(g85
g71
NtRp172
(dp173
g74
(dp174
sg83
g79
sg76
(lp175
g69
(g90
g71
NtRp176
(dp177
g74
(dp178
g94
g95
ssg83
g172
sg76
(lp179
S'body'
p180
asbag69
(g90
g71
NtRp181
(dp182
g74
(dp183
g101
g102
ssg83
g172
sg76
(lp184
S':'
asbag69
(g90
g71
NtRp185
(dp186
g74
(dp187
sg83
g172
sg76
(lp188
g69
(g70
g71
NtRp189
(dp190
g74
(dp191
g82
I5
ssg83
g185
sg76
(lp192
S'<cStringIO.StringO object at 0x7f0be02d6650>'
p193
asbasbasbag69
(g85
g71
NtRp194
(dp195
g74
(dp196
sg83
g79
sg76
(lp197
g69
(g90
g71
NtRp198
(dp199
g74
(dp200
g94
g95
ssg83
g194
sg76
(lp201
S'cid'
p202
asbag69
(g90
g71
NtRp203
(dp204
g74
(dp205
g101
g102
ssg83
g194
sg76
(lp206
S':'
asbag69
(g90
g71
NtRp207
(dp208
g74
(dp209
sg83
g194
sg76
(lp210
g69
(g70
g71
NtRp211
(dp212
g74
(dp213
g82
I5
ssg83
g207
sg76
(lp214
S'None'
p215
asbasbasbag69
(g85
g71
NtRp216
(dp217
g74
(dp218
sg83
g79
sg76
(lp219
g69
(g90
g71
NtRp220
(dp221
g74
(dp222
g94
g95
ssg83
g216
sg76
(lp223
S'client'
p224
asbag69
(g90
g71
NtRp225
(dp226
g74
(dp227
g101
g102
ssg83
g216
sg76
(lp228
S':'
asbag69
(g90
g71
NtRp229
(dp230
g74
(dp231
sg83
g216
sg76
(lp232
g69
(g70
g71
NtRp233
(dp234
g74
(dp235
g82
I5
ssg83
g229
sg76
(lp236
S'127.0.0.1'
p237
asbasbasbag69
(g85
g71
NtRp238
(dp239
g74
(dp240
sg83
g79
sg76
(lp241
g69
(g90
g71
NtRp242
(dp243
g74
(dp244
g94
g95
ssg83
g238
sg76
(lp245
S'controller'
p246
asbag69
(g90
g71
NtRp247
(dp248
g74
(dp249
g101
g102
ssg83
g238
sg76
(lp250
S':'
asbag69
(g90
g71
NtRp251
(dp252
g74
(dp253
sg83
g238
sg76
(lp254
g69
(g70
g71
NtRp255
(dp256
g74
(dp257
g82
I5
ssg83
g251
sg76
(lp258
S'default'
p259
asbasbasbag69
(g85
g71
NtRp260
(dp261
g74
(dp262
sg83
g79
sg76
(lp263
g69
(g90
g71
NtRp264
(dp265
g74
(dp266
g94
g95
ssg83
g260
sg76
(lp267
S'cookies'
p268
asbag69
(g90
g71
NtRp269
(dp270
g74
(dp271
g101
g102
ssg83
g260
sg76
(lp272
S':'
asbag69
(g90
g71
NtRp273
(dp274
g74
(dp275
sg83
g260
sg76
(lp276
g69
(g70
g71
NtRp277
(dp278
g74
(dp279
g82
I5
ssg83
g273
sg76
(lp280
g69
(g78
g71
NtRp281
(dp282
g74
(dp283
g82
I4
ssg83
Nsg76
(lp284
g69
(g85
g71
NtRp285
(dp286
g74
(dp287
sg83
g281
sg76
(lp288
g69
(g90
g71
NtRp289
(dp290
g74
(dp291
g94
g95
ssg83
g285
sg76
(lp292
S'mp_2093ad9ff9c5428a2228386de2f2b0e4_mixpanel'
p293
asbag69
(g90
g71
NtRp294
(dp295
g74
(dp296
g101
g102
ssg83
g285
sg76
(lp297
S':'
asbag69
(g90
g71
NtRp298
(dp299
g74
(dp300
sg83
g285
sg76
(lp301
g69
(g70
g71
NtRp302
(dp303
g74
(dp304
g82
I4
ssg83
g298
sg76
(lp305
S'%7B%22distinct_id%22%3A%20%2262ffc2d0-7b9f-0130-efb0-22000a1cbb2a%22%2C%22is_registered_user%22%3A%20false%2C%22%24initial_referrer%22%3A%20%22%24direct%22%2C%22%24initial_referring_domain%22%3A%20%22%24direct%22%7D'
p306
ag69
(g78
g71
NtRp307
(dp308
g74
(dp309
g82
I3
ssg83
Nsg76
(lp310
g69
(g85
g71
NtRp311
(dp312
g74
(dp313
sg83
g307
sg76
(lp314
g69
(g90
g71
NtRp315
(dp316
g74
(dp317
g94
g95
ssg83
g311
sg76
(lp318
S'comment'
p319
asbag69
(g90
g71
NtRp320
(dp321
g74
(dp322
g101
g102
ssg83
g311
sg76
(lp323
S':'
asbag69
(g90
g71
NtRp324
(dp325
g74
(dp326
sg83
g311
sg76
(lp327
g69
(g70
g71
NtRp328
(dp329
g74
(dp330
g82
I3
ssg83
g324
sg76
(lp331
S''
asbasbasbag69
(g85
g71
NtRp332
(dp333
g74
(dp334
sg83
g307
sg76
(lp335
g69
(g90
g71
NtRp336
(dp337
g74
(dp338
g94
g95
ssg83
g332
sg76
(lp339
S'domain'
p340
asbag69
(g90
g71
NtRp341
(dp342
g74
(dp343
g101
g102
ssg83
g332
sg76
(lp344
S':'
asbag69
(g90
g71
NtRp345
(dp346
g74
(dp347
sg83
g332
sg76
(lp348
g69
(g70
g71
NtRp349
(dp350
g74
(dp351
g82
I3
ssg83
g345
sg76
(lp352
S''
asbasbasbag69
(g85
g71
NtRp353
(dp354
g74
(dp355
sg83
g307
sg76
(lp356
g69
(g90
g71
NtRp357
(dp358
g74
(dp359
g94
g95
ssg83
g353
sg76
(lp360
S'expires'
p361
asbag69
(g90
g71
NtRp362
(dp363
g74
(dp364
g101
g102
ssg83
g353
sg76
(lp365
S':'
asbag69
(g90
g71
NtRp366
(dp367
g74
(dp368
sg83
g353
sg76
(lp369
g69
(g70
g71
NtRp370
(dp371
g74
(dp372
g82
I3
ssg83
g366
sg76
(lp373
S''
asbasbasbag69
(g85
g71
NtRp374
(dp375
g74
(dp376
sg83
g307
sg76
(lp377
g69
(g90
g71
NtRp378
(dp379
g74
(dp380
g94
g95
ssg83
g374
sg76
(lp381
S'httponly'
p382
asbag69
(g90
g71
NtRp383
(dp384
g74
(dp385
g101
g102
ssg83
g374
sg76
(lp386
S':'
asbag69
(g90
g71
NtRp387
(dp388
g74
(dp389
sg83
g374
sg76
(lp390
g69
(g70
g71
NtRp391
(dp392
g74
(dp393
g82
I3
ssg83
g387
sg76
(lp394
S''
asbasbasbag69
(g85
g71
NtRp395
(dp396
g74
(dp397
sg83
g307
sg76
(lp398
g69
(g90
g71
NtRp399
(dp400
g74
(dp401
g94
g95
ssg83
g395
sg76
(lp402
S'max-age'
p403
asbag69
(g90
g71
NtRp404
(dp405
g74
(dp406
g101
g102
ssg83
g395
sg76
(lp407
S':'
asbag69
(g90
g71
NtRp408
(dp409
g74
(dp410
sg83
g395
sg76
(lp411
g69
(g70
g71
NtRp412
(dp413
g74
(dp414
g82
I3
ssg83
g408
sg76
(lp415
S''
asbasbasbag69
(g85
g71
NtRp416
(dp417
g74
(dp418
sg83
g307
sg76
(lp419
g69
(g90
g71
NtRp420
(dp421
g74
(dp422
g94
g95
ssg83
g416
sg76
(lp423
S'path'
p424
asbag69
(g90
g71
NtRp425
(dp426
g74
(dp427
g101
g102
ssg83
g416
sg76
(lp428
S':'
asbag69
(g90
g71
NtRp429
(dp430
g74
(dp431
sg83
g416
sg76
(lp432
g69
(g70
g71
NtRp433
(dp434
g74
(dp435
g82
I3
ssg83
g429
sg76
(lp436
S''
asbasbasbag69
(g85
g71
NtRp437
(dp438
g74
(dp439
sg83
g307
sg76
(lp440
g69
(g90
g71
NtRp441
(dp442
g74
(dp443
g94
g95
ssg83
g437
sg76
(lp444
S'secure'
p445
asbag69
(g90
g71
NtRp446
(dp447
g74
(dp448
g101
g102
ssg83
g437
sg76
(lp449
S':'
asbag69
(g90
g71
NtRp450
(dp451
g74
(dp452
sg83
g437
sg76
(lp453
g69
(g70
g71
NtRp454
(dp455
g74
(dp456
g82
I3
ssg83
g450
sg76
(lp457
S''
asbasbasbag69
(g85
g71
NtRp458
(dp459
g74
(dp460
sg83
g307
sg76
(lp461
g69
(g90
g71
NtRp462
(dp463
g74
(dp464
g94
g95
ssg83
g458
sg76
(lp465
S'version'
p466
asbag69
(g90
g71
NtRp467
(dp468
g74
(dp469
g101
g102
ssg83
g458
sg76
(lp470
S':'
asbag69
(g90
g71
NtRp471
(dp472
g74
(dp473
sg83
g458
sg76
(lp474
g69
(g70
g71
NtRp475
(dp476
g74
(dp477
g82
I3
ssg83
g471
sg76
(lp478
S''
asbasbasbasbasbasbasbag69
(g85
g71
NtRp479
(dp480
g74
(dp481
sg83
g281
sg76
(lp482
g69
(g90
g71
NtRp483
(dp484
g74
(dp485
g94
g95
ssg83
g479
sg76
(lp486
S'session_id_admin'
p487
asbag69
(g90
g71
NtRp488
(dp489
g74
(dp490
g101
g102
ssg83
g479
sg76
(lp491
S':'
asbag69
(g90
g71
NtRp492
(dp493
g74
(dp494
sg83
g479
sg76
(lp495
g69
(g70
g71
NtRp496
(dp497
g74
(dp498
g82
I4
ssg83
g492
sg76
(lp499
S'127.0.0.1-e2720d40-7ac5-42ed-b392-b058de438408'
p500
ag69
(g78
g71
NtRp501
(dp502
g74
(dp503
g82
I3
ssg83
Nsg76
(lp504
g69
(g85
g71
NtRp505
(dp506
g74
(dp507
sg83
g501
sg76
(lp508
g69
(g90
g71
NtRp509
(dp510
g74
(dp511
g94
g95
ssg83
g505
sg76
(lp512
g319
asbag69
(g90
g71
NtRp513
(dp514
g74
(dp515
g101
g102
ssg83
g505
sg76
(lp516
S':'
asbag69
(g90
g71
NtRp517
(dp518
g74
(dp519
sg83
g505
sg76
(lp520
g69
(g70
g71
NtRp521
(dp522
g74
(dp523
g82
I3
ssg83
g517
sg76
(lp524
S''
asbasbasbag69
(g85
g71
NtRp525
(dp526
g74
(dp527
sg83
g501
sg76
(lp528
g69
(g90
g71
NtRp529
(dp530
g74
(dp531
g94
g95
ssg83
g525
sg76
(lp532
g340
asbag69
(g90
g71
NtRp533
(dp534
g74
(dp535
g101
g102
ssg83
g525
sg76
(lp536
S':'
asbag69
(g90
g71
NtRp537
(dp538
g74
(dp539
sg83
g525
sg76
(lp540
g69
(g70
g71
NtRp541
(dp542
g74
(dp543
g82
I3
ssg83
g537
sg76
(lp544
S''
asbasbasbag69
(g85
g71
NtRp545
(dp546
g74
(dp547
sg83
g501
sg76
(lp548
g69
(g90
g71
NtRp549
(dp550
g74
(dp551
g94
g95
ssg83
g545
sg76
(lp552
g361
asbag69
(g90
g71
NtRp553
(dp554
g74
(dp555
g101
g102
ssg83
g545
sg76
(lp556
S':'
asbag69
(g90
g71
NtRp557
(dp558
g74
(dp559
sg83
g545
sg76
(lp560
g69
(g70
g71
NtRp561
(dp562
g74
(dp563
g82
I3
ssg83
g557
sg76
(lp564
S''
asbasbasbag69
(g85
g71
NtRp565
(dp566
g74
(dp567
sg83
g501
sg76
(lp568
g69
(g90
g71
NtRp569
(dp570
g74
(dp571
g94
g95
ssg83
g565
sg76
(lp572
g382
asbag69
(g90
g71
NtRp573
(dp574
g74
(dp575
g101
g102
ssg83
g565
sg76
(lp576
S':'
asbag69
(g90
g71
NtRp577
(dp578
g74
(dp579
sg83
g565
sg76
(lp580
g69
(g70
g71
NtRp581
(dp582
g74
(dp583
g82
I3
ssg83
g577
sg76
(lp584
S''
asbasbasbag69
(g85
g71
NtRp585
(dp586
g74
(dp587
sg83
g501
sg76
(lp588
g69
(g90
g71
NtRp589
(dp590
g74
(dp591
g94
g95
ssg83
g585
sg76
(lp592
g403
asbag69
(g90
g71
NtRp593
(dp594
g74
(dp595
g101
g102
ssg83
g585
sg76
(lp596
S':'
asbag69
(g90
g71
NtRp597
(dp598
g74
(dp599
sg83
g585
sg76
(lp600
g69
(g70
g71
NtRp601
(dp602
g74
(dp603
g82
I3
ssg83
g597
sg76
(lp604
S''
asbasbasbag69
(g85
g71
NtRp605
(dp606
g74
(dp607
sg83
g501
sg76
(lp608
g69
(g90
g71
NtRp609
(dp610
g74
(dp611
g94
g95
ssg83
g605
sg76
(lp612
g424
asbag69
(g90
g71
NtRp613
(dp614
g74
(dp615
g101
g102
ssg83
g605
sg76
(lp616
S':'
asbag69
(g90
g71
NtRp617
(dp618
g74
(dp619
sg83
g605
sg76
(lp620
g69
(g70
g71
NtRp621
(dp622
g74
(dp623
g82
I3
ssg83
g617
sg76
(lp624
S''
asbasbasbag69
(g85
g71
NtRp625
(dp626
g74
(dp627
sg83
g501
sg76
(lp628
g69
(g90
g71
NtRp629
(dp630
g74
(dp631
g94
g95
ssg83
g625
sg76
(lp632
g445
asbag69
(g90
g71
NtRp633
(dp634
g74
(dp635
g101
g102
ssg83
g625
sg76
(lp636
S':'
asbag69
(g90
g71
NtRp637
(dp638
g74
(dp639
sg83
g625
sg76
(lp640
g69
(g70
g71
NtRp641
(dp642
g74
(dp643
g82
I3
ssg83
g637
sg76
(lp644
S''
asbasbasbag69
(g85
g71
NtRp645
(dp646
g74
(dp647
sg83
g501
sg76
(lp648
g69
(g90
g71
NtRp649
(dp650
g74
(dp651
g94
g95
ssg83
g645
sg76
(lp652
g466
asbag69
(g90
g71
NtRp653
(dp654
g74
(dp655
g101
g102
ssg83
g645
sg76
(lp656
S':'
asbag69
(g90
g71
NtRp657
(dp658
g74
(dp659
sg83
g645
sg76
(lp660
g69
(g70
g71
NtRp661
(dp662
g74
(dp663
g82
I3
ssg83
g657
sg76
(lp664
S''
asbasbasbasbasbasbasbag69
(g85
g71
NtRp665
(dp666
g74
(dp667
sg83
g281
sg76
(lp668
g69
(g90
g71
NtRp669
(dp670
g74
(dp671
g94
g95
ssg83
g665
sg76
(lp672
S'session_id_assignment_2'
p673
asbag69
(g90
g71
NtRp674
(dp675
g74
(dp676
g101
g102
ssg83
g665
sg76
(lp677
S':'
asbag69
(g90
g71
NtRp678
(dp679
g74
(dp680
sg83
g665
sg76
(lp681
g69
(g70
g71
NtRp682
(dp683
g74
(dp684
g82
I4
ssg83
g678
sg76
(lp685
S'127.0.0.1-bcd2b8d9-c8d9-4f65-ab99-ba46e4e5bf32'
p686
ag69
(g78
g71
NtRp687
(dp688
g74
(dp689
g82
I3
ssg83
Nsg76
(lp690
g69
(g85
g71
NtRp691
(dp692
g74
(dp693
sg83
g687
sg76
(lp694
g69
(g90
g71
NtRp695
(dp696
g74
(dp697
g94
g95
ssg83
g691
sg76
(lp698
g319
asbag69
(g90
g71
NtRp699
(dp700
g74
(dp701
g101
g102
ssg83
g691
sg76
(lp702
S':'
asbag69
(g90
g71
NtRp703
(dp704
g74
(dp705
sg83
g691
sg76
(lp706
g69
(g70
g71
NtRp707
(dp708
g74
(dp709
g82
I3
ssg83
g703
sg76
(lp710
S''
asbasbasbag69
(g85
g71
NtRp711
(dp712
g74
(dp713
sg83
g687
sg76
(lp714
g69
(g90
g71
NtRp715
(dp716
g74
(dp717
g94
g95
ssg83
g711
sg76
(lp718
g340
asbag69
(g90
g71
NtRp719
(dp720
g74
(dp721
g101
g102
ssg83
g711
sg76
(lp722
S':'
asbag69
(g90
g71
NtRp723
(dp724
g74
(dp725
sg83
g711
sg76
(lp726
g69
(g70
g71
NtRp727
(dp728
g74
(dp729
g82
I3
ssg83
g723
sg76
(lp730
S''
asbasbasbag69
(g85
g71
NtRp731
(dp732
g74
(dp733
sg83
g687
sg76
(lp734
g69
(g90
g71
NtRp735
(dp736
g74
(dp737
g94
g95
ssg83
g731
sg76
(lp738
g361
asbag69
(g90
g71
NtRp739
(dp740
g74
(dp741
g101
g102
ssg83
g731
sg76
(lp742
S':'
asbag69
(g90
g71
NtRp743
(dp744
g74
(dp745
sg83
g731
sg76
(lp746
g69
(g70
g71
NtRp747
(dp748
g74
(dp749
g82
I3
ssg83
g743
sg76
(lp750
S''
asbasbasbag69
(g85
g71
NtRp751
(dp752
g74
(dp753
sg83
g687
sg76
(lp754
g69
(g90
g71
NtRp755
(dp756
g74
(dp757
g94
g95
ssg83
g751
sg76
(lp758
g382
asbag69
(g90
g71
NtRp759
(dp760
g74
(dp761
g101
g102
ssg83
g751
sg76
(lp762
S':'
asbag69
(g90
g71
NtRp763
(dp764
g74
(dp765
sg83
g751
sg76
(lp766
g69
(g70
g71
NtRp767
(dp768
g74
(dp769
g82
I3
ssg83
g763
sg76
(lp770
S''
asbasbasbag69
(g85
g71
NtRp771
(dp772
g74
(dp773
sg83
g687
sg76
(lp774
g69
(g90
g71
NtRp775
(dp776
g74
(dp777
g94
g95
ssg83
g771
sg76
(lp778
g403
asbag69
(g90
g71
NtRp779
(dp780
g74
(dp781
g101
g102
ssg83
g771
sg76
(lp782
S':'
asbag69
(g90
g71
NtRp783
(dp784
g74
(dp785
sg83
g771
sg76
(lp786
g69
(g70
g71
NtRp787
(dp788
g74
(dp789
g82
I3
ssg83
g783
sg76
(lp790
S''
asbasbasbag69
(g85
g71
NtRp791
(dp792
g74
(dp793
sg83
g687
sg76
(lp794
g69
(g90
g71
NtRp795
(dp796
g74
(dp797
g94
g95
ssg83
g791
sg76
(lp798
g424
asbag69
(g90
g71
NtRp799
(dp800
g74
(dp801
g101
g102
ssg83
g791
sg76
(lp802
S':'
asbag69
(g90
g71
NtRp803
(dp804
g74
(dp805
sg83
g791
sg76
(lp806
g69
(g70
g71
NtRp807
(dp808
g74
(dp809
g82
I3
ssg83
g803
sg76
(lp810
S''
asbasbasbag69
(g85
g71
NtRp811
(dp812
g74
(dp813
sg83
g687
sg76
(lp814
g69
(g90
g71
NtRp815
(dp816
g74
(dp817
g94
g95
ssg83
g811
sg76
(lp818
g445
asbag69
(g90
g71
NtRp819
(dp820
g74
(dp821
g101
g102
ssg83
g811
sg76
(lp822
S':'
asbag69
(g90
g71
NtRp823
(dp824
g74
(dp825
sg83
g811
sg76
(lp826
g69
(g70
g71
NtRp827
(dp828
g74
(dp829
g82
I3
ssg83
g823
sg76
(lp830
S''
asbasbasbag69
(g85
g71
NtRp831
(dp832
g74
(dp833
sg83
g687
sg76
(lp834
g69
(g90
g71
NtRp835
(dp836
g74
(dp837
g94
g95
ssg83
g831
sg76
(lp838
g466
asbag69
(g90
g71
NtRp839
(dp840
g74
(dp841
g101
g102
ssg83
g831
sg76
(lp842
S':'
asbag69
(g90
g71
NtRp843
(dp844
g74
(dp845
sg83
g831
sg76
(lp846
g69
(g70
g71
NtRp847
(dp848
g74
(dp849
g82
I3
ssg83
g843
sg76
(lp850
S''
asbasbasbasbasbasbasbag69
(g85
g71
NtRp851
(dp852
g74
(dp853
sg83
g281
sg76
(lp854
g69
(g90
g71
NtRp855
(dp856
g74
(dp857
g94
g95
ssg83
g851
sg76
(lp858
S'session_id_welcome'
p859
asbag69
(g90
g71
NtRp860
(dp861
g74
(dp862
g101
g102
ssg83
g851
sg76
(lp863
S':'
asbag69
(g90
g71
NtRp864
(dp865
g74
(dp866
sg83
g851
sg76
(lp867
g69
(g70
g71
NtRp868
(dp869
g74
(dp870
g82
I4
ssg83
g864
sg76
(lp871
S'127.0.0.1-4cfcda75-ef1b-4460-b352-c871cedf5e2e'
p872
ag69
(g78
g71
NtRp873
(dp874
g74
(dp875
g82
I3
ssg83
Nsg76
(lp876
g69
(g85
g71
NtRp877
(dp878
g74
(dp879
sg83
g873
sg76
(lp880
g69
(g90
g71
NtRp881
(dp882
g74
(dp883
g94
g95
ssg83
g877
sg76
(lp884
g319
asbag69
(g90
g71
NtRp885
(dp886
g74
(dp887
g101
g102
ssg83
g877
sg76
(lp888
S':'
asbag69
(g90
g71
NtRp889
(dp890
g74
(dp891
sg83
g877
sg76
(lp892
g69
(g70
g71
NtRp893
(dp894
g74
(dp895
g82
I3
ssg83
g889
sg76
(lp896
S''
asbasbasbag69
(g85
g71
NtRp897
(dp898
g74
(dp899
sg83
g873
sg76
(lp900
g69
(g90
g71
NtRp901
(dp902
g74
(dp903
g94
g95
ssg83
g897
sg76
(lp904
g340
asbag69
(g90
g71
NtRp905
(dp906
g74
(dp907
g101
g102
ssg83
g897
sg76
(lp908
S':'
asbag69
(g90
g71
NtRp909
(dp910
g74
(dp911
sg83
g897
sg76
(lp912
g69
(g70
g71
NtRp913
(dp914
g74
(dp915
g82
I3
ssg83
g909
sg76
(lp916
S''
asbasbasbag69
(g85
g71
NtRp917
(dp918
g74
(dp919
sg83
g873
sg76
(lp920
g69
(g90
g71
NtRp921
(dp922
g74
(dp923
g94
g95
ssg83
g917
sg76
(lp924
g361
asbag69
(g90
g71
NtRp925
(dp926
g74
(dp927
g101
g102
ssg83
g917
sg76
(lp928
S':'
asbag69
(g90
g71
NtRp929
(dp930
g74
(dp931
sg83
g917
sg76
(lp932
g69
(g70
g71
NtRp933
(dp934
g74
(dp935
g82
I3
ssg83
g929
sg76
(lp936
S''
asbasbasbag69
(g85
g71
NtRp937
(dp938
g74
(dp939
sg83
g873
sg76
(lp940
g69
(g90
g71
NtRp941
(dp942
g74
(dp943
g94
g95
ssg83
g937
sg76
(lp944
g382
asbag69
(g90
g71
NtRp945
(dp946
g74
(dp947
g101
g102
ssg83
g937
sg76
(lp948
S':'
asbag69
(g90
g71
NtRp949
(dp950
g74
(dp951
sg83
g937
sg76
(lp952
g69
(g70
g71
NtRp953
(dp954
g74
(dp955
g82
I3
ssg83
g949
sg76
(lp956
S''
asbasbasbag69
(g85
g71
NtRp957
(dp958
g74
(dp959
sg83
g873
sg76
(lp960
g69
(g90
g71
NtRp961
(dp962
g74
(dp963
g94
g95
ssg83
g957
sg76
(lp964
g403
asbag69
(g90
g71
NtRp965
(dp966
g74
(dp967
g101
g102
ssg83
g957
sg76
(lp968
S':'
asbag69
(g90
g71
NtRp969
(dp970
g74
(dp971
sg83
g957
sg76
(lp972
g69
(g70
g71
NtRp973
(dp974
g74
(dp975
g82
I3
ssg83
g969
sg76
(lp976
S''
asbasbasbag69
(g85
g71
NtRp977
(dp978
g74
(dp979
sg83
g873
sg76
(lp980
g69
(g90
g71
NtRp981
(dp982
g74
(dp983
g94
g95
ssg83
g977
sg76
(lp984
g424
asbag69
(g90
g71
NtRp985
(dp986
g74
(dp987
g101
g102
ssg83
g977
sg76
(lp988
S':'
asbag69
(g90
g71
NtRp989
(dp990
g74
(dp991
sg83
g977
sg76
(lp992
g69
(g70
g71
NtRp993
(dp994
g74
(dp995
g82
I3
ssg83
g989
sg76
(lp996
S''
asbasbasbag69
(g85
g71
NtRp997
(dp998
g74
(dp999
sg83
g873
sg76
(lp1000
g69
(g90
g71
NtRp1001
(dp1002
g74
(dp1003
g94
g95
ssg83
g997
sg76
(lp1004
g445
asbag69
(g90
g71
NtRp1005
(dp1006
g74
(dp1007
g101
g102
ssg83
g997
sg76
(lp1008
S':'
asbag69
(g90
g71
NtRp1009
(dp1010
g74
(dp1011
sg83
g997
sg76
(lp1012
g69
(g70
g71
NtRp1013
(dp1014
g74
(dp1015
g82
I3
ssg83
g1009
sg76
(lp1016
S''
asbasbasbag69
(g85
g71
NtRp1017
(dp1018
g74
(dp1019
sg83
g873
sg76
(lp1020
g69
(g90
g71
NtRp1021
(dp1022
g74
(dp1023
g94
g95
ssg83
g1017
sg76
(lp1024
g466
asbag69
(g90
g71
NtRp1025
(dp1026
g74
(dp1027
g101
g102
ssg83
g1017
sg76
(lp1028
S':'
asbag69
(g90
g71
NtRp1029
(dp1030
g74
(dp1031
sg83
g1017
sg76
(lp1032
g69
(g70
g71
NtRp1033
(dp1034
g74
(dp1035
g82
I3
ssg83
g1029
sg76
(lp1036
S''
asbasbasbasbasbasbasbasbasbasbasbag69
(g85
g71
NtRp1037
(dp1038
g74
(dp1039
sg83
g79
sg76
(lp1040
g69
(g90
g71
NtRp1041
(dp1042
g74
(dp1043
g94
g95
ssg83
g1037
sg76
(lp1044
S'env'
p1045
asbag69
(g90
g71
NtRp1046
(dp1047
g74
(dp1048
g101
g102
ssg83
g1037
sg76
(lp1049
S':'
asbag69
(g90
g71
NtRp1050
(dp1051
g74
(dp1052
sg83
g1037
sg76
(lp1053
g69
(g70
g71
NtRp1054
(dp1055
g74
(dp1056
g82
I5
ssg83
g1050
sg76
(lp1057
g69
(g78
g71
NtRp1058
(dp1059
g74
(dp1060
g82
I4
ssg83
Nsg76
(lp1061
g69
(g85
g71
NtRp1062
(dp1063
g74
(dp1064
sg83
g1058
sg76
(lp1065
g69
(g90
g71
NtRp1066
(dp1067
g74
(dp1068
g94
g95
ssg83
g1062
sg76
(lp1069
S'app_folders'
p1070
asbag69
(g90
g71
NtRp1071
(dp1072
g74
(dp1073
g101
g102
ssg83
g1062
sg76
(lp1074
S':'
asbag69
(g90
g71
NtRp1075
(dp1076
g74
(dp1077
sg83
g1062
sg76
(lp1078
g69
(g70
g71
NtRp1079
(dp1080
g74
(dp1081
g82
I4
ssg83
g1075
sg76
(lp1082
S"set(['/home/shipra/Desktop/Semester 1.2/ITWS-2/web2py/applications/Assignment_2/', '/home/shipra/Desktop/Semester 1.2/ITWS-2/web2py/applications/welcome/', '/home/shipra/Desktop/Semester 1.2/ITWS-2/web2py/applications/admin/'])"
p1083
asbasbasbag69
(g85
g71
NtRp1084
(dp1085
g74
(dp1086
sg83
g1058
sg76
(lp1087
g69
(g90
g71
NtRp1088
(dp1089
g74
(dp1090
g94
g95
ssg83
g1084
sg76
(lp1091
S'applications_parent'
p1092
asbag69
(g90
g71
NtRp1093
(dp1094
g74
(dp1095
g101
g102
ssg83
g1084
sg76
(lp1096
S':'
asbag69
(g90
g71
NtRp1097
(dp1098
g74
(dp1099
sg83
g1084
sg76
(lp1100
g69
(g70
g71
NtRp1101
(dp1102
g74
(dp1103
g82
I4
ssg83
g1097
sg76
(lp1104
S'/home/shipra/Desktop/Semester 1.2/ITWS-2/web2py'
p1105
asbasbasbag69
(g85
g71
NtRp1106
(dp1107
g74
(dp1108
sg83
g1058
sg76
(lp1109
g69
(g90
g71
NtRp1110
(dp1111
g74
(dp1112
g94
g95
ssg83
g1106
sg76
(lp1113
S'cmd_args'
p1114
asbag69
(g90
g71
NtRp1115
(dp1116
g74
(dp1117
g101
g102
ssg83
g1106
sg76
(lp1118
S':'
asbag69
(g90
g71
NtRp1119
(dp1120
g74
(dp1121
sg83
g1106
sg76
(lp1122
g69
(g70
g71
NtRp1123
(dp1124
g74
(dp1125
g82
I4
ssg83
g1119
sg76
(lp1126
g69
(g78
g71
NtRp1127
(dp1128
g74
(dp1129
g82
I3
ssg83
Nsg76
(lp1130
sbasbasbasbag69
(g85
g71
NtRp1131
(dp1132
g74
(dp1133
sg83
g1058
sg76
(lp1134
g69
(g90
g71
NtRp1135
(dp1136
g74
(dp1137
g94
g95
ssg83
g1131
sg76
(lp1138
S'cmd_options'
p1139
asbag69
(g90
g71
NtRp1140
(dp1141
g74
(dp1142
g101
g102
ssg83
g1131
sg76
(lp1143
S':'
asbag69
(g90
g71
NtRp1144
(dp1145
g74
(dp1146
sg83
g1131
sg76
(lp1147
g69
(g70
g71
NtRp1148
(dp1149
g74
(dp1150
g82
I4
ssg83
g1144
sg76
(lp1151
S"<Values at 0x2333290: {'verbose': False, 'ip': '127.0.0.1', 'with_scheduler': False, 'ips': ['192.168.122.1'], 'shutdown_timeout': 5, 'taskbar': False, 'port': 8000, 'maxthreads': None, 'softcron': False, 'server_name': 'shipra', 'bpython': False, 'nogui': False, 'pid_filename': 'httpserver.pid', 'extcron': False, 'runcron': False, 'run_system_tests': False, 'test': None, 'folder': '/home/shipra/Desktop/Semester 1.2/ITWS-2/web2py', 'config': '', 'minthreads': None, 'winservice': '', 'shell': None, 'run': '', 'log_filename': 'httpserver.log', 'debuglevel': 30, 'args': [''], 'socket_timeout': 5, 'ssl_ca_certificate': None, 'scheduler': None, 'profiler_filename': None, 'ssl_private_key': '', 'scheduler_groups': None, 'password': '<ask>', 'request_queue_size': 5, 'ssl_certificate': '', 'cronjob': False, 'numthreads': None, 'quiet': False, 'interfaces': None, 'import_models': False, 'timeout': 10, 'plain': False, 'nobanner': False}>"
p1152
asbasbasbag69
(g85
g71
NtRp1153
(dp1154
g74
(dp1155
sg83
g1058
sg76
(lp1156
g69
(g90
g71
NtRp1157
(dp1158
g74
(dp1159
g94
g95
ssg83
g1153
sg76
(lp1160
S'db_sessions'
p1161
asbag69
(g90
g71
NtRp1162
(dp1163
g74
(dp1164
g101
g102
ssg83
g1153
sg76
(lp1165
S':'
asbag69
(g90
g71
NtRp1166
(dp1167
g74
(dp1168
sg83
g1153
sg76
(lp1169
g69
(g70
g71
NtRp1170
(dp1171
g74
(dp1172
g82
I4
ssg83
g1166
sg76
(lp1173
S'set([])'
p1174
asbasbasbag69
(g85
g71
NtRp1175
(dp1176
g74
(dp1177
sg83
g1058
sg76
(lp1178
g69
(g90
g71
NtRp1179
(dp1180
g74
(dp1181
g94
g95
ssg83
g1175
sg76
(lp1182
S'debugging'
p1183
asbag69
(g90
g71
NtRp1184
(dp1185
g74
(dp1186
g101
g102
ssg83
g1175
sg76
(lp1187
S':'
asbag69
(g90
g71
NtRp1188
(dp1189
g74
(dp1190
sg83
g1175
sg76
(lp1191
g69
(g70
g71
NtRp1192
(dp1193
g74
(dp1194
g82
I4
ssg83
g1188
sg76
(lp1195
g112
asbasbasbag69
(g85
g71
NtRp1196
(dp1197
g74
(dp1198
sg83
g1058
sg76
(lp1199
g69
(g90
g71
NtRp1200
(dp1201
g74
(dp1202
g94
g95
ssg83
g1196
sg76
(lp1203
S'gluon_parent'
p1204
asbag69
(g90
g71
NtRp1205
(dp1206
g74
(dp1207
g101
g102
ssg83
g1196
sg76
(lp1208
S':'
asbag69
(g90
g71
NtRp1209
(dp1210
g74
(dp1211
sg83
g1196
sg76
(lp1212
g69
(g70
g71
NtRp1213
(dp1214
g74
(dp1215
g82
I4
ssg83
g1209
sg76
(lp1216
S'/home/shipra/Desktop/Semester 1.2/ITWS-2/web2py'
p1217
asbasbasbag69
(g85
g71
NtRp1218
(dp1219
g74
(dp1220
sg83
g1058
sg76
(lp1221
g69
(g90
g71
NtRp1222
(dp1223
g74
(dp1224
g94
g95
ssg83
g1218
sg76
(lp1225
S'http_accept'
p1226
asbag69
(g90
g71
NtRp1227
(dp1228
g74
(dp1229
g101
g102
ssg83
g1218
sg76
(lp1230
S':'
asbag69
(g90
g71
NtRp1231
(dp1232
g74
(dp1233
sg83
g1218
sg76
(lp1234
g69
(g70
g71
NtRp1235
(dp1236
g74
(dp1237
g82
I4
ssg83
g1231
sg76
(lp1238
S'text/html,application/xhtml+xml,application/xml;q=0.9,*/*;q=0.8'
p1239
asbasbasbag69
(g85
g71
NtRp1240
(dp1241
g74
(dp1242
sg83
g1058
sg76
(lp1243
g69
(g90
g71
NtRp1244
(dp1245
g74
(dp1246
g94
g95
ssg83
g1240
sg76
(lp1247
S'http_accept_encoding'
p1248
asbag69
(g90
g71
NtRp1249
(dp1250
g74
(dp1251
g101
g102
ssg83
g1240
sg76
(lp1252
S':'
asbag69
(g90
g71
NtRp1253
(dp1254
g74
(dp1255
sg83
g1240
sg76
(lp1256
g69
(g70
g71
NtRp1257
(dp1258
g74
(dp1259
g82
I4
ssg83
g1253
sg76
(lp1260
S'gzip, deflate'
p1261
asbasbasbag69
(g85
g71
NtRp1262
(dp1263
g74
(dp1264
sg83
g1058
sg76
(lp1265
g69
(g90
g71
NtRp1266
(dp1267
g74
(dp1268
g94
g95
ssg83
g1262
sg76
(lp1269
S'http_accept_language'
p1270
asbag69
(g90
g71
NtRp1271
(dp1272
g74
(dp1273
g101
g102
ssg83
g1262
sg76
(lp1274
S':'
asbag69
(g90
g71
NtRp1275
(dp1276
g74
(dp1277
sg83
g1262
sg76
(lp1278
g69
(g70
g71
NtRp1279
(dp1280
g74
(dp1281
g82
I4
ssg83
g1275
sg76
(lp1282
S'en-us,en;q=0.5'
p1283
asbasbasbag69
(g85
g71
NtRp1284
(dp1285
g74
(dp1286
sg83
g1058
sg76
(lp1287
g69
(g90
g71
NtRp1288
(dp1289
g74
(dp1290
g94
g95
ssg83
g1284
sg76
(lp1291
S'http_connection'
p1292
asbag69
(g90
g71
NtRp1293
(dp1294
g74
(dp1295
g101
g102
ssg83
g1284
sg76
(lp1296
S':'
asbag69
(g90
g71
NtRp1297
(dp1298
g74
(dp1299
sg83
g1284
sg76
(lp1300
g69
(g70
g71
NtRp1301
(dp1302
g74
(dp1303
g82
I4
ssg83
g1297
sg76
(lp1304
S'keep-alive'
p1305
asbasbasbag69
(g85
g71
NtRp1306
(dp1307
g74
(dp1308
sg83
g1058
sg76
(lp1309
g69
(g90
g71
NtRp1310
(dp1311
g74
(dp1312
g94
g95
ssg83
g1306
sg76
(lp1313
S'http_cookie'
p1314
asbag69
(g90
g71
NtRp1315
(dp1316
g74
(dp1317
g101
g102
ssg83
g1306
sg76
(lp1318
S':'
asbag69
(g90
g71
NtRp1319
(dp1320
g74
(dp1321
sg83
g1306
sg76
(lp1322
g69
(g70
g71
NtRp1323
(dp1324
g74
(dp1325
g82
I4
ssg83
g1319
sg76
(lp1326
S'__utma=96992031.1334412862.1364672878.1364672878.1364718243.2; __utmz=96992031.1364672878.1.1.utmcsr=(direct)|utmccn=(direct)|utmcmd=(none); __lc.visitor_id.1195381=S1364672235.4faffcf2d2; __ar_v4=OWHSPOGHTNEIPPPBMHVFTA%3A20130329%3A12%7CAMEDRHI4VZG4TIA2AZ565D%3A20130329%3A12%7CWAEQXC4B2NH3DDBR3TZM6I%3A20130329%3A12; mp_2093ad9ff9c5428a2228386de2f2b0e4_mixpanel=%7B%22distinct_id%22%3A%20%2262ffc2d0-7b9f-0130-efb0-22000a1cbb2a%22%2C%22is_registered_user%22%3A%20false%2C%22%24initial_referrer%22%3A%20%22%24direct%22%2C%22%24initial_referring_domain%22%3A%20%22%24direct%22%7D; session_id_welcome=127.0.0.1-4cfcda75-ef1b-4460-b352-c871cedf5e2e; session_id_assignment_2=127.0.0.1-bcd2b8d9-c8d9-4f65-ab99-ba46e4e5bf32; session_id_admin=127.0.0.1-e2720d40-7ac5-42ed-b392-b058de438408'
p1327
asbasbasbag69
(g85
g71
NtRp1328
(dp1329
g74
(dp1330
sg83
g1058
sg76
(lp1331
g69
(g90
g71
NtRp1332
(dp1333
g74
(dp1334
g94
g95
ssg83
g1328
sg76
(lp1335
S'http_host'
p1336
asbag69
(g90
g71
NtRp1337
(dp1338
g74
(dp1339
g101
g102
ssg83
g1328
sg76
(lp1340
S':'
asbag69
(g90
g71
NtRp1341
(dp1342
g74
(dp1343
sg83
g1328
sg76
(lp1344
g69
(g70
g71
NtRp1345
(dp1346
g74
(dp1347
g82
I4
ssg83
g1341
sg76
(lp1348
S'127.0.0.1:8000'
p1349
asbasbasbag69
(g85
g71
NtRp1350
(dp1351
g74
(dp1352
sg83
g1058
sg76
(lp1353
g69
(g90
g71
NtRp1354
(dp1355
g74
(dp1356
g94
g95
ssg83
g1350
sg76
(lp1357
S'http_referer'
p1358
asbag69
(g90
g71
NtRp1359
(dp1360
g74
(dp1361
g101
g102
ssg83
g1350
sg76
(lp1362
S':'
asbag69
(g90
g71
NtRp1363
(dp1364
g74
(dp1365
sg83
g1350
sg76
(lp1366
g69
(g70
g71
NtRp1367
(dp1368
g74
(dp1369
g82
I4
ssg83
g1363
sg76
(lp1370
S'http://127.0.0.1:8000/Assignment_2/default/display'
p1371
asbasbasbag69
(g85
g71
NtRp1372
(dp1373
g74
(dp1374
sg83
g1058
sg76
(lp1375
g69
(g90
g71
NtRp1376
(dp1377
g74
(dp1378
g94
g95
ssg83
g1372
sg76
(lp1379
S'http_user_agent'
p1380
asbag69
(g90
g71
NtRp1381
(dp1382
g74
(dp1383
g101
g102
ssg83
g1372
sg76
(lp1384
S':'
asbag69
(g90
g71
NtRp1385
(dp1386
g74
(dp1387
sg83
g1372
sg76
(lp1388
g69
(g70
g71
NtRp1389
(dp1390
g74
(dp1391
g82
I4
ssg83
g1385
sg76
(lp1392
S'Mozilla/5.0 (X11; Linux x86_64; rv:12.0) Gecko/20100101 Firefox/12.0'
p1393
asbasbasbag69
(g85
g71
NtRp1394
(dp1395
g74
(dp1396
sg83
g1058
sg76
(lp1397
g69
(g90
g71
NtRp1398
(dp1399
g74
(dp1400
g94
g95
ssg83
g1394
sg76
(lp1401
S'is_jython'
p1402
asbag69
(g90
g71
NtRp1403
(dp1404
g74
(dp1405
g101
g102
ssg83
g1394
sg76
(lp1406
S':'
asbag69
(g90
g71
NtRp1407
(dp1408
g74
(dp1409
sg83
g1394
sg76
(lp1410
g69
(g70
g71
NtRp1411
(dp1412
g74
(dp1413
g82
I4
ssg83
g1407
sg76
(lp1414
g112
asbasbasbag69
(g85
g71
NtRp1415
(dp1416
g74
(dp1417
sg83
g1058
sg76
(lp1418
g69
(g90
g71
NtRp1419
(dp1420
g74
(dp1421
g94
g95
ssg83
g1415
sg76
(lp1422
S'is_pypy'
p1423
asbag69
(g90
g71
NtRp1424
(dp1425
g74
(dp1426
g101
g102
ssg83
g1415
sg76
(lp1427
S':'
asbag69
(g90
g71
NtRp1428
(dp1429
g74
(dp1430
sg83
g1415
sg76
(lp1431
g69
(g70
g71
NtRp1432
(dp1433
g74
(dp1434
g82
I4
ssg83
g1428
sg76
(lp1435
g112
asbasbasbag69
(g85
g71
NtRp1436
(dp1437
g74
(dp1438
sg83
g1058
sg76
(lp1439
g69
(g90
g71
NtRp1440
(dp1441
g74
(dp1442
g94
g95
ssg83
g1436
sg76
(lp1443
S'local_hosts'
p1444
asbag69
(g90
g71
NtRp1445
(dp1446
g74
(dp1447
g101
g102
ssg83
g1436
sg76
(lp1448
S':'
asbag69
(g90
g71
NtRp1449
(dp1450
g74
(dp1451
sg83
g1436
sg76
(lp1452
g69
(g70
g71
NtRp1453
(dp1454
g74
(dp1455
g82
I4
ssg83
g1449
sg76
(lp1456
g69
(g78
g71
NtRp1457
(dp1458
g74
(dp1459
g82
I3
ssg83
Nsg76
(lp1460
g69
(g85
g71
NtRp1461
(dp1462
g74
(dp1463
sg83
g1457
sg76
(lp1464
g69
(g90
g71
NtRp1465
(dp1466
g74
(dp1467
sg83
g1461
sg76
(lp1468
g69
(g70
g71
NtRp1469
(dp1470
g74
(dp1471
g82
I3
ssg83
g1465
sg76
(lp1472
S'::1'
p1473
asbasbasbag69
(g85
g71
NtRp1474
(dp1475
g74
(dp1476
sg83
g1457
sg76
(lp1477
g69
(g90
g71
NtRp1478
(dp1479
g74
(dp1480
sg83
g1474
sg76
(lp1481
g69
(g70
g71
NtRp1482
(dp1483
g74
(dp1484
g82
I3
ssg83
g1478
sg76
(lp1485
S'192.168.122.1'
p1486
asbasbasbag69
(g85
g71
NtRp1487
(dp1488
g74
(dp1489
sg83
g1457
sg76
(lp1490
g69
(g90
g71
NtRp1491
(dp1492
g74
(dp1493
sg83
g1487
sg76
(lp1494
g69
(g70
g71
NtRp1495
(dp1496
g74
(dp1497
g82
I3
ssg83
g1491
sg76
(lp1498
S'::ffff:127.0.0.1'
p1499
asbasbasbag69
(g85
g71
NtRp1500
(dp1501
g74
(dp1502
sg83
g1457
sg76
(lp1503
g69
(g90
g71
NtRp1504
(dp1505
g74
(dp1506
sg83
g1500
sg76
(lp1507
g69
(g70
g71
NtRp1508
(dp1509
g74
(dp1510
g82
I3
ssg83
g1504
sg76
(lp1511
S'127.0.0.1'
p1512
asbasbasbag69
(g85
g71
NtRp1513
(dp1514
g74
(dp1515
sg83
g1457
sg76
(lp1516
g69
(g90
g71
NtRp1517
(dp1518
g74
(dp1519
sg83
g1513
sg76
(lp1520
g69
(g70
g71
NtRp1521
(dp1522
g74
(dp1523
g82
I3
ssg83
g1517
sg76
(lp1524
S'shipra'
p1525
asbasbasbasbasbasbasbag69
(g85
g71
NtRp1526
(dp1527
g74
(dp1528
sg83
g1058
sg76
(lp1529
g69
(g90
g71
NtRp1530
(dp1531
g74
(dp1532
g94
g95
ssg83
g1526
sg76
(lp1533
S'path_info'
p1534
asbag69
(g90
g71
NtRp1535
(dp1536
g74
(dp1537
g101
g102
ssg83
g1526
sg76
(lp1538
S':'
asbag69
(g90
g71
NtRp1539
(dp1540
g74
(dp1541
sg83
g1526
sg76
(lp1542
g69
(g70
g71
NtRp1543
(dp1544
g74
(dp1545
g82
I4
ssg83
g1539
sg76
(lp1546
S'/Assignment_2/default/categ_display/World'
p1547
asbasbasbag69
(g85
g71
NtRp1548
(dp1549
g74
(dp1550
sg83
g1058
sg76
(lp1551
g69
(g90
g71
NtRp1552
(dp1553
g74
(dp1554
g94
g95
ssg83
g1548
sg76
(lp1555
S'query_string'
p1556
asbag69
(g90
g71
NtRp1557
(dp1558
g74
(dp1559
g101
g102
ssg83
g1548
sg76
(lp1560
S':'
asbag69
(g90
g71
NtRp1561
(dp1562
g74
(dp1563
sg83
g1548
sg76
(lp1564
g69
(g70
g71
NtRp1565
(dp1566
g74
(dp1567
g82
I4
ssg83
g1561
sg76
(lp1568
S''
asbasbasbag69
(g85
g71
NtRp1569
(dp1570
g74
(dp1571
sg83
g1058
sg76
(lp1572
g69
(g90
g71
NtRp1573
(dp1574
g74
(dp1575
g94
g95
ssg83
g1569
sg76
(lp1576
S'remote_addr'
p1577
asbag69
(g90
g71
NtRp1578
(dp1579
g74
(dp1580
g101
g102
ssg83
g1569
sg76
(lp1581
S':'
asbag69
(g90
g71
NtRp1582
(dp1583
g74
(dp1584
sg83
g1569
sg76
(lp1585
g69
(g70
g71
NtRp1586
(dp1587
g74
(dp1588
g82
I4
ssg83
g1582
sg76
(lp1589
g237
asbasbasbag69
(g85
g71
NtRp1590
(dp1591
g74
(dp1592
sg83
g1058
sg76
(lp1593
g69
(g90
g71
NtRp1594
(dp1595
g74
(dp1596
g94
g95
ssg83
g1590
sg76
(lp1597
S'remote_port'
p1598
asbag69
(g90
g71
NtRp1599
(dp1600
g74
(dp1601
g101
g102
ssg83
g1590
sg76
(lp1602
S':'
asbag69
(g90
g71
NtRp1603
(dp1604
g74
(dp1605
sg83
g1590
sg76
(lp1606
g69
(g70
g71
NtRp1607
(dp1608
g74
(dp1609
g82
I4
ssg83
g1603
sg76
(lp1610
S'57526'
p1611
asbasbasbag69
(g85
g71
NtRp1612
(dp1613
g74
(dp1614
sg83
g1058
sg76
(lp1615
g69
(g90
g71
NtRp1616
(dp1617
g74
(dp1618
g94
g95
ssg83
g1612
sg76
(lp1619
S'request_method'
p1620
asbag69
(g90
g71
NtRp1621
(dp1622
g74
(dp1623
g101
g102
ssg83
g1612
sg76
(lp1624
S':'
asbag69
(g90
g71
NtRp1625
(dp1626
g74
(dp1627
sg83
g1612
sg76
(lp1628
g69
(g70
g71
NtRp1629
(dp1630
g74
(dp1631
g82
I4
ssg83
g1625
sg76
(lp1632
S'GET'
p1633
asbasbasbag69
(g85
g71
NtRp1634
(dp1635
g74
(dp1636
sg83
g1058
sg76
(lp1637
g69
(g90
g71
NtRp1638
(dp1639
g74
(dp1640
g94
g95
ssg83
g1634
sg76
(lp1641
S'request_uri'
p1642
asbag69
(g90
g71
NtRp1643
(dp1644
g74
(dp1645
g101
g102
ssg83
g1634
sg76
(lp1646
S':'
asbag69
(g90
g71
NtRp1647
(dp1648
g74
(dp1649
sg83
g1634
sg76
(lp1650
g69
(g70
g71
NtRp1651
(dp1652
g74
(dp1653
g82
I4
ssg83
g1647
sg76
(lp1654
g1547
asbasbasbag69
(g85
g71
NtRp1655
(dp1656
g74
(dp1657
sg83
g1058
sg76
(lp1658
g69
(g90
g71
NtRp1659
(dp1660
g74
(dp1661
g94
g95
ssg83
g1655
sg76
(lp1662
S'script_name'
p1663
asbag69
(g90
g71
NtRp1664
(dp1665
g74
(dp1666
g101
g102
ssg83
g1655
sg76
(lp1667
S':'
asbag69
(g90
g71
NtRp1668
(dp1669
g74
(dp1670
sg83
g1655
sg76
(lp1671
g69
(g70
g71
NtRp1672
(dp1673
g74
(dp1674
g82
I4
ssg83
g1668
sg76
(lp1675
S''
asbasbasbag69
(g85
g71
NtRp1676
(dp1677
g74
(dp1678
sg83
g1058
sg76
(lp1679
g69
(g90
g71
NtRp1680
(dp1681
g74
(dp1682
g94
g95
ssg83
g1676
sg76
(lp1683
S'server_name'
p1684
asbag69
(g90
g71
NtRp1685
(dp1686
g74
(dp1687
g101
g102
ssg83
g1676
sg76
(lp1688
S':'
asbag69
(g90
g71
NtRp1689
(dp1690
g74
(dp1691
sg83
g1676
sg76
(lp1692
g69
(g70
g71
NtRp1693
(dp1694
g74
(dp1695
g82
I4
ssg83
g1689
sg76
(lp1696
S'shipra'
p1697
asbasbasbag69
(g85
g71
NtRp1698
(dp1699
g74
(dp1700
sg83
g1058
sg76
(lp1701
g69
(g90
g71
NtRp1702
(dp1703
g74
(dp1704
g94
g95
ssg83
g1698
sg76
(lp1705
S'server_port'
p1706
asbag69
(g90
g71
NtRp1707
(dp1708
g74
(dp1709
g101
g102
ssg83
g1698
sg76
(lp1710
S':'
asbag69
(g90
g71
NtRp1711
(dp1712
g74
(dp1713
sg83
g1698
sg76
(lp1714
g69
(g70
g71
NtRp1715
(dp1716
g74
(dp1717
g82
I4
ssg83
g1711
sg76
(lp1718
S'8000'
p1719
asbasbasbag69
(g85
g71
NtRp1720
(dp1721
g74
(dp1722
sg83
g1058
sg76
(lp1723
g69
(g90
g71
NtRp1724
(dp1725
g74
(dp1726
g94
g95
ssg83
g1720
sg76
(lp1727
S'server_protocol'
p1728
asbag69
(g90
g71
NtRp1729
(dp1730
g74
(dp1731
g101
g102
ssg83
g1720
sg76
(lp1732
S':'
asbag69
(g90
g71
NtRp1733
(dp1734
g74
(dp1735
sg83
g1720
sg76
(lp1736
g69
(g70
g71
NtRp1737
(dp1738
g74
(dp1739
g82
I4
ssg83
g1733
sg76
(lp1740
S'HTTP/1.1'
p1741
asbasbasbag69
(g85
g71
NtRp1742
(dp1743
g74
(dp1744
sg83
g1058
sg76
(lp1745
g69
(g90
g71
NtRp1746
(dp1747
g74
(dp1748
g94
g95
ssg83
g1742
sg76
(lp1749
S'server_software'
p1750
asbag69
(g90
g71
NtRp1751
(dp1752
g74
(dp1753
g101
g102
ssg83
g1742
sg76
(lp1754
S':'
asbag69
(g90
g71
NtRp1755
(dp1756
g74
(dp1757
sg83
g1742
sg76
(lp1758
g69
(g70
g71
NtRp1759
(dp1760
g74
(dp1761
g82
I4
ssg83
g1755
sg76
(lp1762
S'Rocket 1.2.6'
p1763
asbasbasbag69
(g85
g71
NtRp1764
(dp1765
g74
(dp1766
sg83
g1058
sg76
(lp1767
g69
(g90
g71
NtRp1768
(dp1769
g74
(dp1770
g94
g95
ssg83
g1764
sg76
(lp1771
S'web2py_path'
p1772
asbag69
(g90
g71
NtRp1773
(dp1774
g74
(dp1775
g101
g102
ssg83
g1764
sg76
(lp1776
S':'
asbag69
(g90
g71
NtRp1777
(dp1778
g74
(dp1779
sg83
g1764
sg76
(lp1780
g69
(g70
g71
NtRp1781
(dp1782
g74
(dp1783
g82
I4
ssg83
g1777
sg76
(lp1784
g1105
asbasbasbag69
(g85
g71
NtRp1785
(dp1786
g74
(dp1787
sg83
g1058
sg76
(lp1788
g69
(g90
g71
NtRp1789
(dp1790
g74
(dp1791
g94
g95
ssg83
g1785
sg76
(lp1792
S'web2py_version'
p1793
asbag69
(g90
g71
NtRp1794
(dp1795
g74
(dp1796
g101
g102
ssg83
g1785
sg76
(lp1797
S':'
asbag69
(g90
g71
NtRp1798
(dp1799
g74
(dp1800
sg83
g1785
sg76
(lp1801
g69
(g70
g71
NtRp1802
(dp1803
g74
(dp1804
g82
I4
ssg83
g1798
sg76
(lp1805
g69
(g78
g71
NtRp1806
(dp1807
g74
(dp1808
g82
I3
ssg83
Nsg76
(lp1809
g69
(g85
g71
NtRp1810
(dp1811
g74
(dp1812
sg83
g1806
sg76
(lp1813
g69
(g90
g71
NtRp1814
(dp1815
g74
(dp1816
sg83
g1810
sg76
(lp1817
g69
(g70
g71
NtRp1818
(dp1819
g74
(dp1820
g82
I3
ssg83
g1814
sg76
(lp1821
S'2'
asbasbasbag69
(g85
g71
NtRp1822
(dp1823
g74
(dp1824
sg83
g1806
sg76
(lp1825
g69
(g90
g71
NtRp1826
(dp1827
g74
(dp1828
sg83
g1822
sg76
(lp1829
g69
(g70
g71
NtRp1830
(dp1831
g74
(dp1832
g82
I3
ssg83
g1826
sg76
(lp1833
S'3'
asbasbasbag69
(g85
g71
NtRp1834
(dp1835
g74
(dp1836
sg83
g1806
sg76
(lp1837
g69
(g90
g71
NtRp1838
(dp1839
g74
(dp1840
sg83
g1834
sg76
(lp1841
g69
(g70
g71
NtRp1842
(dp1843
g74
(dp1844
g82
I3
ssg83
g1838
sg76
(lp1845
S'2'
asbasbasbag69
(g85
g71
NtRp1846
(dp1847
g74
(dp1848
sg83
g1806
sg76
(lp1849
g69
(g90
g71
NtRp1850
(dp1851
g74
(dp1852
sg83
g1846
sg76
(lp1853
g69
(g70
g71
NtRp1854
(dp1855
g74
(dp1856
g82
I3
ssg83
g1850
sg76
(lp1857
S'datetime.datetime(2012, 12, 17, 15, 3, 30)'
p1858
asbasbasbag69
(g85
g71
NtRp1859
(dp1860
g74
(dp1861
sg83
g1806
sg76
(lp1862
g69
(g90
g71
NtRp1863
(dp1864
g74
(dp1865
sg83
g1859
sg76
(lp1866
g69
(g70
g71
NtRp1867
(dp1868
g74
(dp1869
g82
I3
ssg83
g1863
sg76
(lp1870
S'stable'
p1871
asbasbasbasbasbasbasbag69
(g85
g71
NtRp1872
(dp1873
g74
(dp1874
sg83
g1058
sg76
(lp1875
g69
(g90
g71
NtRp1876
(dp1877
g74
(dp1878
g94
g95
ssg83
g1872
sg76
(lp1879
S'wsgi_errors'
p1880
asbag69
(g90
g71
NtRp1881
(dp1882
g74
(dp1883
g101
g102
ssg83
g1872
sg76
(lp1884
S':'
asbag69
(g90
g71
NtRp1885
(dp1886
g74
(dp1887
sg83
g1872
sg76
(lp1888
g69
(g70
g71
NtRp1889
(dp1890
g74
(dp1891
g82
I4
ssg83
g1885
sg76
(lp1892
S"<open file '<stderr>', mode 'w' at 0x7f0c05c8c270>"
p1893
asbasbasbag69
(g85
g71
NtRp1894
(dp1895
g74
(dp1896
sg83
g1058
sg76
(lp1897
g69
(g90
g71
NtRp1898
(dp1899
g74
(dp1900
g94
g95
ssg83
g1894
sg76
(lp1901
S'wsgi_file_wrapper'
p1902
asbag69
(g90
g71
NtRp1903
(dp1904
g74
(dp1905
g101
g102
ssg83
g1894
sg76
(lp1906
S':'
asbag69
(g90
g71
NtRp1907
(dp1908
g74
(dp1909
sg83
g1894
sg76
(lp1910
g69
(g70
g71
NtRp1911
(dp1912
g74
(dp1913
g82
I4
ssg83
g1907
sg76
(lp1914
S'<class wsgiref.util.FileWrapper at 0x22bde20>'
p1915
asbasbasbag69
(g85
g71
NtRp1916
(dp1917
g74
(dp1918
sg83
g1058
sg76
(lp1919
g69
(g90
g71
NtRp1920
(dp1921
g74
(dp1922
g94
g95
ssg83
g1916
sg76
(lp1923
S'wsgi_input'
p1924
asbag69
(g90
g71
NtRp1925
(dp1926
g74
(dp1927
g101
g102
ssg83
g1916
sg76
(lp1928
S':'
asbag69
(g90
g71
NtRp1929
(dp1930
g74
(dp1931
sg83
g1916
sg76
(lp1932
g69
(g70
g71
NtRp1933
(dp1934
g74
(dp1935
g82
I4
ssg83
g1929
sg76
(lp1936
S'<socket._fileobject object at 0x7f0be428b4d0>'
p1937
asbasbasbag69
(g85
g71
NtRp1938
(dp1939
g74
(dp1940
sg83
g1058
sg76
(lp1941
g69
(g90
g71
NtRp1942
(dp1943
g74
(dp1944
g94
g95
ssg83
g1938
sg76
(lp1945
S'wsgi_multiprocess'
p1946
asbag69
(g90
g71
NtRp1947
(dp1948
g74
(dp1949
g101
g102
ssg83
g1938
sg76
(lp1950
S':'
asbag69
(g90
g71
NtRp1951
(dp1952
g74
(dp1953
sg83
g1938
sg76
(lp1954
g69
(g70
g71
NtRp1955
(dp1956
g74
(dp1957
g82
I4
ssg83
g1951
sg76
(lp1958
g112
asbasbasbag69
(g85
g71
NtRp1959
(dp1960
g74
(dp1961
sg83
g1058
sg76
(lp1962
g69
(g90
g71
NtRp1963
(dp1964
g74
(dp1965
g94
g95
ssg83
g1959
sg76
(lp1966
S'wsgi_multithread'
p1967
asbag69
(g90
g71
NtRp1968
(dp1969
g74
(dp1970
g101
g102
ssg83
g1959
sg76
(lp1971
S':'
asbag69
(g90
g71
NtRp1972
(dp1973
g74
(dp1974
sg83
g1959
sg76
(lp1975
g69
(g70
g71
NtRp1976
(dp1977
g74
(dp1978
g82
I4
ssg83
g1972
sg76
(lp1979
S'True'
p1980
asbasbasbag69
(g85
g71
NtRp1981
(dp1982
g74
(dp1983
sg83
g1058
sg76
(lp1984
g69
(g90
g71
NtRp1985
(dp1986
g74
(dp1987
g94
g95
ssg83
g1981
sg76
(lp1988
S'wsgi_run_once'
p1989
asbag69
(g90
g71
NtRp1990
(dp1991
g74
(dp1992
g101
g102
ssg83
g1981
sg76
(lp1993
S':'
asbag69
(g90
g71
NtRp1994
(dp1995
g74
(dp1996
sg83
g1981
sg76
(lp1997
g69
(g70
g71
NtRp1998
(dp1999
g74
(dp2000
g82
I4
ssg83
g1994
sg76
(lp2001
g112
asbasbasbag69
(g85
g71
NtRp2002
(dp2003
g74
(dp2004
sg83
g1058
sg76
(lp2005
g69
(g90
g71
NtRp2006
(dp2007
g74
(dp2008
g94
g95
ssg83
g2002
sg76
(lp2009
S'wsgi_url_scheme'
p2010
asbag69
(g90
g71
NtRp2011
(dp2012
g74
(dp2013
g101
g102
ssg83
g2002
sg76
(lp2014
S':'
asbag69
(g90
g71
NtRp2015
(dp2016
g74
(dp2017
sg83
g2002
sg76
(lp2018
g69
(g70
g71
NtRp2019
(dp2020
g74
(dp2021
g82
I4
ssg83
g2015
sg76
(lp2022
S'http'
p2023
asbasbasbag69
(g85
g71
NtRp2024
(dp2025
g74
(dp2026
sg83
g1058
sg76
(lp2027
g69
(g90
g71
NtRp2028
(dp2029
g74
(dp2030
g94
g95
ssg83
g2024
sg76
(lp2031
S'wsgi_version'
p2032
asbag69
(g90
g71
NtRp2033
(dp2034
g74
(dp2035
g101
g102
ssg83
g2024
sg76
(lp2036
S':'
asbag69
(g90
g71
NtRp2037
(dp2038
g74
(dp2039
sg83
g2024
sg76
(lp2040
g69
(g70
g71
NtRp2041
(dp2042
g74
(dp2043
g82
I4
ssg83
g2037
sg76
(lp2044
g69
(g78
g71
NtRp2045
(dp2046
g74
(dp2047
g82
I3
ssg83
Nsg76
(lp2048
g69
(g85
g71
NtRp2049
(dp2050
g74
(dp2051
sg83
g2045
sg76
(lp2052
g69
(g90
g71
NtRp2053
(dp2054
g74
(dp2055
sg83
g2049
sg76
(lp2056
g69
(g70
g71
NtRp2057
(dp2058
g74
(dp2059
g82
I3
ssg83
g2053
sg76
(lp2060
S'1'
asbasbasbag69
(g85
g71
NtRp2061
(dp2062
g74
(dp2063
sg83
g2045
sg76
(lp2064
g69
(g90
g71
NtRp2065
(dp2066
g74
(dp2067
sg83
g2061
sg76
(lp2068
g69
(g70
g71
NtRp2069
(dp2070
g74
(dp2071
g82
I3
ssg83
g2065
sg76
(lp2072
S'0'
asbasbasbasbasbasbasbasbasbasbasbag69
(g85
g71
NtRp2073
(dp2074
g74
(dp2075
sg83
g79
sg76
(lp2076
g69
(g90
g71
NtRp2077
(dp2078
g74
(dp2079
g94
g95
ssg83
g2073
sg76
(lp2080
S'extension'
p2081
asbag69
(g90
g71
NtRp2082
(dp2083
g74
(dp2084
g101
g102
ssg83
g2073
sg76
(lp2085
S':'
asbag69
(g90
g71
NtRp2086
(dp2087
g74
(dp2088
sg83
g2073
sg76
(lp2089
g69
(g70
g71
NtRp2090
(dp2091
g74
(dp2092
g82
I5
ssg83
g2086
sg76
(lp2093
S'html'
p2094
asbasbasbag69
(g85
g71
NtRp2095
(dp2096
g74
(dp2097
sg83
g79
sg76
(lp2098
g69
(g90
g71
NtRp2099
(dp2100
g74
(dp2101
g94
g95
ssg83
g2095
sg76
(lp2102
S'folder'
p2103
asbag69
(g90
g71
NtRp2104
(dp2105
g74
(dp2106
g101
g102
ssg83
g2095
sg76
(lp2107
S':'
asbag69
(g90
g71
NtRp2108
(dp2109
g74
(dp2110
sg83
g2095
sg76
(lp2111
g69
(g70
g71
NtRp2112
(dp2113
g74
(dp2114
g82
I5
ssg83
g2108
sg76
(lp2115
S'/home/shipra/Desktop/Semester 1.2/ITWS-2/web2py/applications/Assignment_2/'
p2116
asbasbasbag69
(g85
g71
NtRp2117
(dp2118
g74
(dp2119
sg83
g79
sg76
(lp2120
g69
(g90
g71
NtRp2121
(dp2122
g74
(dp2123
g94
g95
ssg83
g2117
sg76
(lp2124
S'function'
p2125
asbag69
(g90
g71
NtRp2126
(dp2127
g74
(dp2128
g101
g102
ssg83
g2117
sg76
(lp2129
S':'
asbag69
(g90
g71
NtRp2130
(dp2131
g74
(dp2132
sg83
g2117
sg76
(lp2133
g69
(g70
g71
NtRp2134
(dp2135
g74
(dp2136
g82
I5
ssg83
g2130
sg76
(lp2137
S'categ_display'
p2138
asbasbasbag69
(g85
g71
NtRp2139
(dp2140
g74
(dp2141
sg83
g79
sg76
(lp2142
g69
(g90
g71
NtRp2143
(dp2144
g74
(dp2145
g94
g95
ssg83
g2139
sg76
(lp2146
S'get_vars'
p2147
asbag69
(g90
g71
NtRp2148
(dp2149
g74
(dp2150
g101
g102
ssg83
g2139
sg76
(lp2151
S':'
asbag69
(g90
g71
NtRp2152
(dp2153
g74
(dp2154
sg83
g2139
sg76
(lp2155
g69
(g70
g71
NtRp2156
(dp2157
g74
(dp2158
g82
I5
ssg83
g2152
sg76
(lp2159
g69
(g78
g71
NtRp2160
(dp2161
g74
(dp2162
g82
I4
ssg83
Nsg76
(lp2163
sbasbasbasbag69
(g85
g71
NtRp2164
(dp2165
g74
(dp2166
sg83
g79
sg76
(lp2167
g69
(g90
g71
NtRp2168
(dp2169
g74
(dp2170
g94
g95
ssg83
g2164
sg76
(lp2171
S'global_settings'
p2172
asbag69
(g90
g71
NtRp2173
(dp2174
g74
(dp2175
g101
g102
ssg83
g2164
sg76
(lp2176
S':'
asbag69
(g90
g71
NtRp2177
(dp2178
g74
(dp2179
sg83
g2164
sg76
(lp2180
g69
(g70
g71
NtRp2181
(dp2182
g74
(dp2183
g82
I5
ssg83
g2177
sg76
(lp2184
g69
(g78
g71
NtRp2185
(dp2186
g74
(dp2187
g82
I4
ssg83
Nsg76
(lp2188
g69
(g85
g71
NtRp2189
(dp2190
g74
(dp2191
sg83
g2185
sg76
(lp2192
g69
(g90
g71
NtRp2193
(dp2194
g74
(dp2195
g94
g95
ssg83
g2189
sg76
(lp2196
g1070
asbag69
(g90
g71
NtRp2197
(dp2198
g74
(dp2199
g101
g102
ssg83
g2189
sg76
(lp2200
S':'
asbag69
(g90
g71
NtRp2201
(dp2202
g74
(dp2203
sg83
g2189
sg76
(lp2204
g69
(g70
g71
NtRp2205
(dp2206
g74
(dp2207
g82
I4
ssg83
g2201
sg76
(lp2208
S"set(['/home/shipra/Desktop/Semester 1.2/ITWS-2/web2py/applications/Assignment_2/', '/home/shipra/Desktop/Semester 1.2/ITWS-2/web2py/applications/welcome/', '/home/shipra/Desktop/Semester 1.2/ITWS-2/web2py/applications/admin/'])"
p2209
asbasbasbag69
(g85
g71
NtRp2210
(dp2211
g74
(dp2212
sg83
g2185
sg76
(lp2213
g69
(g90
g71
NtRp2214
(dp2215
g74
(dp2216
g94
g95
ssg83
g2210
sg76
(lp2217
g1092
asbag69
(g90
g71
NtRp2218
(dp2219
g74
(dp2220
g101
g102
ssg83
g2210
sg76
(lp2221
S':'
asbag69
(g90
g71
NtRp2222
(dp2223
g74
(dp2224
sg83
g2210
sg76
(lp2225
g69
(g70
g71
NtRp2226
(dp2227
g74
(dp2228
g82
I4
ssg83
g2222
sg76
(lp2229
g1105
asbasbasbag69
(g85
g71
NtRp2230
(dp2231
g74
(dp2232
sg83
g2185
sg76
(lp2233
g69
(g90
g71
NtRp2234
(dp2235
g74
(dp2236
g94
g95
ssg83
g2230
sg76
(lp2237
g1114
asbag69
(g90
g71
NtRp2238
(dp2239
g74
(dp2240
g101
g102
ssg83
g2230
sg76
(lp2241
S':'
asbag69
(g90
g71
NtRp2242
(dp2243
g74
(dp2244
sg83
g2230
sg76
(lp2245
g69
(g70
g71
NtRp2246
(dp2247
g74
(dp2248
g82
I4
ssg83
g2242
sg76
(lp2249
g69
(g78
g71
NtRp2250
(dp2251
g74
(dp2252
g82
I3
ssg83
Nsg76
(lp2253
sbasbasbasbag69
(g85
g71
NtRp2254
(dp2255
g74
(dp2256
sg83
g2185
sg76
(lp2257
g69
(g90
g71
NtRp2258
(dp2259
g74
(dp2260
g94
g95
ssg83
g2254
sg76
(lp2261
g1139
asbag69
(g90
g71
NtRp2262
(dp2263
g74
(dp2264
g101
g102
ssg83
g2254
sg76
(lp2265
S':'
asbag69
(g90
g71
NtRp2266
(dp2267
g74
(dp2268
sg83
g2254
sg76
(lp2269
g69
(g70
g71
NtRp2270
(dp2271
g74
(dp2272
g82
I4
ssg83
g2266
sg76
(lp2273
S"<Values at 0x2333290: {'verbose': False, 'ip': '127.0.0.1', 'with_scheduler': False, 'ips': ['192.168.122.1'], 'shutdown_timeout': 5, 'taskbar': False, 'port': 8000, 'maxthreads': None, 'softcron': False, 'server_name': 'shipra', 'bpython': False, 'nogui': False, 'pid_filename': 'httpserver.pid', 'extcron': False, 'runcron': False, 'run_system_tests': False, 'test': None, 'folder': '/home/shipra/Desktop/Semester 1.2/ITWS-2/web2py', 'config': '', 'minthreads': None, 'winservice': '', 'shell': None, 'run': '', 'log_filename': 'httpserver.log', 'debuglevel': 30, 'args': [''], 'socket_timeout': 5, 'ssl_ca_certificate': None, 'scheduler': None, 'profiler_filename': None, 'ssl_private_key': '', 'scheduler_groups': None, 'password': '<ask>', 'request_queue_size': 5, 'ssl_certificate': '', 'cronjob': False, 'numthreads': None, 'quiet': False, 'interfaces': None, 'import_models': False, 'timeout': 10, 'plain': False, 'nobanner': False}>"
p2274
asbasbasbag69
(g85
g71
NtRp2275
(dp2276
g74
(dp2277
sg83
g2185
sg76
(lp2278
g69
(g90
g71
NtRp2279
(dp2280
g74
(dp2281
g94
g95
ssg83
g2275
sg76
(lp2282
g1161
asbag69
(g90
g71
NtRp2283
(dp2284
g74
(dp2285
g101
g102
ssg83
g2275
sg76
(lp2286
S':'
asbag69
(g90
g71
NtRp2287
(dp2288
g74
(dp2289
sg83
g2275
sg76
(lp2290
g69
(g70
g71
NtRp2291
(dp2292
g74
(dp2293
g82
I4
ssg83
g2287
sg76
(lp2294
S'set([])'
p2295
asbasbasbag69
(g85
g71
NtRp2296
(dp2297
g74
(dp2298
sg83
g2185
sg76
(lp2299
g69
(g90
g71
NtRp2300
(dp2301
g74
(dp2302
g94
g95
ssg83
g2296
sg76
(lp2303
g1183
asbag69
(g90
g71
NtRp2304
(dp2305
g74
(dp2306
g101
g102
ssg83
g2296
sg76
(lp2307
S':'
asbag69
(g90
g71
NtRp2308
(dp2309
g74
(dp2310
sg83
g2296
sg76
(lp2311
g69
(g70
g71
NtRp2312
(dp2313
g74
(dp2314
g82
I4
ssg83
g2308
sg76
(lp2315
g112
asbasbasbag69
(g85
g71
NtRp2316
(dp2317
g74
(dp2318
sg83
g2185
sg76
(lp2319
g69
(g90
g71
NtRp2320
(dp2321
g74
(dp2322
g94
g95
ssg83
g2316
sg76
(lp2323
g1204
asbag69
(g90
g71
NtRp2324
(dp2325
g74
(dp2326
g101
g102
ssg83
g2316
sg76
(lp2327
S':'
asbag69
(g90
g71
NtRp2328
(dp2329
g74
(dp2330
sg83
g2316
sg76
(lp2331
g69
(g70
g71
NtRp2332
(dp2333
g74
(dp2334
g82
I4
ssg83
g2328
sg76
(lp2335
g1217
asbasbasbag69
(g85
g71
NtRp2336
(dp2337
g74
(dp2338
sg83
g2185
sg76
(lp2339
g69
(g90
g71
NtRp2340
(dp2341
g74
(dp2342
g94
g95
ssg83
g2336
sg76
(lp2343
g1402
asbag69
(g90
g71
NtRp2344
(dp2345
g74
(dp2346
g101
g102
ssg83
g2336
sg76
(lp2347
S':'
asbag69
(g90
g71
NtRp2348
(dp2349
g74
(dp2350
sg83
g2336
sg76
(lp2351
g69
(g70
g71
NtRp2352
(dp2353
g74
(dp2354
g82
I4
ssg83
g2348
sg76
(lp2355
g112
asbasbasbag69
(g85
g71
NtRp2356
(dp2357
g74
(dp2358
sg83
g2185
sg76
(lp2359
g69
(g90
g71
NtRp2360
(dp2361
g74
(dp2362
g94
g95
ssg83
g2356
sg76
(lp2363
g1423
asbag69
(g90
g71
NtRp2364
(dp2365
g74
(dp2366
g101
g102
ssg83
g2356
sg76
(lp2367
S':'
asbag69
(g90
g71
NtRp2368
(dp2369
g74
(dp2370
sg83
g2356
sg76
(lp2371
g69
(g70
g71
NtRp2372
(dp2373
g74
(dp2374
g82
I4
ssg83
g2368
sg76
(lp2375
g112
asbasbasbag69
(g85
g71
NtRp2376
(dp2377
g74
(dp2378
sg83
g2185
sg76
(lp2379
g69
(g90
g71
NtRp2380
(dp2381
g74
(dp2382
g94
g95
ssg83
g2376
sg76
(lp2383
g1444
asbag69
(g90
g71
NtRp2384
(dp2385
g74
(dp2386
g101
g102
ssg83
g2376
sg76
(lp2387
S':'
asbag69
(g90
g71
NtRp2388
(dp2389
g74
(dp2390
sg83
g2376
sg76
(lp2391
g69
(g70
g71
NtRp2392
(dp2393
g74
(dp2394
g82
I4
ssg83
g2388
sg76
(lp2395
g69
(g78
g71
NtRp2396
(dp2397
g74
(dp2398
g82
I3
ssg83
Nsg76
(lp2399
g69
(g85
g71
NtRp2400
(dp2401
g74
(dp2402
sg83
g2396
sg76
(lp2403
g69
(g90
g71
NtRp2404
(dp2405
g74
(dp2406
sg83
g2400
sg76
(lp2407
g69
(g70
g71
NtRp2408
(dp2409
g74
(dp2410
g82
I3
ssg83
g2404
sg76
(lp2411
g1473
asbasbasbag69
(g85
g71
NtRp2412
(dp2413
g74
(dp2414
sg83
g2396
sg76
(lp2415
g69
(g90
g71
NtRp2416
(dp2417
g74
(dp2418
sg83
g2412
sg76
(lp2419
g69
(g70
g71
NtRp2420
(dp2421
g74
(dp2422
g82
I3
ssg83
g2416
sg76
(lp2423
g1486
asbasbasbag69
(g85
g71
NtRp2424
(dp2425
g74
(dp2426
sg83
g2396
sg76
(lp2427
g69
(g90
g71
NtRp2428
(dp2429
g74
(dp2430
sg83
g2424
sg76
(lp2431
g69
(g70
g71
NtRp2432
(dp2433
g74
(dp2434
g82
I3
ssg83
g2428
sg76
(lp2435
g1499
asbasbasbag69
(g85
g71
NtRp2436
(dp2437
g74
(dp2438
sg83
g2396
sg76
(lp2439
g69
(g90
g71
NtRp2440
(dp2441
g74
(dp2442
sg83
g2436
sg76
(lp2443
g69
(g70
g71
NtRp2444
(dp2445
g74
(dp2446
g82
I3
ssg83
g2440
sg76
(lp2447
g1512
asbasbasbag69
(g85
g71
NtRp2448
(dp2449
g74
(dp2450
sg83
g2396
sg76
(lp2451
g69
(g90
g71
NtRp2452
(dp2453
g74
(dp2454
sg83
g2448
sg76
(lp2455
g69
(g70
g71
NtRp2456
(dp2457
g74
(dp2458
g82
I3
ssg83
g2452
sg76
(lp2459
g1525
asbasbasbasbasbasbasbag69
(g85
g71
NtRp2460
(dp2461
g74
(dp2462
sg83
g2185
sg76
(lp2463
g69
(g90
g71
NtRp2464
(dp2465
g74
(dp2466
g94
g95
ssg83
g2460
sg76
(lp2467
g1793
asbag69
(g90
g71
NtRp2468
(dp2469
g74
(dp2470
g101
g102
ssg83
g2460
sg76
(lp2471
S':'
asbag69
(g90
g71
NtRp2472
(dp2473
g74
(dp2474
sg83
g2460
sg76
(lp2475
g69
(g70
g71
NtRp2476
(dp2477
g74
(dp2478
g82
I4
ssg83
g2472
sg76
(lp2479
g69
(g78
g71
NtRp2480
(dp2481
g74
(dp2482
g82
I3
ssg83
Nsg76
(lp2483
g69
(g85
g71
NtRp2484
(dp2485
g74
(dp2486
sg83
g2480
sg76
(lp2487
g69
(g90
g71
NtRp2488
(dp2489
g74
(dp2490
sg83
g2484
sg76
(lp2491
g69
(g70
g71
NtRp2492
(dp2493
g74
(dp2494
g82
I3
ssg83
g2488
sg76
(lp2495
S'2'
asbasbasbag69
(g85
g71
NtRp2496
(dp2497
g74
(dp2498
sg83
g2480
sg76
(lp2499
g69
(g90
g71
NtRp2500
(dp2501
g74
(dp2502
sg83
g2496
sg76
(lp2503
g69
(g70
g71
NtRp2504
(dp2505
g74
(dp2506
g82
I3
ssg83
g2500
sg76
(lp2507
S'3'
asbasbasbag69
(g85
g71
NtRp2508
(dp2509
g74
(dp2510
sg83
g2480
sg76
(lp2511
g69
(g90
g71
NtRp2512
(dp2513
g74
(dp2514
sg83
g2508
sg76
(lp2515
g69
(g70
g71
NtRp2516
(dp2517
g74
(dp2518
g82
I3
ssg83
g2512
sg76
(lp2519
S'2'
asbasbasbag69
(g85
g71
NtRp2520
(dp2521
g74
(dp2522
sg83
g2480
sg76
(lp2523
g69
(g90
g71
NtRp2524
(dp2525
g74
(dp2526
sg83
g2520
sg76
(lp2527
g69
(g70
g71
NtRp2528
(dp2529
g74
(dp2530
g82
I3
ssg83
g2524
sg76
(lp2531
S'datetime.datetime(2012, 12, 17, 15, 3, 30)'
p2532
asbasbasbag69
(g85
g71
NtRp2533
(dp2534
g74
(dp2535
sg83
g2480
sg76
(lp2536
g69
(g90
g71
NtRp2537
(dp2538
g74
(dp2539
sg83
g2533
sg76
(lp2540
g69
(g70
g71
NtRp2541
(dp2542
g74
(dp2543
g82
I3
ssg83
g2537
sg76
(lp2544
g1871
asbasbasbasbasbasbasbasbasbasbasbag69
(g85
g71
NtRp2545
(dp2546
g74
(dp2547
sg83
g79
sg76
(lp2548
g69
(g90
g71
NtRp2549
(dp2550
g74
(dp2551
g94
g95
ssg83
g2545
sg76
(lp2552
S'is_https'
p2553
asbag69
(g90
g71
NtRp2554
(dp2555
g74
(dp2556
g101
g102
ssg83
g2545
sg76
(lp2557
S':'
asbag69
(g90
g71
NtRp2558
(dp2559
g74
(dp2560
sg83
g2545
sg76
(lp2561
g69
(g70
g71
NtRp2562
(dp2563
g74
(dp2564
g82
I5
ssg83
g2558
sg76
(lp2565
g112
asbasbasbag69
(g85
g71
NtRp2566
(dp2567
g74
(dp2568
sg83
g79
sg76
(lp2569
g69
(g90
g71
NtRp2570
(dp2571
g74
(dp2572
g94
g95
ssg83
g2566
sg76
(lp2573
S'is_local'
p2574
asbag69
(g90
g71
NtRp2575
(dp2576
g74
(dp2577
g101
g102
ssg83
g2566
sg76
(lp2578
S':'
asbag69
(g90
g71
NtRp2579
(dp2580
g74
(dp2581
sg83
g2566
sg76
(lp2582
g69
(g70
g71
NtRp2583
(dp2584
g74
(dp2585
g82
I5
ssg83
g2579
sg76
(lp2586
g1980
asbasbasbag69
(g85
g71
NtRp2587
(dp2588
g74
(dp2589
sg83
g79
sg76
(lp2590
g69
(g90
g71
NtRp2591
(dp2592
g74
(dp2593
g94
g95
ssg83
g2587
sg76
(lp2594
S'is_restful'
p2595
asbag69
(g90
g71
NtRp2596
(dp2597
g74
(dp2598
g101
g102
ssg83
g2587
sg76
(lp2599
S':'
asbag69
(g90
g71
NtRp2600
(dp2601
g74
(dp2602
sg83
g2587
sg76
(lp2603
g69
(g70
g71
NtRp2604
(dp2605
g74
(dp2606
g82
I5
ssg83
g2600
sg76
(lp2607
g112
asbasbasbag69
(g85
g71
NtRp2608
(dp2609
g74
(dp2610
sg83
g79
sg76
(lp2611
g69
(g90
g71
NtRp2612
(dp2613
g74
(dp2614
g94
g95
ssg83
g2608
sg76
(lp2615
S'now'
p2616
asbag69
(g90
g71
NtRp2617
(dp2618
g74
(dp2619
g101
g102
ssg83
g2608
sg76
(lp2620
S':'
asbag69
(g90
g71
NtRp2621
(dp2622
g74
(dp2623
sg83
g2608
sg76
(lp2624
g69
(g70
g71
NtRp2625
(dp2626
g74
(dp2627
g82
I5
ssg83
g2621
sg76
(lp2628
S'datetime.datetime(2013, 8, 27, 14, 47, 46, 976813)'
p2629
asbasbasbag69
(g85
g71
NtRp2630
(dp2631
g74
(dp2632
sg83
g79
sg76
(lp2633
g69
(g90
g71
NtRp2634
(dp2635
g74
(dp2636
g94
g95
ssg83
g2630
sg76
(lp2637
S'post_vars'
p2638
asbag69
(g90
g71
NtRp2639
(dp2640
g74
(dp2641
g101
g102
ssg83
g2630
sg76
(lp2642
S':'
asbag69
(g90
g71
NtRp2643
(dp2644
g74
(dp2645
sg83
g2630
sg76
(lp2646
g69
(g70
g71
NtRp2647
(dp2648
g74
(dp2649
g82
I5
ssg83
g2643
sg76
(lp2650
g69
(g78
g71
NtRp2651
(dp2652
g74
(dp2653
g82
I4
ssg83
Nsg76
(lp2654
sbasbasbasbag69
(g85
g71
NtRp2655
(dp2656
g74
(dp2657
sg83
g79
sg76
(lp2658
g69
(g90
g71
NtRp2659
(dp2660
g74
(dp2661
g94
g95
ssg83
g2655
sg76
(lp2662
S'raw_args'
p2663
asbag69
(g90
g71
NtRp2664
(dp2665
g74
(dp2666
g101
g102
ssg83
g2655
sg76
(lp2667
S':'
asbag69
(g90
g71
NtRp2668
(dp2669
g74
(dp2670
sg83
g2655
sg76
(lp2671
g69
(g70
g71
NtRp2672
(dp2673
g74
(dp2674
g82
I5
ssg83
g2668
sg76
(lp2675
g171
asbasbasbag69
(g85
g71
NtRp2676
(dp2677
g74
(dp2678
sg83
g79
sg76
(lp2679
g69
(g90
g71
NtRp2680
(dp2681
g74
(dp2682
g94
g95
ssg83
g2676
sg76
(lp2683
S'raw_extension'
p2684
asbag69
(g90
g71
NtRp2685
(dp2686
g74
(dp2687
g101
g102
ssg83
g2676
sg76
(lp2688
S':'
asbag69
(g90
g71
NtRp2689
(dp2690
g74
(dp2691
sg83
g2676
sg76
(lp2692
g69
(g70
g71
NtRp2693
(dp2694
g74
(dp2695
g82
I5
ssg83
g2689
sg76
(lp2696
S'None'
p2697
asbasbasbag69
(g85
g71
NtRp2698
(dp2699
g74
(dp2700
sg83
g79
sg76
(lp2701
g69
(g90
g71
NtRp2702
(dp2703
g74
(dp2704
g94
g95
ssg83
g2698
sg76
(lp2705
S'url'
p2706
asbag69
(g90
g71
NtRp2707
(dp2708
g74
(dp2709
g101
g102
ssg83
g2698
sg76
(lp2710
S':'
asbag69
(g90
g71
NtRp2711
(dp2712
g74
(dp2713
sg83
g2698
sg76
(lp2714
g69
(g70
g71
NtRp2715
(dp2716
g74
(dp2717
g82
I5
ssg83
g2711
sg76
(lp2718
g1547
asbasbasbag69
(g85
g71
NtRp2719
(dp2720
g74
(dp2721
sg83
g79
sg76
(lp2722
g69
(g90
g71
NtRp2723
(dp2724
g74
(dp2725
g94
g95
ssg83
g2719
sg76
(lp2726
S'utcnow'
p2727
asbag69
(g90
g71
NtRp2728
(dp2729
g74
(dp2730
g101
g102
ssg83
g2719
sg76
(lp2731
S':'
asbag69
(g90
g71
NtRp2732
(dp2733
g74
(dp2734
sg83
g2719
sg76
(lp2735
g69
(g70
g71
NtRp2736
(dp2737
g74
(dp2738
g82
I5
ssg83
g2732
sg76
(lp2739
S'datetime.datetime(2013, 8, 27, 9, 17, 46, 976832)'
p2740
asbasbasbag69
(g85
g71
NtRp2741
(dp2742
g74
(dp2743
sg83
g79
sg76
(lp2744
g69
(g90
g71
NtRp2745
(dp2746
g74
(dp2747
g94
g95
ssg83
g2741
sg76
(lp2748
S'uuid'
p2749
asbag69
(g90
g71
NtRp2750
(dp2751
g74
(dp2752
g101
g102
ssg83
g2741
sg76
(lp2753
S':'
asbag69
(g90
g71
NtRp2754
(dp2755
g74
(dp2756
sg83
g2741
sg76
(lp2757
g69
(g70
g71
NtRp2758
(dp2759
g74
(dp2760
g82
I5
ssg83
g2754
sg76
(lp2761
S'Assignment_2/127.0.0.1.2013-08-27.14-47-46.ec941eb0-df03-4182-8daa-d3d3c4438103'
p2762
asbasbasbag69
(g85
g71
NtRp2763
(dp2764
g74
(dp2765
sg83
g79
sg76
(lp2766
g69
(g90
g71
NtRp2767
(dp2768
g74
(dp2769
g94
g95
ssg83
g2763
sg76
(lp2770
S'vars'
p2771
asbag69
(g90
g71
NtRp2772
(dp2773
g74
(dp2774
g101
g102
ssg83
g2763
sg76
(lp2775
S':'
asbag69
(g90
g71
NtRp2776
(dp2777
g74
(dp2778
sg83
g2763
sg76
(lp2779
g69
(g70
g71
NtRp2780
(dp2781
g74
(dp2782
g82
I5
ssg83
g2776
sg76
(lp2783
g69
(g78
g71
NtRp2784
(dp2785
g74
(dp2786
g82
I4
ssg83
Nsg76
(lp2787
sbasbasbasbag69
(g85
g71
NtRp2788
(dp2789
g74
(dp2790
sg83
g79
sg76
(lp2791
g69
(g90
g71
NtRp2792
(dp2793
g74
(dp2794
g94
g95
ssg83
g2788
sg76
(lp2795
S'wsgi'
p2796
asbag69
(g90
g71
NtRp2797
(dp2798
g74
(dp2799
g101
g102
ssg83
g2788
sg76
(lp2800
S':'
asbag69
(g90
g71
NtRp2801
(dp2802
g74
(dp2803
sg83
g2788
sg76
(lp2804
g69
(g70
g71
NtRp2805
(dp2806
g74
(dp2807
g82
I5
ssg83
g2801
sg76
(lp2808
g69
(g78
g71
NtRp2809
(dp2810
g74
(dp2811
g82
I4
ssg83
Nsg76
(lp2812
g69
(g85
g71
NtRp2813
(dp2814
g74
(dp2815
sg83
g2809
sg76
(lp2816
g69
(g90
g71
NtRp2817
(dp2818
g74
(dp2819
g94
g95
ssg83
g2813
sg76
(lp2820
S'environ'
p2821
asbag69
(g90
g71
NtRp2822
(dp2823
g74
(dp2824
g101
g102
ssg83
g2813
sg76
(lp2825
S':'
asbag69
(g90
g71
NtRp2826
(dp2827
g74
(dp2828
sg83
g2813
sg76
(lp2829
g69
(g70
g71
NtRp2830
(dp2831
g74
(dp2832
g82
I4
ssg83
g2826
sg76
(lp2833
g69
(g78
g71
NtRp2834
(dp2835
g74
(dp2836
g82
I3
ssg83
Nsg76
(lp2837
g69
(g85
g71
NtRp2838
(dp2839
g74
(dp2840
sg83
g2834
sg76
(lp2841
g69
(g90
g71
NtRp2842
(dp2843
g74
(dp2844
g94
g95
ssg83
g2838
sg76
(lp2845
S'HTTP_ACCEPT'
p2846
asbag69
(g90
g71
NtRp2847
(dp2848
g74
(dp2849
g101
g102
ssg83
g2838
sg76
(lp2850
S':'
asbag69
(g90
g71
NtRp2851
(dp2852
g74
(dp2853
sg83
g2838
sg76
(lp2854
g69
(g70
g71
NtRp2855
(dp2856
g74
(dp2857
g82
I3
ssg83
g2851
sg76
(lp2858
g1239
asbasbasbag69
(g85
g71
NtRp2859
(dp2860
g74
(dp2861
sg83
g2834
sg76
(lp2862
g69
(g90
g71
NtRp2863
(dp2864
g74
(dp2865
g94
g95
ssg83
g2859
sg76
(lp2866
S'HTTP_ACCEPT_ENCODING'
p2867
asbag69
(g90
g71
NtRp2868
(dp2869
g74
(dp2870
g101
g102
ssg83
g2859
sg76
(lp2871
S':'
asbag69
(g90
g71
NtRp2872
(dp2873
g74
(dp2874
sg83
g2859
sg76
(lp2875
g69
(g70
g71
NtRp2876
(dp2877
g74
(dp2878
g82
I3
ssg83
g2872
sg76
(lp2879
g1261
asbasbasbag69
(g85
g71
NtRp2880
(dp2881
g74
(dp2882
sg83
g2834
sg76
(lp2883
g69
(g90
g71
NtRp2884
(dp2885
g74
(dp2886
g94
g95
ssg83
g2880
sg76
(lp2887
S'HTTP_ACCEPT_LANGUAGE'
p2888
asbag69
(g90
g71
NtRp2889
(dp2890
g74
(dp2891
g101
g102
ssg83
g2880
sg76
(lp2892
S':'
asbag69
(g90
g71
NtRp2893
(dp2894
g74
(dp2895
sg83
g2880
sg76
(lp2896
g69
(g70
g71
NtRp2897
(dp2898
g74
(dp2899
g82
I3
ssg83
g2893
sg76
(lp2900
g1283
asbasbasbag69
(g85
g71
NtRp2901
(dp2902
g74
(dp2903
sg83
g2834
sg76
(lp2904
g69
(g90
g71
NtRp2905
(dp2906
g74
(dp2907
g94
g95
ssg83
g2901
sg76
(lp2908
S'HTTP_CONNECTION'
p2909
asbag69
(g90
g71
NtRp2910
(dp2911
g74
(dp2912
g101
g102
ssg83
g2901
sg76
(lp2913
S':'
asbag69
(g90
g71
NtRp2914
(dp2915
g74
(dp2916
sg83
g2901
sg76
(lp2917
g69
(g70
g71
NtRp2918
(dp2919
g74
(dp2920
g82
I3
ssg83
g2914
sg76
(lp2921
g1305
asbasbasbag69
(g85
g71
NtRp2922
(dp2923
g74
(dp2924
sg83
g2834
sg76
(lp2925
g69
(g90
g71
NtRp2926
(dp2927
g74
(dp2928
g94
g95
ssg83
g2922
sg76
(lp2929
S'HTTP_COOKIE'
p2930
asbag69
(g90
g71
NtRp2931
(dp2932
g74
(dp2933
g101
g102
ssg83
g2922
sg76
(lp2934
S':'
asbag69
(g90
g71
NtRp2935
(dp2936
g74
(dp2937
sg83
g2922
sg76
(lp2938
g69
(g70
g71
NtRp2939
(dp2940
g74
(dp2941
g82
I3
ssg83
g2935
sg76
(lp2942
g1327
asbasbasbag69
(g85
g71
NtRp2943
(dp2944
g74
(dp2945
sg83
g2834
sg76
(lp2946
g69
(g90
g71
NtRp2947
(dp2948
g74
(dp2949
g94
g95
ssg83
g2943
sg76
(lp2950
S'HTTP_HOST'
p2951
asbag69
(g90
g71
NtRp2952
(dp2953
g74
(dp2954
g101
g102
ssg83
g2943
sg76
(lp2955
S':'
asbag69
(g90
g71
NtRp2956
(dp2957
g74
(dp2958
sg83
g2943
sg76
(lp2959
g69
(g70
g71
NtRp2960
(dp2961
g74
(dp2962
g82
I3
ssg83
g2956
sg76
(lp2963
g1349
asbasbasbag69
(g85
g71
NtRp2964
(dp2965
g74
(dp2966
sg83
g2834
sg76
(lp2967
g69
(g90
g71
NtRp2968
(dp2969
g74
(dp2970
g94
g95
ssg83
g2964
sg76
(lp2971
S'HTTP_REFERER'
p2972
asbag69
(g90
g71
NtRp2973
(dp2974
g74
(dp2975
g101
g102
ssg83
g2964
sg76
(lp2976
S':'
asbag69
(g90
g71
NtRp2977
(dp2978
g74
(dp2979
sg83
g2964
sg76
(lp2980
g69
(g70
g71
NtRp2981
(dp2982
g74
(dp2983
g82
I3
ssg83
g2977
sg76
(lp2984
g1371
asbasbasbag69
(g85
g71
NtRp2985
(dp2986
g74
(dp2987
sg83
g2834
sg76
(lp2988
g69
(g90
g71
NtRp2989
(dp2990
g74
(dp2991
g94
g95
ssg83
g2985
sg76
(lp2992
S'HTTP_USER_AGENT'
p2993
asbag69
(g90
g71
NtRp2994
(dp2995
g74
(dp2996
g101
g102
ssg83
g2985
sg76
(lp2997
S':'
asbag69
(g90
g71
NtRp2998
(dp2999
g74
(dp3000
sg83
g2985
sg76
(lp3001
g69
(g70
g71
NtRp3002
(dp3003
g74
(dp3004
g82
I3
ssg83
g2998
sg76
(lp3005
g1393
asbasbasbag69
(g85
g71
NtRp3006
(dp3007
g74
(dp3008
sg83
g2834
sg76
(lp3009
g69
(g90
g71
NtRp3010
(dp3011
g74
(dp3012
g94
g95
ssg83
g3006
sg76
(lp3013
S'PATH_INFO'
p3014
asbag69
(g90
g71
NtRp3015
(dp3016
g74
(dp3017
g101
g102
ssg83
g3006
sg76
(lp3018
S':'
asbag69
(g90
g71
NtRp3019
(dp3020
g74
(dp3021
sg83
g3006
sg76
(lp3022
g69
(g70
g71
NtRp3023
(dp3024
g74
(dp3025
g82
I3
ssg83
g3019
sg76
(lp3026
g1547
asbasbasbag69
(g85
g71
NtRp3027
(dp3028
g74
(dp3029
sg83
g2834
sg76
(lp3030
g69
(g90
g71
NtRp3031
(dp3032
g74
(dp3033
g94
g95
ssg83
g3027
sg76
(lp3034
S'QUERY_STRING'
p3035
asbag69
(g90
g71
NtRp3036
(dp3037
g74
(dp3038
g101
g102
ssg83
g3027
sg76
(lp3039
S':'
asbag69
(g90
g71
NtRp3040
(dp3041
g74
(dp3042
sg83
g3027
sg76
(lp3043
g69
(g70
g71
NtRp3044
(dp3045
g74
(dp3046
g82
I3
ssg83
g3040
sg76
(lp3047
S''
asbasbasbag69
(g85
g71
NtRp3048
(dp3049
g74
(dp3050
sg83
g2834
sg76
(lp3051
g69
(g90
g71
NtRp3052
(dp3053
g74
(dp3054
g94
g95
ssg83
g3048
sg76
(lp3055
S'REMOTE_ADDR'
p3056
asbag69
(g90
g71
NtRp3057
(dp3058
g74
(dp3059
g101
g102
ssg83
g3048
sg76
(lp3060
S':'
asbag69
(g90
g71
NtRp3061
(dp3062
g74
(dp3063
sg83
g3048
sg76
(lp3064
g69
(g70
g71
NtRp3065
(dp3066
g74
(dp3067
g82
I3
ssg83
g3061
sg76
(lp3068
g237
asbasbasbag69
(g85
g71
NtRp3069
(dp3070
g74
(dp3071
sg83
g2834
sg76
(lp3072
g69
(g90
g71
NtRp3073
(dp3074
g74
(dp3075
g94
g95
ssg83
g3069
sg76
(lp3076
S'REMOTE_PORT'
p3077
asbag69
(g90
g71
NtRp3078
(dp3079
g74
(dp3080
g101
g102
ssg83
g3069
sg76
(lp3081
S':'
asbag69
(g90
g71
NtRp3082
(dp3083
g74
(dp3084
sg83
g3069
sg76
(lp3085
g69
(g70
g71
NtRp3086
(dp3087
g74
(dp3088
g82
I3
ssg83
g3082
sg76
(lp3089
g1611
asbasbasbag69
(g85
g71
NtRp3090
(dp3091
g74
(dp3092
sg83
g2834
sg76
(lp3093
g69
(g90
g71
NtRp3094
(dp3095
g74
(dp3096
g94
g95
ssg83
g3090
sg76
(lp3097
S'REQUEST_METHOD'
p3098
asbag69
(g90
g71
NtRp3099
(dp3100
g74
(dp3101
g101
g102
ssg83
g3090
sg76
(lp3102
S':'
asbag69
(g90
g71
NtRp3103
(dp3104
g74
(dp3105
sg83
g3090
sg76
(lp3106
g69
(g70
g71
NtRp3107
(dp3108
g74
(dp3109
g82
I3
ssg83
g3103
sg76
(lp3110
g1633
asbasbasbag69
(g85
g71
NtRp3111
(dp3112
g74
(dp3113
sg83
g2834
sg76
(lp3114
g69
(g90
g71
NtRp3115
(dp3116
g74
(dp3117
g94
g95
ssg83
g3111
sg76
(lp3118
S'REQUEST_URI'
p3119
asbag69
(g90
g71
NtRp3120
(dp3121
g74
(dp3122
g101
g102
ssg83
g3111
sg76
(lp3123
S':'
asbag69
(g90
g71
NtRp3124
(dp3125
g74
(dp3126
sg83
g3111
sg76
(lp3127
g69
(g70
g71
NtRp3128
(dp3129
g74
(dp3130
g82
I3
ssg83
g3124
sg76
(lp3131
g1547
asbasbasbag69
(g85
g71
NtRp3132
(dp3133
g74
(dp3134
sg83
g2834
sg76
(lp3135
g69
(g90
g71
NtRp3136
(dp3137
g74
(dp3138
g94
g95
ssg83
g3132
sg76
(lp3139
S'SCRIPT_NAME'
p3140
asbag69
(g90
g71
NtRp3141
(dp3142
g74
(dp3143
g101
g102
ssg83
g3132
sg76
(lp3144
S':'
asbag69
(g90
g71
NtRp3145
(dp3146
g74
(dp3147
sg83
g3132
sg76
(lp3148
g69
(g70
g71
NtRp3149
(dp3150
g74
(dp3151
g82
I3
ssg83
g3145
sg76
(lp3152
S''
asbasbasbag69
(g85
g71
NtRp3153
(dp3154
g74
(dp3155
sg83
g2834
sg76
(lp3156
g69
(g90
g71
NtRp3157
(dp3158
g74
(dp3159
g94
g95
ssg83
g3153
sg76
(lp3160
S'SERVER_NAME'
p3161
asbag69
(g90
g71
NtRp3162
(dp3163
g74
(dp3164
g101
g102
ssg83
g3153
sg76
(lp3165
S':'
asbag69
(g90
g71
NtRp3166
(dp3167
g74
(dp3168
sg83
g3153
sg76
(lp3169
g69
(g70
g71
NtRp3170
(dp3171
g74
(dp3172
g82
I3
ssg83
g3166
sg76
(lp3173
g1697
asbasbasbag69
(g85
g71
NtRp3174
(dp3175
g74
(dp3176
sg83
g2834
sg76
(lp3177
g69
(g90
g71
NtRp3178
(dp3179
g74
(dp3180
g94
g95
ssg83
g3174
sg76
(lp3181
S'SERVER_PORT'
p3182
asbag69
(g90
g71
NtRp3183
(dp3184
g74
(dp3185
g101
g102
ssg83
g3174
sg76
(lp3186
S':'
asbag69
(g90
g71
NtRp3187
(dp3188
g74
(dp3189
sg83
g3174
sg76
(lp3190
g69
(g70
g71
NtRp3191
(dp3192
g74
(dp3193
g82
I3
ssg83
g3187
sg76
(lp3194
g1719
asbasbasbag69
(g85
g71
NtRp3195
(dp3196
g74
(dp3197
sg83
g2834
sg76
(lp3198
g69
(g90
g71
NtRp3199
(dp3200
g74
(dp3201
g94
g95
ssg83
g3195
sg76
(lp3202
S'SERVER_PROTOCOL'
p3203
asbag69
(g90
g71
NtRp3204
(dp3205
g74
(dp3206
g101
g102
ssg83
g3195
sg76
(lp3207
S':'
asbag69
(g90
g71
NtRp3208
(dp3209
g74
(dp3210
sg83
g3195
sg76
(lp3211
g69
(g70
g71
NtRp3212
(dp3213
g74
(dp3214
g82
I3
ssg83
g3208
sg76
(lp3215
g1741
asbasbasbag69
(g85
g71
NtRp3216
(dp3217
g74
(dp3218
sg83
g2834
sg76
(lp3219
g69
(g90
g71
NtRp3220
(dp3221
g74
(dp3222
g94
g95
ssg83
g3216
sg76
(lp3223
S'SERVER_SOFTWARE'
p3224
asbag69
(g90
g71
NtRp3225
(dp3226
g74
(dp3227
g101
g102
ssg83
g3216
sg76
(lp3228
S':'
asbag69
(g90
g71
NtRp3229
(dp3230
g74
(dp3231
sg83
g3216
sg76
(lp3232
g69
(g70
g71
NtRp3233
(dp3234
g74
(dp3235
g82
I3
ssg83
g3229
sg76
(lp3236
g1763
asbasbasbag69
(g85
g71
NtRp3237
(dp3238
g74
(dp3239
sg83
g2834
sg76
(lp3240
g69
(g90
g71
NtRp3241
(dp3242
g74
(dp3243
g94
g95
ssg83
g3237
sg76
(lp3244
S'wsgi.errors'
p3245
asbag69
(g90
g71
NtRp3246
(dp3247
g74
(dp3248
g101
g102
ssg83
g3237
sg76
(lp3249
S':'
asbag69
(g90
g71
NtRp3250
(dp3251
g74
(dp3252
sg83
g3237
sg76
(lp3253
g69
(g70
g71
NtRp3254
(dp3255
g74
(dp3256
g82
I3
ssg83
g3250
sg76
(lp3257
S"<open file '<stderr>', mode 'w' at 0x7f0c05c8c270>"
p3258
asbasbasbag69
(g85
g71
NtRp3259
(dp3260
g74
(dp3261
sg83
g2834
sg76
(lp3262
g69
(g90
g71
NtRp3263
(dp3264
g74
(dp3265
g94
g95
ssg83
g3259
sg76
(lp3266
S'wsgi.file_wrapper'
p3267
asbag69
(g90
g71
NtRp3268
(dp3269
g74
(dp3270
g101
g102
ssg83
g3259
sg76
(lp3271
S':'
asbag69
(g90
g71
NtRp3272
(dp3273
g74
(dp3274
sg83
g3259
sg76
(lp3275
g69
(g70
g71
NtRp3276
(dp3277
g74
(dp3278
g82
I3
ssg83
g3272
sg76
(lp3279
S'<class wsgiref.util.FileWrapper at 0x22bde20>'
p3280
asbasbasbag69
(g85
g71
NtRp3281
(dp3282
g74
(dp3283
sg83
g2834
sg76
(lp3284
g69
(g90
g71
NtRp3285
(dp3286
g74
(dp3287
g94
g95
ssg83
g3281
sg76
(lp3288
S'wsgi.input'
p3289
asbag69
(g90
g71
NtRp3290
(dp3291
g74
(dp3292
g101
g102
ssg83
g3281
sg76
(lp3293
S':'
asbag69
(g90
g71
NtRp3294
(dp3295
g74
(dp3296
sg83
g3281
sg76
(lp3297
g69
(g70
g71
NtRp3298
(dp3299
g74
(dp3300
g82
I3
ssg83
g3294
sg76
(lp3301
S'<cStringIO.StringO object at 0x7f0be02d6650>'
p3302
asbasbasbag69
(g85
g71
NtRp3303
(dp3304
g74
(dp3305
sg83
g2834
sg76
(lp3306
g69
(g90
g71
NtRp3307
(dp3308
g74
(dp3309
g94
g95
ssg83
g3303
sg76
(lp3310
S'wsgi.multiprocess'
p3311
asbag69
(g90
g71
NtRp3312
(dp3313
g74
(dp3314
g101
g102
ssg83
g3303
sg76
(lp3315
S':'
asbag69
(g90
g71
NtRp3316
(dp3317
g74
(dp3318
sg83
g3303
sg76
(lp3319
g69
(g70
g71
NtRp3320
(dp3321
g74
(dp3322
g82
I3
ssg83
g3316
sg76
(lp3323
g112
asbasbasbag69
(g85
g71
NtRp3324
(dp3325
g74
(dp3326
sg83
g2834
sg76
(lp3327
g69
(g90
g71
NtRp3328
(dp3329
g74
(dp3330
g94
g95
ssg83
g3324
sg76
(lp3331
S'wsgi.multithread'
p3332
asbag69
(g90
g71
NtRp3333
(dp3334
g74
(dp3335
g101
g102
ssg83
g3324
sg76
(lp3336
S':'
asbag69
(g90
g71
NtRp3337
(dp3338
g74
(dp3339
sg83
g3324
sg76
(lp3340
g69
(g70
g71
NtRp3341
(dp3342
g74
(dp3343
g82
I3
ssg83
g3337
sg76
(lp3344
g1980
asbasbasbag69
(g85
g71
NtRp3345
(dp3346
g74
(dp3347
sg83
g2834
sg76
(lp3348
g69
(g90
g71
NtRp3349
(dp3350
g74
(dp3351
g94
g95
ssg83
g3345
sg76
(lp3352
S'wsgi.run_once'
p3353
asbag69
(g90
g71
NtRp3354
(dp3355
g74
(dp3356
g101
g102
ssg83
g3345
sg76
(lp3357
S':'
asbag69
(g90
g71
NtRp3358
(dp3359
g74
(dp3360
sg83
g3345
sg76
(lp3361
g69
(g70
g71
NtRp3362
(dp3363
g74
(dp3364
g82
I3
ssg83
g3358
sg76
(lp3365
g112
asbasbasbag69
(g85
g71
NtRp3366
(dp3367
g74
(dp3368
sg83
g2834
sg76
(lp3369
g69
(g90
g71
NtRp3370
(dp3371
g74
(dp3372
g94
g95
ssg83
g3366
sg76
(lp3373
S'wsgi.url_scheme'
p3374
asbag69
(g90
g71
NtRp3375
(dp3376
g74
(dp3377
g101
g102
ssg83
g3366
sg76
(lp3378
S':'
asbag69
(g90
g71
NtRp3379
(dp3380
g74
(dp3381
sg83
g3366
sg76
(lp3382
g69
(g70
g71
NtRp3383
(dp3384
g74
(dp3385
g82
I3
ssg83
g3379
sg76
(lp3386
g2023
asbasbasbag69
(g85
g71
NtRp3387
(dp3388
g74
(dp3389
sg83
g2834
sg76
(lp3390
g69
(g90
g71
NtRp3391
(dp3392
g74
(dp3393
g94
g95
ssg83
g3387
sg76
(lp3394
S'wsgi.version'
p3395
asbag69
(g90
g71
NtRp3396
(dp3397
g74
(dp3398
g101
g102
ssg83
g3387
sg76
(lp3399
S':'
asbag69
(g90
g71
NtRp3400
(dp3401
g74
(dp3402
sg83
g3387
sg76
(lp3403
g69
(g70
g71
NtRp3404
(dp3405
g74
(dp3406
g82
I3
ssg83
g3400
sg76
(lp3407
S'1'
asbasbasbasbasbasbasbasbasbasbasbasbasbsS'frames'
p3408
(lp3409
(dp3410
S'file'
p3411
S'/home/shipra/Desktop/Semester 1.2/ITWS-2/web2py/gluon/restricted.py'
p3412
sS'dump'
p3413
(dp3414
S'code'
p3415
S'\'response.write(\\\'<!DOCTYPE html>\\\\n<!-- paulirish...."></script>\\\\n</body>\\\\n</html>\\\\n\\\\n\\\', escape=False)\''
p3416
sS'layer'
p3417
S"'/home/shipra/Desktop/Semester 1.2/ITWS-2/web2py/...ons/Assignment_2/views/default/categ_display.html'"
p3418
sS'global compile2'
p3419
S'<function compile2>'
p3420
sS'ccode'
p3421
S'undefined'
p3422
ssS'lnum'
p3423
I211
sS'lines'
p3424
(dp3425
I206
S"    environment['__name__'] = '__restricted__'"
p3426
sI207
S'    try:'
p3427
sI208
S'        if isinstance(code, types.CodeType):'
p3428
sI209
S'            ccode = code'
p3429
sI210
S'        else:'
p3430
sI211
S'            ccode = compile2(code, layer)'
p3431
sI212
S'        exec ccode in environment'
p3432
sI213
S'    except HTTP:'
p3433
sI214
S'        raise'
p3434
sI215
S'    except RestrictedError:'
p3435
ssS'call'
p3436
S'(code=\'response.write(\\\'<!DOCTYPE html>\\\\n<!-- paulirish...."></script>\\\\n</body>\\\\n</html>\\\\n\\\\n\\\', escape=False)\', environment={\'A\': <class \'gluon.html.A\'>, \'Auth\': <class \'gluon.tools.Auth\'>, \'B\': <class \'gluon.html.B\'>, \'BEAUTIFY\': <class \'gluon.html.BEAUTIFY\'>, \'BODY\': <class \'gluon.html.BODY\'>, \'BR\': <class \'gluon.html.BR\'>, \'BUTTON\': <class \'gluon.html.BUTTON\'>, \'CAT\': <class \'gluon.html.CAT\'>, \'CENTER\': <class \'gluon.html.CENTER\'>, \'CLEANUP\': <class \'gluon.validators.CLEANUP\'>, ...}, layer=\'/home/shipra/Desktop/Semester 1.2/ITWS-2/web2py/...ons/Assignment_2/views/default/categ_display.html\')'
p3437
sS'func'
p3438
S'restricted'
p3439
sa(dp3440
g3411
S'/home/shipra/Desktop/Semester 1.2/ITWS-2/web2py/gluon/restricted.py'
p3441
sg3413
(dp3442
S'builtincompile'
p3443
S'<built-in function compile>'
p3444
sS'code'
p3445
S'\'response.write(\\\'<!DOCTYPE html>\\\\n<!-- paulirish...."></script>\\\\n</body>\\\\n</html>\\\\n\\\\n\\\', escape=False)\''
p3446
sS'code.rstrip'
p3447
S'<built-in method rstrip of str object>'
p3448
sS').replace'
p3449
g3422
sS'layer'
p3450
S"'/home/shipra/Desktop/Semester 1.2/ITWS-2/web2py/...ons/Assignment_2/views/default/categ_display.html'"
p3451
ssg3423
I194
sg3424
(dp3452
I192
S"    The +'\\n' is necessary else compile fails when code ends in a comment."
p3453
sI193
S'    """'
p3454
sI194
S"    return compile(code.rstrip().replace('\\r\\n', '\\n') + '\\n', layer, 'exec')"
p3455
sI195
S''
sI196
S''
sI197
S"def restricted(code, environment=None, layer='Unknown'):"
p3456
sI198
S'    """'
p3457
sI189
S''
sI190
S'def compile2(code, layer):'
p3458
sI191
S'    """'
p3459
ssg3436
S'(code=\'response.write(\\\'<!DOCTYPE html>\\\\n<!-- paulirish...."></script>\\\\n</body>\\\\n</html>\\\\n\\\\n\\\', escape=False)\', layer=\'/home/shipra/Desktop/Semester 1.2/ITWS-2/web2py/...ons/Assignment_2/views/default/categ_display.html\')'
p3460
sg3438
S'compile2'
p3461
sasS'pyver'
p3462
S'Python 2.7.3: /usr/bin/python'
p3463
sS'session'
p3464
g69
(g70
g71
NtRp3465
(dp3466
g74
(dp3467
sg76
(lp3468
g69
(g78
g71
NtRp3469
(dp3470
g74
(dp3471
g82
I5
ssg83
Nsg76
(lp3472
g69
(g85
g71
NtRp3473
(dp3474
g74
(dp3475
sg83
g3469
sg76
(lp3476
g69
(g90
g71
NtRp3477
(dp3478
g74
(dp3479
g94
g95
ssg83
g3473
sg76
(lp3480
S'auth'
p3481
asbag69
(g90
g71
NtRp3482
(dp3483
g74
(dp3484
g101
g102
ssg83
g3473
sg76
(lp3485
S':'
asbag69
(g90
g71
NtRp3486
(dp3487
g74
(dp3488
sg83
g3473
sg76
(lp3489
g69
(g70
g71
NtRp3490
(dp3491
g74
(dp3492
g82
I5
ssg83
g3486
sg76
(lp3493
g69
(g78
g71
NtRp3494
(dp3495
g74
(dp3496
g82
I4
ssg83
Nsg76
(lp3497
g69
(g85
g71
NtRp3498
(dp3499
g74
(dp3500
sg83
g3494
sg76
(lp3501
g69
(g90
g71
NtRp3502
(dp3503
g74
(dp3504
g94
g95
ssg83
g3498
sg76
(lp3505
S'expiration'
p3506
asbag69
(g90
g71
NtRp3507
(dp3508
g74
(dp3509
g101
g102
ssg83
g3498
sg76
(lp3510
S':'
asbag69
(g90
g71
NtRp3511
(dp3512
g74
(dp3513
sg83
g3498
sg76
(lp3514
g69
(g70
g71
NtRp3515
(dp3516
g74
(dp3517
g82
I4
ssg83
g3511
sg76
(lp3518
S'3600'
p3519
asbasbasbag69
(g85
g71
NtRp3520
(dp3521
g74
(dp3522
sg83
g3494
sg76
(lp3523
g69
(g90
g71
NtRp3524
(dp3525
g74
(dp3526
g94
g95
ssg83
g3520
sg76
(lp3527
S'hmac_key'
p3528
asbag69
(g90
g71
NtRp3529
(dp3530
g74
(dp3531
g101
g102
ssg83
g3520
sg76
(lp3532
S':'
asbag69
(g90
g71
NtRp3533
(dp3534
g74
(dp3535
sg83
g3520
sg76
(lp3536
g69
(g70
g71
NtRp3537
(dp3538
g74
(dp3539
g82
I4
ssg83
g3533
sg76
(lp3540
S'607ad7c5-b3a6-421f-bafe-7eb344604f2d'
p3541
asbasbasbag69
(g85
g71
NtRp3542
(dp3543
g74
(dp3544
sg83
g3494
sg76
(lp3545
g69
(g90
g71
NtRp3546
(dp3547
g74
(dp3548
g94
g95
ssg83
g3542
sg76
(lp3549
S'last_visit'
p3550
asbag69
(g90
g71
NtRp3551
(dp3552
g74
(dp3553
g101
g102
ssg83
g3542
sg76
(lp3554
S':'
asbag69
(g90
g71
NtRp3555
(dp3556
g74
(dp3557
sg83
g3542
sg76
(lp3558
g69
(g70
g71
NtRp3559
(dp3560
g74
(dp3561
g82
I4
ssg83
g3555
sg76
(lp3562
S'datetime.datetime(2013, 8, 27, 14, 47, 34, 601550)'
p3563
asbasbasbag69
(g85
g71
NtRp3564
(dp3565
g74
(dp3566
sg83
g3494
sg76
(lp3567
g69
(g90
g71
NtRp3568
(dp3569
g74
(dp3570
g94
g95
ssg83
g3564
sg76
(lp3571
S'remember'
p3572
asbag69
(g90
g71
NtRp3573
(dp3574
g74
(dp3575
g101
g102
ssg83
g3564
sg76
(lp3576
S':'
asbag69
(g90
g71
NtRp3577
(dp3578
g74
(dp3579
sg83
g3564
sg76
(lp3580
g69
(g70
g71
NtRp3581
(dp3582
g74
(dp3583
g82
I4
ssg83
g3577
sg76
(lp3584
g112
asbasbasbag69
(g85
g71
NtRp3585
(dp3586
g74
(dp3587
sg83
g3494
sg76
(lp3588
g69
(g90
g71
NtRp3589
(dp3590
g74
(dp3591
g94
g95
ssg83
g3585
sg76
(lp3592
S'user'
p3593
asbag69
(g90
g71
NtRp3594
(dp3595
g74
(dp3596
g101
g102
ssg83
g3585
sg76
(lp3597
S':'
asbag69
(g90
g71
NtRp3598
(dp3599
g74
(dp3600
sg83
g3585
sg76
(lp3601
g69
(g70
g71
NtRp3602
(dp3603
g74
(dp3604
g82
I4
ssg83
g3598
sg76
(lp3605
g69
(g78
g71
NtRp3606
(dp3607
g74
(dp3608
g82
I3
ssg83
Nsg76
(lp3609
g69
(g85
g71
NtRp3610
(dp3611
g74
(dp3612
sg83
g3606
sg76
(lp3613
g69
(g90
g71
NtRp3614
(dp3615
g74
(dp3616
g94
g95
ssg83
g3610
sg76
(lp3617
S'email'
p3618
asbag69
(g90
g71
NtRp3619
(dp3620
g74
(dp3621
g101
g102
ssg83
g3610
sg76
(lp3622
S':'
asbag69
(g90
g71
NtRp3623
(dp3624
g74
(dp3625
sg83
g3610
sg76
(lp3626
g69
(g70
g71
NtRp3627
(dp3628
g74
(dp3629
g82
I3
ssg83
g3623
sg76
(lp3630
S'bangashipra@gmail.com'
p3631
asbasbasbag69
(g85
g71
NtRp3632
(dp3633
g74
(dp3634
sg83
g3606
sg76
(lp3635
g69
(g90
g71
NtRp3636
(dp3637
g74
(dp3638
g94
g95
ssg83
g3632
sg76
(lp3639
S'first_name'
p3640
asbag69
(g90
g71
NtRp3641
(dp3642
g74
(dp3643
g101
g102
ssg83
g3632
sg76
(lp3644
S':'
asbag69
(g90
g71
NtRp3645
(dp3646
g74
(dp3647
sg83
g3632
sg76
(lp3648
g69
(g70
g71
NtRp3649
(dp3650
g74
(dp3651
g82
I3
ssg83
g3645
sg76
(lp3652
S'Shipra'
p3653
asbasbasbag69
(g85
g71
NtRp3654
(dp3655
g74
(dp3656
sg83
g3606
sg76
(lp3657
g69
(g90
g71
NtRp3658
(dp3659
g74
(dp3660
g94
g95
ssg83
g3654
sg76
(lp3661
S'id'
p3662
asbag69
(g90
g71
NtRp3663
(dp3664
g74
(dp3665
g101
g102
ssg83
g3654
sg76
(lp3666
S':'
asbag69
(g90
g71
NtRp3667
(dp3668
g74
(dp3669
sg83
g3654
sg76
(lp3670
g69
(g70
g71
NtRp3671
(dp3672
g74
(dp3673
g82
I3
ssg83
g3667
sg76
(lp3674
S'3'
asbasbasbag69
(g85
g71
NtRp3675
(dp3676
g74
(dp3677
sg83
g3606
sg76
(lp3678
g69
(g90
g71
NtRp3679
(dp3680
g74
(dp3681
g94
g95
ssg83
g3675
sg76
(lp3682
S'last_name'
p3683
asbag69
(g90
g71
NtRp3684
(dp3685
g74
(dp3686
g101
g102
ssg83
g3675
sg76
(lp3687
S':'
asbag69
(g90
g71
NtRp3688
(dp3689
g74
(dp3690
sg83
g3675
sg76
(lp3691
g69
(g70
g71
NtRp3692
(dp3693
g74
(dp3694
g82
I3
ssg83
g3688
sg76
(lp3695
S'Banga'
p3696
asbasbasbag69
(g85
g71
NtRp3697
(dp3698
g74
(dp3699
sg83
g3606
sg76
(lp3700
g69
(g90
g71
NtRp3701
(dp3702
g74
(dp3703
g94
g95
ssg83
g3697
sg76
(lp3704
S'registration_id'
p3705
asbag69
(g90
g71
NtRp3706
(dp3707
g74
(dp3708
g101
g102
ssg83
g3697
sg76
(lp3709
S':'
asbag69
(g90
g71
NtRp3710
(dp3711
g74
(dp3712
sg83
g3697
sg76
(lp3713
g69
(g70
g71
NtRp3714
(dp3715
g74
(dp3716
g82
I3
ssg83
g3710
sg76
(lp3717
S''
asbasbasbag69
(g85
g71
NtRp3718
(dp3719
g74
(dp3720
sg83
g3606
sg76
(lp3721
g69
(g90
g71
NtRp3722
(dp3723
g74
(dp3724
g94
g95
ssg83
g3718
sg76
(lp3725
S'registration_key'
p3726
asbag69
(g90
g71
NtRp3727
(dp3728
g74
(dp3729
g101
g102
ssg83
g3718
sg76
(lp3730
S':'
asbag69
(g90
g71
NtRp3731
(dp3732
g74
(dp3733
sg83
g3718
sg76
(lp3734
g69
(g70
g71
NtRp3735
(dp3736
g74
(dp3737
g82
I3
ssg83
g3731
sg76
(lp3738
S''
asbasbasbag69
(g85
g71
NtRp3739
(dp3740
g74
(dp3741
sg83
g3606
sg76
(lp3742
g69
(g90
g71
NtRp3743
(dp3744
g74
(dp3745
g94
g95
ssg83
g3739
sg76
(lp3746
S'reset_password_key'
p3747
asbag69
(g90
g71
NtRp3748
(dp3749
g74
(dp3750
g101
g102
ssg83
g3739
sg76
(lp3751
S':'
asbag69
(g90
g71
NtRp3752
(dp3753
g74
(dp3754
sg83
g3739
sg76
(lp3755
g69
(g70
g71
NtRp3756
(dp3757
g74
(dp3758
g82
I3
ssg83
g3752
sg76
(lp3759
S''
asbasbasbag69
(g85
g71
NtRp3760
(dp3761
g74
(dp3762
sg83
g3606
sg76
(lp3763
g69
(g90
g71
NtRp3764
(dp3765
g74
(dp3766
g94
g95
ssg83
g3760
sg76
(lp3767
S'username'
p3768
asbag69
(g90
g71
NtRp3769
(dp3770
g74
(dp3771
g101
g102
ssg83
g3760
sg76
(lp3772
S':'
asbag69
(g90
g71
NtRp3773
(dp3774
g74
(dp3775
sg83
g3760
sg76
(lp3776
g69
(g70
g71
NtRp3777
(dp3778
g74
(dp3779
g82
I3
ssg83
g3773
sg76
(lp3780
S'admin'
p3781
asbasbasbasbasbasbasbag69
(g85
g71
NtRp3782
(dp3783
g74
(dp3784
sg83
g3494
sg76
(lp3785
g69
(g90
g71
NtRp3786
(dp3787
g74
(dp3788
g94
g95
ssg83
g3782
sg76
(lp3789
S'user_groups'
p3790
asbag69
(g90
g71
NtRp3791
(dp3792
g74
(dp3793
g101
g102
ssg83
g3782
sg76
(lp3794
S':'
asbag69
(g90
g71
NtRp3795
(dp3796
g74
(dp3797
sg83
g3782
sg76
(lp3798
g69
(g70
g71
NtRp3799
(dp3800
g74
(dp3801
g82
I4
ssg83
g3795
sg76
(lp3802
g69
(g78
g71
NtRp3803
(dp3804
g74
(dp3805
g82
I3
ssg83
Nsg76
(lp3806
g69
(g85
g71
NtRp3807
(dp3808
g74
(dp3809
sg83
g3803
sg76
(lp3810
g69
(g90
g71
NtRp3811
(dp3812
g74
(dp3813
g94
g95
ssg83
g3807
sg76
(lp3814
S'2'
asbag69
(g90
g71
NtRp3815
(dp3816
g74
(dp3817
g101
g102
ssg83
g3807
sg76
(lp3818
S':'
asbag69
(g90
g71
NtRp3819
(dp3820
g74
(dp3821
sg83
g3807
sg76
(lp3822
g69
(g70
g71
NtRp3823
(dp3824
g74
(dp3825
g82
I3
ssg83
g3819
sg76
(lp3826
S'user_3'
p3827
asbasbasbasbasbasbasbasbasbasbasbag69
(g85
g71
NtRp3828
(dp3829
g74
(dp3830
sg83
g3469
sg76
(lp3831
g69
(g90
g71
NtRp3832
(dp3833
g74
(dp3834
g94
g95
ssg83
g3828
sg76
(lp3835
S'flash'
p3836
asbag69
(g90
g71
NtRp3837
(dp3838
g74
(dp3839
g101
g102
ssg83
g3828
sg76
(lp3840
S':'
asbag69
(g90
g71
NtRp3841
(dp3842
g74
(dp3843
sg83
g3828
sg76
(lp3844
g69
(g70
g71
NtRp3845
(dp3846
g74
(dp3847
g82
I5
ssg83
g3841
sg76
(lp3848
S'None'
p3849
asbasbasbag69
(g85
g71
NtRp3850
(dp3851
g74
(dp3852
sg83
g3469
sg76
(lp3853
g69
(g90
g71
NtRp3854
(dp3855
g74
(dp3856
g94
g95
ssg83
g3850
sg76
(lp3857
S'last_orderby'
p3858
asbag69
(g90
g71
NtRp3859
(dp3860
g74
(dp3861
g101
g102
ssg83
g3850
sg76
(lp3862
S':'
asbag69
(g90
g71
NtRp3863
(dp3864
g74
(dp3865
sg83
g3850
sg76
(lp3866
g69
(g70
g71
NtRp3867
(dp3868
g74
(dp3869
g82
I5
ssg83
g3863
sg76
(lp3870
S'None'
p3871
asbasbasbag69
(g85
g71
NtRp3872
(dp3873
g74
(dp3874
sg83
g3469
sg76
(lp3875
g69
(g90
g71
NtRp3876
(dp3877
g74
(dp3878
g94
g95
ssg83
g3872
sg76
(lp3879
S'last_query'
p3880
asbag69
(g90
g71
NtRp3881
(dp3882
g74
(dp3883
g101
g102
ssg83
g3872
sg76
(lp3884
S':'
asbag69
(g90
g71
NtRp3885
(dp3886
g74
(dp3887
sg83
g3872
sg76
(lp3888
g69
(g70
g71
NtRp3889
(dp3890
g74
(dp3891
g82
I5
ssg83
g3885
sg76
(lp3892
S'db.Comm.id>0'
p3893
asbasbasbasbasbsS'etype'
p3894
S"<type 'exceptions.SyntaxError'>"
p3895
sS'date'
p3896
S'Tue Aug 27 14:47:47 2013'
p3897
sS'response'
p3898
g69
(g70
g71
NtRp3899
(dp3900
g74
(dp3901
sg76
(lp3902
g69
(g78
g71
NtRp3903
(dp3904
g74
(dp3905
g82
I5
ssg83
Nsg76
(lp3906
g69
(g85
g71
NtRp3907
(dp3908
g74
(dp3909
sg83
g3903
sg76
(lp3910
g69
(g90
g71
NtRp3911
(dp3912
g74
(dp3913
g94
g95
ssg83
g3907
sg76
(lp3914
g180
asbag69
(g90
g71
NtRp3915
(dp3916
g74
(dp3917
g101
g102
ssg83
g3907
sg76
(lp3918
S':'
asbag69
(g90
g71
NtRp3919
(dp3920
g74
(dp3921
sg83
g3907
sg76
(lp3922
g69
(g70
g71
NtRp3923
(dp3924
g74
(dp3925
g82
I5
ssg83
g3919
sg76
(lp3926
S'<cStringIO.StringO object at 0x7f0be02d6b20>'
p3927
asbasbasbag69
(g85
g71
NtRp3928
(dp3929
g74
(dp3930
sg83
g3903
sg76
(lp3931
g69
(g90
g71
NtRp3932
(dp3933
g74
(dp3934
g94
g95
ssg83
g3928
sg76
(lp3935
g268
asbag69
(g90
g71
NtRp3936
(dp3937
g74
(dp3938
g101
g102
ssg83
g3928
sg76
(lp3939
S':'
asbag69
(g90
g71
NtRp3940
(dp3941
g74
(dp3942
sg83
g3928
sg76
(lp3943
g69
(g70
g71
NtRp3944
(dp3945
g74
(dp3946
g82
I5
ssg83
g3940
sg76
(lp3947
g69
(g78
g71
NtRp3948
(dp3949
g74
(dp3950
g82
I4
ssg83
Nsg76
(lp3951
g69
(g85
g71
NtRp3952
(dp3953
g74
(dp3954
sg83
g3948
sg76
(lp3955
g69
(g90
g71
NtRp3956
(dp3957
g74
(dp3958
g94
g95
ssg83
g3952
sg76
(lp3959
S'session_id_assignment_2'
p3960
asbag69
(g90
g71
NtRp3961
(dp3962
g74
(dp3963
g101
g102
ssg83
g3952
sg76
(lp3964
S':'
asbag69
(g90
g71
NtRp3965
(dp3966
g74
(dp3967
sg83
g3952
sg76
(lp3968
g69
(g70
g71
NtRp3969
(dp3970
g74
(dp3971
g82
I4
ssg83
g3965
sg76
(lp3972
g686
ag69
(g78
g71
NtRp3973
(dp3974
g74
(dp3975
g82
I3
ssg83
Nsg76
(lp3976
g69
(g85
g71
NtRp3977
(dp3978
g74
(dp3979
sg83
g3973
sg76
(lp3980
g69
(g90
g71
NtRp3981
(dp3982
g74
(dp3983
g94
g95
ssg83
g3977
sg76
(lp3984
g319
asbag69
(g90
g71
NtRp3985
(dp3986
g74
(dp3987
g101
g102
ssg83
g3977
sg76
(lp3988
S':'
asbag69
(g90
g71
NtRp3989
(dp3990
g74
(dp3991
sg83
g3977
sg76
(lp3992
g69
(g70
g71
NtRp3993
(dp3994
g74
(dp3995
g82
I3
ssg83
g3989
sg76
(lp3996
S''
asbasbasbag69
(g85
g71
NtRp3997
(dp3998
g74
(dp3999
sg83
g3973
sg76
(lp4000
g69
(g90
g71
NtRp4001
(dp4002
g74
(dp4003
g94
g95
ssg83
g3997
sg76
(lp4004
g340
asbag69
(g90
g71
NtRp4005
(dp4006
g74
(dp4007
g101
g102
ssg83
g3997
sg76
(lp4008
S':'
asbag69
(g90
g71
NtRp4009
(dp4010
g74
(dp4011
sg83
g3997
sg76
(lp4012
g69
(g70
g71
NtRp4013
(dp4014
g74
(dp4015
g82
I3
ssg83
g4009
sg76
(lp4016
S''
asbasbasbag69
(g85
g71
NtRp4017
(dp4018
g74
(dp4019
sg83
g3973
sg76
(lp4020
g69
(g90
g71
NtRp4021
(dp4022
g74
(dp4023
g94
g95
ssg83
g4017
sg76
(lp4024
g361
asbag69
(g90
g71
NtRp4025
(dp4026
g74
(dp4027
g101
g102
ssg83
g4017
sg76
(lp4028
S':'
asbag69
(g90
g71
NtRp4029
(dp4030
g74
(dp4031
sg83
g4017
sg76
(lp4032
g69
(g70
g71
NtRp4033
(dp4034
g74
(dp4035
g82
I3
ssg83
g4029
sg76
(lp4036
S''
asbasbasbag69
(g85
g71
NtRp4037
(dp4038
g74
(dp4039
sg83
g3973
sg76
(lp4040
g69
(g90
g71
NtRp4041
(dp4042
g74
(dp4043
g94
g95
ssg83
g4037
sg76
(lp4044
g382
asbag69
(g90
g71
NtRp4045
(dp4046
g74
(dp4047
g101
g102
ssg83
g4037
sg76
(lp4048
S':'
asbag69
(g90
g71
NtRp4049
(dp4050
g74
(dp4051
sg83
g4037
sg76
(lp4052
g69
(g70
g71
NtRp4053
(dp4054
g74
(dp4055
g82
I3
ssg83
g4049
sg76
(lp4056
S''
asbasbasbag69
(g85
g71
NtRp4057
(dp4058
g74
(dp4059
sg83
g3973
sg76
(lp4060
g69
(g90
g71
NtRp4061
(dp4062
g74
(dp4063
g94
g95
ssg83
g4057
sg76
(lp4064
g403
asbag69
(g90
g71
NtRp4065
(dp4066
g74
(dp4067
g101
g102
ssg83
g4057
sg76
(lp4068
S':'
asbag69
(g90
g71
NtRp4069
(dp4070
g74
(dp4071
sg83
g4057
sg76
(lp4072
g69
(g70
g71
NtRp4073
(dp4074
g74
(dp4075
g82
I3
ssg83
g4069
sg76
(lp4076
S''
asbasbasbag69
(g85
g71
NtRp4077
(dp4078
g74
(dp4079
sg83
g3973
sg76
(lp4080
g69
(g90
g71
NtRp4081
(dp4082
g74
(dp4083
g94
g95
ssg83
g4077
sg76
(lp4084
g424
asbag69
(g90
g71
NtRp4085
(dp4086
g74
(dp4087
g101
g102
ssg83
g4077
sg76
(lp4088
S':'
asbag69
(g90
g71
NtRp4089
(dp4090
g74
(dp4091
sg83
g4077
sg76
(lp4092
g69
(g70
g71
NtRp4093
(dp4094
g74
(dp4095
g82
I3
ssg83
g4089
sg76
(lp4096
S'/'
asbasbasbag69
(g85
g71
NtRp4097
(dp4098
g74
(dp4099
sg83
g3973
sg76
(lp4100
g69
(g90
g71
NtRp4101
(dp4102
g74
(dp4103
g94
g95
ssg83
g4097
sg76
(lp4104
g445
asbag69
(g90
g71
NtRp4105
(dp4106
g74
(dp4107
g101
g102
ssg83
g4097
sg76
(lp4108
S':'
asbag69
(g90
g71
NtRp4109
(dp4110
g74
(dp4111
sg83
g4097
sg76
(lp4112
g69
(g70
g71
NtRp4113
(dp4114
g74
(dp4115
g82
I3
ssg83
g4109
sg76
(lp4116
S''
asbasbasbag69
(g85
g71
NtRp4117
(dp4118
g74
(dp4119
sg83
g3973
sg76
(lp4120
g69
(g90
g71
NtRp4121
(dp4122
g74
(dp4123
g94
g95
ssg83
g4117
sg76
(lp4124
g466
asbag69
(g90
g71
NtRp4125
(dp4126
g74
(dp4127
g101
g102
ssg83
g4117
sg76
(lp4128
S':'
asbag69
(g90
g71
NtRp4129
(dp4130
g74
(dp4131
sg83
g4117
sg76
(lp4132
g69
(g70
g71
NtRp4133
(dp4134
g74
(dp4135
g82
I3
ssg83
g4129
sg76
(lp4136
S''
asbasbasbasbasbasbasbasbasbasbasbag69
(g85
g71
NtRp4137
(dp4138
g74
(dp4139
sg83
g3903
sg76
(lp4140
g69
(g90
g71
NtRp4141
(dp4142
g74
(dp4143
g94
g95
ssg83
g4137
sg76
(lp4144
S'delimiters'
p4145
asbag69
(g90
g71
NtRp4146
(dp4147
g74
(dp4148
g101
g102
ssg83
g4137
sg76
(lp4149
S':'
asbag69
(g90
g71
NtRp4150
(dp4151
g74
(dp4152
sg83
g4137
sg76
(lp4153
g69
(g70
g71
NtRp4154
(dp4155
g74
(dp4156
g82
I5
ssg83
g4150
sg76
(lp4157
g69
(g78
g71
NtRp4158
(dp4159
g74
(dp4160
g82
I4
ssg83
Nsg76
(lp4161
g69
(g85
g71
NtRp4162
(dp4163
g74
(dp4164
sg83
g4158
sg76
(lp4165
g69
(g90
g71
NtRp4166
(dp4167
g74
(dp4168
sg83
g4162
sg76
(lp4169
g69
(g70
g71
NtRp4170
(dp4171
g74
(dp4172
g82
I4
ssg83
g4166
sg76
(lp4173
S'{{'
p4174
asbasbasbag69
(g85
g71
NtRp4175
(dp4176
g74
(dp4177
sg83
g4158
sg76
(lp4178
g69
(g90
g71
NtRp4179
(dp4180
g74
(dp4181
sg83
g4175
sg76
(lp4182
g69
(g70
g71
NtRp4183
(dp4184
g74
(dp4185
g82
I4
ssg83
g4179
sg76
(lp4186
S'}}'
p4187
asbasbasbasbasbasbasbag69
(g85
g71
NtRp4188
(dp4189
g74
(dp4190
sg83
g3903
sg76
(lp4191
g69
(g90
g71
NtRp4192
(dp4193
g74
(dp4194
g94
g95
ssg83
g4188
sg76
(lp4195
S'files'
p4196
asbag69
(g90
g71
NtRp4197
(dp4198
g74
(dp4199
g101
g102
ssg83
g4188
sg76
(lp4200
S':'
asbag69
(g90
g71
NtRp4201
(dp4202
g74
(dp4203
sg83
g4188
sg76
(lp4204
g69
(g70
g71
NtRp4205
(dp4206
g74
(dp4207
g82
I5
ssg83
g4201
sg76
(lp4208
g69
(g78
g71
NtRp4209
(dp4210
g74
(dp4211
g82
I4
ssg83
Nsg76
(lp4212
sbasbasbasbag69
(g85
g71
NtRp4213
(dp4214
g74
(dp4215
sg83
g3903
sg76
(lp4216
g69
(g90
g71
NtRp4217
(dp4218
g74
(dp4219
g94
g95
ssg83
g4213
sg76
(lp4220
S'flash'
p4221
asbag69
(g90
g71
NtRp4222
(dp4223
g74
(dp4224
g101
g102
ssg83
g4213
sg76
(lp4225
S':'
asbag69
(g90
g71
NtRp4226
(dp4227
g74
(dp4228
sg83
g4213
sg76
(lp4229
g69
(g70
g71
NtRp4230
(dp4231
g74
(dp4232
g82
I5
ssg83
g4226
sg76
(lp4233
S''
asbasbasbag69
(g85
g71
NtRp4234
(dp4235
g74
(dp4236
sg83
g3903
sg76
(lp4237
g69
(g90
g71
NtRp4238
(dp4239
g74
(dp4240
g94
g95
ssg83
g4234
sg76
(lp4241
S'generic_patterns'
p4242
asbag69
(g90
g71
NtRp4243
(dp4244
g74
(dp4245
g101
g102
ssg83
g4234
sg76
(lp4246
S':'
asbag69
(g90
g71
NtRp4247
(dp4248
g74
(dp4249
sg83
g4234
sg76
(lp4250
g69
(g70
g71
NtRp4251
(dp4252
g74
(dp4253
g82
I5
ssg83
g4247
sg76
(lp4254
g69
(g78
g71
NtRp4255
(dp4256
g74
(dp4257
g82
I4
ssg83
Nsg76
(lp4258
g69
(g85
g71
NtRp4259
(dp4260
g74
(dp4261
sg83
g4255
sg76
(lp4262
g69
(g90
g71
NtRp4263
(dp4264
g74
(dp4265
sg83
g4259
sg76
(lp4266
g69
(g70
g71
NtRp4267
(dp4268
g74
(dp4269
g82
I4
ssg83
g4263
sg76
(lp4270
S'*'
asbasbasbasbasbasbasbag69
(g85
g71
NtRp4271
(dp4272
g74
(dp4273
sg83
g3903
sg76
(lp4274
g69
(g90
g71
NtRp4275
(dp4276
g74
(dp4277
g94
g95
ssg83
g4271
sg76
(lp4278
S'google_analytics_id'
p4279
asbag69
(g90
g71
NtRp4280
(dp4281
g74
(dp4282
g101
g102
ssg83
g4271
sg76
(lp4283
S':'
asbag69
(g90
g71
NtRp4284
(dp4285
g74
(dp4286
sg83
g4271
sg76
(lp4287
g69
(g70
g71
NtRp4288
(dp4289
g74
(dp4290
g82
I5
ssg83
g4284
sg76
(lp4291
S'None'
p4292
asbasbasbag69
(g85
g71
NtRp4293
(dp4294
g74
(dp4295
sg83
g3903
sg76
(lp4296
g69
(g90
g71
NtRp4297
(dp4298
g74
(dp4299
g94
g95
ssg83
g4293
sg76
(lp4300
S'headers'
p4301
asbag69
(g90
g71
NtRp4302
(dp4303
g74
(dp4304
g101
g102
ssg83
g4293
sg76
(lp4305
S':'
asbag69
(g90
g71
NtRp4306
(dp4307
g74
(dp4308
sg83
g4293
sg76
(lp4309
g69
(g70
g71
NtRp4310
(dp4311
g74
(dp4312
g82
I5
ssg83
g4306
sg76
(lp4313
g69
(g78
g71
NtRp4314
(dp4315
g74
(dp4316
g82
I4
ssg83
Nsg76
(lp4317
g69
(g85
g71
NtRp4318
(dp4319
g74
(dp4320
sg83
g4314
sg76
(lp4321
g69
(g90
g71
NtRp4322
(dp4323
g74
(dp4324
g94
g95
ssg83
g4318
sg76
(lp4325
S'X-Powered-By'
p4326
asbag69
(g90
g71
NtRp4327
(dp4328
g74
(dp4329
g101
g102
ssg83
g4318
sg76
(lp4330
S':'
asbag69
(g90
g71
NtRp4331
(dp4332
g74
(dp4333
sg83
g4318
sg76
(lp4334
g69
(g70
g71
NtRp4335
(dp4336
g74
(dp4337
g82
I4
ssg83
g4331
sg76
(lp4338
S'web2py'
p4339
asbasbasbasbasbasbasbag69
(g85
g71
NtRp4340
(dp4341
g74
(dp4342
sg83
g3903
sg76
(lp4343
g69
(g90
g71
NtRp4344
(dp4345
g74
(dp4346
g94
g95
ssg83
g4340
sg76
(lp4347
S'logo'
p4348
asbag69
(g90
g71
NtRp4349
(dp4350
g74
(dp4351
g101
g102
ssg83
g4340
sg76
(lp4352
S':'
asbag69
(g90
g71
NtRp4353
(dp4354
g74
(dp4355
sg83
g4340
sg76
(lp4356
g69
(g70
g71
NtRp4357
(dp4358
g74
(dp4359
g82
I5
ssg83
g4353
sg76
(lp4360
g69
(cgluon.html
A
p4361
g71
NtRp4362
(dp4363
g74
(dp4364
S'_class'
p4365
S'brand'
p4366
sS'_href'
p4367
S'http://www.web2py.com/'
p4368
ssg83
Nsg76
(lp4369
g69
(cgluon.html
B
p4370
g71
NtRp4371
(dp4372
g74
(dp4373
sg83
g4362
sg76
(lp4374
S'web'
p4375
ag69
(cgluon.html
SPAN
p4376
g71
NtRp4377
(dp4378
g74
(dp4379
sg83
g4371
sg76
(lp4380
I2
asbaS'py'
p4381
asbacgluon.html
XML_unpickle
p4382
(S's\r\x00\x00\x00&trade;&nbsp;'
tRp4383
asbasbasbasbag69
(g85
g71
NtRp4384
(dp4385
g74
(dp4386
sg83
g3903
sg76
(lp4387
g69
(g90
g71
NtRp4388
(dp4389
g74
(dp4390
g94
g95
ssg83
g4384
sg76
(lp4391
S'menu'
p4392
asbag69
(g90
g71
NtRp4393
(dp4394
g74
(dp4395
g101
g102
ssg83
g4384
sg76
(lp4396
S':'
asbag69
(g90
g71
NtRp4397
(dp4398
g74
(dp4399
sg83
g4384
sg76
(lp4400
g69
(g70
g71
NtRp4401
(dp4402
g74
(dp4403
g82
I5
ssg83
g4397
sg76
(lp4404
g69
(g78
g71
NtRp4405
(dp4406
g74
(dp4407
g82
I4
ssg83
Nsg76
(lp4408
g69
(g85
g71
NtRp4409
(dp4410
g74
(dp4411
sg83
g4405
sg76
(lp4412
g69
(g90
g71
NtRp4413
(dp4414
g74
(dp4415
sg83
g4409
sg76
(lp4416
g69
(g70
g71
NtRp4417
(dp4418
g74
(dp4419
g82
I4
ssg83
g4413
sg76
(lp4420
g69
(g78
g71
NtRp4421
(dp4422
g74
(dp4423
g82
I3
ssg83
Nsg76
(lp4424
g69
(g85
g71
NtRp4425
(dp4426
g74
(dp4427
sg83
g4421
sg76
(lp4428
g69
(g90
g71
NtRp4429
(dp4430
g74
(dp4431
sg83
g4425
sg76
(lp4432
g69
(g70
g71
NtRp4433
(dp4434
g74
(dp4435
g82
I3
ssg83
g4429
sg76
(lp4436
cgluon.languages
lazyT_unpickle
p4437
(S's\x04\x00\x00\x00Home'
tRp4438
asbasbasbag69
(g85
g71
NtRp4439
(dp4440
g74
(dp4441
sg83
g4421
sg76
(lp4442
g69
(g90
g71
NtRp4443
(dp4444
g74
(dp4445
sg83
g4439
sg76
(lp4446
g69
(g70
g71
NtRp4447
(dp4448
g74
(dp4449
g82
I3
ssg83
g4443
sg76
(lp4450
g112
asbasbasbag69
(g85
g71
NtRp4451
(dp4452
g74
(dp4453
sg83
g4421
sg76
(lp4454
g69
(g90
g71
NtRp4455
(dp4456
g74
(dp4457
sg83
g4451
sg76
(lp4458
g69
(g70
g71
NtRp4459
(dp4460
g74
(dp4461
g82
I3
ssg83
g4455
sg76
(lp4462
S'/Assignment_2/default/index'
p4463
asbasbasbag69
(g85
g71
NtRp4464
(dp4465
g74
(dp4466
sg83
g4421
sg76
(lp4467
g69
(g90
g71
NtRp4468
(dp4469
g74
(dp4470
sg83
g4464
sg76
(lp4471
g69
(g70
g71
NtRp4472
(dp4473
g74
(dp4474
g82
I3
ssg83
g4468
sg76
(lp4475
g69
(g78
g71
NtRp4476
(dp4477
g74
(dp4478
g82
I2
ssg83
Nsg76
(lp4479
sbasbasbasbasbasbasbasbag69
(g85
g71
NtRp4480
(dp4481
g74
(dp4482
sg83
g4405
sg76
(lp4483
g69
(g90
g71
NtRp4484
(dp4485
g74
(dp4486
sg83
g4480
sg76
(lp4487
g69
(g70
g71
NtRp4488
(dp4489
g74
(dp4490
g82
I4
ssg83
g4484
sg76
(lp4491
g69
(g78
g71
NtRp4492
(dp4493
g74
(dp4494
g82
I3
ssg83
Nsg76
(lp4495
g69
(g85
g71
NtRp4496
(dp4497
g74
(dp4498
sg83
g4492
sg76
(lp4499
g69
(g90
g71
NtRp4500
(dp4501
g74
(dp4502
sg83
g4496
sg76
(lp4503
g69
(g70
g71
NtRp4504
(dp4505
g74
(dp4506
g82
I3
ssg83
g4500
sg76
(lp4507
g69
(g4376
g71
NtRp4508
(dp4509
g74
(dp4510
g4365
S'highlighted'
p4511
ssg83
Nsg76
(lp4512
g4339
asbasbasbasbag69
(g85
g71
NtRp4513
(dp4514
g74
(dp4515
sg83
g4492
sg76
(lp4516
g69
(g90
g71
NtRp4517
(dp4518
g74
(dp4519
sg83
g4513
sg76
(lp4520
g69
(g70
g71
NtRp4521
(dp4522
g74
(dp4523
g82
I3
ssg83
g4517
sg76
(lp4524
g112
asbasbasbag69
(g85
g71
NtRp4525
(dp4526
g74
(dp4527
sg83
g4492
sg76
(lp4528
g69
(g90
g71
NtRp4529
(dp4530
g74
(dp4531
sg83
g4525
sg76
(lp4532
g69
(g70
g71
NtRp4533
(dp4534
g74
(dp4535
g82
I3
ssg83
g4529
sg76
(lp4536
S'http://web2py.com'
p4537
asbasbasbag69
(g85
g71
NtRp4538
(dp4539
g74
(dp4540
sg83
g4492
sg76
(lp4541
g69
(g90
g71
NtRp4542
(dp4543
g74
(dp4544
sg83
g4538
sg76
(lp4545
g69
(g70
g71
NtRp4546
(dp4547
g74
(dp4548
g82
I3
ssg83
g4542
sg76
(lp4549
g69
(g78
g71
NtRp4550
(dp4551
g74
(dp4552
g82
I2
ssg83
Nsg76
(lp4553
g69
(g85
g71
NtRp4554
(dp4555
g74
(dp4556
sg83
g4550
sg76
(lp4557
g69
(g90
g71
NtRp4558
(dp4559
g74
(dp4560
sg83
g4554
sg76
(lp4561
g69
(g70
g71
NtRp4562
(dp4563
g74
(dp4564
g82
I2
ssg83
g4558
sg76
(lp4565
g69
(g78
g71
NtRp4566
(dp4567
g74
(dp4568
g82
I1
ssg83
Nsg76
(lp4569
g69
(g85
g71
NtRp4570
(dp4571
g74
(dp4572
sg83
g4566
sg76
(lp4573
g69
(g90
g71
NtRp4574
(dp4575
g74
(dp4576
sg83
g4570
sg76
(lp4577
g69
(g70
g71
NtRp4578
(dp4579
g74
(dp4580
g82
I1
ssg83
g4574
sg76
(lp4581
g4437
(S's\x08\x00\x00\x00My Sites'
tRp4582
asbasbasbag69
(g85
g71
NtRp4583
(dp4584
g74
(dp4585
sg83
g4566
sg76
(lp4586
g69
(g90
g71
NtRp4587
(dp4588
g74
(dp4589
sg83
g4583
sg76
(lp4590
g69
(g70
g71
NtRp4591
(dp4592
g74
(dp4593
g82
I1
ssg83
g4587
sg76
(lp4594
I00
asbasbasbag69
(g85
g71
NtRp4595
(dp4596
g74
(dp4597
sg83
g4566
sg76
(lp4598
g69
(g90
g71
NtRp4599
(dp4600
g74
(dp4601
sg83
g4595
sg76
(lp4602
g69
(g70
g71
NtRp4603
(dp4604
g74
(dp4605
g82
I1
ssg83
g4599
sg76
(lp4606
S'/admin/default/site'
p4607
asbasbasbasbasbasbasbag69
(g85
g71
NtRp4608
(dp4609
g74
(dp4610
sg83
g4550
sg76
(lp4611
g69
(g90
g71
NtRp4612
(dp4613
g74
(dp4614
sg83
g4608
sg76
(lp4615
g69
(g70
g71
NtRp4616
(dp4617
g74
(dp4618
g82
I2
ssg83
g4612
sg76
(lp4619
g69
(g78
g71
NtRp4620
(dp4621
g74
(dp4622
g82
I1
ssg83
Nsg76
(lp4623
g69
(g85
g71
NtRp4624
(dp4625
g74
(dp4626
sg83
g4620
sg76
(lp4627
g69
(g90
g71
NtRp4628
(dp4629
g74
(dp4630
sg83
g4624
sg76
(lp4631
g69
(g70
g71
NtRp4632
(dp4633
g74
(dp4634
g82
I1
ssg83
g4628
sg76
(lp4635
g4437
(S's\x08\x00\x00\x00This App'
tRp4636
asbasbasbag69
(g85
g71
NtRp4637
(dp4638
g74
(dp4639
sg83
g4620
sg76
(lp4640
g69
(g90
g71
NtRp4641
(dp4642
g74
(dp4643
sg83
g4637
sg76
(lp4644
g69
(g70
g71
NtRp4645
(dp4646
g74
(dp4647
g82
I1
ssg83
g4641
sg76
(lp4648
I00
asbasbasbag69
(g85
g71
NtRp4649
(dp4650
g74
(dp4651
sg83
g4620
sg76
(lp4652
g69
(g90
g71
NtRp4653
(dp4654
g74
(dp4655
sg83
g4649
sg76
(lp4656
g69
(g70
g71
NtRp4657
(dp4658
g74
(dp4659
g82
I1
ssg83
g4653
sg76
(lp4660
S'/admin/default/design/Assignment_2'
p4661
asbasbasbag69
(g85
g71
NtRp4662
(dp4663
g74
(dp4664
sg83
g4620
sg76
(lp4665
g69
(g90
g71
NtRp4666
(dp4667
g74
(dp4668
sg83
g4662
sg76
(lp4669
g69
(g70
g71
NtRp4670
(dp4671
g74
(dp4672
g82
I1
ssg83
g4666
sg76
(lp4673
(lp4674
(g4437
(S's\n\x00\x00\x00Controller'
tRp4675
I00
S'/admin/default/edit/Assignment_2/controllers/default.py'
tp4676
a(g4437
(S's\x04\x00\x00\x00View'
tRp4677
I00
S'/admin/default/edit/Assignment_2/views/default/categ_display.html'
tp4678
a(g4437
(S's\x06\x00\x00\x00Layout'
tRp4679
I00
S'/admin/default/edit/Assignment_2/views/layout.html'
tp4680
a(g4437
(S's\n\x00\x00\x00Stylesheet'
tRp4681
I00
S'/admin/default/edit/Assignment_2/static/css/web2py.css'
tp4682
a(g4437
(S's\x08\x00\x00\x00DB Model'
tRp4683
I00
S'/admin/default/edit/Assignment_2/models/db.py'
tp4684
a(g4437
(S's\n\x00\x00\x00Menu Model'
tRp4685
I00
S'/admin/default/edit/Assignment_2/models/menu.py'
tp4686
a(g4437
(S's\x08\x00\x00\x00Database'
tRp4687
I00
S'/Assignment_2/appadmin/index'
tp4688
a(g4437
(S's\x06\x00\x00\x00Errors'
tRp4689
I00
S'/admin/default/errors/Assignment_2'
tp4690
a(g4437
(S's\x05\x00\x00\x00About'
tRp4691
I00
S'/admin/default/about/Assignment_2'
tp4692
aasbasbasbasbasbasbasbag69
(g85
g71
NtRp4693
(dp4694
g74
(dp4695
sg83
g4550
sg76
(lp4696
g69
(g90
g71
NtRp4697
(dp4698
g74
(dp4699
sg83
g4693
sg76
(lp4700
g69
(g70
g71
NtRp4701
(dp4702
g74
(dp4703
g82
I2
ssg83
g4697
sg76
(lp4704
g69
(g78
g71
NtRp4705
(dp4706
g74
(dp4707
g82
I1
ssg83
Nsg76
(lp4708
g69
(g85
g71
NtRp4709
(dp4710
g74
(dp4711
sg83
g4705
sg76
(lp4712
g69
(g90
g71
NtRp4713
(dp4714
g74
(dp4715
sg83
g4709
sg76
(lp4716
g69
(g70
g71
NtRp4717
(dp4718
g74
(dp4719
g82
I1
ssg83
g4713
sg76
(lp4720
S'web2py.com'
p4721
asbasbasbag69
(g85
g71
NtRp4722
(dp4723
g74
(dp4724
sg83
g4705
sg76
(lp4725
g69
(g90
g71
NtRp4726
(dp4727
g74
(dp4728
sg83
g4722
sg76
(lp4729
g69
(g70
g71
NtRp4730
(dp4731
g74
(dp4732
g82
I1
ssg83
g4726
sg76
(lp4733
I00
asbasbasbag69
(g85
g71
NtRp4734
(dp4735
g74
(dp4736
sg83
g4705
sg76
(lp4737
g69
(g90
g71
NtRp4738
(dp4739
g74
(dp4740
sg83
g4734
sg76
(lp4741
g69
(g70
g71
NtRp4742
(dp4743
g74
(dp4744
g82
I1
ssg83
g4738
sg76
(lp4745
S'http://www.web2py.com'
p4746
asbasbasbag69
(g85
g71
NtRp4747
(dp4748
g74
(dp4749
sg83
g4705
sg76
(lp4750
g69
(g90
g71
NtRp4751
(dp4752
g74
(dp4753
sg83
g4747
sg76
(lp4754
g69
(g70
g71
NtRp4755
(dp4756
g74
(dp4757
g82
I1
ssg83
g4751
sg76
(lp4758
(lp4759
(g4437
(S's\x08\x00\x00\x00Download'
tRp4760
I00
S'http://www.web2py.com/examples/default/download'
p4761
tp4762
a(g4437
(S's\x07\x00\x00\x00Support'
tRp4763
I00
S'http://www.web2py.com/examples/default/support'
p4764
tp4765
a(g4437
(S's\x04\x00\x00\x00Demo'
tRp4766
I00
S'http://web2py.com/demo_admin'
p4767
tp4768
a(g4437
(S's\x0e\x00\x00\x00Quick Examples'
tRp4769
I00
S'http://web2py.com/examples/default/examples'
p4770
tp4771
a(g4437
(S's\x03\x00\x00\x00FAQ'
tRp4772
I00
S'http://web2py.com/AlterEgo'
p4773
tp4774
a(g4437
(S's\x06\x00\x00\x00Videos'
tRp4775
I00
S'http://www.web2py.com/examples/default/videos/'
p4776
tp4777
a(g4437
(S's\x11\x00\x00\x00Free Applications'
tRp4778
I00
S'http://web2py.com/appliances'
p4779
tp4780
a(g4437
(S's\x07\x00\x00\x00Plugins'
tRp4781
I00
S'http://web2py.com/plugins'
p4782
tp4783
a(g4437
(S's\x07\x00\x00\x00Layouts'
tRp4784
I00
S'http://web2py.com/layouts'
p4785
tp4786
a(g4437
(S's\x07\x00\x00\x00Recipes'
tRp4787
I00
S'http://web2pyslices.com/'
p4788
tp4789
a(g4437
(S's\x08\x00\x00\x00Semantic'
tRp4790
I00
S'http://web2py.com/semantic'
p4791
tp4792
aasbasbasbasbasbasbasbag69
(g85
g71
NtRp4793
(dp4794
g74
(dp4795
sg83
g4550
sg76
(lp4796
g69
(g90
g71
NtRp4797
(dp4798
g74
(dp4799
sg83
g4793
sg76
(lp4800
g69
(g70
g71
NtRp4801
(dp4802
g74
(dp4803
g82
I2
ssg83
g4797
sg76
(lp4804
g69
(g78
g71
NtRp4805
(dp4806
g74
(dp4807
g82
I1
ssg83
Nsg76
(lp4808
g69
(g85
g71
NtRp4809
(dp4810
g74
(dp4811
sg83
g4805
sg76
(lp4812
g69
(g90
g71
NtRp4813
(dp4814
g74
(dp4815
sg83
g4809
sg76
(lp4816
g69
(g70
g71
NtRp4817
(dp4818
g74
(dp4819
g82
I1
ssg83
g4813
sg76
(lp4820
g4437
(S's\r\x00\x00\x00Documentation'
tRp4821
asbasbasbag69
(g85
g71
NtRp4822
(dp4823
g74
(dp4824
sg83
g4805
sg76
(lp4825
g69
(g90
g71
NtRp4826
(dp4827
g74
(dp4828
sg83
g4822
sg76
(lp4829
g69
(g70
g71
NtRp4830
(dp4831
g74
(dp4832
g82
I1
ssg83
g4826
sg76
(lp4833
I00
asbasbasbag69
(g85
g71
NtRp4834
(dp4835
g74
(dp4836
sg83
g4805
sg76
(lp4837
g69
(g90
g71
NtRp4838
(dp4839
g74
(dp4840
sg83
g4834
sg76
(lp4841
g69
(g70
g71
NtRp4842
(dp4843
g74
(dp4844
g82
I1
ssg83
g4838
sg76
(lp4845
S'http://www.web2py.com/book'
p4846
asbasbasbag69
(g85
g71
NtRp4847
(dp4848
g74
(dp4849
sg83
g4805
sg76
(lp4850
g69
(g90
g71
NtRp4851
(dp4852
g74
(dp4853
sg83
g4847
sg76
(lp4854
g69
(g70
g71
NtRp4855
(dp4856
g74
(dp4857
g82
I1
ssg83
g4851
sg76
(lp4858
(lp4859
(g4437
(S's\x07\x00\x00\x00Preface'
tRp4860
I00
S'http://www.web2py.com/book/default/chapter/00'
p4861
tp4862
a(g4437
(S's\x0c\x00\x00\x00Introduction'
tRp4863
I00
S'http://www.web2py.com/book/default/chapter/01'
p4864
tp4865
a(g4437
(S's\x06\x00\x00\x00Python'
tRp4866
I00
S'http://www.web2py.com/book/default/chapter/02'
p4867
tp4868
a(g4437
(S's\x08\x00\x00\x00Overview'
tRp4869
I00
S'http://www.web2py.com/book/default/chapter/03'
p4870
tp4871
a(g4437
(S's\x08\x00\x00\x00The Core'
tRp4872
I00
S'http://www.web2py.com/book/default/chapter/04'
p4873
tp4874
a(g4437
(S's\t\x00\x00\x00The Views'
tRp4875
I00
S'http://www.web2py.com/book/default/chapter/05'
p4876
tp4877
a(g4437
(S's\x08\x00\x00\x00Database'
tRp4878
I00
S'http://www.web2py.com/book/default/chapter/06'
p4879
tp4880
a(g4437
(S's\x14\x00\x00\x00Forms and Validators'
tRp4881
I00
S'http://www.web2py.com/book/default/chapter/07'
p4882
tp4883
a(g4437
(S's\r\x00\x00\x00Email and SMS'
tRp4884
I00
S'http://www.web2py.com/book/default/chapter/08'
p4885
tp4886
a(g4437
(S's\x0e\x00\x00\x00Access Control'
tRp4887
I00
S'http://www.web2py.com/book/default/chapter/09'
p4888
tp4889
a(g4437
(S's\x08\x00\x00\x00Services'
tRp4890
I00
S'http://www.web2py.com/book/default/chapter/10'
p4891
tp4892
a(g4437
(S's\x0c\x00\x00\x00Ajax Recipes'
tRp4893
I00
S'http://www.web2py.com/book/default/chapter/11'
p4894
tp4895
a(g4437
(S's\x16\x00\x00\x00Components and Plugins'
tRp4896
I00
S'http://www.web2py.com/book/default/chapter/12'
p4897
tp4898
a(g4437
(S's\x12\x00\x00\x00Deployment Recipes'
tRp4899
I00
S'http://www.web2py.com/book/default/chapter/13'
p4900
tp4901
a(g4437
(S's\r\x00\x00\x00Other Recipes'
tRp4902
I00
S'http://www.web2py.com/book/default/chapter/14'
p4903
tp4904
a(g4437
(S's\r\x00\x00\x00Buy this book'
tRp4905
I00
S'http://stores.lulu.com/web2py'
p4906
tp4907
aasbasbasbasbasbasbasbag69
(g85
g71
NtRp4908
(dp4909
g74
(dp4910
sg83
g4550
sg76
(lp4911
g69
(g90
g71
NtRp4912
(dp4913
g74
(dp4914
sg83
g4908
sg76
(lp4915
g69
(g70
g71
NtRp4916
(dp4917
g74
(dp4918
g82
I2
ssg83
g4912
sg76
(lp4919
g69
(g78
g71
NtRp4920
(dp4921
g74
(dp4922
g82
I1
ssg83
Nsg76
(lp4923
g69
(g85
g71
NtRp4924
(dp4925
g74
(dp4926
sg83
g4920
sg76
(lp4927
g69
(g90
g71
NtRp4928
(dp4929
g74
(dp4930
sg83
g4924
sg76
(lp4931
g69
(g70
g71
NtRp4932
(dp4933
g74
(dp4934
g82
I1
ssg83
g4928
sg76
(lp4935
g4437
(S's\t\x00\x00\x00Community'
tRp4936
asbasbasbag69
(g85
g71
NtRp4937
(dp4938
g74
(dp4939
sg83
g4920
sg76
(lp4940
g69
(g90
g71
NtRp4941
(dp4942
g74
(dp4943
sg83
g4937
sg76
(lp4944
g69
(g70
g71
NtRp4945
(dp4946
g74
(dp4947
g82
I1
ssg83
g4941
sg76
(lp4948
I00
asbasbasbag69
(g85
g71
NtRp4949
(dp4950
g74
(dp4951
sg83
g4920
sg76
(lp4952
g69
(g90
g71
NtRp4953
(dp4954
g74
(dp4955
sg83
g4949
sg76
(lp4956
g69
(g70
g71
NtRp4957
(dp4958
g74
(dp4959
g82
I1
ssg83
g4953
sg76
(lp4960
Nasbasbasbag69
(g85
g71
NtRp4961
(dp4962
g74
(dp4963
sg83
g4920
sg76
(lp4964
g69
(g90
g71
NtRp4965
(dp4966
g74
(dp4967
sg83
g4961
sg76
(lp4968
g69
(g70
g71
NtRp4969
(dp4970
g74
(dp4971
g82
I1
ssg83
g4965
sg76
(lp4972
(lp4973
(g4437
(S's\x06\x00\x00\x00Groups'
tRp4974
I00
S'http://www.web2py.com/examples/default/usergroups'
p4975
tp4976
a(g4437
(S's\x07\x00\x00\x00Twitter'
tRp4977
I00
S'http://twitter.com/web2py'
p4978
tp4979
a(g4437
(S's\t\x00\x00\x00Live Chat'
tRp4980
I00
S'http://webchat.freenode.net/?channels=web2py'
p4981
tp4982
aasbasbasbasbasbasbasbag69
(g85
g71
NtRp4983
(dp4984
g74
(dp4985
sg83
g4550
sg76
(lp4986
g69
(g90
g71
NtRp4987
(dp4988
g74
(dp4989
sg83
g4983
sg76
(lp4990
g69
(g70
g71
NtRp4991
(dp4992
g74
(dp4993
g82
I2
ssg83
g4987
sg76
(lp4994
g69
(g78
g71
NtRp4995
(dp4996
g74
(dp4997
g82
I1
ssg83
Nsg76
(lp4998
g69
(g85
g71
NtRp4999
(dp5000
g74
(dp5001
sg83
g4995
sg76
(lp5002
g69
(g90
g71
NtRp5003
(dp5004
g74
(dp5005
sg83
g4999
sg76
(lp5006
g69
(g70
g71
NtRp5007
(dp5008
g74
(dp5009
g82
I1
ssg83
g5003
sg76
(lp5010
g4437
(S's\x07\x00\x00\x00Plugins'
tRp5011
asbasbasbag69
(g85
g71
NtRp5012
(dp5013
g74
(dp5014
sg83
g4995
sg76
(lp5015
g69
(g90
g71
NtRp5016
(dp5017
g74
(dp5018
sg83
g5012
sg76
(lp5019
g69
(g70
g71
NtRp5020
(dp5021
g74
(dp5022
g82
I1
ssg83
g5016
sg76
(lp5023
I00
asbasbasbag69
(g85
g71
NtRp5024
(dp5025
g74
(dp5026
sg83
g4995
sg76
(lp5027
g69
(g90
g71
NtRp5028
(dp5029
g74
(dp5030
sg83
g5024
sg76
(lp5031
g69
(g70
g71
NtRp5032
(dp5033
g74
(dp5034
g82
I1
ssg83
g5028
sg76
(lp5035
Nasbasbasbag69
(g85
g71
NtRp5036
(dp5037
g74
(dp5038
sg83
g4995
sg76
(lp5039
g69
(g90
g71
NtRp5040
(dp5041
g74
(dp5042
sg83
g5036
sg76
(lp5043
g69
(g70
g71
NtRp5044
(dp5045
g74
(dp5046
g82
I1
ssg83
g5040
sg76
(lp5047
(lp5048
(S'plugin_wiki'
p5049
I00
S'http://web2py.com/examples/default/download'
p5050
tp5051
a(g4437
(S's\r\x00\x00\x00Other Plugins'
tRp5052
I00
g4782
tp5053
a(g4437
(S's\x0e\x00\x00\x00Layout Plugins'
tRp5054
I00
g4785
tp5055
aasbasbasbasbasbasbasbasbasbasbasbasbasbasbasbasbasbasbasbag69
(g85
g71
NtRp5056
(dp5057
g74
(dp5058
sg83
g3903
sg76
(lp5059
g69
(g90
g71
NtRp5060
(dp5061
g74
(dp5062
g94
g95
ssg83
g5056
sg76
(lp5063
S'meta'
p5064
asbag69
(g90
g71
NtRp5065
(dp5066
g74
(dp5067
g101
g102
ssg83
g5056
sg76
(lp5068
S':'
asbag69
(g90
g71
NtRp5069
(dp5070
g74
(dp5071
sg83
g5056
sg76
(lp5072
g69
(g70
g71
NtRp5073
(dp5074
g74
(dp5075
g82
I5
ssg83
g5069
sg76
(lp5076
g69
(g78
g71
NtRp5077
(dp5078
g74
(dp5079
g82
I4
ssg83
Nsg76
(lp5080
g69
(g85
g71
NtRp5081
(dp5082
g74
(dp5083
sg83
g5077
sg76
(lp5084
g69
(g90
g71
NtRp5085
(dp5086
g74
(dp5087
g94
g95
ssg83
g5081
sg76
(lp5088
S'author'
p5089
asbag69
(g90
g71
NtRp5090
(dp5091
g74
(dp5092
g101
g102
ssg83
g5081
sg76
(lp5093
S':'
asbag69
(g90
g71
NtRp5094
(dp5095
g74
(dp5096
sg83
g5081
sg76
(lp5097
g69
(g70
g71
NtRp5098
(dp5099
g74
(dp5100
g82
I4
ssg83
g5094
sg76
(lp5101
S'Your Name <you@example.com>'
p5102
asbasbasbag69
(g85
g71
NtRp5103
(dp5104
g74
(dp5105
sg83
g5077
sg76
(lp5106
g69
(g90
g71
NtRp5107
(dp5108
g74
(dp5109
g94
g95
ssg83
g5103
sg76
(lp5110
S'description'
p5111
asbag69
(g90
g71
NtRp5112
(dp5113
g74
(dp5114
g101
g102
ssg83
g5103
sg76
(lp5115
S':'
asbag69
(g90
g71
NtRp5116
(dp5117
g74
(dp5118
sg83
g5103
sg76
(lp5119
g69
(g70
g71
NtRp5120
(dp5121
g74
(dp5122
g82
I4
ssg83
g5116
sg76
(lp5123
S'a cool new app'
p5124
asbasbasbag69
(g85
g71
NtRp5125
(dp5126
g74
(dp5127
sg83
g5077
sg76
(lp5128
g69
(g90
g71
NtRp5129
(dp5130
g74
(dp5131
g94
g95
ssg83
g5125
sg76
(lp5132
S'generator'
p5133
asbag69
(g90
g71
NtRp5134
(dp5135
g74
(dp5136
g101
g102
ssg83
g5125
sg76
(lp5137
S':'
asbag69
(g90
g71
NtRp5138
(dp5139
g74
(dp5140
sg83
g5125
sg76
(lp5141
g69
(g70
g71
NtRp5142
(dp5143
g74
(dp5144
g82
I4
ssg83
g5138
sg76
(lp5145
S'Web2py Web Framework'
p5146
asbasbasbag69
(g85
g71
NtRp5147
(dp5148
g74
(dp5149
sg83
g5077
sg76
(lp5150
g69
(g90
g71
NtRp5151
(dp5152
g74
(dp5153
g94
g95
ssg83
g5147
sg76
(lp5154
S'keywords'
p5155
asbag69
(g90
g71
NtRp5156
(dp5157
g74
(dp5158
g101
g102
ssg83
g5147
sg76
(lp5159
S':'
asbag69
(g90
g71
NtRp5160
(dp5161
g74
(dp5162
sg83
g5147
sg76
(lp5163
g69
(g70
g71
NtRp5164
(dp5165
g74
(dp5166
g82
I4
ssg83
g5160
sg76
(lp5167
S'web2py, python, framework'
p5168
asbasbasbasbasbasbasbag69
(g85
g71
NtRp5169
(dp5170
g74
(dp5171
sg83
g3903
sg76
(lp5172
g69
(g90
g71
NtRp5173
(dp5174
g74
(dp5175
g94
g95
ssg83
g5169
sg76
(lp5176
S'models_to_run'
p5177
asbag69
(g90
g71
NtRp5178
(dp5179
g74
(dp5180
g101
g102
ssg83
g5169
sg76
(lp5181
S':'
asbag69
(g90
g71
NtRp5182
(dp5183
g74
(dp5184
sg83
g5169
sg76
(lp5185
g69
(g70
g71
NtRp5186
(dp5187
g74
(dp5188
g82
I5
ssg83
g5182
sg76
(lp5189
g69
(g78
g71
NtRp5190
(dp5191
g74
(dp5192
g82
I4
ssg83
Nsg76
(lp5193
g69
(g85
g71
NtRp5194
(dp5195
g74
(dp5196
sg83
g5190
sg76
(lp5197
g69
(g90
g71
NtRp5198
(dp5199
g74
(dp5200
sg83
g5194
sg76
(lp5201
g69
(g70
g71
NtRp5202
(dp5203
g74
(dp5204
g82
I4
ssg83
g5198
sg76
(lp5205
S'^\\w+\\.py$'
p5206
asbasbasbag69
(g85
g71
NtRp5207
(dp5208
g74
(dp5209
sg83
g5190
sg76
(lp5210
g69
(g90
g71
NtRp5211
(dp5212
g74
(dp5213
sg83
g5207
sg76
(lp5214
g69
(g70
g71
NtRp5215
(dp5216
g74
(dp5217
g82
I4
ssg83
g5211
sg76
(lp5218
S'^default/\\w+\\.py$'
p5219
asbasbasbag69
(g85
g71
NtRp5220
(dp5221
g74
(dp5222
sg83
g5190
sg76
(lp5223
g69
(g90
g71
NtRp5224
(dp5225
g74
(dp5226
sg83
g5220
sg76
(lp5227
g69
(g70
g71
NtRp5228
(dp5229
g74
(dp5230
g82
I4
ssg83
g5224
sg76
(lp5231
S'^default/categ_display/\\w+\\.py$'
p5232
asbasbasbasbasbasbasbag69
(g85
g71
NtRp5233
(dp5234
g74
(dp5235
sg83
g3903
sg76
(lp5236
g69
(g90
g71
NtRp5237
(dp5238
g74
(dp5239
g94
g95
ssg83
g5233
sg76
(lp5240
S'postprocessing'
p5241
asbag69
(g90
g71
NtRp5242
(dp5243
g74
(dp5244
g101
g102
ssg83
g5233
sg76
(lp5245
S':'
asbag69
(g90
g71
NtRp5246
(dp5247
g74
(dp5248
sg83
g5233
sg76
(lp5249
g69
(g70
g71
NtRp5250
(dp5251
g74
(dp5252
g82
I5
ssg83
g5246
sg76
(lp5253
g69
(g78
g71
NtRp5254
(dp5255
g74
(dp5256
g82
I4
ssg83
Nsg76
(lp5257
sbasbasbasbag69
(g85
g71
NtRp5258
(dp5259
g74
(dp5260
sg83
g3903
sg76
(lp5261
g69
(g90
g71
NtRp5262
(dp5263
g74
(dp5264
g94
g95
ssg83
g5258
sg76
(lp5265
S'session_cookie_expires'
p5266
asbag69
(g90
g71
NtRp5267
(dp5268
g74
(dp5269
g101
g102
ssg83
g5258
sg76
(lp5270
S':'
asbag69
(g90
g71
NtRp5271
(dp5272
g74
(dp5273
sg83
g5258
sg76
(lp5274
g69
(g70
g71
NtRp5275
(dp5276
g74
(dp5277
g82
I5
ssg83
g5271
sg76
(lp5278
S'None'
p5279
asbasbasbag69
(g85
g71
NtRp5280
(dp5281
g74
(dp5282
sg83
g3903
sg76
(lp5283
g69
(g90
g71
NtRp5284
(dp5285
g74
(dp5286
g94
g95
ssg83
g5280
sg76
(lp5287
S'session_data_name'
p5288
asbag69
(g90
g71
NtRp5289
(dp5290
g74
(dp5291
g101
g102
ssg83
g5280
sg76
(lp5292
S':'
asbag69
(g90
g71
NtRp5293
(dp5294
g74
(dp5295
sg83
g5280
sg76
(lp5296
g69
(g70
g71
NtRp5297
(dp5298
g74
(dp5299
g82
I5
ssg83
g5293
sg76
(lp5300
S'session_data_assignment_2'
p5301
asbasbasbag69
(g85
g71
NtRp5302
(dp5303
g74
(dp5304
sg83
g3903
sg76
(lp5305
g69
(g90
g71
NtRp5306
(dp5307
g74
(dp5308
g94
g95
ssg83
g5302
sg76
(lp5309
S'session_file'
p5310
asbag69
(g90
g71
NtRp5311
(dp5312
g74
(dp5313
g101
g102
ssg83
g5302
sg76
(lp5314
S':'
asbag69
(g90
g71
NtRp5315
(dp5316
g74
(dp5317
sg83
g5302
sg76
(lp5318
g69
(g70
g71
NtRp5319
(dp5320
g74
(dp5321
g82
I5
ssg83
g5315
sg76
(lp5322
S"<open file '/home/shipra/Desktop/Semester 1.2/ITWS-2/web2py/applications/Assignment_2/sessions/127.0.0.1-bcd2b8d9-c8d9-4f65-ab99-ba46e4e5bf32', mode 'rb+' at 0x7f0bc832fed0>"
p5323
asbasbasbag69
(g85
g71
NtRp5324
(dp5325
g74
(dp5326
sg83
g3903
sg76
(lp5327
g69
(g90
g71
NtRp5328
(dp5329
g74
(dp5330
g94
g95
ssg83
g5324
sg76
(lp5331
S'session_filename'
p5332
asbag69
(g90
g71
NtRp5333
(dp5334
g74
(dp5335
g101
g102
ssg83
g5324
sg76
(lp5336
S':'
asbag69
(g90
g71
NtRp5337
(dp5338
g74
(dp5339
sg83
g5324
sg76
(lp5340
g69
(g70
g71
NtRp5341
(dp5342
g74
(dp5343
g82
I5
ssg83
g5337
sg76
(lp5344
S'/home/shipra/Desktop/Semester 1.2/ITWS-2/web2py/applications/Assignment_2/sessions/127.0.0.1-bcd2b8d9-c8d9-4f65-ab99-ba46e4e5bf32'
p5345
asbasbasbag69
(g85
g71
NtRp5346
(dp5347
g74
(dp5348
sg83
g3903
sg76
(lp5349
g69
(g90
g71
NtRp5350
(dp5351
g74
(dp5352
g94
g95
ssg83
g5346
sg76
(lp5353
S'session_id'
p5354
asbag69
(g90
g71
NtRp5355
(dp5356
g74
(dp5357
g101
g102
ssg83
g5346
sg76
(lp5358
S':'
asbag69
(g90
g71
NtRp5359
(dp5360
g74
(dp5361
sg83
g5346
sg76
(lp5362
g69
(g70
g71
NtRp5363
(dp5364
g74
(dp5365
g82
I5
ssg83
g5359
sg76
(lp5366
g686
asbasbasbag69
(g85
g71
NtRp5367
(dp5368
g74
(dp5369
sg83
g3903
sg76
(lp5370
g69
(g90
g71
NtRp5371
(dp5372
g74
(dp5373
g94
g95
ssg83
g5367
sg76
(lp5374
S'session_id_name'
p5375
asbag69
(g90
g71
NtRp5376
(dp5377
g74
(dp5378
g101
g102
ssg83
g5367
sg76
(lp5379
S':'
asbag69
(g90
g71
NtRp5380
(dp5381
g74
(dp5382
sg83
g5367
sg76
(lp5383
g69
(g70
g71
NtRp5384
(dp5385
g74
(dp5386
g82
I5
ssg83
g5380
sg76
(lp5387
g3960
asbasbasbag69
(g85
g71
NtRp5388
(dp5389
g74
(dp5390
sg83
g3903
sg76
(lp5391
g69
(g90
g71
NtRp5392
(dp5393
g74
(dp5394
g94
g95
ssg83
g5388
sg76
(lp5395
S'session_locked'
p5396
asbag69
(g90
g71
NtRp5397
(dp5398
g74
(dp5399
g101
g102
ssg83
g5388
sg76
(lp5400
S':'
asbag69
(g90
g71
NtRp5401
(dp5402
g74
(dp5403
sg83
g5388
sg76
(lp5404
g69
(g70
g71
NtRp5405
(dp5406
g74
(dp5407
g82
I5
ssg83
g5401
sg76
(lp5408
g1980
asbasbasbag69
(g85
g71
NtRp5409
(dp5410
g74
(dp5411
sg83
g3903
sg76
(lp5412
g69
(g90
g71
NtRp5413
(dp5414
g74
(dp5415
g94
g95
ssg83
g5409
sg76
(lp5416
S'session_new'
p5417
asbag69
(g90
g71
NtRp5418
(dp5419
g74
(dp5420
g101
g102
ssg83
g5409
sg76
(lp5421
S':'
asbag69
(g90
g71
NtRp5422
(dp5423
g74
(dp5424
sg83
g5409
sg76
(lp5425
g69
(g70
g71
NtRp5426
(dp5427
g74
(dp5428
g82
I5
ssg83
g5422
sg76
(lp5429
g112
asbasbasbag69
(g85
g71
NtRp5430
(dp5431
g74
(dp5432
sg83
g3903
sg76
(lp5433
g69
(g90
g71
NtRp5434
(dp5435
g74
(dp5436
g94
g95
ssg83
g5430
sg76
(lp5437
S'session_storage_type'
p5438
asbag69
(g90
g71
NtRp5439
(dp5440
g74
(dp5441
g101
g102
ssg83
g5430
sg76
(lp5442
S':'
asbag69
(g90
g71
NtRp5443
(dp5444
g74
(dp5445
sg83
g5430
sg76
(lp5446
g69
(g70
g71
NtRp5447
(dp5448
g74
(dp5449
g82
I5
ssg83
g5443
sg76
(lp5450
g3411
asbasbasbag69
(g85
g71
NtRp5451
(dp5452
g74
(dp5453
sg83
g3903
sg76
(lp5454
g69
(g90
g71
NtRp5455
(dp5456
g74
(dp5457
g94
g95
ssg83
g5451
sg76
(lp5458
S'status'
p5459
asbag69
(g90
g71
NtRp5460
(dp5461
g74
(dp5462
g101
g102
ssg83
g5451
sg76
(lp5463
S':'
asbag69
(g90
g71
NtRp5464
(dp5465
g74
(dp5466
sg83
g5451
sg76
(lp5467
g69
(g70
g71
NtRp5468
(dp5469
g74
(dp5470
g82
I5
ssg83
g5464
sg76
(lp5471
S'200'
p5472
asbasbasbag69
(g85
g71
NtRp5473
(dp5474
g74
(dp5475
sg83
g3903
sg76
(lp5476
g69
(g90
g71
NtRp5477
(dp5478
g74
(dp5479
g94
g95
ssg83
g5473
sg76
(lp5480
S'subtitle'
p5481
asbag69
(g90
g71
NtRp5482
(dp5483
g74
(dp5484
g101
g102
ssg83
g5473
sg76
(lp5485
S':'
asbag69
(g90
g71
NtRp5486
(dp5487
g74
(dp5488
sg83
g5473
sg76
(lp5489
g69
(g70
g71
NtRp5490
(dp5491
g74
(dp5492
g82
I5
ssg83
g5486
sg76
(lp5493
g4437
(S's\r\x00\x00\x00customize me!'
tRp5494
asbasbasbag69
(g85
g71
NtRp5495
(dp5496
g74
(dp5497
sg83
g3903
sg76
(lp5498
g69
(g90
g71
NtRp5499
(dp5500
g74
(dp5501
g94
g95
ssg83
g5495
sg76
(lp5502
S'title'
p5503
asbag69
(g90
g71
NtRp5504
(dp5505
g74
(dp5506
g101
g102
ssg83
g5495
sg76
(lp5507
S':'
asbag69
(g90
g71
NtRp5508
(dp5509
g74
(dp5510
sg83
g5495
sg76
(lp5511
g69
(g70
g71
NtRp5512
(dp5513
g74
(dp5514
g82
I5
ssg83
g5508
sg76
(lp5515
S'Assignment 2'
p5516
asbasbasbag69
(g85
g71
NtRp5517
(dp5518
g74
(dp5519
sg83
g3903
sg76
(lp5520
g69
(g90
g71
NtRp5521
(dp5522
g74
(dp5523
g94
g95
ssg83
g5517
sg76
(lp5524
S'view'
p5525
asbag69
(g90
g71
NtRp5526
(dp5527
g74
(dp5528
g101
g102
ssg83
g5517
sg76
(lp5529
S':'
asbag69
(g90
g71
NtRp5530
(dp5531
g74
(dp5532
sg83
g5517
sg76
(lp5533
g69
(g70
g71
NtRp5534
(dp5535
g74
(dp5536
g82
I5
ssg83
g5530
sg76
(lp5537
S'default/categ_display.html'
p5538
asbasbasbasbasbsS'locals'
p5539
(dp5540
g4
S"'/home/shipra/Desktop/Semester 1.2/ITWS-2/web2py/...ons/Assignment_2/views/default/categ_display.html'"
p5541
sg6
S'\'response.write(\\\'<!DOCTYPE html>\\\\n<!-- paulirish...."></script>\\\\n</body>\\\\n</html>\\\\n\\\\n\\\', escape=False)\''
p5542
sssS'traceback'
p5543
S'Traceback (most recent call last):\n  File "/home/shipra/Desktop/Semester 1.2/ITWS-2/web2py/gluon/restricted.py", line 211, in restricted\n    ccode = compile2(code, layer)\n  File "/home/shipra/Desktop/Semester 1.2/ITWS-2/web2py/gluon/restricted.py", line 194, in compile2\n    return compile(code.rstrip().replace(\'\\r\\n\', \'\\n\') + \'\\n\', layer, \'exec\')\n  File "/home/shipra/Desktop/Semester 1.2/ITWS-2/web2py/applications/Assignment_2/views/default/categ_display.html", line 93\n    if((c1!=None and news[i][\'userid\']==c1) or (c1!=None and c1==3):\n                                                                   ^\nSyntaxError: invalid syntax\n'
p5544
s.