(dp1
S'output'
p2
S"<type 'exceptions.AttributeError'> 'Row' object has no attribute 'cdate'"
p3
sS'layer'
p4
S'/home/shipra/Desktop/Semester 1.2/ITWS-2/web2py/applications/Assignment_2/views/default/comm_post.html'
p5
sS'code'
p6
S'response.write(\'<!DOCTYPE html>\\n<!-- paulirish.com/2008/conditional-stylesheets-vs-css-hacks-answer-neither/ -->\\n<!--[if lt IE 7]><html class="ie ie6 ie-lte9 ie-lte8 ie-lte7 no-js" lang="\', escape=False)\nresponse.write(T.accepted_language or \'en\')\nresponse.write(\'"> <![endif]-->\\n<!--[if IE 7]><html class="ie ie7 ie-lte9 ie-lte8 ie-lte7 no-js" lang="\', escape=False)\nresponse.write(T.accepted_language or \'en\')\nresponse.write(\'"> <![endif]-->\\n<!--[if IE 8]><html class="ie ie8 ie-lte9 ie-lte8 no-js" lang="\', escape=False)\nresponse.write(T.accepted_language or \'en\')\nresponse.write(\'"> <![endif]-->\\n<!--[if IE 9]><html class="ie9 ie-lte9 no-js" lang="\', escape=False)\nresponse.write(T.accepted_language or \'en\')\nresponse.write(\'"> <![endif]-->\\n\\t<!--[if (gt IE 9)|!(IE)]><!--> <html class="no-js" lang="\', escape=False)\nresponse.write(T.accepted_language or \'en\')\nresponse.write(\'"> <!--<![endif]-->\\n<html xmlns="http://www.w3.org/1999/xhtml">\\n<head>\\n\\t<meta charset="utf-8" />\\n\\t<title> MY REDDIT </title>\\n  <!-- www.phpied.com/conditional-comments-block-downloads/ -->\\n  <!-- Always force latest IE rendering engine\\n       (even in intranet) & Chrome Frame\\n       Remove this if you use the .htaccess -->\\n  <!--[if IE]>\\n      <meta http-equiv="X-UA-Compatible" content="IE=edge\', escape=False)\nresponse.write(not request.is_local and \',chrome=1\' or \'\')\nresponse.write(\'">\\n      <![endif]-->\\n\\t<link href="http://fonts.googleapis.com/css?family=Oxygen:400,700,300" rel="stylesheet" type="text/css" />\\n\\n\\t<link href="\', escape=False)\nresponse.write(URL(\'static\', \'glissade/style.css\'))\nresponse.write(\'" rel="stylesheet" type="text/css" media="screen" />\\n\\n\\t <noscript><link href="\', escape=False)\nresponse.write(URL(\'static\', \'glissade/style.css\'))\nresponse.write(\'" rel="stylesheet" type="text/css" /></noscript>\\n\\n  <!-- http://dev.w3.org/html5/markup/meta.name.html -->\\n  <meta name="application-name" content="\', escape=False)\nresponse.write(request.application)\nresponse.write(\'" />\\n\\n  <!-- Speaking of Google, don\\\'t forget to set your site up:\\n       http://google.com/webmasters -->\\n  <meta name="google-site-verification" content="" />\\n\\n  <!--  Mobile Viewport Fix\\n        j.mp/mobileviewport & davidbcalhoun.com/2010/viewport-metatag\\n        device-width: Occupy full width of the screen in its current orientation\\n        initial-scale = 1.0 retains dimensions instead of zooming out if page height > device height\\n        user-scalable = yes allows the user to zoom in -->\\n  <meta name="viewport" content="width=device-width, initial-scale=1.0" />\\n\\n  <link rel="shortcut icon" href="\', escape=False)\nresponse.write(URL(\'static\',\'images/favicon.ico\'))\nresponse.write(\'" type="image/x-icon">\\n  <link rel="apple-touch-icon" href="\', escape=False)\nresponse.write(URL(\'static\',\'images/favicon.png\'))\nresponse.write(\'">\\n\\n  <!-- All JavaScript at the bottom, except for Modernizr which enables\\n       HTML5 elements & feature detects -->\\n  <script src="\', escape=False)\nresponse.write(URL(\'static\',\'js/modernizr.custom.js\'))\nresponse.write(\'"></script>\\n\\n  <!-- include stylesheets -->\\n  \', escape=False)\nresponse.files.append(URL(\'static\',\'css/web2py.css\'))\nresponse.files.append(URL(\'static\',\'css/bootstrap.min.css\'))\nresponse.files.append(URL(\'static\',\'css/bootstrap-responsive.min.css\'))\nresponse.files.append(URL(\'static\',\'css/web2py_bootstrap.css\'))\nresponse.write(\'\\n\\n  \', escape=False)\nresponse.write(\'<script type="text/javascript"><!--\\n    // These variables are used by the web2py_ajax_init function in web2py_ajax.js (which is loaded below).\\n    var w2p_ajax_confirm_message = "\', escape=False)\nresponse.write(T(\'Are you sure you want to delete this object?\'))\nresponse.write(\'";\\n    var w2p_ajax_date_format = "\', escape=False)\nresponse.write(T(\'%Y-%m-%d\'))\nresponse.write(\'";\\n    var w2p_ajax_datetime_format = "\', escape=False)\nresponse.write(T(\'%Y-%m-%d %H:%M:%S\'))\nresponse.write(\'";\\n    //--></script>\\n\', escape=False)\nresponse.files.insert(0,URL(\'static\',\'js/jquery.js\'))\nresponse.files.insert(1,URL(\'static\',\'css/calendar.css\'))\nresponse.files.insert(2,URL(\'static\',\'js/calendar.js\'))\nresponse.files.insert(3,URL(\'static\',\'js/web2py.js\'))\nresponse.include_meta()\nresponse.include_files()\nresponse.write(\'\\n\', escape=False)\nresponse.write(\'\\n\\n  \', escape=False)\n# using sidebars need to know what sidebar you want to use\nleft_sidebar_enabled = globals().get(\'left_sidebar_enabled\',False)\nright_sidebar_enabled = globals().get(\'right_sidebar_enabled\',False)\nmiddle_columns = {0:\'span12\',1:\'span9\',2:\'span6\'}[\n(left_sidebar_enabled and 1 or 0)+(right_sidebar_enabled and 1 or 0)]\nresponse.write(\'\\n\\n  <!-- uncomment here to load jquery-ui\\n       <link rel="stylesheet" href="http://ajax.googleapis.com/ajax/libs/jqueryui/1.8.16/themes/base/jquery-ui.css" type="text/css" media="all" />\\n       <script src="http://ajax.googleapis.com/ajax/libs/jqueryui/1.8.16/jquery-ui.min.js" type="text/javascript"></script>\\n       uncomment to load jquery-ui //-->\\n</head>\\n\\n<body style="background-color:black">\\n<div id="wrapper">\\n\\t<div id="logo" class="container">\\n\\t\\t<h1 style="color:#F87217"> REDDIT </h1>\\n\\t\\t<p> Know your world </p>\\n\\t</div>\\n\\n<div style="text-align:right;color:#F87217">\\n\\t\', escape=False)\nresponse.write(auth.navbar())\nresponse.write(\'\\n</div>\\n<br/>\\n  <!-- Navbar ================================================== -->\\n  <div class="container">\\n\\t  <!-- Masthead ================================================== -->\\n\\n    <section id="main" class="main row">\\n        \', escape=False)\nif left_sidebar_enabled:\n    response.write(\'\\n        <div class="span3 left-sidebar">\\n            \', escape=False)\n    response.write(\'\\n            <h3>Left Sidebar</h3>\\n            <p></p>\\n            \', escape=False)\n    response.write(\'\\n        </div>\\n\\t\', escape=False)\n    pass\nresponse.write(\'\\n\\n        <div class="\', escape=False)\nresponse.write(middle_columns)\nresponse.write(\'">\\n            \', escape=False)\nresponse.write(\'\\n            \', escape=False)\nresponse.write(\'\\n<h4> Comments for this post</h4>\\n<ol>\\n\', escape=False)\nfor i in range(len(comments)):\n    response.write(\'\\n<li>\', escape=False)\n    response.write(user[0][\'first_name\'])\n    response.write(\' : \', escape=False)\n    response.write(comments[i][\'comm\'])\n    response.write(\'<br/>\\n\', escape=False)\n    x=str(comments[i][\'cdate\'])\n    response.write(\'\\n\', escape=False)\n    x=x.split(" ")\n    response.write(\'\\n\', escape=False)\n    y=str(comments[i][\'ctime\'])\n    response.write(\'\\n\', escape=False)\n    y=y.split(" ")\n    response.write(\'\\nPosted on \', escape=False)\n    response.write(x[0])\n    response.write(\' at \', escape=False)\n    response.write(y[1])\n    response.write(\' <br/>\\n</li>\\n\', escape=False)\n    pass\nresponse.write(\'\\n</ol>\\n\', escape=False)\nresponse.write(form)\nresponse.write(\'\\n\', escape=False)\nresponse.write(\'\\n            \', escape=False)\nresponse.write(\'\\n        </div>\\n\\n        \', escape=False)\nif right_sidebar_enabled:\n    response.write(\'\\n        <div class="span3">\\n            \', escape=False)\n    response.write(\'\\n            <h3>Right Sidebar</h3>\\n            <p></p>\\n            \', escape=False)\n    response.write(\'\\n        </div>\\n        \', escape=False)\n    pass\nresponse.write(\'\\n    </section><!--/main-->\\n\\n    <!-- Footer ================================================== -->\\n    <div class="row">\\n        <footer class="footer span12" id="footer">\\n            <div class="footer-content">\\n                \', escape=False)\nresponse.write(\' <!-- this is default footer -->\\n                <div class="copyright pull-left">\', escape=False)\nresponse.write(T(\'Copyright\'))\nresponse.write(\' &#169;Shipra Banga</div>\\n                <div id="poweredBy" class="pull-right">\\n                    \', escape=False)\nresponse.write(T(\'Powered by\'))\nresponse.write(\'\\n                    <a href="http://www.web2py.com/">web2py</a>\\n                </div>\\n                \', escape=False)\nresponse.write(\'\\n            </div>\\n        </footer>\\n    </div>\\n\\n  </div> <!-- /container -->\\n\\n  <!-- The javascript =============================================\\n       (Placed at the end of the document so the pages load faster) -->\\n  <script src="\', escape=False)\nresponse.write(URL(\'static\',\'js/bootstrap.min.js\'))\nresponse.write(\'"></script>\\n  <script src="\', escape=False)\nresponse.write(URL(\'static\',\'js/web2py_bootstrap.js\'))\nresponse.write(\'"></script>\\n  <!--[if lt IE 7 ]>\\n      <script src="\', escape=False)\nresponse.write(URL(\'static\',\'js/dd_belatedpng.js\'))\nresponse.write(\'"></script>\\n      <script> DD_belatedPNG.fix(\\\'img, .png_bg\\\'); //fix any <img> or .png_bg background-images </script>\\n      <![endif]-->\\n  \\n  \', escape=False)\nif response.google_analytics_id:\n    response.write(\'\\n  <script src="\', escape=False)\n    response.write(URL(\'static\',\'js/analytics.js\'))\n    response.write(\'"></script>\\n  <script type="text/javascript">\\n  analytics.initialize({\\n    \\\'Google Analytics\\\':{trackingId:\\\'\', escape=False)\n    response.write(response.google_analytics_id)\n    response.write("\'} \\n  });</script>\\n  ", escape=False)\n    pass\nresponse.write(\'\\n  <script src="\', escape=False)\nresponse.write(URL(\'static\',\'js/share.js\',vars=dict(static=URL(\'static\',\'images\'))))\nresponse.write(\'"></script>\\n</body>\\n</html>\\n\\n\', escape=False)'
p7
sS'snapshot'
p8
(dp9
S'exception'
p10
(dp11
S'__hash__'
p12
S"<method-wrapper '__hash__' of exceptions.AttributeError object>"
p13
sS'__setattr__'
p14
S"<method-wrapper '__setattr__' of exceptions.AttributeError object>"
p15
sS'__reduce_ex__'
p16
S'<built-in method __reduce_ex__ of exceptions.AttributeError object>'
p17
sS'__getslice__'
p18
S"<method-wrapper '__getslice__' of exceptions.AttributeError object>"
p19
sS'__getitem__'
p20
S"<method-wrapper '__getitem__' of exceptions.AttributeError object>"
p21
sS'__setstate__'
p22
S'<built-in method __setstate__ of exceptions.AttributeError object>'
p23
sS'args'
p24
S'("\'Row\' object has no attribute \'cdate\'",)'
p25
sS'__reduce__'
p26
S'<built-in method __reduce__ of exceptions.AttributeError object>'
p27
sS'__str__'
p28
S"<method-wrapper '__str__' of exceptions.AttributeError object>"
p29
sS'__format__'
p30
S'<built-in method __format__ of exceptions.AttributeError object>'
p31
sS'__getattribute__'
p32
S"<method-wrapper '__getattribute__' of exceptions.AttributeError object>"
p33
sS'__class__'
p34
S"<type 'exceptions.AttributeError'>"
p35
sS'__unicode__'
p36
S'<built-in method __unicode__ of exceptions.AttributeError object>'
p37
sS'__delattr__'
p38
S"<method-wrapper '__delattr__' of exceptions.AttributeError object>"
p39
sS'__subclasshook__'
p40
S'<built-in method __subclasshook__ of type object>'
p41
sS'__repr__'
p42
S"<method-wrapper '__repr__' of exceptions.AttributeError object>"
p43
sS'__dict__'
p44
S'{}'
p45
sS'__sizeof__'
p46
S'<built-in method __sizeof__ of exceptions.AttributeError object>'
p47
sS'__doc__'
p48
S"'Attribute not found.'"
p49
sS'__init__'
p50
S"<method-wrapper '__init__' of exceptions.AttributeError object>"
p51
sS'__new__'
p52
S'<built-in method __new__ of type object>'
p53
ssS'evalue'
p54
S"'Row' object has no attribute 'cdate'"
p55
sS'request'
p56
ccopy_reg
_reconstructor
p57
(cgluon.html
BEAUTIFY
p58
c__builtin__
object
p59
NtRp60
(dp61
S'attributes'
p62
(dp63
sS'components'
p64
(lp65
g57
(cgluon.html
TABLE
p66
g59
NtRp67
(dp68
g62
(dp69
S'level'
p70
I5
ssS'parent'
p71
Nsg64
(lp72
g57
(cgluon.html
TR
p73
g59
NtRp74
(dp75
g62
(dp76
sg71
g67
sg64
(lp77
g57
(cgluon.html
TD
p78
g59
NtRp79
(dp80
g62
(dp81
S'_style'
p82
S'font-weight:bold;vertical-align:top'
p83
ssg71
g74
sg64
(lp84
S'ajax'
p85
asbag57
(g78
g59
NtRp86
(dp87
g62
(dp88
S'_valign'
p89
S'top'
p90
ssg71
g74
sg64
(lp91
S':'
asbag57
(g78
g59
NtRp92
(dp93
g62
(dp94
sg71
g74
sg64
(lp95
g57
(g58
g59
NtRp96
(dp97
g62
(dp98
g70
I5
ssg71
g92
sg64
(lp99
S'False'
p100
asbasbasbag57
(g73
g59
NtRp101
(dp102
g62
(dp103
sg71
g67
sg64
(lp104
g57
(g78
g59
NtRp105
(dp106
g62
(dp107
g82
g83
ssg71
g101
sg64
(lp108
S'application'
p109
asbag57
(g78
g59
NtRp110
(dp111
g62
(dp112
g89
g90
ssg71
g101
sg64
(lp113
S':'
asbag57
(g78
g59
NtRp114
(dp115
g62
(dp116
sg71
g101
sg64
(lp117
g57
(g58
g59
NtRp118
(dp119
g62
(dp120
g70
I5
ssg71
g114
sg64
(lp121
S'Assignment_2'
p122
asbasbasbag57
(g73
g59
NtRp123
(dp124
g62
(dp125
sg71
g67
sg64
(lp126
g57
(g78
g59
NtRp127
(dp128
g62
(dp129
g82
g83
ssg71
g123
sg64
(lp130
g24
asbag57
(g78
g59
NtRp131
(dp132
g62
(dp133
g89
g90
ssg71
g123
sg64
(lp134
S':'
asbag57
(g78
g59
NtRp135
(dp136
g62
(dp137
sg71
g123
sg64
(lp138
g57
(g58
g59
NtRp139
(dp140
g62
(dp141
g70
I5
ssg71
g135
sg64
(lp142
g57
(g66
g59
NtRp143
(dp144
g62
(dp145
g70
I4
ssg71
Nsg64
(lp146
g57
(g73
g59
NtRp147
(dp148
g62
(dp149
sg71
g143
sg64
(lp150
g57
(g78
g59
NtRp151
(dp152
g62
(dp153
sg71
g147
sg64
(lp154
g57
(g58
g59
NtRp155
(dp156
g62
(dp157
g70
I4
ssg71
g151
sg64
(lp158
S'38'
p159
asbasbasbag57
(g73
g59
NtRp160
(dp161
g62
(dp162
sg71
g143
sg64
(lp163
g57
(g78
g59
NtRp164
(dp165
g62
(dp166
sg71
g160
sg64
(lp167
g57
(g58
g59
NtRp168
(dp169
g62
(dp170
g70
I4
ssg71
g164
sg64
(lp171
S'World'
p172
asbasbasbasbasbasbasbag57
(g73
g59
NtRp173
(dp174
g62
(dp175
sg71
g67
sg64
(lp176
g57
(g78
g59
NtRp177
(dp178
g62
(dp179
g82
g83
ssg71
g173
sg64
(lp180
S'body'
p181
asbag57
(g78
g59
NtRp182
(dp183
g62
(dp184
g89
g90
ssg71
g173
sg64
(lp185
S':'
asbag57
(g78
g59
NtRp186
(dp187
g62
(dp188
sg71
g173
sg64
(lp189
g57
(g58
g59
NtRp190
(dp191
g62
(dp192
g70
I5
ssg71
g186
sg64
(lp193
S'<cStringIO.StringO object at 0x7fbbb41f0110>'
p194
asbasbasbag57
(g73
g59
NtRp195
(dp196
g62
(dp197
sg71
g67
sg64
(lp198
g57
(g78
g59
NtRp199
(dp200
g62
(dp201
g82
g83
ssg71
g195
sg64
(lp202
S'cid'
p203
asbag57
(g78
g59
NtRp204
(dp205
g62
(dp206
g89
g90
ssg71
g195
sg64
(lp207
S':'
asbag57
(g78
g59
NtRp208
(dp209
g62
(dp210
sg71
g195
sg64
(lp211
g57
(g58
g59
NtRp212
(dp213
g62
(dp214
g70
I5
ssg71
g208
sg64
(lp215
S'None'
p216
asbasbasbag57
(g73
g59
NtRp217
(dp218
g62
(dp219
sg71
g67
sg64
(lp220
g57
(g78
g59
NtRp221
(dp222
g62
(dp223
g82
g83
ssg71
g217
sg64
(lp224
S'client'
p225
asbag57
(g78
g59
NtRp226
(dp227
g62
(dp228
g89
g90
ssg71
g217
sg64
(lp229
S':'
asbag57
(g78
g59
NtRp230
(dp231
g62
(dp232
sg71
g217
sg64
(lp233
g57
(g58
g59
NtRp234
(dp235
g62
(dp236
g70
I5
ssg71
g230
sg64
(lp237
S'127.0.0.1'
p238
asbasbasbag57
(g73
g59
NtRp239
(dp240
g62
(dp241
sg71
g67
sg64
(lp242
g57
(g78
g59
NtRp243
(dp244
g62
(dp245
g82
g83
ssg71
g239
sg64
(lp246
S'controller'
p247
asbag57
(g78
g59
NtRp248
(dp249
g62
(dp250
g89
g90
ssg71
g239
sg64
(lp251
S':'
asbag57
(g78
g59
NtRp252
(dp253
g62
(dp254
sg71
g239
sg64
(lp255
g57
(g58
g59
NtRp256
(dp257
g62
(dp258
g70
I5
ssg71
g252
sg64
(lp259
S'default'
p260
asbasbasbag57
(g73
g59
NtRp261
(dp262
g62
(dp263
sg71
g67
sg64
(lp264
g57
(g78
g59
NtRp265
(dp266
g62
(dp267
g82
g83
ssg71
g261
sg64
(lp268
S'cookies'
p269
asbag57
(g78
g59
NtRp270
(dp271
g62
(dp272
g89
g90
ssg71
g261
sg64
(lp273
S':'
asbag57
(g78
g59
NtRp274
(dp275
g62
(dp276
sg71
g261
sg64
(lp277
g57
(g58
g59
NtRp278
(dp279
g62
(dp280
g70
I5
ssg71
g274
sg64
(lp281
g57
(g66
g59
NtRp282
(dp283
g62
(dp284
g70
I4
ssg71
Nsg64
(lp285
g57
(g73
g59
NtRp286
(dp287
g62
(dp288
sg71
g282
sg64
(lp289
g57
(g78
g59
NtRp290
(dp291
g62
(dp292
g82
g83
ssg71
g286
sg64
(lp293
S'mp_2093ad9ff9c5428a2228386de2f2b0e4_mixpanel'
p294
asbag57
(g78
g59
NtRp295
(dp296
g62
(dp297
g89
g90
ssg71
g286
sg64
(lp298
S':'
asbag57
(g78
g59
NtRp299
(dp300
g62
(dp301
sg71
g286
sg64
(lp302
g57
(g58
g59
NtRp303
(dp304
g62
(dp305
g70
I4
ssg71
g299
sg64
(lp306
S'%7B%22distinct_id%22%3A%20%2262ffc2d0-7b9f-0130-efb0-22000a1cbb2a%22%2C%22is_registered_user%22%3A%20false%2C%22%24initial_referrer%22%3A%20%22%24direct%22%2C%22%24initial_referring_domain%22%3A%20%22%24direct%22%7D'
p307
ag57
(g66
g59
NtRp308
(dp309
g62
(dp310
g70
I3
ssg71
Nsg64
(lp311
g57
(g73
g59
NtRp312
(dp313
g62
(dp314
sg71
g308
sg64
(lp315
g57
(g78
g59
NtRp316
(dp317
g62
(dp318
g82
g83
ssg71
g312
sg64
(lp319
S'comment'
p320
asbag57
(g78
g59
NtRp321
(dp322
g62
(dp323
g89
g90
ssg71
g312
sg64
(lp324
S':'
asbag57
(g78
g59
NtRp325
(dp326
g62
(dp327
sg71
g312
sg64
(lp328
g57
(g58
g59
NtRp329
(dp330
g62
(dp331
g70
I3
ssg71
g325
sg64
(lp332
S''
asbasbasbag57
(g73
g59
NtRp333
(dp334
g62
(dp335
sg71
g308
sg64
(lp336
g57
(g78
g59
NtRp337
(dp338
g62
(dp339
g82
g83
ssg71
g333
sg64
(lp340
S'domain'
p341
asbag57
(g78
g59
NtRp342
(dp343
g62
(dp344
g89
g90
ssg71
g333
sg64
(lp345
S':'
asbag57
(g78
g59
NtRp346
(dp347
g62
(dp348
sg71
g333
sg64
(lp349
g57
(g58
g59
NtRp350
(dp351
g62
(dp352
g70
I3
ssg71
g346
sg64
(lp353
S''
asbasbasbag57
(g73
g59
NtRp354
(dp355
g62
(dp356
sg71
g308
sg64
(lp357
g57
(g78
g59
NtRp358
(dp359
g62
(dp360
g82
g83
ssg71
g354
sg64
(lp361
S'expires'
p362
asbag57
(g78
g59
NtRp363
(dp364
g62
(dp365
g89
g90
ssg71
g354
sg64
(lp366
S':'
asbag57
(g78
g59
NtRp367
(dp368
g62
(dp369
sg71
g354
sg64
(lp370
g57
(g58
g59
NtRp371
(dp372
g62
(dp373
g70
I3
ssg71
g367
sg64
(lp374
S''
asbasbasbag57
(g73
g59
NtRp375
(dp376
g62
(dp377
sg71
g308
sg64
(lp378
g57
(g78
g59
NtRp379
(dp380
g62
(dp381
g82
g83
ssg71
g375
sg64
(lp382
S'httponly'
p383
asbag57
(g78
g59
NtRp384
(dp385
g62
(dp386
g89
g90
ssg71
g375
sg64
(lp387
S':'
asbag57
(g78
g59
NtRp388
(dp389
g62
(dp390
sg71
g375
sg64
(lp391
g57
(g58
g59
NtRp392
(dp393
g62
(dp394
g70
I3
ssg71
g388
sg64
(lp395
S''
asbasbasbag57
(g73
g59
NtRp396
(dp397
g62
(dp398
sg71
g308
sg64
(lp399
g57
(g78
g59
NtRp400
(dp401
g62
(dp402
g82
g83
ssg71
g396
sg64
(lp403
S'max-age'
p404
asbag57
(g78
g59
NtRp405
(dp406
g62
(dp407
g89
g90
ssg71
g396
sg64
(lp408
S':'
asbag57
(g78
g59
NtRp409
(dp410
g62
(dp411
sg71
g396
sg64
(lp412
g57
(g58
g59
NtRp413
(dp414
g62
(dp415
g70
I3
ssg71
g409
sg64
(lp416
S''
asbasbasbag57
(g73
g59
NtRp417
(dp418
g62
(dp419
sg71
g308
sg64
(lp420
g57
(g78
g59
NtRp421
(dp422
g62
(dp423
g82
g83
ssg71
g417
sg64
(lp424
S'path'
p425
asbag57
(g78
g59
NtRp426
(dp427
g62
(dp428
g89
g90
ssg71
g417
sg64
(lp429
S':'
asbag57
(g78
g59
NtRp430
(dp431
g62
(dp432
sg71
g417
sg64
(lp433
g57
(g58
g59
NtRp434
(dp435
g62
(dp436
g70
I3
ssg71
g430
sg64
(lp437
S''
asbasbasbag57
(g73
g59
NtRp438
(dp439
g62
(dp440
sg71
g308
sg64
(lp441
g57
(g78
g59
NtRp442
(dp443
g62
(dp444
g82
g83
ssg71
g438
sg64
(lp445
S'secure'
p446
asbag57
(g78
g59
NtRp447
(dp448
g62
(dp449
g89
g90
ssg71
g438
sg64
(lp450
S':'
asbag57
(g78
g59
NtRp451
(dp452
g62
(dp453
sg71
g438
sg64
(lp454
g57
(g58
g59
NtRp455
(dp456
g62
(dp457
g70
I3
ssg71
g451
sg64
(lp458
S''
asbasbasbag57
(g73
g59
NtRp459
(dp460
g62
(dp461
sg71
g308
sg64
(lp462
g57
(g78
g59
NtRp463
(dp464
g62
(dp465
g82
g83
ssg71
g459
sg64
(lp466
S'version'
p467
asbag57
(g78
g59
NtRp468
(dp469
g62
(dp470
g89
g90
ssg71
g459
sg64
(lp471
S':'
asbag57
(g78
g59
NtRp472
(dp473
g62
(dp474
sg71
g459
sg64
(lp475
g57
(g58
g59
NtRp476
(dp477
g62
(dp478
g70
I3
ssg71
g472
sg64
(lp479
S''
asbasbasbasbasbasbasbag57
(g73
g59
NtRp480
(dp481
g62
(dp482
sg71
g282
sg64
(lp483
g57
(g78
g59
NtRp484
(dp485
g62
(dp486
g82
g83
ssg71
g480
sg64
(lp487
S'session_id_admin'
p488
asbag57
(g78
g59
NtRp489
(dp490
g62
(dp491
g89
g90
ssg71
g480
sg64
(lp492
S':'
asbag57
(g78
g59
NtRp493
(dp494
g62
(dp495
sg71
g480
sg64
(lp496
g57
(g58
g59
NtRp497
(dp498
g62
(dp499
g70
I4
ssg71
g493
sg64
(lp500
S'127.0.0.1-29035540-3849-480e-844c-005b6db423a0'
p501
ag57
(g66
g59
NtRp502
(dp503
g62
(dp504
g70
I3
ssg71
Nsg64
(lp505
g57
(g73
g59
NtRp506
(dp507
g62
(dp508
sg71
g502
sg64
(lp509
g57
(g78
g59
NtRp510
(dp511
g62
(dp512
g82
g83
ssg71
g506
sg64
(lp513
g320
asbag57
(g78
g59
NtRp514
(dp515
g62
(dp516
g89
g90
ssg71
g506
sg64
(lp517
S':'
asbag57
(g78
g59
NtRp518
(dp519
g62
(dp520
sg71
g506
sg64
(lp521
g57
(g58
g59
NtRp522
(dp523
g62
(dp524
g70
I3
ssg71
g518
sg64
(lp525
S''
asbasbasbag57
(g73
g59
NtRp526
(dp527
g62
(dp528
sg71
g502
sg64
(lp529
g57
(g78
g59
NtRp530
(dp531
g62
(dp532
g82
g83
ssg71
g526
sg64
(lp533
g341
asbag57
(g78
g59
NtRp534
(dp535
g62
(dp536
g89
g90
ssg71
g526
sg64
(lp537
S':'
asbag57
(g78
g59
NtRp538
(dp539
g62
(dp540
sg71
g526
sg64
(lp541
g57
(g58
g59
NtRp542
(dp543
g62
(dp544
g70
I3
ssg71
g538
sg64
(lp545
S''
asbasbasbag57
(g73
g59
NtRp546
(dp547
g62
(dp548
sg71
g502
sg64
(lp549
g57
(g78
g59
NtRp550
(dp551
g62
(dp552
g82
g83
ssg71
g546
sg64
(lp553
g362
asbag57
(g78
g59
NtRp554
(dp555
g62
(dp556
g89
g90
ssg71
g546
sg64
(lp557
S':'
asbag57
(g78
g59
NtRp558
(dp559
g62
(dp560
sg71
g546
sg64
(lp561
g57
(g58
g59
NtRp562
(dp563
g62
(dp564
g70
I3
ssg71
g558
sg64
(lp565
S''
asbasbasbag57
(g73
g59
NtRp566
(dp567
g62
(dp568
sg71
g502
sg64
(lp569
g57
(g78
g59
NtRp570
(dp571
g62
(dp572
g82
g83
ssg71
g566
sg64
(lp573
g383
asbag57
(g78
g59
NtRp574
(dp575
g62
(dp576
g89
g90
ssg71
g566
sg64
(lp577
S':'
asbag57
(g78
g59
NtRp578
(dp579
g62
(dp580
sg71
g566
sg64
(lp581
g57
(g58
g59
NtRp582
(dp583
g62
(dp584
g70
I3
ssg71
g578
sg64
(lp585
S''
asbasbasbag57
(g73
g59
NtRp586
(dp587
g62
(dp588
sg71
g502
sg64
(lp589
g57
(g78
g59
NtRp590
(dp591
g62
(dp592
g82
g83
ssg71
g586
sg64
(lp593
g404
asbag57
(g78
g59
NtRp594
(dp595
g62
(dp596
g89
g90
ssg71
g586
sg64
(lp597
S':'
asbag57
(g78
g59
NtRp598
(dp599
g62
(dp600
sg71
g586
sg64
(lp601
g57
(g58
g59
NtRp602
(dp603
g62
(dp604
g70
I3
ssg71
g598
sg64
(lp605
S''
asbasbasbag57
(g73
g59
NtRp606
(dp607
g62
(dp608
sg71
g502
sg64
(lp609
g57
(g78
g59
NtRp610
(dp611
g62
(dp612
g82
g83
ssg71
g606
sg64
(lp613
g425
asbag57
(g78
g59
NtRp614
(dp615
g62
(dp616
g89
g90
ssg71
g606
sg64
(lp617
S':'
asbag57
(g78
g59
NtRp618
(dp619
g62
(dp620
sg71
g606
sg64
(lp621
g57
(g58
g59
NtRp622
(dp623
g62
(dp624
g70
I3
ssg71
g618
sg64
(lp625
S''
asbasbasbag57
(g73
g59
NtRp626
(dp627
g62
(dp628
sg71
g502
sg64
(lp629
g57
(g78
g59
NtRp630
(dp631
g62
(dp632
g82
g83
ssg71
g626
sg64
(lp633
g446
asbag57
(g78
g59
NtRp634
(dp635
g62
(dp636
g89
g90
ssg71
g626
sg64
(lp637
S':'
asbag57
(g78
g59
NtRp638
(dp639
g62
(dp640
sg71
g626
sg64
(lp641
g57
(g58
g59
NtRp642
(dp643
g62
(dp644
g70
I3
ssg71
g638
sg64
(lp645
S''
asbasbasbag57
(g73
g59
NtRp646
(dp647
g62
(dp648
sg71
g502
sg64
(lp649
g57
(g78
g59
NtRp650
(dp651
g62
(dp652
g82
g83
ssg71
g646
sg64
(lp653
g467
asbag57
(g78
g59
NtRp654
(dp655
g62
(dp656
g89
g90
ssg71
g646
sg64
(lp657
S':'
asbag57
(g78
g59
NtRp658
(dp659
g62
(dp660
sg71
g646
sg64
(lp661
g57
(g58
g59
NtRp662
(dp663
g62
(dp664
g70
I3
ssg71
g658
sg64
(lp665
S''
asbasbasbasbasbasbasbag57
(g73
g59
NtRp666
(dp667
g62
(dp668
sg71
g282
sg64
(lp669
g57
(g78
g59
NtRp670
(dp671
g62
(dp672
g82
g83
ssg71
g666
sg64
(lp673
S'session_id_assignment_2'
p674
asbag57
(g78
g59
NtRp675
(dp676
g62
(dp677
g89
g90
ssg71
g666
sg64
(lp678
S':'
asbag57
(g78
g59
NtRp679
(dp680
g62
(dp681
sg71
g666
sg64
(lp682
g57
(g58
g59
NtRp683
(dp684
g62
(dp685
g70
I4
ssg71
g679
sg64
(lp686
S'127.0.0.1-0036fb1c-fa58-480c-915d-54bdd0161dfd'
p687
ag57
(g66
g59
NtRp688
(dp689
g62
(dp690
g70
I3
ssg71
Nsg64
(lp691
g57
(g73
g59
NtRp692
(dp693
g62
(dp694
sg71
g688
sg64
(lp695
g57
(g78
g59
NtRp696
(dp697
g62
(dp698
g82
g83
ssg71
g692
sg64
(lp699
g320
asbag57
(g78
g59
NtRp700
(dp701
g62
(dp702
g89
g90
ssg71
g692
sg64
(lp703
S':'
asbag57
(g78
g59
NtRp704
(dp705
g62
(dp706
sg71
g692
sg64
(lp707
g57
(g58
g59
NtRp708
(dp709
g62
(dp710
g70
I3
ssg71
g704
sg64
(lp711
S''
asbasbasbag57
(g73
g59
NtRp712
(dp713
g62
(dp714
sg71
g688
sg64
(lp715
g57
(g78
g59
NtRp716
(dp717
g62
(dp718
g82
g83
ssg71
g712
sg64
(lp719
g341
asbag57
(g78
g59
NtRp720
(dp721
g62
(dp722
g89
g90
ssg71
g712
sg64
(lp723
S':'
asbag57
(g78
g59
NtRp724
(dp725
g62
(dp726
sg71
g712
sg64
(lp727
g57
(g58
g59
NtRp728
(dp729
g62
(dp730
g70
I3
ssg71
g724
sg64
(lp731
S''
asbasbasbag57
(g73
g59
NtRp732
(dp733
g62
(dp734
sg71
g688
sg64
(lp735
g57
(g78
g59
NtRp736
(dp737
g62
(dp738
g82
g83
ssg71
g732
sg64
(lp739
g362
asbag57
(g78
g59
NtRp740
(dp741
g62
(dp742
g89
g90
ssg71
g732
sg64
(lp743
S':'
asbag57
(g78
g59
NtRp744
(dp745
g62
(dp746
sg71
g732
sg64
(lp747
g57
(g58
g59
NtRp748
(dp749
g62
(dp750
g70
I3
ssg71
g744
sg64
(lp751
S''
asbasbasbag57
(g73
g59
NtRp752
(dp753
g62
(dp754
sg71
g688
sg64
(lp755
g57
(g78
g59
NtRp756
(dp757
g62
(dp758
g82
g83
ssg71
g752
sg64
(lp759
g383
asbag57
(g78
g59
NtRp760
(dp761
g62
(dp762
g89
g90
ssg71
g752
sg64
(lp763
S':'
asbag57
(g78
g59
NtRp764
(dp765
g62
(dp766
sg71
g752
sg64
(lp767
g57
(g58
g59
NtRp768
(dp769
g62
(dp770
g70
I3
ssg71
g764
sg64
(lp771
S''
asbasbasbag57
(g73
g59
NtRp772
(dp773
g62
(dp774
sg71
g688
sg64
(lp775
g57
(g78
g59
NtRp776
(dp777
g62
(dp778
g82
g83
ssg71
g772
sg64
(lp779
g404
asbag57
(g78
g59
NtRp780
(dp781
g62
(dp782
g89
g90
ssg71
g772
sg64
(lp783
S':'
asbag57
(g78
g59
NtRp784
(dp785
g62
(dp786
sg71
g772
sg64
(lp787
g57
(g58
g59
NtRp788
(dp789
g62
(dp790
g70
I3
ssg71
g784
sg64
(lp791
S''
asbasbasbag57
(g73
g59
NtRp792
(dp793
g62
(dp794
sg71
g688
sg64
(lp795
g57
(g78
g59
NtRp796
(dp797
g62
(dp798
g82
g83
ssg71
g792
sg64
(lp799
g425
asbag57
(g78
g59
NtRp800
(dp801
g62
(dp802
g89
g90
ssg71
g792
sg64
(lp803
S':'
asbag57
(g78
g59
NtRp804
(dp805
g62
(dp806
sg71
g792
sg64
(lp807
g57
(g58
g59
NtRp808
(dp809
g62
(dp810
g70
I3
ssg71
g804
sg64
(lp811
S''
asbasbasbag57
(g73
g59
NtRp812
(dp813
g62
(dp814
sg71
g688
sg64
(lp815
g57
(g78
g59
NtRp816
(dp817
g62
(dp818
g82
g83
ssg71
g812
sg64
(lp819
g446
asbag57
(g78
g59
NtRp820
(dp821
g62
(dp822
g89
g90
ssg71
g812
sg64
(lp823
S':'
asbag57
(g78
g59
NtRp824
(dp825
g62
(dp826
sg71
g812
sg64
(lp827
g57
(g58
g59
NtRp828
(dp829
g62
(dp830
g70
I3
ssg71
g824
sg64
(lp831
S''
asbasbasbag57
(g73
g59
NtRp832
(dp833
g62
(dp834
sg71
g688
sg64
(lp835
g57
(g78
g59
NtRp836
(dp837
g62
(dp838
g82
g83
ssg71
g832
sg64
(lp839
g467
asbag57
(g78
g59
NtRp840
(dp841
g62
(dp842
g89
g90
ssg71
g832
sg64
(lp843
S':'
asbag57
(g78
g59
NtRp844
(dp845
g62
(dp846
sg71
g832
sg64
(lp847
g57
(g58
g59
NtRp848
(dp849
g62
(dp850
g70
I3
ssg71
g844
sg64
(lp851
S''
asbasbasbasbasbasbasbag57
(g73
g59
NtRp852
(dp853
g62
(dp854
sg71
g282
sg64
(lp855
g57
(g78
g59
NtRp856
(dp857
g62
(dp858
g82
g83
ssg71
g852
sg64
(lp859
S'session_id_welcome'
p860
asbag57
(g78
g59
NtRp861
(dp862
g62
(dp863
g89
g90
ssg71
g852
sg64
(lp864
S':'
asbag57
(g78
g59
NtRp865
(dp866
g62
(dp867
sg71
g852
sg64
(lp868
g57
(g58
g59
NtRp869
(dp870
g62
(dp871
g70
I4
ssg71
g865
sg64
(lp872
S'127.0.0.1-51ff2c10-1037-48b2-b021-d4a1792466f9'
p873
ag57
(g66
g59
NtRp874
(dp875
g62
(dp876
g70
I3
ssg71
Nsg64
(lp877
g57
(g73
g59
NtRp878
(dp879
g62
(dp880
sg71
g874
sg64
(lp881
g57
(g78
g59
NtRp882
(dp883
g62
(dp884
g82
g83
ssg71
g878
sg64
(lp885
g320
asbag57
(g78
g59
NtRp886
(dp887
g62
(dp888
g89
g90
ssg71
g878
sg64
(lp889
S':'
asbag57
(g78
g59
NtRp890
(dp891
g62
(dp892
sg71
g878
sg64
(lp893
g57
(g58
g59
NtRp894
(dp895
g62
(dp896
g70
I3
ssg71
g890
sg64
(lp897
S''
asbasbasbag57
(g73
g59
NtRp898
(dp899
g62
(dp900
sg71
g874
sg64
(lp901
g57
(g78
g59
NtRp902
(dp903
g62
(dp904
g82
g83
ssg71
g898
sg64
(lp905
g341
asbag57
(g78
g59
NtRp906
(dp907
g62
(dp908
g89
g90
ssg71
g898
sg64
(lp909
S':'
asbag57
(g78
g59
NtRp910
(dp911
g62
(dp912
sg71
g898
sg64
(lp913
g57
(g58
g59
NtRp914
(dp915
g62
(dp916
g70
I3
ssg71
g910
sg64
(lp917
S''
asbasbasbag57
(g73
g59
NtRp918
(dp919
g62
(dp920
sg71
g874
sg64
(lp921
g57
(g78
g59
NtRp922
(dp923
g62
(dp924
g82
g83
ssg71
g918
sg64
(lp925
g362
asbag57
(g78
g59
NtRp926
(dp927
g62
(dp928
g89
g90
ssg71
g918
sg64
(lp929
S':'
asbag57
(g78
g59
NtRp930
(dp931
g62
(dp932
sg71
g918
sg64
(lp933
g57
(g58
g59
NtRp934
(dp935
g62
(dp936
g70
I3
ssg71
g930
sg64
(lp937
S''
asbasbasbag57
(g73
g59
NtRp938
(dp939
g62
(dp940
sg71
g874
sg64
(lp941
g57
(g78
g59
NtRp942
(dp943
g62
(dp944
g82
g83
ssg71
g938
sg64
(lp945
g383
asbag57
(g78
g59
NtRp946
(dp947
g62
(dp948
g89
g90
ssg71
g938
sg64
(lp949
S':'
asbag57
(g78
g59
NtRp950
(dp951
g62
(dp952
sg71
g938
sg64
(lp953
g57
(g58
g59
NtRp954
(dp955
g62
(dp956
g70
I3
ssg71
g950
sg64
(lp957
S''
asbasbasbag57
(g73
g59
NtRp958
(dp959
g62
(dp960
sg71
g874
sg64
(lp961
g57
(g78
g59
NtRp962
(dp963
g62
(dp964
g82
g83
ssg71
g958
sg64
(lp965
g404
asbag57
(g78
g59
NtRp966
(dp967
g62
(dp968
g89
g90
ssg71
g958
sg64
(lp969
S':'
asbag57
(g78
g59
NtRp970
(dp971
g62
(dp972
sg71
g958
sg64
(lp973
g57
(g58
g59
NtRp974
(dp975
g62
(dp976
g70
I3
ssg71
g970
sg64
(lp977
S''
asbasbasbag57
(g73
g59
NtRp978
(dp979
g62
(dp980
sg71
g874
sg64
(lp981
g57
(g78
g59
NtRp982
(dp983
g62
(dp984
g82
g83
ssg71
g978
sg64
(lp985
g425
asbag57
(g78
g59
NtRp986
(dp987
g62
(dp988
g89
g90
ssg71
g978
sg64
(lp989
S':'
asbag57
(g78
g59
NtRp990
(dp991
g62
(dp992
sg71
g978
sg64
(lp993
g57
(g58
g59
NtRp994
(dp995
g62
(dp996
g70
I3
ssg71
g990
sg64
(lp997
S''
asbasbasbag57
(g73
g59
NtRp998
(dp999
g62
(dp1000
sg71
g874
sg64
(lp1001
g57
(g78
g59
NtRp1002
(dp1003
g62
(dp1004
g82
g83
ssg71
g998
sg64
(lp1005
g446
asbag57
(g78
g59
NtRp1006
(dp1007
g62
(dp1008
g89
g90
ssg71
g998
sg64
(lp1009
S':'
asbag57
(g78
g59
NtRp1010
(dp1011
g62
(dp1012
sg71
g998
sg64
(lp1013
g57
(g58
g59
NtRp1014
(dp1015
g62
(dp1016
g70
I3
ssg71
g1010
sg64
(lp1017
S''
asbasbasbag57
(g73
g59
NtRp1018
(dp1019
g62
(dp1020
sg71
g874
sg64
(lp1021
g57
(g78
g59
NtRp1022
(dp1023
g62
(dp1024
g82
g83
ssg71
g1018
sg64
(lp1025
g467
asbag57
(g78
g59
NtRp1026
(dp1027
g62
(dp1028
g89
g90
ssg71
g1018
sg64
(lp1029
S':'
asbag57
(g78
g59
NtRp1030
(dp1031
g62
(dp1032
sg71
g1018
sg64
(lp1033
g57
(g58
g59
NtRp1034
(dp1035
g62
(dp1036
g70
I3
ssg71
g1030
sg64
(lp1037
S''
asbasbasbasbasbasbasbasbasbasbasbag57
(g73
g59
NtRp1038
(dp1039
g62
(dp1040
sg71
g67
sg64
(lp1041
g57
(g78
g59
NtRp1042
(dp1043
g62
(dp1044
g82
g83
ssg71
g1038
sg64
(lp1045
S'env'
p1046
asbag57
(g78
g59
NtRp1047
(dp1048
g62
(dp1049
g89
g90
ssg71
g1038
sg64
(lp1050
S':'
asbag57
(g78
g59
NtRp1051
(dp1052
g62
(dp1053
sg71
g1038
sg64
(lp1054
g57
(g58
g59
NtRp1055
(dp1056
g62
(dp1057
g70
I5
ssg71
g1051
sg64
(lp1058
g57
(g66
g59
NtRp1059
(dp1060
g62
(dp1061
g70
I4
ssg71
Nsg64
(lp1062
g57
(g73
g59
NtRp1063
(dp1064
g62
(dp1065
sg71
g1059
sg64
(lp1066
g57
(g78
g59
NtRp1067
(dp1068
g62
(dp1069
g82
g83
ssg71
g1063
sg64
(lp1070
S'app_folders'
p1071
asbag57
(g78
g59
NtRp1072
(dp1073
g62
(dp1074
g89
g90
ssg71
g1063
sg64
(lp1075
S':'
asbag57
(g78
g59
NtRp1076
(dp1077
g62
(dp1078
sg71
g1063
sg64
(lp1079
g57
(g58
g59
NtRp1080
(dp1081
g62
(dp1082
g70
I4
ssg71
g1076
sg64
(lp1083
S"set(['/home/shipra/Desktop/Semester 1.2/ITWS-2/web2py/applications/Assignment_2/', '/home/shipra/Desktop/Semester 1.2/ITWS-2/web2py/applications/welcome/', '/home/shipra/Desktop/Semester 1.2/ITWS-2/web2py/applications/admin/'])"
p1084
asbasbasbag57
(g73
g59
NtRp1085
(dp1086
g62
(dp1087
sg71
g1059
sg64
(lp1088
g57
(g78
g59
NtRp1089
(dp1090
g62
(dp1091
g82
g83
ssg71
g1085
sg64
(lp1092
S'applications_parent'
p1093
asbag57
(g78
g59
NtRp1094
(dp1095
g62
(dp1096
g89
g90
ssg71
g1085
sg64
(lp1097
S':'
asbag57
(g78
g59
NtRp1098
(dp1099
g62
(dp1100
sg71
g1085
sg64
(lp1101
g57
(g58
g59
NtRp1102
(dp1103
g62
(dp1104
g70
I4
ssg71
g1098
sg64
(lp1105
S'/home/shipra/Desktop/Semester 1.2/ITWS-2/web2py'
p1106
asbasbasbag57
(g73
g59
NtRp1107
(dp1108
g62
(dp1109
sg71
g1059
sg64
(lp1110
g57
(g78
g59
NtRp1111
(dp1112
g62
(dp1113
g82
g83
ssg71
g1107
sg64
(lp1114
S'cmd_args'
p1115
asbag57
(g78
g59
NtRp1116
(dp1117
g62
(dp1118
g89
g90
ssg71
g1107
sg64
(lp1119
S':'
asbag57
(g78
g59
NtRp1120
(dp1121
g62
(dp1122
sg71
g1107
sg64
(lp1123
g57
(g58
g59
NtRp1124
(dp1125
g62
(dp1126
g70
I4
ssg71
g1120
sg64
(lp1127
g57
(g66
g59
NtRp1128
(dp1129
g62
(dp1130
g70
I3
ssg71
Nsg64
(lp1131
sbasbasbasbag57
(g73
g59
NtRp1132
(dp1133
g62
(dp1134
sg71
g1059
sg64
(lp1135
g57
(g78
g59
NtRp1136
(dp1137
g62
(dp1138
g82
g83
ssg71
g1132
sg64
(lp1139
S'cmd_options'
p1140
asbag57
(g78
g59
NtRp1141
(dp1142
g62
(dp1143
g89
g90
ssg71
g1132
sg64
(lp1144
S':'
asbag57
(g78
g59
NtRp1145
(dp1146
g62
(dp1147
sg71
g1132
sg64
(lp1148
g57
(g58
g59
NtRp1149
(dp1150
g62
(dp1151
g70
I4
ssg71
g1145
sg64
(lp1152
S"<Values at 0x1275290: {'verbose': False, 'ip': '127.0.0.1', 'with_scheduler': False, 'ips': ['10.1.129.70', '192.168.122.1', 'fe80::e611:5bff:fe38:8d0d%p5p1'], 'shutdown_timeout': 5, 'taskbar': False, 'port': 8000, 'maxthreads': None, 'softcron': False, 'server_name': 'shipra', 'bpython': False, 'nogui': False, 'pid_filename': 'httpserver.pid', 'extcron': False, 'runcron': False, 'run_system_tests': False, 'test': None, 'folder': '/home/shipra/Desktop/Semester 1.2/ITWS-2/web2py', 'config': '', 'minthreads': None, 'winservice': '', 'shell': None, 'run': '', 'log_filename': 'httpserver.log', 'debuglevel': 30, 'args': [''], 'socket_timeout': 5, 'ssl_ca_certificate': None, 'scheduler': None, 'profiler_filename': None, 'ssl_private_key': '', 'scheduler_groups': None, 'password': '<ask>', 'request_queue_size': 5, 'ssl_certificate': '', 'cronjob': False, 'numthreads': None, 'quiet': False, 'interfaces': None, 'import_models': False, 'timeout': 10, 'plain': False, 'nobanner': False}>"
p1153
asbasbasbag57
(g73
g59
NtRp1154
(dp1155
g62
(dp1156
sg71
g1059
sg64
(lp1157
g57
(g78
g59
NtRp1158
(dp1159
g62
(dp1160
g82
g83
ssg71
g1154
sg64
(lp1161
S'db_sessions'
p1162
asbag57
(g78
g59
NtRp1163
(dp1164
g62
(dp1165
g89
g90
ssg71
g1154
sg64
(lp1166
S':'
asbag57
(g78
g59
NtRp1167
(dp1168
g62
(dp1169
sg71
g1154
sg64
(lp1170
g57
(g58
g59
NtRp1171
(dp1172
g62
(dp1173
g70
I4
ssg71
g1167
sg64
(lp1174
S'set([])'
p1175
asbasbasbag57
(g73
g59
NtRp1176
(dp1177
g62
(dp1178
sg71
g1059
sg64
(lp1179
g57
(g78
g59
NtRp1180
(dp1181
g62
(dp1182
g82
g83
ssg71
g1176
sg64
(lp1183
S'debugging'
p1184
asbag57
(g78
g59
NtRp1185
(dp1186
g62
(dp1187
g89
g90
ssg71
g1176
sg64
(lp1188
S':'
asbag57
(g78
g59
NtRp1189
(dp1190
g62
(dp1191
sg71
g1176
sg64
(lp1192
g57
(g58
g59
NtRp1193
(dp1194
g62
(dp1195
g70
I4
ssg71
g1189
sg64
(lp1196
g100
asbasbasbag57
(g73
g59
NtRp1197
(dp1198
g62
(dp1199
sg71
g1059
sg64
(lp1200
g57
(g78
g59
NtRp1201
(dp1202
g62
(dp1203
g82
g83
ssg71
g1197
sg64
(lp1204
S'gluon_parent'
p1205
asbag57
(g78
g59
NtRp1206
(dp1207
g62
(dp1208
g89
g90
ssg71
g1197
sg64
(lp1209
S':'
asbag57
(g78
g59
NtRp1210
(dp1211
g62
(dp1212
sg71
g1197
sg64
(lp1213
g57
(g58
g59
NtRp1214
(dp1215
g62
(dp1216
g70
I4
ssg71
g1210
sg64
(lp1217
S'/home/shipra/Desktop/Semester 1.2/ITWS-2/web2py'
p1218
asbasbasbag57
(g73
g59
NtRp1219
(dp1220
g62
(dp1221
sg71
g1059
sg64
(lp1222
g57
(g78
g59
NtRp1223
(dp1224
g62
(dp1225
g82
g83
ssg71
g1219
sg64
(lp1226
S'http_accept'
p1227
asbag57
(g78
g59
NtRp1228
(dp1229
g62
(dp1230
g89
g90
ssg71
g1219
sg64
(lp1231
S':'
asbag57
(g78
g59
NtRp1232
(dp1233
g62
(dp1234
sg71
g1219
sg64
(lp1235
g57
(g58
g59
NtRp1236
(dp1237
g62
(dp1238
g70
I4
ssg71
g1232
sg64
(lp1239
S'text/html,application/xhtml+xml,application/xml;q=0.9,*/*;q=0.8'
p1240
asbasbasbag57
(g73
g59
NtRp1241
(dp1242
g62
(dp1243
sg71
g1059
sg64
(lp1244
g57
(g78
g59
NtRp1245
(dp1246
g62
(dp1247
g82
g83
ssg71
g1241
sg64
(lp1248
S'http_accept_encoding'
p1249
asbag57
(g78
g59
NtRp1250
(dp1251
g62
(dp1252
g89
g90
ssg71
g1241
sg64
(lp1253
S':'
asbag57
(g78
g59
NtRp1254
(dp1255
g62
(dp1256
sg71
g1241
sg64
(lp1257
g57
(g58
g59
NtRp1258
(dp1259
g62
(dp1260
g70
I4
ssg71
g1254
sg64
(lp1261
S'gzip, deflate'
p1262
asbasbasbag57
(g73
g59
NtRp1263
(dp1264
g62
(dp1265
sg71
g1059
sg64
(lp1266
g57
(g78
g59
NtRp1267
(dp1268
g62
(dp1269
g82
g83
ssg71
g1263
sg64
(lp1270
S'http_accept_language'
p1271
asbag57
(g78
g59
NtRp1272
(dp1273
g62
(dp1274
g89
g90
ssg71
g1263
sg64
(lp1275
S':'
asbag57
(g78
g59
NtRp1276
(dp1277
g62
(dp1278
sg71
g1263
sg64
(lp1279
g57
(g58
g59
NtRp1280
(dp1281
g62
(dp1282
g70
I4
ssg71
g1276
sg64
(lp1283
S'en-us,en;q=0.5'
p1284
asbasbasbag57
(g73
g59
NtRp1285
(dp1286
g62
(dp1287
sg71
g1059
sg64
(lp1288
g57
(g78
g59
NtRp1289
(dp1290
g62
(dp1291
g82
g83
ssg71
g1285
sg64
(lp1292
S'http_connection'
p1293
asbag57
(g78
g59
NtRp1294
(dp1295
g62
(dp1296
g89
g90
ssg71
g1285
sg64
(lp1297
S':'
asbag57
(g78
g59
NtRp1298
(dp1299
g62
(dp1300
sg71
g1285
sg64
(lp1301
g57
(g58
g59
NtRp1302
(dp1303
g62
(dp1304
g70
I4
ssg71
g1298
sg64
(lp1305
S'keep-alive'
p1306
asbasbasbag57
(g73
g59
NtRp1307
(dp1308
g62
(dp1309
sg71
g1059
sg64
(lp1310
g57
(g78
g59
NtRp1311
(dp1312
g62
(dp1313
g82
g83
ssg71
g1307
sg64
(lp1314
S'http_cookie'
p1315
asbag57
(g78
g59
NtRp1316
(dp1317
g62
(dp1318
g89
g90
ssg71
g1307
sg64
(lp1319
S':'
asbag57
(g78
g59
NtRp1320
(dp1321
g62
(dp1322
sg71
g1307
sg64
(lp1323
g57
(g58
g59
NtRp1324
(dp1325
g62
(dp1326
g70
I4
ssg71
g1320
sg64
(lp1327
S'__utma=96992031.1334412862.1364672878.1364672878.1364718243.2; __utmz=96992031.1364672878.1.1.utmcsr=(direct)|utmccn=(direct)|utmcmd=(none); __lc.visitor_id.1195381=S1364672235.4faffcf2d2; __ar_v4=OWHSPOGHTNEIPPPBMHVFTA%3A20130329%3A12%7CAMEDRHI4VZG4TIA2AZ565D%3A20130329%3A12%7CWAEQXC4B2NH3DDBR3TZM6I%3A20130329%3A12; mp_2093ad9ff9c5428a2228386de2f2b0e4_mixpanel=%7B%22distinct_id%22%3A%20%2262ffc2d0-7b9f-0130-efb0-22000a1cbb2a%22%2C%22is_registered_user%22%3A%20false%2C%22%24initial_referrer%22%3A%20%22%24direct%22%2C%22%24initial_referring_domain%22%3A%20%22%24direct%22%7D; session_id_welcome=127.0.0.1-51ff2c10-1037-48b2-b021-d4a1792466f9; session_id_admin=127.0.0.1-29035540-3849-480e-844c-005b6db423a0; session_id_assignment_2=127.0.0.1-0036fb1c-fa58-480c-915d-54bdd0161dfd'
p1328
asbasbasbag57
(g73
g59
NtRp1329
(dp1330
g62
(dp1331
sg71
g1059
sg64
(lp1332
g57
(g78
g59
NtRp1333
(dp1334
g62
(dp1335
g82
g83
ssg71
g1329
sg64
(lp1336
S'http_host'
p1337
asbag57
(g78
g59
NtRp1338
(dp1339
g62
(dp1340
g89
g90
ssg71
g1329
sg64
(lp1341
S':'
asbag57
(g78
g59
NtRp1342
(dp1343
g62
(dp1344
sg71
g1329
sg64
(lp1345
g57
(g58
g59
NtRp1346
(dp1347
g62
(dp1348
g70
I4
ssg71
g1342
sg64
(lp1349
S'127.0.0.1:8000'
p1350
asbasbasbag57
(g73
g59
NtRp1351
(dp1352
g62
(dp1353
sg71
g1059
sg64
(lp1354
g57
(g78
g59
NtRp1355
(dp1356
g62
(dp1357
g82
g83
ssg71
g1351
sg64
(lp1358
S'http_referer'
p1359
asbag57
(g78
g59
NtRp1360
(dp1361
g62
(dp1362
g89
g90
ssg71
g1351
sg64
(lp1363
S':'
asbag57
(g78
g59
NtRp1364
(dp1365
g62
(dp1366
sg71
g1351
sg64
(lp1367
g57
(g58
g59
NtRp1368
(dp1369
g62
(dp1370
g70
I4
ssg71
g1364
sg64
(lp1371
S'http://127.0.0.1:8000/Assignment_2/default/categ_display/World'
p1372
asbasbasbag57
(g73
g59
NtRp1373
(dp1374
g62
(dp1375
sg71
g1059
sg64
(lp1376
g57
(g78
g59
NtRp1377
(dp1378
g62
(dp1379
g82
g83
ssg71
g1373
sg64
(lp1380
S'http_user_agent'
p1381
asbag57
(g78
g59
NtRp1382
(dp1383
g62
(dp1384
g89
g90
ssg71
g1373
sg64
(lp1385
S':'
asbag57
(g78
g59
NtRp1386
(dp1387
g62
(dp1388
sg71
g1373
sg64
(lp1389
g57
(g58
g59
NtRp1390
(dp1391
g62
(dp1392
g70
I4
ssg71
g1386
sg64
(lp1393
S'Mozilla/5.0 (X11; Linux x86_64; rv:12.0) Gecko/20100101 Firefox/12.0'
p1394
asbasbasbag57
(g73
g59
NtRp1395
(dp1396
g62
(dp1397
sg71
g1059
sg64
(lp1398
g57
(g78
g59
NtRp1399
(dp1400
g62
(dp1401
g82
g83
ssg71
g1395
sg64
(lp1402
S'is_jython'
p1403
asbag57
(g78
g59
NtRp1404
(dp1405
g62
(dp1406
g89
g90
ssg71
g1395
sg64
(lp1407
S':'
asbag57
(g78
g59
NtRp1408
(dp1409
g62
(dp1410
sg71
g1395
sg64
(lp1411
g57
(g58
g59
NtRp1412
(dp1413
g62
(dp1414
g70
I4
ssg71
g1408
sg64
(lp1415
g100
asbasbasbag57
(g73
g59
NtRp1416
(dp1417
g62
(dp1418
sg71
g1059
sg64
(lp1419
g57
(g78
g59
NtRp1420
(dp1421
g62
(dp1422
g82
g83
ssg71
g1416
sg64
(lp1423
S'is_pypy'
p1424
asbag57
(g78
g59
NtRp1425
(dp1426
g62
(dp1427
g89
g90
ssg71
g1416
sg64
(lp1428
S':'
asbag57
(g78
g59
NtRp1429
(dp1430
g62
(dp1431
sg71
g1416
sg64
(lp1432
g57
(g58
g59
NtRp1433
(dp1434
g62
(dp1435
g70
I4
ssg71
g1429
sg64
(lp1436
g100
asbasbasbag57
(g73
g59
NtRp1437
(dp1438
g62
(dp1439
sg71
g1059
sg64
(lp1440
g57
(g78
g59
NtRp1441
(dp1442
g62
(dp1443
g82
g83
ssg71
g1437
sg64
(lp1444
S'local_hosts'
p1445
asbag57
(g78
g59
NtRp1446
(dp1447
g62
(dp1448
g89
g90
ssg71
g1437
sg64
(lp1449
S':'
asbag57
(g78
g59
NtRp1450
(dp1451
g62
(dp1452
sg71
g1437
sg64
(lp1453
g57
(g58
g59
NtRp1454
(dp1455
g62
(dp1456
g70
I4
ssg71
g1450
sg64
(lp1457
g57
(g66
g59
NtRp1458
(dp1459
g62
(dp1460
g70
I3
ssg71
Nsg64
(lp1461
g57
(g73
g59
NtRp1462
(dp1463
g62
(dp1464
sg71
g1458
sg64
(lp1465
g57
(g78
g59
NtRp1466
(dp1467
g62
(dp1468
sg71
g1462
sg64
(lp1469
g57
(g58
g59
NtRp1470
(dp1471
g62
(dp1472
g70
I3
ssg71
g1466
sg64
(lp1473
S'192.168.122.1'
p1474
asbasbasbag57
(g73
g59
NtRp1475
(dp1476
g62
(dp1477
sg71
g1458
sg64
(lp1478
g57
(g78
g59
NtRp1479
(dp1480
g62
(dp1481
sg71
g1475
sg64
(lp1482
g57
(g58
g59
NtRp1483
(dp1484
g62
(dp1485
g70
I3
ssg71
g1479
sg64
(lp1486
S'::ffff:127.0.0.1'
p1487
asbasbasbag57
(g73
g59
NtRp1488
(dp1489
g62
(dp1490
sg71
g1458
sg64
(lp1491
g57
(g78
g59
NtRp1492
(dp1493
g62
(dp1494
sg71
g1488
sg64
(lp1495
g57
(g58
g59
NtRp1496
(dp1497
g62
(dp1498
g70
I3
ssg71
g1492
sg64
(lp1499
S'::1'
p1500
asbasbasbag57
(g73
g59
NtRp1501
(dp1502
g62
(dp1503
sg71
g1458
sg64
(lp1504
g57
(g78
g59
NtRp1505
(dp1506
g62
(dp1507
sg71
g1501
sg64
(lp1508
g57
(g58
g59
NtRp1509
(dp1510
g62
(dp1511
g70
I3
ssg71
g1505
sg64
(lp1512
S'10.1.129.70'
p1513
asbasbasbag57
(g73
g59
NtRp1514
(dp1515
g62
(dp1516
sg71
g1458
sg64
(lp1517
g57
(g78
g59
NtRp1518
(dp1519
g62
(dp1520
sg71
g1514
sg64
(lp1521
g57
(g58
g59
NtRp1522
(dp1523
g62
(dp1524
g70
I3
ssg71
g1518
sg64
(lp1525
S'fe80::e611:5bff:fe38:8d0d%p5p1'
p1526
asbasbasbag57
(g73
g59
NtRp1527
(dp1528
g62
(dp1529
sg71
g1458
sg64
(lp1530
g57
(g78
g59
NtRp1531
(dp1532
g62
(dp1533
sg71
g1527
sg64
(lp1534
g57
(g58
g59
NtRp1535
(dp1536
g62
(dp1537
g70
I3
ssg71
g1531
sg64
(lp1538
S'127.0.0.1'
p1539
asbasbasbag57
(g73
g59
NtRp1540
(dp1541
g62
(dp1542
sg71
g1458
sg64
(lp1543
g57
(g78
g59
NtRp1544
(dp1545
g62
(dp1546
sg71
g1540
sg64
(lp1547
g57
(g58
g59
NtRp1548
(dp1549
g62
(dp1550
g70
I3
ssg71
g1544
sg64
(lp1551
S'shipra'
p1552
asbasbasbasbasbasbasbag57
(g73
g59
NtRp1553
(dp1554
g62
(dp1555
sg71
g1059
sg64
(lp1556
g57
(g78
g59
NtRp1557
(dp1558
g62
(dp1559
g82
g83
ssg71
g1553
sg64
(lp1560
S'path_info'
p1561
asbag57
(g78
g59
NtRp1562
(dp1563
g62
(dp1564
g89
g90
ssg71
g1553
sg64
(lp1565
S':'
asbag57
(g78
g59
NtRp1566
(dp1567
g62
(dp1568
sg71
g1553
sg64
(lp1569
g57
(g58
g59
NtRp1570
(dp1571
g62
(dp1572
g70
I4
ssg71
g1566
sg64
(lp1573
S'/Assignment_2/default/comm_post/38/World'
p1574
asbasbasbag57
(g73
g59
NtRp1575
(dp1576
g62
(dp1577
sg71
g1059
sg64
(lp1578
g57
(g78
g59
NtRp1579
(dp1580
g62
(dp1581
g82
g83
ssg71
g1575
sg64
(lp1582
S'query_string'
p1583
asbag57
(g78
g59
NtRp1584
(dp1585
g62
(dp1586
g89
g90
ssg71
g1575
sg64
(lp1587
S':'
asbag57
(g78
g59
NtRp1588
(dp1589
g62
(dp1590
sg71
g1575
sg64
(lp1591
g57
(g58
g59
NtRp1592
(dp1593
g62
(dp1594
g70
I4
ssg71
g1588
sg64
(lp1595
S''
asbasbasbag57
(g73
g59
NtRp1596
(dp1597
g62
(dp1598
sg71
g1059
sg64
(lp1599
g57
(g78
g59
NtRp1600
(dp1601
g62
(dp1602
g82
g83
ssg71
g1596
sg64
(lp1603
S'remote_addr'
p1604
asbag57
(g78
g59
NtRp1605
(dp1606
g62
(dp1607
g89
g90
ssg71
g1596
sg64
(lp1608
S':'
asbag57
(g78
g59
NtRp1609
(dp1610
g62
(dp1611
sg71
g1596
sg64
(lp1612
g57
(g58
g59
NtRp1613
(dp1614
g62
(dp1615
g70
I4
ssg71
g1609
sg64
(lp1616
g238
asbasbasbag57
(g73
g59
NtRp1617
(dp1618
g62
(dp1619
sg71
g1059
sg64
(lp1620
g57
(g78
g59
NtRp1621
(dp1622
g62
(dp1623
g82
g83
ssg71
g1617
sg64
(lp1624
S'remote_port'
p1625
asbag57
(g78
g59
NtRp1626
(dp1627
g62
(dp1628
g89
g90
ssg71
g1617
sg64
(lp1629
S':'
asbag57
(g78
g59
NtRp1630
(dp1631
g62
(dp1632
sg71
g1617
sg64
(lp1633
g57
(g58
g59
NtRp1634
(dp1635
g62
(dp1636
g70
I4
ssg71
g1630
sg64
(lp1637
S'52914'
p1638
asbasbasbag57
(g73
g59
NtRp1639
(dp1640
g62
(dp1641
sg71
g1059
sg64
(lp1642
g57
(g78
g59
NtRp1643
(dp1644
g62
(dp1645
g82
g83
ssg71
g1639
sg64
(lp1646
S'request_method'
p1647
asbag57
(g78
g59
NtRp1648
(dp1649
g62
(dp1650
g89
g90
ssg71
g1639
sg64
(lp1651
S':'
asbag57
(g78
g59
NtRp1652
(dp1653
g62
(dp1654
sg71
g1639
sg64
(lp1655
g57
(g58
g59
NtRp1656
(dp1657
g62
(dp1658
g70
I4
ssg71
g1652
sg64
(lp1659
S'GET'
p1660
asbasbasbag57
(g73
g59
NtRp1661
(dp1662
g62
(dp1663
sg71
g1059
sg64
(lp1664
g57
(g78
g59
NtRp1665
(dp1666
g62
(dp1667
g82
g83
ssg71
g1661
sg64
(lp1668
S'request_uri'
p1669
asbag57
(g78
g59
NtRp1670
(dp1671
g62
(dp1672
g89
g90
ssg71
g1661
sg64
(lp1673
S':'
asbag57
(g78
g59
NtRp1674
(dp1675
g62
(dp1676
sg71
g1661
sg64
(lp1677
g57
(g58
g59
NtRp1678
(dp1679
g62
(dp1680
g70
I4
ssg71
g1674
sg64
(lp1681
g1574
asbasbasbag57
(g73
g59
NtRp1682
(dp1683
g62
(dp1684
sg71
g1059
sg64
(lp1685
g57
(g78
g59
NtRp1686
(dp1687
g62
(dp1688
g82
g83
ssg71
g1682
sg64
(lp1689
S'script_name'
p1690
asbag57
(g78
g59
NtRp1691
(dp1692
g62
(dp1693
g89
g90
ssg71
g1682
sg64
(lp1694
S':'
asbag57
(g78
g59
NtRp1695
(dp1696
g62
(dp1697
sg71
g1682
sg64
(lp1698
g57
(g58
g59
NtRp1699
(dp1700
g62
(dp1701
g70
I4
ssg71
g1695
sg64
(lp1702
S''
asbasbasbag57
(g73
g59
NtRp1703
(dp1704
g62
(dp1705
sg71
g1059
sg64
(lp1706
g57
(g78
g59
NtRp1707
(dp1708
g62
(dp1709
g82
g83
ssg71
g1703
sg64
(lp1710
S'server_name'
p1711
asbag57
(g78
g59
NtRp1712
(dp1713
g62
(dp1714
g89
g90
ssg71
g1703
sg64
(lp1715
S':'
asbag57
(g78
g59
NtRp1716
(dp1717
g62
(dp1718
sg71
g1703
sg64
(lp1719
g57
(g58
g59
NtRp1720
(dp1721
g62
(dp1722
g70
I4
ssg71
g1716
sg64
(lp1723
S'shipra'
p1724
asbasbasbag57
(g73
g59
NtRp1725
(dp1726
g62
(dp1727
sg71
g1059
sg64
(lp1728
g57
(g78
g59
NtRp1729
(dp1730
g62
(dp1731
g82
g83
ssg71
g1725
sg64
(lp1732
S'server_port'
p1733
asbag57
(g78
g59
NtRp1734
(dp1735
g62
(dp1736
g89
g90
ssg71
g1725
sg64
(lp1737
S':'
asbag57
(g78
g59
NtRp1738
(dp1739
g62
(dp1740
sg71
g1725
sg64
(lp1741
g57
(g58
g59
NtRp1742
(dp1743
g62
(dp1744
g70
I4
ssg71
g1738
sg64
(lp1745
S'8000'
p1746
asbasbasbag57
(g73
g59
NtRp1747
(dp1748
g62
(dp1749
sg71
g1059
sg64
(lp1750
g57
(g78
g59
NtRp1751
(dp1752
g62
(dp1753
g82
g83
ssg71
g1747
sg64
(lp1754
S'server_protocol'
p1755
asbag57
(g78
g59
NtRp1756
(dp1757
g62
(dp1758
g89
g90
ssg71
g1747
sg64
(lp1759
S':'
asbag57
(g78
g59
NtRp1760
(dp1761
g62
(dp1762
sg71
g1747
sg64
(lp1763
g57
(g58
g59
NtRp1764
(dp1765
g62
(dp1766
g70
I4
ssg71
g1760
sg64
(lp1767
S'HTTP/1.1'
p1768
asbasbasbag57
(g73
g59
NtRp1769
(dp1770
g62
(dp1771
sg71
g1059
sg64
(lp1772
g57
(g78
g59
NtRp1773
(dp1774
g62
(dp1775
g82
g83
ssg71
g1769
sg64
(lp1776
S'server_software'
p1777
asbag57
(g78
g59
NtRp1778
(dp1779
g62
(dp1780
g89
g90
ssg71
g1769
sg64
(lp1781
S':'
asbag57
(g78
g59
NtRp1782
(dp1783
g62
(dp1784
sg71
g1769
sg64
(lp1785
g57
(g58
g59
NtRp1786
(dp1787
g62
(dp1788
g70
I4
ssg71
g1782
sg64
(lp1789
S'Rocket 1.2.6'
p1790
asbasbasbag57
(g73
g59
NtRp1791
(dp1792
g62
(dp1793
sg71
g1059
sg64
(lp1794
g57
(g78
g59
NtRp1795
(dp1796
g62
(dp1797
g82
g83
ssg71
g1791
sg64
(lp1798
S'web2py_path'
p1799
asbag57
(g78
g59
NtRp1800
(dp1801
g62
(dp1802
g89
g90
ssg71
g1791
sg64
(lp1803
S':'
asbag57
(g78
g59
NtRp1804
(dp1805
g62
(dp1806
sg71
g1791
sg64
(lp1807
g57
(g58
g59
NtRp1808
(dp1809
g62
(dp1810
g70
I4
ssg71
g1804
sg64
(lp1811
g1106
asbasbasbag57
(g73
g59
NtRp1812
(dp1813
g62
(dp1814
sg71
g1059
sg64
(lp1815
g57
(g78
g59
NtRp1816
(dp1817
g62
(dp1818
g82
g83
ssg71
g1812
sg64
(lp1819
S'web2py_version'
p1820
asbag57
(g78
g59
NtRp1821
(dp1822
g62
(dp1823
g89
g90
ssg71
g1812
sg64
(lp1824
S':'
asbag57
(g78
g59
NtRp1825
(dp1826
g62
(dp1827
sg71
g1812
sg64
(lp1828
g57
(g58
g59
NtRp1829
(dp1830
g62
(dp1831
g70
I4
ssg71
g1825
sg64
(lp1832
g57
(g66
g59
NtRp1833
(dp1834
g62
(dp1835
g70
I3
ssg71
Nsg64
(lp1836
g57
(g73
g59
NtRp1837
(dp1838
g62
(dp1839
sg71
g1833
sg64
(lp1840
g57
(g78
g59
NtRp1841
(dp1842
g62
(dp1843
sg71
g1837
sg64
(lp1844
g57
(g58
g59
NtRp1845
(dp1846
g62
(dp1847
g70
I3
ssg71
g1841
sg64
(lp1848
S'2'
asbasbasbag57
(g73
g59
NtRp1849
(dp1850
g62
(dp1851
sg71
g1833
sg64
(lp1852
g57
(g78
g59
NtRp1853
(dp1854
g62
(dp1855
sg71
g1849
sg64
(lp1856
g57
(g58
g59
NtRp1857
(dp1858
g62
(dp1859
g70
I3
ssg71
g1853
sg64
(lp1860
S'3'
asbasbasbag57
(g73
g59
NtRp1861
(dp1862
g62
(dp1863
sg71
g1833
sg64
(lp1864
g57
(g78
g59
NtRp1865
(dp1866
g62
(dp1867
sg71
g1861
sg64
(lp1868
g57
(g58
g59
NtRp1869
(dp1870
g62
(dp1871
g70
I3
ssg71
g1865
sg64
(lp1872
S'2'
asbasbasbag57
(g73
g59
NtRp1873
(dp1874
g62
(dp1875
sg71
g1833
sg64
(lp1876
g57
(g78
g59
NtRp1877
(dp1878
g62
(dp1879
sg71
g1873
sg64
(lp1880
g57
(g58
g59
NtRp1881
(dp1882
g62
(dp1883
g70
I3
ssg71
g1877
sg64
(lp1884
S'datetime.datetime(2012, 12, 17, 15, 3, 30)'
p1885
asbasbasbag57
(g73
g59
NtRp1886
(dp1887
g62
(dp1888
sg71
g1833
sg64
(lp1889
g57
(g78
g59
NtRp1890
(dp1891
g62
(dp1892
sg71
g1886
sg64
(lp1893
g57
(g58
g59
NtRp1894
(dp1895
g62
(dp1896
g70
I3
ssg71
g1890
sg64
(lp1897
S'stable'
p1898
asbasbasbasbasbasbasbag57
(g73
g59
NtRp1899
(dp1900
g62
(dp1901
sg71
g1059
sg64
(lp1902
g57
(g78
g59
NtRp1903
(dp1904
g62
(dp1905
g82
g83
ssg71
g1899
sg64
(lp1906
S'wsgi_errors'
p1907
asbag57
(g78
g59
NtRp1908
(dp1909
g62
(dp1910
g89
g90
ssg71
g1899
sg64
(lp1911
S':'
asbag57
(g78
g59
NtRp1912
(dp1913
g62
(dp1914
sg71
g1899
sg64
(lp1915
g57
(g58
g59
NtRp1916
(dp1917
g62
(dp1918
g70
I4
ssg71
g1912
sg64
(lp1919
S"<open file '<stderr>', mode 'w' at 0x7fbbe3f9a270>"
p1920
asbasbasbag57
(g73
g59
NtRp1921
(dp1922
g62
(dp1923
sg71
g1059
sg64
(lp1924
g57
(g78
g59
NtRp1925
(dp1926
g62
(dp1927
g82
g83
ssg71
g1921
sg64
(lp1928
S'wsgi_file_wrapper'
p1929
asbag57
(g78
g59
NtRp1930
(dp1931
g62
(dp1932
g89
g90
ssg71
g1921
sg64
(lp1933
S':'
asbag57
(g78
g59
NtRp1934
(dp1935
g62
(dp1936
sg71
g1921
sg64
(lp1937
g57
(g58
g59
NtRp1938
(dp1939
g62
(dp1940
g70
I4
ssg71
g1934
sg64
(lp1941
S'<class wsgiref.util.FileWrapper at 0x11ffe20>'
p1942
asbasbasbag57
(g73
g59
NtRp1943
(dp1944
g62
(dp1945
sg71
g1059
sg64
(lp1946
g57
(g78
g59
NtRp1947
(dp1948
g62
(dp1949
g82
g83
ssg71
g1943
sg64
(lp1950
S'wsgi_input'
p1951
asbag57
(g78
g59
NtRp1952
(dp1953
g62
(dp1954
g89
g90
ssg71
g1943
sg64
(lp1955
S':'
asbag57
(g78
g59
NtRp1956
(dp1957
g62
(dp1958
sg71
g1943
sg64
(lp1959
g57
(g58
g59
NtRp1960
(dp1961
g62
(dp1962
g70
I4
ssg71
g1956
sg64
(lp1963
S'<socket._fileobject object at 0x7fbbac0a2cd0>'
p1964
asbasbasbag57
(g73
g59
NtRp1965
(dp1966
g62
(dp1967
sg71
g1059
sg64
(lp1968
g57
(g78
g59
NtRp1969
(dp1970
g62
(dp1971
g82
g83
ssg71
g1965
sg64
(lp1972
S'wsgi_multiprocess'
p1973
asbag57
(g78
g59
NtRp1974
(dp1975
g62
(dp1976
g89
g90
ssg71
g1965
sg64
(lp1977
S':'
asbag57
(g78
g59
NtRp1978
(dp1979
g62
(dp1980
sg71
g1965
sg64
(lp1981
g57
(g58
g59
NtRp1982
(dp1983
g62
(dp1984
g70
I4
ssg71
g1978
sg64
(lp1985
g100
asbasbasbag57
(g73
g59
NtRp1986
(dp1987
g62
(dp1988
sg71
g1059
sg64
(lp1989
g57
(g78
g59
NtRp1990
(dp1991
g62
(dp1992
g82
g83
ssg71
g1986
sg64
(lp1993
S'wsgi_multithread'
p1994
asbag57
(g78
g59
NtRp1995
(dp1996
g62
(dp1997
g89
g90
ssg71
g1986
sg64
(lp1998
S':'
asbag57
(g78
g59
NtRp1999
(dp2000
g62
(dp2001
sg71
g1986
sg64
(lp2002
g57
(g58
g59
NtRp2003
(dp2004
g62
(dp2005
g70
I4
ssg71
g1999
sg64
(lp2006
S'True'
p2007
asbasbasbag57
(g73
g59
NtRp2008
(dp2009
g62
(dp2010
sg71
g1059
sg64
(lp2011
g57
(g78
g59
NtRp2012
(dp2013
g62
(dp2014
g82
g83
ssg71
g2008
sg64
(lp2015
S'wsgi_run_once'
p2016
asbag57
(g78
g59
NtRp2017
(dp2018
g62
(dp2019
g89
g90
ssg71
g2008
sg64
(lp2020
S':'
asbag57
(g78
g59
NtRp2021
(dp2022
g62
(dp2023
sg71
g2008
sg64
(lp2024
g57
(g58
g59
NtRp2025
(dp2026
g62
(dp2027
g70
I4
ssg71
g2021
sg64
(lp2028
g100
asbasbasbag57
(g73
g59
NtRp2029
(dp2030
g62
(dp2031
sg71
g1059
sg64
(lp2032
g57
(g78
g59
NtRp2033
(dp2034
g62
(dp2035
g82
g83
ssg71
g2029
sg64
(lp2036
S'wsgi_url_scheme'
p2037
asbag57
(g78
g59
NtRp2038
(dp2039
g62
(dp2040
g89
g90
ssg71
g2029
sg64
(lp2041
S':'
asbag57
(g78
g59
NtRp2042
(dp2043
g62
(dp2044
sg71
g2029
sg64
(lp2045
g57
(g58
g59
NtRp2046
(dp2047
g62
(dp2048
g70
I4
ssg71
g2042
sg64
(lp2049
S'http'
p2050
asbasbasbag57
(g73
g59
NtRp2051
(dp2052
g62
(dp2053
sg71
g1059
sg64
(lp2054
g57
(g78
g59
NtRp2055
(dp2056
g62
(dp2057
g82
g83
ssg71
g2051
sg64
(lp2058
S'wsgi_version'
p2059
asbag57
(g78
g59
NtRp2060
(dp2061
g62
(dp2062
g89
g90
ssg71
g2051
sg64
(lp2063
S':'
asbag57
(g78
g59
NtRp2064
(dp2065
g62
(dp2066
sg71
g2051
sg64
(lp2067
g57
(g58
g59
NtRp2068
(dp2069
g62
(dp2070
g70
I4
ssg71
g2064
sg64
(lp2071
g57
(g66
g59
NtRp2072
(dp2073
g62
(dp2074
g70
I3
ssg71
Nsg64
(lp2075
g57
(g73
g59
NtRp2076
(dp2077
g62
(dp2078
sg71
g2072
sg64
(lp2079
g57
(g78
g59
NtRp2080
(dp2081
g62
(dp2082
sg71
g2076
sg64
(lp2083
g57
(g58
g59
NtRp2084
(dp2085
g62
(dp2086
g70
I3
ssg71
g2080
sg64
(lp2087
S'1'
asbasbasbag57
(g73
g59
NtRp2088
(dp2089
g62
(dp2090
sg71
g2072
sg64
(lp2091
g57
(g78
g59
NtRp2092
(dp2093
g62
(dp2094
sg71
g2088
sg64
(lp2095
g57
(g58
g59
NtRp2096
(dp2097
g62
(dp2098
g70
I3
ssg71
g2092
sg64
(lp2099
S'0'
asbasbasbasbasbasbasbasbasbasbasbag57
(g73
g59
NtRp2100
(dp2101
g62
(dp2102
sg71
g67
sg64
(lp2103
g57
(g78
g59
NtRp2104
(dp2105
g62
(dp2106
g82
g83
ssg71
g2100
sg64
(lp2107
S'extension'
p2108
asbag57
(g78
g59
NtRp2109
(dp2110
g62
(dp2111
g89
g90
ssg71
g2100
sg64
(lp2112
S':'
asbag57
(g78
g59
NtRp2113
(dp2114
g62
(dp2115
sg71
g2100
sg64
(lp2116
g57
(g58
g59
NtRp2117
(dp2118
g62
(dp2119
g70
I5
ssg71
g2113
sg64
(lp2120
S'html'
p2121
asbasbasbag57
(g73
g59
NtRp2122
(dp2123
g62
(dp2124
sg71
g67
sg64
(lp2125
g57
(g78
g59
NtRp2126
(dp2127
g62
(dp2128
g82
g83
ssg71
g2122
sg64
(lp2129
S'folder'
p2130
asbag57
(g78
g59
NtRp2131
(dp2132
g62
(dp2133
g89
g90
ssg71
g2122
sg64
(lp2134
S':'
asbag57
(g78
g59
NtRp2135
(dp2136
g62
(dp2137
sg71
g2122
sg64
(lp2138
g57
(g58
g59
NtRp2139
(dp2140
g62
(dp2141
g70
I5
ssg71
g2135
sg64
(lp2142
S'/home/shipra/Desktop/Semester 1.2/ITWS-2/web2py/applications/Assignment_2/'
p2143
asbasbasbag57
(g73
g59
NtRp2144
(dp2145
g62
(dp2146
sg71
g67
sg64
(lp2147
g57
(g78
g59
NtRp2148
(dp2149
g62
(dp2150
g82
g83
ssg71
g2144
sg64
(lp2151
S'function'
p2152
asbag57
(g78
g59
NtRp2153
(dp2154
g62
(dp2155
g89
g90
ssg71
g2144
sg64
(lp2156
S':'
asbag57
(g78
g59
NtRp2157
(dp2158
g62
(dp2159
sg71
g2144
sg64
(lp2160
g57
(g58
g59
NtRp2161
(dp2162
g62
(dp2163
g70
I5
ssg71
g2157
sg64
(lp2164
S'comm_post'
p2165
asbasbasbag57
(g73
g59
NtRp2166
(dp2167
g62
(dp2168
sg71
g67
sg64
(lp2169
g57
(g78
g59
NtRp2170
(dp2171
g62
(dp2172
g82
g83
ssg71
g2166
sg64
(lp2173
S'get_vars'
p2174
asbag57
(g78
g59
NtRp2175
(dp2176
g62
(dp2177
g89
g90
ssg71
g2166
sg64
(lp2178
S':'
asbag57
(g78
g59
NtRp2179
(dp2180
g62
(dp2181
sg71
g2166
sg64
(lp2182
g57
(g58
g59
NtRp2183
(dp2184
g62
(dp2185
g70
I5
ssg71
g2179
sg64
(lp2186
g57
(g66
g59
NtRp2187
(dp2188
g62
(dp2189
g70
I4
ssg71
Nsg64
(lp2190
sbasbasbasbag57
(g73
g59
NtRp2191
(dp2192
g62
(dp2193
sg71
g67
sg64
(lp2194
g57
(g78
g59
NtRp2195
(dp2196
g62
(dp2197
g82
g83
ssg71
g2191
sg64
(lp2198
S'global_settings'
p2199
asbag57
(g78
g59
NtRp2200
(dp2201
g62
(dp2202
g89
g90
ssg71
g2191
sg64
(lp2203
S':'
asbag57
(g78
g59
NtRp2204
(dp2205
g62
(dp2206
sg71
g2191
sg64
(lp2207
g57
(g58
g59
NtRp2208
(dp2209
g62
(dp2210
g70
I5
ssg71
g2204
sg64
(lp2211
g57
(g66
g59
NtRp2212
(dp2213
g62
(dp2214
g70
I4
ssg71
Nsg64
(lp2215
g57
(g73
g59
NtRp2216
(dp2217
g62
(dp2218
sg71
g2212
sg64
(lp2219
g57
(g78
g59
NtRp2220
(dp2221
g62
(dp2222
g82
g83
ssg71
g2216
sg64
(lp2223
g1071
asbag57
(g78
g59
NtRp2224
(dp2225
g62
(dp2226
g89
g90
ssg71
g2216
sg64
(lp2227
S':'
asbag57
(g78
g59
NtRp2228
(dp2229
g62
(dp2230
sg71
g2216
sg64
(lp2231
g57
(g58
g59
NtRp2232
(dp2233
g62
(dp2234
g70
I4
ssg71
g2228
sg64
(lp2235
S"set(['/home/shipra/Desktop/Semester 1.2/ITWS-2/web2py/applications/Assignment_2/', '/home/shipra/Desktop/Semester 1.2/ITWS-2/web2py/applications/welcome/', '/home/shipra/Desktop/Semester 1.2/ITWS-2/web2py/applications/admin/'])"
p2236
asbasbasbag57
(g73
g59
NtRp2237
(dp2238
g62
(dp2239
sg71
g2212
sg64
(lp2240
g57
(g78
g59
NtRp2241
(dp2242
g62
(dp2243
g82
g83
ssg71
g2237
sg64
(lp2244
g1093
asbag57
(g78
g59
NtRp2245
(dp2246
g62
(dp2247
g89
g90
ssg71
g2237
sg64
(lp2248
S':'
asbag57
(g78
g59
NtRp2249
(dp2250
g62
(dp2251
sg71
g2237
sg64
(lp2252
g57
(g58
g59
NtRp2253
(dp2254
g62
(dp2255
g70
I4
ssg71
g2249
sg64
(lp2256
g1106
asbasbasbag57
(g73
g59
NtRp2257
(dp2258
g62
(dp2259
sg71
g2212
sg64
(lp2260
g57
(g78
g59
NtRp2261
(dp2262
g62
(dp2263
g82
g83
ssg71
g2257
sg64
(lp2264
g1115
asbag57
(g78
g59
NtRp2265
(dp2266
g62
(dp2267
g89
g90
ssg71
g2257
sg64
(lp2268
S':'
asbag57
(g78
g59
NtRp2269
(dp2270
g62
(dp2271
sg71
g2257
sg64
(lp2272
g57
(g58
g59
NtRp2273
(dp2274
g62
(dp2275
g70
I4
ssg71
g2269
sg64
(lp2276
g57
(g66
g59
NtRp2277
(dp2278
g62
(dp2279
g70
I3
ssg71
Nsg64
(lp2280
sbasbasbasbag57
(g73
g59
NtRp2281
(dp2282
g62
(dp2283
sg71
g2212
sg64
(lp2284
g57
(g78
g59
NtRp2285
(dp2286
g62
(dp2287
g82
g83
ssg71
g2281
sg64
(lp2288
g1140
asbag57
(g78
g59
NtRp2289
(dp2290
g62
(dp2291
g89
g90
ssg71
g2281
sg64
(lp2292
S':'
asbag57
(g78
g59
NtRp2293
(dp2294
g62
(dp2295
sg71
g2281
sg64
(lp2296
g57
(g58
g59
NtRp2297
(dp2298
g62
(dp2299
g70
I4
ssg71
g2293
sg64
(lp2300
S"<Values at 0x1275290: {'verbose': False, 'ip': '127.0.0.1', 'with_scheduler': False, 'ips': ['10.1.129.70', '192.168.122.1', 'fe80::e611:5bff:fe38:8d0d%p5p1'], 'shutdown_timeout': 5, 'taskbar': False, 'port': 8000, 'maxthreads': None, 'softcron': False, 'server_name': 'shipra', 'bpython': False, 'nogui': False, 'pid_filename': 'httpserver.pid', 'extcron': False, 'runcron': False, 'run_system_tests': False, 'test': None, 'folder': '/home/shipra/Desktop/Semester 1.2/ITWS-2/web2py', 'config': '', 'minthreads': None, 'winservice': '', 'shell': None, 'run': '', 'log_filename': 'httpserver.log', 'debuglevel': 30, 'args': [''], 'socket_timeout': 5, 'ssl_ca_certificate': None, 'scheduler': None, 'profiler_filename': None, 'ssl_private_key': '', 'scheduler_groups': None, 'password': '<ask>', 'request_queue_size': 5, 'ssl_certificate': '', 'cronjob': False, 'numthreads': None, 'quiet': False, 'interfaces': None, 'import_models': False, 'timeout': 10, 'plain': False, 'nobanner': False}>"
p2301
asbasbasbag57
(g73
g59
NtRp2302
(dp2303
g62
(dp2304
sg71
g2212
sg64
(lp2305
g57
(g78
g59
NtRp2306
(dp2307
g62
(dp2308
g82
g83
ssg71
g2302
sg64
(lp2309
g1162
asbag57
(g78
g59
NtRp2310
(dp2311
g62
(dp2312
g89
g90
ssg71
g2302
sg64
(lp2313
S':'
asbag57
(g78
g59
NtRp2314
(dp2315
g62
(dp2316
sg71
g2302
sg64
(lp2317
g57
(g58
g59
NtRp2318
(dp2319
g62
(dp2320
g70
I4
ssg71
g2314
sg64
(lp2321
S'set([])'
p2322
asbasbasbag57
(g73
g59
NtRp2323
(dp2324
g62
(dp2325
sg71
g2212
sg64
(lp2326
g57
(g78
g59
NtRp2327
(dp2328
g62
(dp2329
g82
g83
ssg71
g2323
sg64
(lp2330
g1184
asbag57
(g78
g59
NtRp2331
(dp2332
g62
(dp2333
g89
g90
ssg71
g2323
sg64
(lp2334
S':'
asbag57
(g78
g59
NtRp2335
(dp2336
g62
(dp2337
sg71
g2323
sg64
(lp2338
g57
(g58
g59
NtRp2339
(dp2340
g62
(dp2341
g70
I4
ssg71
g2335
sg64
(lp2342
g100
asbasbasbag57
(g73
g59
NtRp2343
(dp2344
g62
(dp2345
sg71
g2212
sg64
(lp2346
g57
(g78
g59
NtRp2347
(dp2348
g62
(dp2349
g82
g83
ssg71
g2343
sg64
(lp2350
g1205
asbag57
(g78
g59
NtRp2351
(dp2352
g62
(dp2353
g89
g90
ssg71
g2343
sg64
(lp2354
S':'
asbag57
(g78
g59
NtRp2355
(dp2356
g62
(dp2357
sg71
g2343
sg64
(lp2358
g57
(g58
g59
NtRp2359
(dp2360
g62
(dp2361
g70
I4
ssg71
g2355
sg64
(lp2362
g1218
asbasbasbag57
(g73
g59
NtRp2363
(dp2364
g62
(dp2365
sg71
g2212
sg64
(lp2366
g57
(g78
g59
NtRp2367
(dp2368
g62
(dp2369
g82
g83
ssg71
g2363
sg64
(lp2370
g1403
asbag57
(g78
g59
NtRp2371
(dp2372
g62
(dp2373
g89
g90
ssg71
g2363
sg64
(lp2374
S':'
asbag57
(g78
g59
NtRp2375
(dp2376
g62
(dp2377
sg71
g2363
sg64
(lp2378
g57
(g58
g59
NtRp2379
(dp2380
g62
(dp2381
g70
I4
ssg71
g2375
sg64
(lp2382
g100
asbasbasbag57
(g73
g59
NtRp2383
(dp2384
g62
(dp2385
sg71
g2212
sg64
(lp2386
g57
(g78
g59
NtRp2387
(dp2388
g62
(dp2389
g82
g83
ssg71
g2383
sg64
(lp2390
g1424
asbag57
(g78
g59
NtRp2391
(dp2392
g62
(dp2393
g89
g90
ssg71
g2383
sg64
(lp2394
S':'
asbag57
(g78
g59
NtRp2395
(dp2396
g62
(dp2397
sg71
g2383
sg64
(lp2398
g57
(g58
g59
NtRp2399
(dp2400
g62
(dp2401
g70
I4
ssg71
g2395
sg64
(lp2402
g100
asbasbasbag57
(g73
g59
NtRp2403
(dp2404
g62
(dp2405
sg71
g2212
sg64
(lp2406
g57
(g78
g59
NtRp2407
(dp2408
g62
(dp2409
g82
g83
ssg71
g2403
sg64
(lp2410
g1445
asbag57
(g78
g59
NtRp2411
(dp2412
g62
(dp2413
g89
g90
ssg71
g2403
sg64
(lp2414
S':'
asbag57
(g78
g59
NtRp2415
(dp2416
g62
(dp2417
sg71
g2403
sg64
(lp2418
g57
(g58
g59
NtRp2419
(dp2420
g62
(dp2421
g70
I4
ssg71
g2415
sg64
(lp2422
g57
(g66
g59
NtRp2423
(dp2424
g62
(dp2425
g70
I3
ssg71
Nsg64
(lp2426
g57
(g73
g59
NtRp2427
(dp2428
g62
(dp2429
sg71
g2423
sg64
(lp2430
g57
(g78
g59
NtRp2431
(dp2432
g62
(dp2433
sg71
g2427
sg64
(lp2434
g57
(g58
g59
NtRp2435
(dp2436
g62
(dp2437
g70
I3
ssg71
g2431
sg64
(lp2438
g1474
asbasbasbag57
(g73
g59
NtRp2439
(dp2440
g62
(dp2441
sg71
g2423
sg64
(lp2442
g57
(g78
g59
NtRp2443
(dp2444
g62
(dp2445
sg71
g2439
sg64
(lp2446
g57
(g58
g59
NtRp2447
(dp2448
g62
(dp2449
g70
I3
ssg71
g2443
sg64
(lp2450
g1487
asbasbasbag57
(g73
g59
NtRp2451
(dp2452
g62
(dp2453
sg71
g2423
sg64
(lp2454
g57
(g78
g59
NtRp2455
(dp2456
g62
(dp2457
sg71
g2451
sg64
(lp2458
g57
(g58
g59
NtRp2459
(dp2460
g62
(dp2461
g70
I3
ssg71
g2455
sg64
(lp2462
g1500
asbasbasbag57
(g73
g59
NtRp2463
(dp2464
g62
(dp2465
sg71
g2423
sg64
(lp2466
g57
(g78
g59
NtRp2467
(dp2468
g62
(dp2469
sg71
g2463
sg64
(lp2470
g57
(g58
g59
NtRp2471
(dp2472
g62
(dp2473
g70
I3
ssg71
g2467
sg64
(lp2474
g1513
asbasbasbag57
(g73
g59
NtRp2475
(dp2476
g62
(dp2477
sg71
g2423
sg64
(lp2478
g57
(g78
g59
NtRp2479
(dp2480
g62
(dp2481
sg71
g2475
sg64
(lp2482
g57
(g58
g59
NtRp2483
(dp2484
g62
(dp2485
g70
I3
ssg71
g2479
sg64
(lp2486
g1526
asbasbasbag57
(g73
g59
NtRp2487
(dp2488
g62
(dp2489
sg71
g2423
sg64
(lp2490
g57
(g78
g59
NtRp2491
(dp2492
g62
(dp2493
sg71
g2487
sg64
(lp2494
g57
(g58
g59
NtRp2495
(dp2496
g62
(dp2497
g70
I3
ssg71
g2491
sg64
(lp2498
g1539
asbasbasbag57
(g73
g59
NtRp2499
(dp2500
g62
(dp2501
sg71
g2423
sg64
(lp2502
g57
(g78
g59
NtRp2503
(dp2504
g62
(dp2505
sg71
g2499
sg64
(lp2506
g57
(g58
g59
NtRp2507
(dp2508
g62
(dp2509
g70
I3
ssg71
g2503
sg64
(lp2510
g1552
asbasbasbasbasbasbasbag57
(g73
g59
NtRp2511
(dp2512
g62
(dp2513
sg71
g2212
sg64
(lp2514
g57
(g78
g59
NtRp2515
(dp2516
g62
(dp2517
g82
g83
ssg71
g2511
sg64
(lp2518
g1820
asbag57
(g78
g59
NtRp2519
(dp2520
g62
(dp2521
g89
g90
ssg71
g2511
sg64
(lp2522
S':'
asbag57
(g78
g59
NtRp2523
(dp2524
g62
(dp2525
sg71
g2511
sg64
(lp2526
g57
(g58
g59
NtRp2527
(dp2528
g62
(dp2529
g70
I4
ssg71
g2523
sg64
(lp2530
g57
(g66
g59
NtRp2531
(dp2532
g62
(dp2533
g70
I3
ssg71
Nsg64
(lp2534
g57
(g73
g59
NtRp2535
(dp2536
g62
(dp2537
sg71
g2531
sg64
(lp2538
g57
(g78
g59
NtRp2539
(dp2540
g62
(dp2541
sg71
g2535
sg64
(lp2542
g57
(g58
g59
NtRp2543
(dp2544
g62
(dp2545
g70
I3
ssg71
g2539
sg64
(lp2546
S'2'
asbasbasbag57
(g73
g59
NtRp2547
(dp2548
g62
(dp2549
sg71
g2531
sg64
(lp2550
g57
(g78
g59
NtRp2551
(dp2552
g62
(dp2553
sg71
g2547
sg64
(lp2554
g57
(g58
g59
NtRp2555
(dp2556
g62
(dp2557
g70
I3
ssg71
g2551
sg64
(lp2558
S'3'
asbasbasbag57
(g73
g59
NtRp2559
(dp2560
g62
(dp2561
sg71
g2531
sg64
(lp2562
g57
(g78
g59
NtRp2563
(dp2564
g62
(dp2565
sg71
g2559
sg64
(lp2566
g57
(g58
g59
NtRp2567
(dp2568
g62
(dp2569
g70
I3
ssg71
g2563
sg64
(lp2570
S'2'
asbasbasbag57
(g73
g59
NtRp2571
(dp2572
g62
(dp2573
sg71
g2531
sg64
(lp2574
g57
(g78
g59
NtRp2575
(dp2576
g62
(dp2577
sg71
g2571
sg64
(lp2578
g57
(g58
g59
NtRp2579
(dp2580
g62
(dp2581
g70
I3
ssg71
g2575
sg64
(lp2582
S'datetime.datetime(2012, 12, 17, 15, 3, 30)'
p2583
asbasbasbag57
(g73
g59
NtRp2584
(dp2585
g62
(dp2586
sg71
g2531
sg64
(lp2587
g57
(g78
g59
NtRp2588
(dp2589
g62
(dp2590
sg71
g2584
sg64
(lp2591
g57
(g58
g59
NtRp2592
(dp2593
g62
(dp2594
g70
I3
ssg71
g2588
sg64
(lp2595
g1898
asbasbasbasbasbasbasbasbasbasbasbag57
(g73
g59
NtRp2596
(dp2597
g62
(dp2598
sg71
g67
sg64
(lp2599
g57
(g78
g59
NtRp2600
(dp2601
g62
(dp2602
g82
g83
ssg71
g2596
sg64
(lp2603
S'is_https'
p2604
asbag57
(g78
g59
NtRp2605
(dp2606
g62
(dp2607
g89
g90
ssg71
g2596
sg64
(lp2608
S':'
asbag57
(g78
g59
NtRp2609
(dp2610
g62
(dp2611
sg71
g2596
sg64
(lp2612
g57
(g58
g59
NtRp2613
(dp2614
g62
(dp2615
g70
I5
ssg71
g2609
sg64
(lp2616
g100
asbasbasbag57
(g73
g59
NtRp2617
(dp2618
g62
(dp2619
sg71
g67
sg64
(lp2620
g57
(g78
g59
NtRp2621
(dp2622
g62
(dp2623
g82
g83
ssg71
g2617
sg64
(lp2624
S'is_local'
p2625
asbag57
(g78
g59
NtRp2626
(dp2627
g62
(dp2628
g89
g90
ssg71
g2617
sg64
(lp2629
S':'
asbag57
(g78
g59
NtRp2630
(dp2631
g62
(dp2632
sg71
g2617
sg64
(lp2633
g57
(g58
g59
NtRp2634
(dp2635
g62
(dp2636
g70
I5
ssg71
g2630
sg64
(lp2637
g2007
asbasbasbag57
(g73
g59
NtRp2638
(dp2639
g62
(dp2640
sg71
g67
sg64
(lp2641
g57
(g78
g59
NtRp2642
(dp2643
g62
(dp2644
g82
g83
ssg71
g2638
sg64
(lp2645
S'is_restful'
p2646
asbag57
(g78
g59
NtRp2647
(dp2648
g62
(dp2649
g89
g90
ssg71
g2638
sg64
(lp2650
S':'
asbag57
(g78
g59
NtRp2651
(dp2652
g62
(dp2653
sg71
g2638
sg64
(lp2654
g57
(g58
g59
NtRp2655
(dp2656
g62
(dp2657
g70
I5
ssg71
g2651
sg64
(lp2658
g100
asbasbasbag57
(g73
g59
NtRp2659
(dp2660
g62
(dp2661
sg71
g67
sg64
(lp2662
g57
(g78
g59
NtRp2663
(dp2664
g62
(dp2665
g82
g83
ssg71
g2659
sg64
(lp2666
S'now'
p2667
asbag57
(g78
g59
NtRp2668
(dp2669
g62
(dp2670
g89
g90
ssg71
g2659
sg64
(lp2671
S':'
asbag57
(g78
g59
NtRp2672
(dp2673
g62
(dp2674
sg71
g2659
sg64
(lp2675
g57
(g58
g59
NtRp2676
(dp2677
g62
(dp2678
g70
I5
ssg71
g2672
sg64
(lp2679
S'datetime.datetime(2013, 9, 2, 12, 32, 8, 946212)'
p2680
asbasbasbag57
(g73
g59
NtRp2681
(dp2682
g62
(dp2683
sg71
g67
sg64
(lp2684
g57
(g78
g59
NtRp2685
(dp2686
g62
(dp2687
g82
g83
ssg71
g2681
sg64
(lp2688
S'post_vars'
p2689
asbag57
(g78
g59
NtRp2690
(dp2691
g62
(dp2692
g89
g90
ssg71
g2681
sg64
(lp2693
S':'
asbag57
(g78
g59
NtRp2694
(dp2695
g62
(dp2696
sg71
g2681
sg64
(lp2697
g57
(g58
g59
NtRp2698
(dp2699
g62
(dp2700
g70
I5
ssg71
g2694
sg64
(lp2701
g57
(g66
g59
NtRp2702
(dp2703
g62
(dp2704
g70
I4
ssg71
Nsg64
(lp2705
sbasbasbasbag57
(g73
g59
NtRp2706
(dp2707
g62
(dp2708
sg71
g67
sg64
(lp2709
g57
(g78
g59
NtRp2710
(dp2711
g62
(dp2712
g82
g83
ssg71
g2706
sg64
(lp2713
S'raw_args'
p2714
asbag57
(g78
g59
NtRp2715
(dp2716
g62
(dp2717
g89
g90
ssg71
g2706
sg64
(lp2718
S':'
asbag57
(g78
g59
NtRp2719
(dp2720
g62
(dp2721
sg71
g2706
sg64
(lp2722
g57
(g58
g59
NtRp2723
(dp2724
g62
(dp2725
g70
I5
ssg71
g2719
sg64
(lp2726
S'38/World'
p2727
asbasbasbag57
(g73
g59
NtRp2728
(dp2729
g62
(dp2730
sg71
g67
sg64
(lp2731
g57
(g78
g59
NtRp2732
(dp2733
g62
(dp2734
g82
g83
ssg71
g2728
sg64
(lp2735
S'raw_extension'
p2736
asbag57
(g78
g59
NtRp2737
(dp2738
g62
(dp2739
g89
g90
ssg71
g2728
sg64
(lp2740
S':'
asbag57
(g78
g59
NtRp2741
(dp2742
g62
(dp2743
sg71
g2728
sg64
(lp2744
g57
(g58
g59
NtRp2745
(dp2746
g62
(dp2747
g70
I5
ssg71
g2741
sg64
(lp2748
S'None'
p2749
asbasbasbag57
(g73
g59
NtRp2750
(dp2751
g62
(dp2752
sg71
g67
sg64
(lp2753
g57
(g78
g59
NtRp2754
(dp2755
g62
(dp2756
g82
g83
ssg71
g2750
sg64
(lp2757
S'url'
p2758
asbag57
(g78
g59
NtRp2759
(dp2760
g62
(dp2761
g89
g90
ssg71
g2750
sg64
(lp2762
S':'
asbag57
(g78
g59
NtRp2763
(dp2764
g62
(dp2765
sg71
g2750
sg64
(lp2766
g57
(g58
g59
NtRp2767
(dp2768
g62
(dp2769
g70
I5
ssg71
g2763
sg64
(lp2770
g1574
asbasbasbag57
(g73
g59
NtRp2771
(dp2772
g62
(dp2773
sg71
g67
sg64
(lp2774
g57
(g78
g59
NtRp2775
(dp2776
g62
(dp2777
g82
g83
ssg71
g2771
sg64
(lp2778
S'utcnow'
p2779
asbag57
(g78
g59
NtRp2780
(dp2781
g62
(dp2782
g89
g90
ssg71
g2771
sg64
(lp2783
S':'
asbag57
(g78
g59
NtRp2784
(dp2785
g62
(dp2786
sg71
g2771
sg64
(lp2787
g57
(g58
g59
NtRp2788
(dp2789
g62
(dp2790
g70
I5
ssg71
g2784
sg64
(lp2791
S'datetime.datetime(2013, 9, 2, 7, 2, 8, 946264)'
p2792
asbasbasbag57
(g73
g59
NtRp2793
(dp2794
g62
(dp2795
sg71
g67
sg64
(lp2796
g57
(g78
g59
NtRp2797
(dp2798
g62
(dp2799
g82
g83
ssg71
g2793
sg64
(lp2800
S'uuid'
p2801
asbag57
(g78
g59
NtRp2802
(dp2803
g62
(dp2804
g89
g90
ssg71
g2793
sg64
(lp2805
S':'
asbag57
(g78
g59
NtRp2806
(dp2807
g62
(dp2808
sg71
g2793
sg64
(lp2809
g57
(g58
g59
NtRp2810
(dp2811
g62
(dp2812
g70
I5
ssg71
g2806
sg64
(lp2813
S'Assignment_2/127.0.0.1.2013-09-02.12-32-08.57660969-ffc3-4674-bd71-802d37db2208'
p2814
asbasbasbag57
(g73
g59
NtRp2815
(dp2816
g62
(dp2817
sg71
g67
sg64
(lp2818
g57
(g78
g59
NtRp2819
(dp2820
g62
(dp2821
g82
g83
ssg71
g2815
sg64
(lp2822
S'vars'
p2823
asbag57
(g78
g59
NtRp2824
(dp2825
g62
(dp2826
g89
g90
ssg71
g2815
sg64
(lp2827
S':'
asbag57
(g78
g59
NtRp2828
(dp2829
g62
(dp2830
sg71
g2815
sg64
(lp2831
g57
(g58
g59
NtRp2832
(dp2833
g62
(dp2834
g70
I5
ssg71
g2828
sg64
(lp2835
g57
(g66
g59
NtRp2836
(dp2837
g62
(dp2838
g70
I4
ssg71
Nsg64
(lp2839
sbasbasbasbag57
(g73
g59
NtRp2840
(dp2841
g62
(dp2842
sg71
g67
sg64
(lp2843
g57
(g78
g59
NtRp2844
(dp2845
g62
(dp2846
g82
g83
ssg71
g2840
sg64
(lp2847
S'wsgi'
p2848
asbag57
(g78
g59
NtRp2849
(dp2850
g62
(dp2851
g89
g90
ssg71
g2840
sg64
(lp2852
S':'
asbag57
(g78
g59
NtRp2853
(dp2854
g62
(dp2855
sg71
g2840
sg64
(lp2856
g57
(g58
g59
NtRp2857
(dp2858
g62
(dp2859
g70
I5
ssg71
g2853
sg64
(lp2860
g57
(g66
g59
NtRp2861
(dp2862
g62
(dp2863
g70
I4
ssg71
Nsg64
(lp2864
g57
(g73
g59
NtRp2865
(dp2866
g62
(dp2867
sg71
g2861
sg64
(lp2868
g57
(g78
g59
NtRp2869
(dp2870
g62
(dp2871
g82
g83
ssg71
g2865
sg64
(lp2872
S'environ'
p2873
asbag57
(g78
g59
NtRp2874
(dp2875
g62
(dp2876
g89
g90
ssg71
g2865
sg64
(lp2877
S':'
asbag57
(g78
g59
NtRp2878
(dp2879
g62
(dp2880
sg71
g2865
sg64
(lp2881
g57
(g58
g59
NtRp2882
(dp2883
g62
(dp2884
g70
I4
ssg71
g2878
sg64
(lp2885
g57
(g66
g59
NtRp2886
(dp2887
g62
(dp2888
g70
I3
ssg71
Nsg64
(lp2889
g57
(g73
g59
NtRp2890
(dp2891
g62
(dp2892
sg71
g2886
sg64
(lp2893
g57
(g78
g59
NtRp2894
(dp2895
g62
(dp2896
g82
g83
ssg71
g2890
sg64
(lp2897
S'HTTP_ACCEPT'
p2898
asbag57
(g78
g59
NtRp2899
(dp2900
g62
(dp2901
g89
g90
ssg71
g2890
sg64
(lp2902
S':'
asbag57
(g78
g59
NtRp2903
(dp2904
g62
(dp2905
sg71
g2890
sg64
(lp2906
g57
(g58
g59
NtRp2907
(dp2908
g62
(dp2909
g70
I3
ssg71
g2903
sg64
(lp2910
g1240
asbasbasbag57
(g73
g59
NtRp2911
(dp2912
g62
(dp2913
sg71
g2886
sg64
(lp2914
g57
(g78
g59
NtRp2915
(dp2916
g62
(dp2917
g82
g83
ssg71
g2911
sg64
(lp2918
S'HTTP_ACCEPT_ENCODING'
p2919
asbag57
(g78
g59
NtRp2920
(dp2921
g62
(dp2922
g89
g90
ssg71
g2911
sg64
(lp2923
S':'
asbag57
(g78
g59
NtRp2924
(dp2925
g62
(dp2926
sg71
g2911
sg64
(lp2927
g57
(g58
g59
NtRp2928
(dp2929
g62
(dp2930
g70
I3
ssg71
g2924
sg64
(lp2931
g1262
asbasbasbag57
(g73
g59
NtRp2932
(dp2933
g62
(dp2934
sg71
g2886
sg64
(lp2935
g57
(g78
g59
NtRp2936
(dp2937
g62
(dp2938
g82
g83
ssg71
g2932
sg64
(lp2939
S'HTTP_ACCEPT_LANGUAGE'
p2940
asbag57
(g78
g59
NtRp2941
(dp2942
g62
(dp2943
g89
g90
ssg71
g2932
sg64
(lp2944
S':'
asbag57
(g78
g59
NtRp2945
(dp2946
g62
(dp2947
sg71
g2932
sg64
(lp2948
g57
(g58
g59
NtRp2949
(dp2950
g62
(dp2951
g70
I3
ssg71
g2945
sg64
(lp2952
g1284
asbasbasbag57
(g73
g59
NtRp2953
(dp2954
g62
(dp2955
sg71
g2886
sg64
(lp2956
g57
(g78
g59
NtRp2957
(dp2958
g62
(dp2959
g82
g83
ssg71
g2953
sg64
(lp2960
S'HTTP_CONNECTION'
p2961
asbag57
(g78
g59
NtRp2962
(dp2963
g62
(dp2964
g89
g90
ssg71
g2953
sg64
(lp2965
S':'
asbag57
(g78
g59
NtRp2966
(dp2967
g62
(dp2968
sg71
g2953
sg64
(lp2969
g57
(g58
g59
NtRp2970
(dp2971
g62
(dp2972
g70
I3
ssg71
g2966
sg64
(lp2973
g1306
asbasbasbag57
(g73
g59
NtRp2974
(dp2975
g62
(dp2976
sg71
g2886
sg64
(lp2977
g57
(g78
g59
NtRp2978
(dp2979
g62
(dp2980
g82
g83
ssg71
g2974
sg64
(lp2981
S'HTTP_COOKIE'
p2982
asbag57
(g78
g59
NtRp2983
(dp2984
g62
(dp2985
g89
g90
ssg71
g2974
sg64
(lp2986
S':'
asbag57
(g78
g59
NtRp2987
(dp2988
g62
(dp2989
sg71
g2974
sg64
(lp2990
g57
(g58
g59
NtRp2991
(dp2992
g62
(dp2993
g70
I3
ssg71
g2987
sg64
(lp2994
g1328
asbasbasbag57
(g73
g59
NtRp2995
(dp2996
g62
(dp2997
sg71
g2886
sg64
(lp2998
g57
(g78
g59
NtRp2999
(dp3000
g62
(dp3001
g82
g83
ssg71
g2995
sg64
(lp3002
S'HTTP_HOST'
p3003
asbag57
(g78
g59
NtRp3004
(dp3005
g62
(dp3006
g89
g90
ssg71
g2995
sg64
(lp3007
S':'
asbag57
(g78
g59
NtRp3008
(dp3009
g62
(dp3010
sg71
g2995
sg64
(lp3011
g57
(g58
g59
NtRp3012
(dp3013
g62
(dp3014
g70
I3
ssg71
g3008
sg64
(lp3015
g1350
asbasbasbag57
(g73
g59
NtRp3016
(dp3017
g62
(dp3018
sg71
g2886
sg64
(lp3019
g57
(g78
g59
NtRp3020
(dp3021
g62
(dp3022
g82
g83
ssg71
g3016
sg64
(lp3023
S'HTTP_REFERER'
p3024
asbag57
(g78
g59
NtRp3025
(dp3026
g62
(dp3027
g89
g90
ssg71
g3016
sg64
(lp3028
S':'
asbag57
(g78
g59
NtRp3029
(dp3030
g62
(dp3031
sg71
g3016
sg64
(lp3032
g57
(g58
g59
NtRp3033
(dp3034
g62
(dp3035
g70
I3
ssg71
g3029
sg64
(lp3036
g1372
asbasbasbag57
(g73
g59
NtRp3037
(dp3038
g62
(dp3039
sg71
g2886
sg64
(lp3040
g57
(g78
g59
NtRp3041
(dp3042
g62
(dp3043
g82
g83
ssg71
g3037
sg64
(lp3044
S'HTTP_USER_AGENT'
p3045
asbag57
(g78
g59
NtRp3046
(dp3047
g62
(dp3048
g89
g90
ssg71
g3037
sg64
(lp3049
S':'
asbag57
(g78
g59
NtRp3050
(dp3051
g62
(dp3052
sg71
g3037
sg64
(lp3053
g57
(g58
g59
NtRp3054
(dp3055
g62
(dp3056
g70
I3
ssg71
g3050
sg64
(lp3057
g1394
asbasbasbag57
(g73
g59
NtRp3058
(dp3059
g62
(dp3060
sg71
g2886
sg64
(lp3061
g57
(g78
g59
NtRp3062
(dp3063
g62
(dp3064
g82
g83
ssg71
g3058
sg64
(lp3065
S'PATH_INFO'
p3066
asbag57
(g78
g59
NtRp3067
(dp3068
g62
(dp3069
g89
g90
ssg71
g3058
sg64
(lp3070
S':'
asbag57
(g78
g59
NtRp3071
(dp3072
g62
(dp3073
sg71
g3058
sg64
(lp3074
g57
(g58
g59
NtRp3075
(dp3076
g62
(dp3077
g70
I3
ssg71
g3071
sg64
(lp3078
g1574
asbasbasbag57
(g73
g59
NtRp3079
(dp3080
g62
(dp3081
sg71
g2886
sg64
(lp3082
g57
(g78
g59
NtRp3083
(dp3084
g62
(dp3085
g82
g83
ssg71
g3079
sg64
(lp3086
S'QUERY_STRING'
p3087
asbag57
(g78
g59
NtRp3088
(dp3089
g62
(dp3090
g89
g90
ssg71
g3079
sg64
(lp3091
S':'
asbag57
(g78
g59
NtRp3092
(dp3093
g62
(dp3094
sg71
g3079
sg64
(lp3095
g57
(g58
g59
NtRp3096
(dp3097
g62
(dp3098
g70
I3
ssg71
g3092
sg64
(lp3099
S''
asbasbasbag57
(g73
g59
NtRp3100
(dp3101
g62
(dp3102
sg71
g2886
sg64
(lp3103
g57
(g78
g59
NtRp3104
(dp3105
g62
(dp3106
g82
g83
ssg71
g3100
sg64
(lp3107
S'REMOTE_ADDR'
p3108
asbag57
(g78
g59
NtRp3109
(dp3110
g62
(dp3111
g89
g90
ssg71
g3100
sg64
(lp3112
S':'
asbag57
(g78
g59
NtRp3113
(dp3114
g62
(dp3115
sg71
g3100
sg64
(lp3116
g57
(g58
g59
NtRp3117
(dp3118
g62
(dp3119
g70
I3
ssg71
g3113
sg64
(lp3120
g238
asbasbasbag57
(g73
g59
NtRp3121
(dp3122
g62
(dp3123
sg71
g2886
sg64
(lp3124
g57
(g78
g59
NtRp3125
(dp3126
g62
(dp3127
g82
g83
ssg71
g3121
sg64
(lp3128
S'REMOTE_PORT'
p3129
asbag57
(g78
g59
NtRp3130
(dp3131
g62
(dp3132
g89
g90
ssg71
g3121
sg64
(lp3133
S':'
asbag57
(g78
g59
NtRp3134
(dp3135
g62
(dp3136
sg71
g3121
sg64
(lp3137
g57
(g58
g59
NtRp3138
(dp3139
g62
(dp3140
g70
I3
ssg71
g3134
sg64
(lp3141
g1638
asbasbasbag57
(g73
g59
NtRp3142
(dp3143
g62
(dp3144
sg71
g2886
sg64
(lp3145
g57
(g78
g59
NtRp3146
(dp3147
g62
(dp3148
g82
g83
ssg71
g3142
sg64
(lp3149
S'REQUEST_METHOD'
p3150
asbag57
(g78
g59
NtRp3151
(dp3152
g62
(dp3153
g89
g90
ssg71
g3142
sg64
(lp3154
S':'
asbag57
(g78
g59
NtRp3155
(dp3156
g62
(dp3157
sg71
g3142
sg64
(lp3158
g57
(g58
g59
NtRp3159
(dp3160
g62
(dp3161
g70
I3
ssg71
g3155
sg64
(lp3162
g1660
asbasbasbag57
(g73
g59
NtRp3163
(dp3164
g62
(dp3165
sg71
g2886
sg64
(lp3166
g57
(g78
g59
NtRp3167
(dp3168
g62
(dp3169
g82
g83
ssg71
g3163
sg64
(lp3170
S'REQUEST_URI'
p3171
asbag57
(g78
g59
NtRp3172
(dp3173
g62
(dp3174
g89
g90
ssg71
g3163
sg64
(lp3175
S':'
asbag57
(g78
g59
NtRp3176
(dp3177
g62
(dp3178
sg71
g3163
sg64
(lp3179
g57
(g58
g59
NtRp3180
(dp3181
g62
(dp3182
g70
I3
ssg71
g3176
sg64
(lp3183
g1574
asbasbasbag57
(g73
g59
NtRp3184
(dp3185
g62
(dp3186
sg71
g2886
sg64
(lp3187
g57
(g78
g59
NtRp3188
(dp3189
g62
(dp3190
g82
g83
ssg71
g3184
sg64
(lp3191
S'SCRIPT_NAME'
p3192
asbag57
(g78
g59
NtRp3193
(dp3194
g62
(dp3195
g89
g90
ssg71
g3184
sg64
(lp3196
S':'
asbag57
(g78
g59
NtRp3197
(dp3198
g62
(dp3199
sg71
g3184
sg64
(lp3200
g57
(g58
g59
NtRp3201
(dp3202
g62
(dp3203
g70
I3
ssg71
g3197
sg64
(lp3204
S''
asbasbasbag57
(g73
g59
NtRp3205
(dp3206
g62
(dp3207
sg71
g2886
sg64
(lp3208
g57
(g78
g59
NtRp3209
(dp3210
g62
(dp3211
g82
g83
ssg71
g3205
sg64
(lp3212
S'SERVER_NAME'
p3213
asbag57
(g78
g59
NtRp3214
(dp3215
g62
(dp3216
g89
g90
ssg71
g3205
sg64
(lp3217
S':'
asbag57
(g78
g59
NtRp3218
(dp3219
g62
(dp3220
sg71
g3205
sg64
(lp3221
g57
(g58
g59
NtRp3222
(dp3223
g62
(dp3224
g70
I3
ssg71
g3218
sg64
(lp3225
g1724
asbasbasbag57
(g73
g59
NtRp3226
(dp3227
g62
(dp3228
sg71
g2886
sg64
(lp3229
g57
(g78
g59
NtRp3230
(dp3231
g62
(dp3232
g82
g83
ssg71
g3226
sg64
(lp3233
S'SERVER_PORT'
p3234
asbag57
(g78
g59
NtRp3235
(dp3236
g62
(dp3237
g89
g90
ssg71
g3226
sg64
(lp3238
S':'
asbag57
(g78
g59
NtRp3239
(dp3240
g62
(dp3241
sg71
g3226
sg64
(lp3242
g57
(g58
g59
NtRp3243
(dp3244
g62
(dp3245
g70
I3
ssg71
g3239
sg64
(lp3246
g1746
asbasbasbag57
(g73
g59
NtRp3247
(dp3248
g62
(dp3249
sg71
g2886
sg64
(lp3250
g57
(g78
g59
NtRp3251
(dp3252
g62
(dp3253
g82
g83
ssg71
g3247
sg64
(lp3254
S'SERVER_PROTOCOL'
p3255
asbag57
(g78
g59
NtRp3256
(dp3257
g62
(dp3258
g89
g90
ssg71
g3247
sg64
(lp3259
S':'
asbag57
(g78
g59
NtRp3260
(dp3261
g62
(dp3262
sg71
g3247
sg64
(lp3263
g57
(g58
g59
NtRp3264
(dp3265
g62
(dp3266
g70
I3
ssg71
g3260
sg64
(lp3267
g1768
asbasbasbag57
(g73
g59
NtRp3268
(dp3269
g62
(dp3270
sg71
g2886
sg64
(lp3271
g57
(g78
g59
NtRp3272
(dp3273
g62
(dp3274
g82
g83
ssg71
g3268
sg64
(lp3275
S'SERVER_SOFTWARE'
p3276
asbag57
(g78
g59
NtRp3277
(dp3278
g62
(dp3279
g89
g90
ssg71
g3268
sg64
(lp3280
S':'
asbag57
(g78
g59
NtRp3281
(dp3282
g62
(dp3283
sg71
g3268
sg64
(lp3284
g57
(g58
g59
NtRp3285
(dp3286
g62
(dp3287
g70
I3
ssg71
g3281
sg64
(lp3288
g1790
asbasbasbag57
(g73
g59
NtRp3289
(dp3290
g62
(dp3291
sg71
g2886
sg64
(lp3292
g57
(g78
g59
NtRp3293
(dp3294
g62
(dp3295
g82
g83
ssg71
g3289
sg64
(lp3296
S'wsgi.errors'
p3297
asbag57
(g78
g59
NtRp3298
(dp3299
g62
(dp3300
g89
g90
ssg71
g3289
sg64
(lp3301
S':'
asbag57
(g78
g59
NtRp3302
(dp3303
g62
(dp3304
sg71
g3289
sg64
(lp3305
g57
(g58
g59
NtRp3306
(dp3307
g62
(dp3308
g70
I3
ssg71
g3302
sg64
(lp3309
S"<open file '<stderr>', mode 'w' at 0x7fbbe3f9a270>"
p3310
asbasbasbag57
(g73
g59
NtRp3311
(dp3312
g62
(dp3313
sg71
g2886
sg64
(lp3314
g57
(g78
g59
NtRp3315
(dp3316
g62
(dp3317
g82
g83
ssg71
g3311
sg64
(lp3318
S'wsgi.file_wrapper'
p3319
asbag57
(g78
g59
NtRp3320
(dp3321
g62
(dp3322
g89
g90
ssg71
g3311
sg64
(lp3323
S':'
asbag57
(g78
g59
NtRp3324
(dp3325
g62
(dp3326
sg71
g3311
sg64
(lp3327
g57
(g58
g59
NtRp3328
(dp3329
g62
(dp3330
g70
I3
ssg71
g3324
sg64
(lp3331
S'<class wsgiref.util.FileWrapper at 0x11ffe20>'
p3332
asbasbasbag57
(g73
g59
NtRp3333
(dp3334
g62
(dp3335
sg71
g2886
sg64
(lp3336
g57
(g78
g59
NtRp3337
(dp3338
g62
(dp3339
g82
g83
ssg71
g3333
sg64
(lp3340
S'wsgi.input'
p3341
asbag57
(g78
g59
NtRp3342
(dp3343
g62
(dp3344
g89
g90
ssg71
g3333
sg64
(lp3345
S':'
asbag57
(g78
g59
NtRp3346
(dp3347
g62
(dp3348
sg71
g3333
sg64
(lp3349
g57
(g58
g59
NtRp3350
(dp3351
g62
(dp3352
g70
I3
ssg71
g3346
sg64
(lp3353
S'<cStringIO.StringO object at 0x7fbbb41f0110>'
p3354
asbasbasbag57
(g73
g59
NtRp3355
(dp3356
g62
(dp3357
sg71
g2886
sg64
(lp3358
g57
(g78
g59
NtRp3359
(dp3360
g62
(dp3361
g82
g83
ssg71
g3355
sg64
(lp3362
S'wsgi.multiprocess'
p3363
asbag57
(g78
g59
NtRp3364
(dp3365
g62
(dp3366
g89
g90
ssg71
g3355
sg64
(lp3367
S':'
asbag57
(g78
g59
NtRp3368
(dp3369
g62
(dp3370
sg71
g3355
sg64
(lp3371
g57
(g58
g59
NtRp3372
(dp3373
g62
(dp3374
g70
I3
ssg71
g3368
sg64
(lp3375
g100
asbasbasbag57
(g73
g59
NtRp3376
(dp3377
g62
(dp3378
sg71
g2886
sg64
(lp3379
g57
(g78
g59
NtRp3380
(dp3381
g62
(dp3382
g82
g83
ssg71
g3376
sg64
(lp3383
S'wsgi.multithread'
p3384
asbag57
(g78
g59
NtRp3385
(dp3386
g62
(dp3387
g89
g90
ssg71
g3376
sg64
(lp3388
S':'
asbag57
(g78
g59
NtRp3389
(dp3390
g62
(dp3391
sg71
g3376
sg64
(lp3392
g57
(g58
g59
NtRp3393
(dp3394
g62
(dp3395
g70
I3
ssg71
g3389
sg64
(lp3396
g2007
asbasbasbag57
(g73
g59
NtRp3397
(dp3398
g62
(dp3399
sg71
g2886
sg64
(lp3400
g57
(g78
g59
NtRp3401
(dp3402
g62
(dp3403
g82
g83
ssg71
g3397
sg64
(lp3404
S'wsgi.run_once'
p3405
asbag57
(g78
g59
NtRp3406
(dp3407
g62
(dp3408
g89
g90
ssg71
g3397
sg64
(lp3409
S':'
asbag57
(g78
g59
NtRp3410
(dp3411
g62
(dp3412
sg71
g3397
sg64
(lp3413
g57
(g58
g59
NtRp3414
(dp3415
g62
(dp3416
g70
I3
ssg71
g3410
sg64
(lp3417
g100
asbasbasbag57
(g73
g59
NtRp3418
(dp3419
g62
(dp3420
sg71
g2886
sg64
(lp3421
g57
(g78
g59
NtRp3422
(dp3423
g62
(dp3424
g82
g83
ssg71
g3418
sg64
(lp3425
S'wsgi.url_scheme'
p3426
asbag57
(g78
g59
NtRp3427
(dp3428
g62
(dp3429
g89
g90
ssg71
g3418
sg64
(lp3430
S':'
asbag57
(g78
g59
NtRp3431
(dp3432
g62
(dp3433
sg71
g3418
sg64
(lp3434
g57
(g58
g59
NtRp3435
(dp3436
g62
(dp3437
g70
I3
ssg71
g3431
sg64
(lp3438
g2050
asbasbasbag57
(g73
g59
NtRp3439
(dp3440
g62
(dp3441
sg71
g2886
sg64
(lp3442
g57
(g78
g59
NtRp3443
(dp3444
g62
(dp3445
g82
g83
ssg71
g3439
sg64
(lp3446
S'wsgi.version'
p3447
asbag57
(g78
g59
NtRp3448
(dp3449
g62
(dp3450
g89
g90
ssg71
g3439
sg64
(lp3451
S':'
asbag57
(g78
g59
NtRp3452
(dp3453
g62
(dp3454
sg71
g3439
sg64
(lp3455
g57
(g58
g59
NtRp3456
(dp3457
g62
(dp3458
g70
I3
ssg71
g3452
sg64
(lp3459
S'1'
asbasbasbasbasbasbasbasbasbasbasbasbasbsS'frames'
p3460
(lp3461
(dp3462
S'file'
p3463
S'/home/shipra/Desktop/Semester 1.2/ITWS-2/web2py/gluon/restricted.py'
p3464
sS'dump'
p3465
(dp3466
S'environment'
p3467
S"{'A': <class 'gluon.html.A'>, 'Auth': <class 'gluon.tools.Auth'>, 'B': <class 'gluon.html.B'>, 'BEAUTIFY': <class 'gluon.html.BEAUTIFY'>, 'BODY': <class 'gluon.html.BODY'>, 'BR': <class 'gluon.html.BR'>, 'BUTTON': <class 'gluon.html.BUTTON'>, 'CAT': <class 'gluon.html.CAT'>, 'CENTER': <class 'gluon.html.CENTER'>, 'CLEANUP': <class 'gluon.validators.CLEANUP'>, ...}"
p3468
sS'ccode'
p3469
S'<code object <module> at 0x7fbbb41f8db0, file "/...signment_2/views/default/comm_post.html", line 1>'
p3470
ssS'lnum'
p3471
I212
sS'lines'
p3472
(dp3473
I207
S'    try:'
p3474
sI208
S'        if isinstance(code, types.CodeType):'
p3475
sI209
S'            ccode = code'
p3476
sI210
S'        else:'
p3477
sI211
S'            ccode = compile2(code, layer)'
p3478
sI212
S'        exec ccode in environment'
p3479
sI213
S'    except HTTP:'
p3480
sI214
S'        raise'
p3481
sI215
S'    except RestrictedError:'
p3482
sI216
S'        # do not encapsulate (obfuscate) the original RestrictedError'
p3483
ssS'call'
p3484
S'(code=\'response.write(\\\'<!DOCTYPE html>\\\\n<!-- paulirish...."></script>\\\\n</body>\\\\n</html>\\\\n\\\\n\\\', escape=False)\', environment={\'A\': <class \'gluon.html.A\'>, \'Auth\': <class \'gluon.tools.Auth\'>, \'B\': <class \'gluon.html.B\'>, \'BEAUTIFY\': <class \'gluon.html.BEAUTIFY\'>, \'BODY\': <class \'gluon.html.BODY\'>, \'BR\': <class \'gluon.html.BR\'>, \'BUTTON\': <class \'gluon.html.BUTTON\'>, \'CAT\': <class \'gluon.html.CAT\'>, \'CENTER\': <class \'gluon.html.CENTER\'>, \'CLEANUP\': <class \'gluon.validators.CLEANUP\'>, ...}, layer=\'/home/shipra/Desktop/Semester 1.2/ITWS-2/web2py/...cations/Assignment_2/views/default/comm_post.html\')'
p3485
sS'func'
p3486
S'restricted'
p3487
sa(dp3488
g3463
S'/home/shipra/Desktop/Semester 1.2/ITWS-2/web2py/applications/Assignment_2/views/default/comm_post.html'
p3489
sg3465
(dp3490
sg3471
I70
sg3472
(dp3491
I64
S'for i in range(len(comments)):'
p3492
sI65
S"    response.write('\\n<li>', escape=False)"
p3493
sI66
S"    response.write(user[0]['first_name'])"
p3494
sI67
S"    response.write(' : ', escape=False)"
p3495
sI68
S"    response.write(comments[i]['comm'])"
p3496
sI69
S"    response.write('<br/>\\n', escape=False)"
p3497
sI70
S"    x=str(comments[i]['cdate'])"
p3498
sI71
S"    response.write('\\n', escape=False)"
p3499
sI72
S'    x=x.split(" ")'
p3500
sI73
S"    response.write('\\n', escape=False)"
p3501
sI74
S"    y=str(comments[i]['ctime'])"
p3502
sI75
S"    response.write('\\n', escape=False)"
p3503
sI76
S'    y=y.split(" ")'
p3504
sI77
S"    response.write('\\nPosted on ', escape=False)"
p3505
sI78
S'    response.write(x[0])'
p3506
sI79
S"    response.write(' at ', escape=False)"
p3507
sI80
S'    response.write(y[1])'
p3508
sI61
S'response.write(\'">\\n            \', escape=False)'
p3509
sI62
S"response.write('\\n            ', escape=False)"
p3510
sI63
S"response.write('\\n<h4> Comments for this post</h4>\\n<ol>\\n', escape=False)"
p3511
ssg3484
S'()'
p3512
sg3486
S'<module>'
p3513
sa(dp3514
g3463
S'/home/shipra/Desktop/Semester 1.2/ITWS-2/web2py/gluon/dal.py'
p3515
sg3465
(dp3516
S'self'
p3517
S"<Row {'comm': 'Haww!'}>"
p3518
sS'global ogetattr'
p3519
S"<slot wrapper '__getattribute__' of 'object' objects>"
p3520
sS'key'
p3521
S"'cdate'"
p3522
ssg3471
I6448
sg3472
(dp3523
I6443
S'        elif m:'
p3524
sI6444
S'            try:'
p3525
sI6445
S'                return ogetattr(self, m.group(1))[m.group(2)]'
p3526
sI6446
S'            except (KeyError,AttributeError,TypeError):'
p3527
sI6447
S'                key = m.group(2)'
p3528
sI6448
S'        return ogetattr(self, key)'
p3529
sI6449
S''
sI6450
S'    def __setitem__(self, key, value):'
p3530
sI6451
S'        setattr(self, str(key), value)'
p3531
sI6452
S''
ssg3484
S"(self=<Row {'comm': 'Haww!'}>, key='cdate')"
p3532
sg3486
g20
sasS'pyver'
p3533
S'Python 2.7.3: /usr/bin/python'
p3534
sS'session'
p3535
g57
(g58
g59
NtRp3536
(dp3537
g62
(dp3538
sg64
(lp3539
g57
(g66
g59
NtRp3540
(dp3541
g62
(dp3542
g70
I5
ssg71
Nsg64
(lp3543
g57
(g73
g59
NtRp3544
(dp3545
g62
(dp3546
sg71
g3540
sg64
(lp3547
g57
(g78
g59
NtRp3548
(dp3549
g62
(dp3550
g82
g83
ssg71
g3544
sg64
(lp3551
S'auth'
p3552
asbag57
(g78
g59
NtRp3553
(dp3554
g62
(dp3555
g89
g90
ssg71
g3544
sg64
(lp3556
S':'
asbag57
(g78
g59
NtRp3557
(dp3558
g62
(dp3559
sg71
g3544
sg64
(lp3560
g57
(g58
g59
NtRp3561
(dp3562
g62
(dp3563
g70
I5
ssg71
g3557
sg64
(lp3564
g57
(g66
g59
NtRp3565
(dp3566
g62
(dp3567
g70
I4
ssg71
Nsg64
(lp3568
g57
(g73
g59
NtRp3569
(dp3570
g62
(dp3571
sg71
g3565
sg64
(lp3572
g57
(g78
g59
NtRp3573
(dp3574
g62
(dp3575
g82
g83
ssg71
g3569
sg64
(lp3576
S'expiration'
p3577
asbag57
(g78
g59
NtRp3578
(dp3579
g62
(dp3580
g89
g90
ssg71
g3569
sg64
(lp3581
S':'
asbag57
(g78
g59
NtRp3582
(dp3583
g62
(dp3584
sg71
g3569
sg64
(lp3585
g57
(g58
g59
NtRp3586
(dp3587
g62
(dp3588
g70
I4
ssg71
g3582
sg64
(lp3589
S'3600'
p3590
asbasbasbag57
(g73
g59
NtRp3591
(dp3592
g62
(dp3593
sg71
g3565
sg64
(lp3594
g57
(g78
g59
NtRp3595
(dp3596
g62
(dp3597
g82
g83
ssg71
g3591
sg64
(lp3598
S'hmac_key'
p3599
asbag57
(g78
g59
NtRp3600
(dp3601
g62
(dp3602
g89
g90
ssg71
g3591
sg64
(lp3603
S':'
asbag57
(g78
g59
NtRp3604
(dp3605
g62
(dp3606
sg71
g3591
sg64
(lp3607
g57
(g58
g59
NtRp3608
(dp3609
g62
(dp3610
g70
I4
ssg71
g3604
sg64
(lp3611
S'ba16a544-5149-433f-8d58-e170b1c40bcf'
p3612
asbasbasbag57
(g73
g59
NtRp3613
(dp3614
g62
(dp3615
sg71
g3565
sg64
(lp3616
g57
(g78
g59
NtRp3617
(dp3618
g62
(dp3619
g82
g83
ssg71
g3613
sg64
(lp3620
S'last_visit'
p3621
asbag57
(g78
g59
NtRp3622
(dp3623
g62
(dp3624
g89
g90
ssg71
g3613
sg64
(lp3625
S':'
asbag57
(g78
g59
NtRp3626
(dp3627
g62
(dp3628
sg71
g3613
sg64
(lp3629
g57
(g58
g59
NtRp3630
(dp3631
g62
(dp3632
g70
I4
ssg71
g3626
sg64
(lp3633
S'datetime.datetime(2013, 9, 2, 12, 32, 6, 943926)'
p3634
asbasbasbag57
(g73
g59
NtRp3635
(dp3636
g62
(dp3637
sg71
g3565
sg64
(lp3638
g57
(g78
g59
NtRp3639
(dp3640
g62
(dp3641
g82
g83
ssg71
g3635
sg64
(lp3642
S'remember'
p3643
asbag57
(g78
g59
NtRp3644
(dp3645
g62
(dp3646
g89
g90
ssg71
g3635
sg64
(lp3647
S':'
asbag57
(g78
g59
NtRp3648
(dp3649
g62
(dp3650
sg71
g3635
sg64
(lp3651
g57
(g58
g59
NtRp3652
(dp3653
g62
(dp3654
g70
I4
ssg71
g3648
sg64
(lp3655
g100
asbasbasbag57
(g73
g59
NtRp3656
(dp3657
g62
(dp3658
sg71
g3565
sg64
(lp3659
g57
(g78
g59
NtRp3660
(dp3661
g62
(dp3662
g82
g83
ssg71
g3656
sg64
(lp3663
S'user'
p3664
asbag57
(g78
g59
NtRp3665
(dp3666
g62
(dp3667
g89
g90
ssg71
g3656
sg64
(lp3668
S':'
asbag57
(g78
g59
NtRp3669
(dp3670
g62
(dp3671
sg71
g3656
sg64
(lp3672
g57
(g58
g59
NtRp3673
(dp3674
g62
(dp3675
g70
I4
ssg71
g3669
sg64
(lp3676
g57
(g66
g59
NtRp3677
(dp3678
g62
(dp3679
g70
I3
ssg71
Nsg64
(lp3680
g57
(g73
g59
NtRp3681
(dp3682
g62
(dp3683
sg71
g3677
sg64
(lp3684
g57
(g78
g59
NtRp3685
(dp3686
g62
(dp3687
g82
g83
ssg71
g3681
sg64
(lp3688
S'email'
p3689
asbag57
(g78
g59
NtRp3690
(dp3691
g62
(dp3692
g89
g90
ssg71
g3681
sg64
(lp3693
S':'
asbag57
(g78
g59
NtRp3694
(dp3695
g62
(dp3696
sg71
g3681
sg64
(lp3697
g57
(g58
g59
NtRp3698
(dp3699
g62
(dp3700
g70
I3
ssg71
g3694
sg64
(lp3701
S'bangashipra@gmail.com'
p3702
asbasbasbag57
(g73
g59
NtRp3703
(dp3704
g62
(dp3705
sg71
g3677
sg64
(lp3706
g57
(g78
g59
NtRp3707
(dp3708
g62
(dp3709
g82
g83
ssg71
g3703
sg64
(lp3710
S'first_name'
p3711
asbag57
(g78
g59
NtRp3712
(dp3713
g62
(dp3714
g89
g90
ssg71
g3703
sg64
(lp3715
S':'
asbag57
(g78
g59
NtRp3716
(dp3717
g62
(dp3718
sg71
g3703
sg64
(lp3719
g57
(g58
g59
NtRp3720
(dp3721
g62
(dp3722
g70
I3
ssg71
g3716
sg64
(lp3723
S'Shipra'
p3724
asbasbasbag57
(g73
g59
NtRp3725
(dp3726
g62
(dp3727
sg71
g3677
sg64
(lp3728
g57
(g78
g59
NtRp3729
(dp3730
g62
(dp3731
g82
g83
ssg71
g3725
sg64
(lp3732
S'id'
p3733
asbag57
(g78
g59
NtRp3734
(dp3735
g62
(dp3736
g89
g90
ssg71
g3725
sg64
(lp3737
S':'
asbag57
(g78
g59
NtRp3738
(dp3739
g62
(dp3740
sg71
g3725
sg64
(lp3741
g57
(g58
g59
NtRp3742
(dp3743
g62
(dp3744
g70
I3
ssg71
g3738
sg64
(lp3745
S'3'
asbasbasbag57
(g73
g59
NtRp3746
(dp3747
g62
(dp3748
sg71
g3677
sg64
(lp3749
g57
(g78
g59
NtRp3750
(dp3751
g62
(dp3752
g82
g83
ssg71
g3746
sg64
(lp3753
S'last_name'
p3754
asbag57
(g78
g59
NtRp3755
(dp3756
g62
(dp3757
g89
g90
ssg71
g3746
sg64
(lp3758
S':'
asbag57
(g78
g59
NtRp3759
(dp3760
g62
(dp3761
sg71
g3746
sg64
(lp3762
g57
(g58
g59
NtRp3763
(dp3764
g62
(dp3765
g70
I3
ssg71
g3759
sg64
(lp3766
S'Banga'
p3767
asbasbasbag57
(g73
g59
NtRp3768
(dp3769
g62
(dp3770
sg71
g3677
sg64
(lp3771
g57
(g78
g59
NtRp3772
(dp3773
g62
(dp3774
g82
g83
ssg71
g3768
sg64
(lp3775
S'registration_id'
p3776
asbag57
(g78
g59
NtRp3777
(dp3778
g62
(dp3779
g89
g90
ssg71
g3768
sg64
(lp3780
S':'
asbag57
(g78
g59
NtRp3781
(dp3782
g62
(dp3783
sg71
g3768
sg64
(lp3784
g57
(g58
g59
NtRp3785
(dp3786
g62
(dp3787
g70
I3
ssg71
g3781
sg64
(lp3788
S''
asbasbasbag57
(g73
g59
NtRp3789
(dp3790
g62
(dp3791
sg71
g3677
sg64
(lp3792
g57
(g78
g59
NtRp3793
(dp3794
g62
(dp3795
g82
g83
ssg71
g3789
sg64
(lp3796
S'registration_key'
p3797
asbag57
(g78
g59
NtRp3798
(dp3799
g62
(dp3800
g89
g90
ssg71
g3789
sg64
(lp3801
S':'
asbag57
(g78
g59
NtRp3802
(dp3803
g62
(dp3804
sg71
g3789
sg64
(lp3805
g57
(g58
g59
NtRp3806
(dp3807
g62
(dp3808
g70
I3
ssg71
g3802
sg64
(lp3809
S''
asbasbasbag57
(g73
g59
NtRp3810
(dp3811
g62
(dp3812
sg71
g3677
sg64
(lp3813
g57
(g78
g59
NtRp3814
(dp3815
g62
(dp3816
g82
g83
ssg71
g3810
sg64
(lp3817
S'reset_password_key'
p3818
asbag57
(g78
g59
NtRp3819
(dp3820
g62
(dp3821
g89
g90
ssg71
g3810
sg64
(lp3822
S':'
asbag57
(g78
g59
NtRp3823
(dp3824
g62
(dp3825
sg71
g3810
sg64
(lp3826
g57
(g58
g59
NtRp3827
(dp3828
g62
(dp3829
g70
I3
ssg71
g3823
sg64
(lp3830
S''
asbasbasbag57
(g73
g59
NtRp3831
(dp3832
g62
(dp3833
sg71
g3677
sg64
(lp3834
g57
(g78
g59
NtRp3835
(dp3836
g62
(dp3837
g82
g83
ssg71
g3831
sg64
(lp3838
S'username'
p3839
asbag57
(g78
g59
NtRp3840
(dp3841
g62
(dp3842
g89
g90
ssg71
g3831
sg64
(lp3843
S':'
asbag57
(g78
g59
NtRp3844
(dp3845
g62
(dp3846
sg71
g3831
sg64
(lp3847
g57
(g58
g59
NtRp3848
(dp3849
g62
(dp3850
g70
I3
ssg71
g3844
sg64
(lp3851
S'admin'
p3852
asbasbasbasbasbasbasbag57
(g73
g59
NtRp3853
(dp3854
g62
(dp3855
sg71
g3565
sg64
(lp3856
g57
(g78
g59
NtRp3857
(dp3858
g62
(dp3859
g82
g83
ssg71
g3853
sg64
(lp3860
S'user_groups'
p3861
asbag57
(g78
g59
NtRp3862
(dp3863
g62
(dp3864
g89
g90
ssg71
g3853
sg64
(lp3865
S':'
asbag57
(g78
g59
NtRp3866
(dp3867
g62
(dp3868
sg71
g3853
sg64
(lp3869
g57
(g58
g59
NtRp3870
(dp3871
g62
(dp3872
g70
I4
ssg71
g3866
sg64
(lp3873
g57
(g66
g59
NtRp3874
(dp3875
g62
(dp3876
g70
I3
ssg71
Nsg64
(lp3877
g57
(g73
g59
NtRp3878
(dp3879
g62
(dp3880
sg71
g3874
sg64
(lp3881
g57
(g78
g59
NtRp3882
(dp3883
g62
(dp3884
g82
g83
ssg71
g3878
sg64
(lp3885
S'2'
asbag57
(g78
g59
NtRp3886
(dp3887
g62
(dp3888
g89
g90
ssg71
g3878
sg64
(lp3889
S':'
asbag57
(g78
g59
NtRp3890
(dp3891
g62
(dp3892
sg71
g3878
sg64
(lp3893
g57
(g58
g59
NtRp3894
(dp3895
g62
(dp3896
g70
I3
ssg71
g3890
sg64
(lp3897
S'user_3'
p3898
asbasbasbasbasbasbasbasbasbasbasbag57
(g73
g59
NtRp3899
(dp3900
g62
(dp3901
sg71
g3540
sg64
(lp3902
g57
(g78
g59
NtRp3903
(dp3904
g62
(dp3905
g82
g83
ssg71
g3899
sg64
(lp3906
S'flash'
p3907
asbag57
(g78
g59
NtRp3908
(dp3909
g62
(dp3910
g89
g90
ssg71
g3899
sg64
(lp3911
S':'
asbag57
(g78
g59
NtRp3912
(dp3913
g62
(dp3914
sg71
g3899
sg64
(lp3915
g57
(g58
g59
NtRp3916
(dp3917
g62
(dp3918
g70
I5
ssg71
g3912
sg64
(lp3919
S'None'
p3920
asbasbasbasbasbsS'etype'
p3921
S"<type 'exceptions.AttributeError'>"
p3922
sS'date'
p3923
S'Mon Sep  2 12:32:09 2013'
p3924
sS'response'
p3925
g57
(g58
g59
NtRp3926
(dp3927
g62
(dp3928
sg64
(lp3929
g57
(g66
g59
NtRp3930
(dp3931
g62
(dp3932
g70
I5
ssg71
Nsg64
(lp3933
g57
(g73
g59
NtRp3934
(dp3935
g62
(dp3936
sg71
g3930
sg64
(lp3937
g57
(g78
g59
NtRp3938
(dp3939
g62
(dp3940
g82
g83
ssg71
g3934
sg64
(lp3941
g181
asbag57
(g78
g59
NtRp3942
(dp3943
g62
(dp3944
g89
g90
ssg71
g3934
sg64
(lp3945
S':'
asbag57
(g78
g59
NtRp3946
(dp3947
g62
(dp3948
sg71
g3934
sg64
(lp3949
g57
(g58
g59
NtRp3950
(dp3951
g62
(dp3952
g70
I5
ssg71
g3946
sg64
(lp3953
S'<cStringIO.StringO object at 0x7fbbcc3c6308>'
p3954
asbasbasbag57
(g73
g59
NtRp3955
(dp3956
g62
(dp3957
sg71
g3930
sg64
(lp3958
g57
(g78
g59
NtRp3959
(dp3960
g62
(dp3961
g82
g83
ssg71
g3955
sg64
(lp3962
g269
asbag57
(g78
g59
NtRp3963
(dp3964
g62
(dp3965
g89
g90
ssg71
g3955
sg64
(lp3966
S':'
asbag57
(g78
g59
NtRp3967
(dp3968
g62
(dp3969
sg71
g3955
sg64
(lp3970
g57
(g58
g59
NtRp3971
(dp3972
g62
(dp3973
g70
I5
ssg71
g3967
sg64
(lp3974
g57
(g66
g59
NtRp3975
(dp3976
g62
(dp3977
g70
I4
ssg71
Nsg64
(lp3978
g57
(g73
g59
NtRp3979
(dp3980
g62
(dp3981
sg71
g3975
sg64
(lp3982
g57
(g78
g59
NtRp3983
(dp3984
g62
(dp3985
g82
g83
ssg71
g3979
sg64
(lp3986
S'session_id_assignment_2'
p3987
asbag57
(g78
g59
NtRp3988
(dp3989
g62
(dp3990
g89
g90
ssg71
g3979
sg64
(lp3991
S':'
asbag57
(g78
g59
NtRp3992
(dp3993
g62
(dp3994
sg71
g3979
sg64
(lp3995
g57
(g58
g59
NtRp3996
(dp3997
g62
(dp3998
g70
I4
ssg71
g3992
sg64
(lp3999
g687
ag57
(g66
g59
NtRp4000
(dp4001
g62
(dp4002
g70
I3
ssg71
Nsg64
(lp4003
g57
(g73
g59
NtRp4004
(dp4005
g62
(dp4006
sg71
g4000
sg64
(lp4007
g57
(g78
g59
NtRp4008
(dp4009
g62
(dp4010
g82
g83
ssg71
g4004
sg64
(lp4011
g320
asbag57
(g78
g59
NtRp4012
(dp4013
g62
(dp4014
g89
g90
ssg71
g4004
sg64
(lp4015
S':'
asbag57
(g78
g59
NtRp4016
(dp4017
g62
(dp4018
sg71
g4004
sg64
(lp4019
g57
(g58
g59
NtRp4020
(dp4021
g62
(dp4022
g70
I3
ssg71
g4016
sg64
(lp4023
S''
asbasbasbag57
(g73
g59
NtRp4024
(dp4025
g62
(dp4026
sg71
g4000
sg64
(lp4027
g57
(g78
g59
NtRp4028
(dp4029
g62
(dp4030
g82
g83
ssg71
g4024
sg64
(lp4031
g341
asbag57
(g78
g59
NtRp4032
(dp4033
g62
(dp4034
g89
g90
ssg71
g4024
sg64
(lp4035
S':'
asbag57
(g78
g59
NtRp4036
(dp4037
g62
(dp4038
sg71
g4024
sg64
(lp4039
g57
(g58
g59
NtRp4040
(dp4041
g62
(dp4042
g70
I3
ssg71
g4036
sg64
(lp4043
S''
asbasbasbag57
(g73
g59
NtRp4044
(dp4045
g62
(dp4046
sg71
g4000
sg64
(lp4047
g57
(g78
g59
NtRp4048
(dp4049
g62
(dp4050
g82
g83
ssg71
g4044
sg64
(lp4051
g362
asbag57
(g78
g59
NtRp4052
(dp4053
g62
(dp4054
g89
g90
ssg71
g4044
sg64
(lp4055
S':'
asbag57
(g78
g59
NtRp4056
(dp4057
g62
(dp4058
sg71
g4044
sg64
(lp4059
g57
(g58
g59
NtRp4060
(dp4061
g62
(dp4062
g70
I3
ssg71
g4056
sg64
(lp4063
S''
asbasbasbag57
(g73
g59
NtRp4064
(dp4065
g62
(dp4066
sg71
g4000
sg64
(lp4067
g57
(g78
g59
NtRp4068
(dp4069
g62
(dp4070
g82
g83
ssg71
g4064
sg64
(lp4071
g383
asbag57
(g78
g59
NtRp4072
(dp4073
g62
(dp4074
g89
g90
ssg71
g4064
sg64
(lp4075
S':'
asbag57
(g78
g59
NtRp4076
(dp4077
g62
(dp4078
sg71
g4064
sg64
(lp4079
g57
(g58
g59
NtRp4080
(dp4081
g62
(dp4082
g70
I3
ssg71
g4076
sg64
(lp4083
S''
asbasbasbag57
(g73
g59
NtRp4084
(dp4085
g62
(dp4086
sg71
g4000
sg64
(lp4087
g57
(g78
g59
NtRp4088
(dp4089
g62
(dp4090
g82
g83
ssg71
g4084
sg64
(lp4091
g404
asbag57
(g78
g59
NtRp4092
(dp4093
g62
(dp4094
g89
g90
ssg71
g4084
sg64
(lp4095
S':'
asbag57
(g78
g59
NtRp4096
(dp4097
g62
(dp4098
sg71
g4084
sg64
(lp4099
g57
(g58
g59
NtRp4100
(dp4101
g62
(dp4102
g70
I3
ssg71
g4096
sg64
(lp4103
S''
asbasbasbag57
(g73
g59
NtRp4104
(dp4105
g62
(dp4106
sg71
g4000
sg64
(lp4107
g57
(g78
g59
NtRp4108
(dp4109
g62
(dp4110
g82
g83
ssg71
g4104
sg64
(lp4111
g425
asbag57
(g78
g59
NtRp4112
(dp4113
g62
(dp4114
g89
g90
ssg71
g4104
sg64
(lp4115
S':'
asbag57
(g78
g59
NtRp4116
(dp4117
g62
(dp4118
sg71
g4104
sg64
(lp4119
g57
(g58
g59
NtRp4120
(dp4121
g62
(dp4122
g70
I3
ssg71
g4116
sg64
(lp4123
S'/'
asbasbasbag57
(g73
g59
NtRp4124
(dp4125
g62
(dp4126
sg71
g4000
sg64
(lp4127
g57
(g78
g59
NtRp4128
(dp4129
g62
(dp4130
g82
g83
ssg71
g4124
sg64
(lp4131
g446
asbag57
(g78
g59
NtRp4132
(dp4133
g62
(dp4134
g89
g90
ssg71
g4124
sg64
(lp4135
S':'
asbag57
(g78
g59
NtRp4136
(dp4137
g62
(dp4138
sg71
g4124
sg64
(lp4139
g57
(g58
g59
NtRp4140
(dp4141
g62
(dp4142
g70
I3
ssg71
g4136
sg64
(lp4143
S''
asbasbasbag57
(g73
g59
NtRp4144
(dp4145
g62
(dp4146
sg71
g4000
sg64
(lp4147
g57
(g78
g59
NtRp4148
(dp4149
g62
(dp4150
g82
g83
ssg71
g4144
sg64
(lp4151
g467
asbag57
(g78
g59
NtRp4152
(dp4153
g62
(dp4154
g89
g90
ssg71
g4144
sg64
(lp4155
S':'
asbag57
(g78
g59
NtRp4156
(dp4157
g62
(dp4158
sg71
g4144
sg64
(lp4159
g57
(g58
g59
NtRp4160
(dp4161
g62
(dp4162
g70
I3
ssg71
g4156
sg64
(lp4163
S''
asbasbasbasbasbasbasbasbasbasbasbag57
(g73
g59
NtRp4164
(dp4165
g62
(dp4166
sg71
g3930
sg64
(lp4167
g57
(g78
g59
NtRp4168
(dp4169
g62
(dp4170
g82
g83
ssg71
g4164
sg64
(lp4171
S'delimiters'
p4172
asbag57
(g78
g59
NtRp4173
(dp4174
g62
(dp4175
g89
g90
ssg71
g4164
sg64
(lp4176
S':'
asbag57
(g78
g59
NtRp4177
(dp4178
g62
(dp4179
sg71
g4164
sg64
(lp4180
g57
(g58
g59
NtRp4181
(dp4182
g62
(dp4183
g70
I5
ssg71
g4177
sg64
(lp4184
g57
(g66
g59
NtRp4185
(dp4186
g62
(dp4187
g70
I4
ssg71
Nsg64
(lp4188
g57
(g73
g59
NtRp4189
(dp4190
g62
(dp4191
sg71
g4185
sg64
(lp4192
g57
(g78
g59
NtRp4193
(dp4194
g62
(dp4195
sg71
g4189
sg64
(lp4196
g57
(g58
g59
NtRp4197
(dp4198
g62
(dp4199
g70
I4
ssg71
g4193
sg64
(lp4200
S'{{'
p4201
asbasbasbag57
(g73
g59
NtRp4202
(dp4203
g62
(dp4204
sg71
g4185
sg64
(lp4205
g57
(g78
g59
NtRp4206
(dp4207
g62
(dp4208
sg71
g4202
sg64
(lp4209
g57
(g58
g59
NtRp4210
(dp4211
g62
(dp4212
g70
I4
ssg71
g4206
sg64
(lp4213
S'}}'
p4214
asbasbasbasbasbasbasbag57
(g73
g59
NtRp4215
(dp4216
g62
(dp4217
sg71
g3930
sg64
(lp4218
g57
(g78
g59
NtRp4219
(dp4220
g62
(dp4221
g82
g83
ssg71
g4215
sg64
(lp4222
S'files'
p4223
asbag57
(g78
g59
NtRp4224
(dp4225
g62
(dp4226
g89
g90
ssg71
g4215
sg64
(lp4227
S':'
asbag57
(g78
g59
NtRp4228
(dp4229
g62
(dp4230
sg71
g4215
sg64
(lp4231
g57
(g58
g59
NtRp4232
(dp4233
g62
(dp4234
g70
I5
ssg71
g4228
sg64
(lp4235
g57
(g66
g59
NtRp4236
(dp4237
g62
(dp4238
g70
I4
ssg71
Nsg64
(lp4239
g57
(g73
g59
NtRp4240
(dp4241
g62
(dp4242
sg71
g4236
sg64
(lp4243
g57
(g78
g59
NtRp4244
(dp4245
g62
(dp4246
sg71
g4240
sg64
(lp4247
g57
(g58
g59
NtRp4248
(dp4249
g62
(dp4250
g70
I4
ssg71
g4244
sg64
(lp4251
S'/Assignment_2/static/js/jquery.js'
p4252
asbasbasbag57
(g73
g59
NtRp4253
(dp4254
g62
(dp4255
sg71
g4236
sg64
(lp4256
g57
(g78
g59
NtRp4257
(dp4258
g62
(dp4259
sg71
g4253
sg64
(lp4260
g57
(g58
g59
NtRp4261
(dp4262
g62
(dp4263
g70
I4
ssg71
g4257
sg64
(lp4264
S'/Assignment_2/static/css/calendar.css'
p4265
asbasbasbag57
(g73
g59
NtRp4266
(dp4267
g62
(dp4268
sg71
g4236
sg64
(lp4269
g57
(g78
g59
NtRp4270
(dp4271
g62
(dp4272
sg71
g4266
sg64
(lp4273
g57
(g58
g59
NtRp4274
(dp4275
g62
(dp4276
g70
I4
ssg71
g4270
sg64
(lp4277
S'/Assignment_2/static/js/calendar.js'
p4278
asbasbasbag57
(g73
g59
NtRp4279
(dp4280
g62
(dp4281
sg71
g4236
sg64
(lp4282
g57
(g78
g59
NtRp4283
(dp4284
g62
(dp4285
sg71
g4279
sg64
(lp4286
g57
(g58
g59
NtRp4287
(dp4288
g62
(dp4289
g70
I4
ssg71
g4283
sg64
(lp4290
S'/Assignment_2/static/js/web2py.js'
p4291
asbasbasbag57
(g73
g59
NtRp4292
(dp4293
g62
(dp4294
sg71
g4236
sg64
(lp4295
g57
(g78
g59
NtRp4296
(dp4297
g62
(dp4298
sg71
g4292
sg64
(lp4299
g57
(g58
g59
NtRp4300
(dp4301
g62
(dp4302
g70
I4
ssg71
g4296
sg64
(lp4303
S'/Assignment_2/static/css/web2py.css'
p4304
asbasbasbag57
(g73
g59
NtRp4305
(dp4306
g62
(dp4307
sg71
g4236
sg64
(lp4308
g57
(g78
g59
NtRp4309
(dp4310
g62
(dp4311
sg71
g4305
sg64
(lp4312
g57
(g58
g59
NtRp4313
(dp4314
g62
(dp4315
g70
I4
ssg71
g4309
sg64
(lp4316
S'/Assignment_2/static/css/bootstrap.min.css'
p4317
asbasbasbag57
(g73
g59
NtRp4318
(dp4319
g62
(dp4320
sg71
g4236
sg64
(lp4321
g57
(g78
g59
NtRp4322
(dp4323
g62
(dp4324
sg71
g4318
sg64
(lp4325
g57
(g58
g59
NtRp4326
(dp4327
g62
(dp4328
g70
I4
ssg71
g4322
sg64
(lp4329
S'/Assignment_2/static/css/bootstrap-responsive.min.css'
p4330
asbasbasbag57
(g73
g59
NtRp4331
(dp4332
g62
(dp4333
sg71
g4236
sg64
(lp4334
g57
(g78
g59
NtRp4335
(dp4336
g62
(dp4337
sg71
g4331
sg64
(lp4338
g57
(g58
g59
NtRp4339
(dp4340
g62
(dp4341
g70
I4
ssg71
g4335
sg64
(lp4342
S'/Assignment_2/static/css/web2py_bootstrap.css'
p4343
asbasbasbasbasbasbasbag57
(g73
g59
NtRp4344
(dp4345
g62
(dp4346
sg71
g3930
sg64
(lp4347
g57
(g78
g59
NtRp4348
(dp4349
g62
(dp4350
g82
g83
ssg71
g4344
sg64
(lp4351
S'flash'
p4352
asbag57
(g78
g59
NtRp4353
(dp4354
g62
(dp4355
g89
g90
ssg71
g4344
sg64
(lp4356
S':'
asbag57
(g78
g59
NtRp4357
(dp4358
g62
(dp4359
sg71
g4344
sg64
(lp4360
g57
(g58
g59
NtRp4361
(dp4362
g62
(dp4363
g70
I5
ssg71
g4357
sg64
(lp4364
S''
asbasbasbag57
(g73
g59
NtRp4365
(dp4366
g62
(dp4367
sg71
g3930
sg64
(lp4368
g57
(g78
g59
NtRp4369
(dp4370
g62
(dp4371
g82
g83
ssg71
g4365
sg64
(lp4372
S'generic_patterns'
p4373
asbag57
(g78
g59
NtRp4374
(dp4375
g62
(dp4376
g89
g90
ssg71
g4365
sg64
(lp4377
S':'
asbag57
(g78
g59
NtRp4378
(dp4379
g62
(dp4380
sg71
g4365
sg64
(lp4381
g57
(g58
g59
NtRp4382
(dp4383
g62
(dp4384
g70
I5
ssg71
g4378
sg64
(lp4385
g57
(g66
g59
NtRp4386
(dp4387
g62
(dp4388
g70
I4
ssg71
Nsg64
(lp4389
g57
(g73
g59
NtRp4390
(dp4391
g62
(dp4392
sg71
g4386
sg64
(lp4393
g57
(g78
g59
NtRp4394
(dp4395
g62
(dp4396
sg71
g4390
sg64
(lp4397
g57
(g58
g59
NtRp4398
(dp4399
g62
(dp4400
g70
I4
ssg71
g4394
sg64
(lp4401
S'*'
asbasbasbasbasbasbasbag57
(g73
g59
NtRp4402
(dp4403
g62
(dp4404
sg71
g3930
sg64
(lp4405
g57
(g78
g59
NtRp4406
(dp4407
g62
(dp4408
g82
g83
ssg71
g4402
sg64
(lp4409
S'google_analytics_id'
p4410
asbag57
(g78
g59
NtRp4411
(dp4412
g62
(dp4413
g89
g90
ssg71
g4402
sg64
(lp4414
S':'
asbag57
(g78
g59
NtRp4415
(dp4416
g62
(dp4417
sg71
g4402
sg64
(lp4418
g57
(g58
g59
NtRp4419
(dp4420
g62
(dp4421
g70
I5
ssg71
g4415
sg64
(lp4422
S'None'
p4423
asbasbasbag57
(g73
g59
NtRp4424
(dp4425
g62
(dp4426
sg71
g3930
sg64
(lp4427
g57
(g78
g59
NtRp4428
(dp4429
g62
(dp4430
g82
g83
ssg71
g4424
sg64
(lp4431
S'headers'
p4432
asbag57
(g78
g59
NtRp4433
(dp4434
g62
(dp4435
g89
g90
ssg71
g4424
sg64
(lp4436
S':'
asbag57
(g78
g59
NtRp4437
(dp4438
g62
(dp4439
sg71
g4424
sg64
(lp4440
g57
(g58
g59
NtRp4441
(dp4442
g62
(dp4443
g70
I5
ssg71
g4437
sg64
(lp4444
g57
(g66
g59
NtRp4445
(dp4446
g62
(dp4447
g70
I4
ssg71
Nsg64
(lp4448
g57
(g73
g59
NtRp4449
(dp4450
g62
(dp4451
sg71
g4445
sg64
(lp4452
g57
(g78
g59
NtRp4453
(dp4454
g62
(dp4455
g82
g83
ssg71
g4449
sg64
(lp4456
S'X-Powered-By'
p4457
asbag57
(g78
g59
NtRp4458
(dp4459
g62
(dp4460
g89
g90
ssg71
g4449
sg64
(lp4461
S':'
asbag57
(g78
g59
NtRp4462
(dp4463
g62
(dp4464
sg71
g4449
sg64
(lp4465
g57
(g58
g59
NtRp4466
(dp4467
g62
(dp4468
g70
I4
ssg71
g4462
sg64
(lp4469
S'web2py'
p4470
asbasbasbasbasbasbasbag57
(g73
g59
NtRp4471
(dp4472
g62
(dp4473
sg71
g3930
sg64
(lp4474
g57
(g78
g59
NtRp4475
(dp4476
g62
(dp4477
g82
g83
ssg71
g4471
sg64
(lp4478
S'logo'
p4479
asbag57
(g78
g59
NtRp4480
(dp4481
g62
(dp4482
g89
g90
ssg71
g4471
sg64
(lp4483
S':'
asbag57
(g78
g59
NtRp4484
(dp4485
g62
(dp4486
sg71
g4471
sg64
(lp4487
g57
(g58
g59
NtRp4488
(dp4489
g62
(dp4490
g70
I5
ssg71
g4484
sg64
(lp4491
g57
(cgluon.html
A
p4492
g59
NtRp4493
(dp4494
g62
(dp4495
S'_class'
p4496
S'brand'
p4497
sS'_href'
p4498
S'http://www.web2py.com/'
p4499
ssg71
Nsg64
(lp4500
g57
(cgluon.html
B
p4501
g59
NtRp4502
(dp4503
g62
(dp4504
sg71
g4493
sg64
(lp4505
S'web'
p4506
ag57
(cgluon.html
SPAN
p4507
g59
NtRp4508
(dp4509
g62
(dp4510
sg71
g4502
sg64
(lp4511
I2
asbaS'py'
p4512
asbacgluon.html
XML_unpickle
p4513
(S's\r\x00\x00\x00&trade;&nbsp;'
tRp4514
asbasbasbasbag57
(g73
g59
NtRp4515
(dp4516
g62
(dp4517
sg71
g3930
sg64
(lp4518
g57
(g78
g59
NtRp4519
(dp4520
g62
(dp4521
g82
g83
ssg71
g4515
sg64
(lp4522
S'menu'
p4523
asbag57
(g78
g59
NtRp4524
(dp4525
g62
(dp4526
g89
g90
ssg71
g4515
sg64
(lp4527
S':'
asbag57
(g78
g59
NtRp4528
(dp4529
g62
(dp4530
sg71
g4515
sg64
(lp4531
g57
(g58
g59
NtRp4532
(dp4533
g62
(dp4534
g70
I5
ssg71
g4528
sg64
(lp4535
g57
(g66
g59
NtRp4536
(dp4537
g62
(dp4538
g70
I4
ssg71
Nsg64
(lp4539
g57
(g73
g59
NtRp4540
(dp4541
g62
(dp4542
sg71
g4536
sg64
(lp4543
g57
(g78
g59
NtRp4544
(dp4545
g62
(dp4546
sg71
g4540
sg64
(lp4547
g57
(g58
g59
NtRp4548
(dp4549
g62
(dp4550
g70
I4
ssg71
g4544
sg64
(lp4551
g57
(g66
g59
NtRp4552
(dp4553
g62
(dp4554
g70
I3
ssg71
Nsg64
(lp4555
g57
(g73
g59
NtRp4556
(dp4557
g62
(dp4558
sg71
g4552
sg64
(lp4559
g57
(g78
g59
NtRp4560
(dp4561
g62
(dp4562
sg71
g4556
sg64
(lp4563
g57
(g58
g59
NtRp4564
(dp4565
g62
(dp4566
g70
I3
ssg71
g4560
sg64
(lp4567
cgluon.languages
lazyT_unpickle
p4568
(S's\x04\x00\x00\x00Home'
tRp4569
asbasbasbag57
(g73
g59
NtRp4570
(dp4571
g62
(dp4572
sg71
g4552
sg64
(lp4573
g57
(g78
g59
NtRp4574
(dp4575
g62
(dp4576
sg71
g4570
sg64
(lp4577
g57
(g58
g59
NtRp4578
(dp4579
g62
(dp4580
g70
I3
ssg71
g4574
sg64
(lp4581
g100
asbasbasbag57
(g73
g59
NtRp4582
(dp4583
g62
(dp4584
sg71
g4552
sg64
(lp4585
g57
(g78
g59
NtRp4586
(dp4587
g62
(dp4588
sg71
g4582
sg64
(lp4589
g57
(g58
g59
NtRp4590
(dp4591
g62
(dp4592
g70
I3
ssg71
g4586
sg64
(lp4593
S'/Assignment_2/default/index'
p4594
asbasbasbag57
(g73
g59
NtRp4595
(dp4596
g62
(dp4597
sg71
g4552
sg64
(lp4598
g57
(g78
g59
NtRp4599
(dp4600
g62
(dp4601
sg71
g4595
sg64
(lp4602
g57
(g58
g59
NtRp4603
(dp4604
g62
(dp4605
g70
I3
ssg71
g4599
sg64
(lp4606
g57
(g66
g59
NtRp4607
(dp4608
g62
(dp4609
g70
I2
ssg71
Nsg64
(lp4610
sbasbasbasbasbasbasbasbag57
(g73
g59
NtRp4611
(dp4612
g62
(dp4613
sg71
g4536
sg64
(lp4614
g57
(g78
g59
NtRp4615
(dp4616
g62
(dp4617
sg71
g4611
sg64
(lp4618
g57
(g58
g59
NtRp4619
(dp4620
g62
(dp4621
g70
I4
ssg71
g4615
sg64
(lp4622
g57
(g66
g59
NtRp4623
(dp4624
g62
(dp4625
g70
I3
ssg71
Nsg64
(lp4626
g57
(g73
g59
NtRp4627
(dp4628
g62
(dp4629
sg71
g4623
sg64
(lp4630
g57
(g78
g59
NtRp4631
(dp4632
g62
(dp4633
sg71
g4627
sg64
(lp4634
g57
(g58
g59
NtRp4635
(dp4636
g62
(dp4637
g70
I3
ssg71
g4631
sg64
(lp4638
g57
(g4507
g59
NtRp4639
(dp4640
g62
(dp4641
g4496
S'highlighted'
p4642
ssg71
Nsg64
(lp4643
g4470
asbasbasbasbag57
(g73
g59
NtRp4644
(dp4645
g62
(dp4646
sg71
g4623
sg64
(lp4647
g57
(g78
g59
NtRp4648
(dp4649
g62
(dp4650
sg71
g4644
sg64
(lp4651
g57
(g58
g59
NtRp4652
(dp4653
g62
(dp4654
g70
I3
ssg71
g4648
sg64
(lp4655
g100
asbasbasbag57
(g73
g59
NtRp4656
(dp4657
g62
(dp4658
sg71
g4623
sg64
(lp4659
g57
(g78
g59
NtRp4660
(dp4661
g62
(dp4662
sg71
g4656
sg64
(lp4663
g57
(g58
g59
NtRp4664
(dp4665
g62
(dp4666
g70
I3
ssg71
g4660
sg64
(lp4667
S'http://web2py.com'
p4668
asbasbasbag57
(g73
g59
NtRp4669
(dp4670
g62
(dp4671
sg71
g4623
sg64
(lp4672
g57
(g78
g59
NtRp4673
(dp4674
g62
(dp4675
sg71
g4669
sg64
(lp4676
g57
(g58
g59
NtRp4677
(dp4678
g62
(dp4679
g70
I3
ssg71
g4673
sg64
(lp4680
g57
(g66
g59
NtRp4681
(dp4682
g62
(dp4683
g70
I2
ssg71
Nsg64
(lp4684
g57
(g73
g59
NtRp4685
(dp4686
g62
(dp4687
sg71
g4681
sg64
(lp4688
g57
(g78
g59
NtRp4689
(dp4690
g62
(dp4691
sg71
g4685
sg64
(lp4692
g57
(g58
g59
NtRp4693
(dp4694
g62
(dp4695
g70
I2
ssg71
g4689
sg64
(lp4696
g57
(g66
g59
NtRp4697
(dp4698
g62
(dp4699
g70
I1
ssg71
Nsg64
(lp4700
g57
(g73
g59
NtRp4701
(dp4702
g62
(dp4703
sg71
g4697
sg64
(lp4704
g57
(g78
g59
NtRp4705
(dp4706
g62
(dp4707
sg71
g4701
sg64
(lp4708
g57
(g58
g59
NtRp4709
(dp4710
g62
(dp4711
g70
I1
ssg71
g4705
sg64
(lp4712
g4568
(S's\x08\x00\x00\x00My Sites'
tRp4713
asbasbasbag57
(g73
g59
NtRp4714
(dp4715
g62
(dp4716
sg71
g4697
sg64
(lp4717
g57
(g78
g59
NtRp4718
(dp4719
g62
(dp4720
sg71
g4714
sg64
(lp4721
g57
(g58
g59
NtRp4722
(dp4723
g62
(dp4724
g70
I1
ssg71
g4718
sg64
(lp4725
I00
asbasbasbag57
(g73
g59
NtRp4726
(dp4727
g62
(dp4728
sg71
g4697
sg64
(lp4729
g57
(g78
g59
NtRp4730
(dp4731
g62
(dp4732
sg71
g4726
sg64
(lp4733
g57
(g58
g59
NtRp4734
(dp4735
g62
(dp4736
g70
I1
ssg71
g4730
sg64
(lp4737
S'/admin/default/site'
p4738
asbasbasbasbasbasbasbag57
(g73
g59
NtRp4739
(dp4740
g62
(dp4741
sg71
g4681
sg64
(lp4742
g57
(g78
g59
NtRp4743
(dp4744
g62
(dp4745
sg71
g4739
sg64
(lp4746
g57
(g58
g59
NtRp4747
(dp4748
g62
(dp4749
g70
I2
ssg71
g4743
sg64
(lp4750
g57
(g66
g59
NtRp4751
(dp4752
g62
(dp4753
g70
I1
ssg71
Nsg64
(lp4754
g57
(g73
g59
NtRp4755
(dp4756
g62
(dp4757
sg71
g4751
sg64
(lp4758
g57
(g78
g59
NtRp4759
(dp4760
g62
(dp4761
sg71
g4755
sg64
(lp4762
g57
(g58
g59
NtRp4763
(dp4764
g62
(dp4765
g70
I1
ssg71
g4759
sg64
(lp4766
g4568
(S's\x08\x00\x00\x00This App'
tRp4767
asbasbasbag57
(g73
g59
NtRp4768
(dp4769
g62
(dp4770
sg71
g4751
sg64
(lp4771
g57
(g78
g59
NtRp4772
(dp4773
g62
(dp4774
sg71
g4768
sg64
(lp4775
g57
(g58
g59
NtRp4776
(dp4777
g62
(dp4778
g70
I1
ssg71
g4772
sg64
(lp4779
I00
asbasbasbag57
(g73
g59
NtRp4780
(dp4781
g62
(dp4782
sg71
g4751
sg64
(lp4783
g57
(g78
g59
NtRp4784
(dp4785
g62
(dp4786
sg71
g4780
sg64
(lp4787
g57
(g58
g59
NtRp4788
(dp4789
g62
(dp4790
g70
I1
ssg71
g4784
sg64
(lp4791
S'/admin/default/design/Assignment_2'
p4792
asbasbasbag57
(g73
g59
NtRp4793
(dp4794
g62
(dp4795
sg71
g4751
sg64
(lp4796
g57
(g78
g59
NtRp4797
(dp4798
g62
(dp4799
sg71
g4793
sg64
(lp4800
g57
(g58
g59
NtRp4801
(dp4802
g62
(dp4803
g70
I1
ssg71
g4797
sg64
(lp4804
(lp4805
(g4568
(S's\n\x00\x00\x00Controller'
tRp4806
I00
S'/admin/default/edit/Assignment_2/controllers/default.py'
tp4807
a(g4568
(S's\x04\x00\x00\x00View'
tRp4808
I00
S'/admin/default/edit/Assignment_2/views/default/comm_post.html'
tp4809
a(g4568
(S's\x06\x00\x00\x00Layout'
tRp4810
I00
S'/admin/default/edit/Assignment_2/views/layout.html'
tp4811
a(g4568
(S's\n\x00\x00\x00Stylesheet'
tRp4812
I00
S'/admin/default/edit/Assignment_2/static/css/web2py.css'
tp4813
a(g4568
(S's\x08\x00\x00\x00DB Model'
tRp4814
I00
S'/admin/default/edit/Assignment_2/models/db.py'
tp4815
a(g4568
(S's\n\x00\x00\x00Menu Model'
tRp4816
I00
S'/admin/default/edit/Assignment_2/models/menu.py'
tp4817
a(g4568
(S's\x08\x00\x00\x00Database'
tRp4818
I00
S'/Assignment_2/appadmin/index'
tp4819
a(g4568
(S's\x06\x00\x00\x00Errors'
tRp4820
I00
S'/admin/default/errors/Assignment_2'
tp4821
a(g4568
(S's\x05\x00\x00\x00About'
tRp4822
I00
S'/admin/default/about/Assignment_2'
tp4823
aasbasbasbasbasbasbasbag57
(g73
g59
NtRp4824
(dp4825
g62
(dp4826
sg71
g4681
sg64
(lp4827
g57
(g78
g59
NtRp4828
(dp4829
g62
(dp4830
sg71
g4824
sg64
(lp4831
g57
(g58
g59
NtRp4832
(dp4833
g62
(dp4834
g70
I2
ssg71
g4828
sg64
(lp4835
g57
(g66
g59
NtRp4836
(dp4837
g62
(dp4838
g70
I1
ssg71
Nsg64
(lp4839
g57
(g73
g59
NtRp4840
(dp4841
g62
(dp4842
sg71
g4836
sg64
(lp4843
g57
(g78
g59
NtRp4844
(dp4845
g62
(dp4846
sg71
g4840
sg64
(lp4847
g57
(g58
g59
NtRp4848
(dp4849
g62
(dp4850
g70
I1
ssg71
g4844
sg64
(lp4851
S'web2py.com'
p4852
asbasbasbag57
(g73
g59
NtRp4853
(dp4854
g62
(dp4855
sg71
g4836
sg64
(lp4856
g57
(g78
g59
NtRp4857
(dp4858
g62
(dp4859
sg71
g4853
sg64
(lp4860
g57
(g58
g59
NtRp4861
(dp4862
g62
(dp4863
g70
I1
ssg71
g4857
sg64
(lp4864
I00
asbasbasbag57
(g73
g59
NtRp4865
(dp4866
g62
(dp4867
sg71
g4836
sg64
(lp4868
g57
(g78
g59
NtRp4869
(dp4870
g62
(dp4871
sg71
g4865
sg64
(lp4872
g57
(g58
g59
NtRp4873
(dp4874
g62
(dp4875
g70
I1
ssg71
g4869
sg64
(lp4876
S'http://www.web2py.com'
p4877
asbasbasbag57
(g73
g59
NtRp4878
(dp4879
g62
(dp4880
sg71
g4836
sg64
(lp4881
g57
(g78
g59
NtRp4882
(dp4883
g62
(dp4884
sg71
g4878
sg64
(lp4885
g57
(g58
g59
NtRp4886
(dp4887
g62
(dp4888
g70
I1
ssg71
g4882
sg64
(lp4889
(lp4890
(g4568
(S's\x08\x00\x00\x00Download'
tRp4891
I00
S'http://www.web2py.com/examples/default/download'
p4892
tp4893
a(g4568
(S's\x07\x00\x00\x00Support'
tRp4894
I00
S'http://www.web2py.com/examples/default/support'
p4895
tp4896
a(g4568
(S's\x04\x00\x00\x00Demo'
tRp4897
I00
S'http://web2py.com/demo_admin'
p4898
tp4899
a(g4568
(S's\x0e\x00\x00\x00Quick Examples'
tRp4900
I00
S'http://web2py.com/examples/default/examples'
p4901
tp4902
a(g4568
(S's\x03\x00\x00\x00FAQ'
tRp4903
I00
S'http://web2py.com/AlterEgo'
p4904
tp4905
a(g4568
(S's\x06\x00\x00\x00Videos'
tRp4906
I00
S'http://www.web2py.com/examples/default/videos/'
p4907
tp4908
a(g4568
(S's\x11\x00\x00\x00Free Applications'
tRp4909
I00
S'http://web2py.com/appliances'
p4910
tp4911
a(g4568
(S's\x07\x00\x00\x00Plugins'
tRp4912
I00
S'http://web2py.com/plugins'
p4913
tp4914
a(g4568
(S's\x07\x00\x00\x00Layouts'
tRp4915
I00
S'http://web2py.com/layouts'
p4916
tp4917
a(g4568
(S's\x07\x00\x00\x00Recipes'
tRp4918
I00
S'http://web2pyslices.com/'
p4919
tp4920
a(g4568
(S's\x08\x00\x00\x00Semantic'
tRp4921
I00
S'http://web2py.com/semantic'
p4922
tp4923
aasbasbasbasbasbasbasbag57
(g73
g59
NtRp4924
(dp4925
g62
(dp4926
sg71
g4681
sg64
(lp4927
g57
(g78
g59
NtRp4928
(dp4929
g62
(dp4930
sg71
g4924
sg64
(lp4931
g57
(g58
g59
NtRp4932
(dp4933
g62
(dp4934
g70
I2
ssg71
g4928
sg64
(lp4935
g57
(g66
g59
NtRp4936
(dp4937
g62
(dp4938
g70
I1
ssg71
Nsg64
(lp4939
g57
(g73
g59
NtRp4940
(dp4941
g62
(dp4942
sg71
g4936
sg64
(lp4943
g57
(g78
g59
NtRp4944
(dp4945
g62
(dp4946
sg71
g4940
sg64
(lp4947
g57
(g58
g59
NtRp4948
(dp4949
g62
(dp4950
g70
I1
ssg71
g4944
sg64
(lp4951
g4568
(S's\r\x00\x00\x00Documentation'
tRp4952
asbasbasbag57
(g73
g59
NtRp4953
(dp4954
g62
(dp4955
sg71
g4936
sg64
(lp4956
g57
(g78
g59
NtRp4957
(dp4958
g62
(dp4959
sg71
g4953
sg64
(lp4960
g57
(g58
g59
NtRp4961
(dp4962
g62
(dp4963
g70
I1
ssg71
g4957
sg64
(lp4964
I00
asbasbasbag57
(g73
g59
NtRp4965
(dp4966
g62
(dp4967
sg71
g4936
sg64
(lp4968
g57
(g78
g59
NtRp4969
(dp4970
g62
(dp4971
sg71
g4965
sg64
(lp4972
g57
(g58
g59
NtRp4973
(dp4974
g62
(dp4975
g70
I1
ssg71
g4969
sg64
(lp4976
S'http://www.web2py.com/book'
p4977
asbasbasbag57
(g73
g59
NtRp4978
(dp4979
g62
(dp4980
sg71
g4936
sg64
(lp4981
g57
(g78
g59
NtRp4982
(dp4983
g62
(dp4984
sg71
g4978
sg64
(lp4985
g57
(g58
g59
NtRp4986
(dp4987
g62
(dp4988
g70
I1
ssg71
g4982
sg64
(lp4989
(lp4990
(g4568
(S's\x07\x00\x00\x00Preface'
tRp4991
I00
S'http://www.web2py.com/book/default/chapter/00'
p4992
tp4993
a(g4568
(S's\x0c\x00\x00\x00Introduction'
tRp4994
I00
S'http://www.web2py.com/book/default/chapter/01'
p4995
tp4996
a(g4568
(S's\x06\x00\x00\x00Python'
tRp4997
I00
S'http://www.web2py.com/book/default/chapter/02'
p4998
tp4999
a(g4568
(S's\x08\x00\x00\x00Overview'
tRp5000
I00
S'http://www.web2py.com/book/default/chapter/03'
p5001
tp5002
a(g4568
(S's\x08\x00\x00\x00The Core'
tRp5003
I00
S'http://www.web2py.com/book/default/chapter/04'
p5004
tp5005
a(g4568
(S's\t\x00\x00\x00The Views'
tRp5006
I00
S'http://www.web2py.com/book/default/chapter/05'
p5007
tp5008
a(g4568
(S's\x08\x00\x00\x00Database'
tRp5009
I00
S'http://www.web2py.com/book/default/chapter/06'
p5010
tp5011
a(g4568
(S's\x14\x00\x00\x00Forms and Validators'
tRp5012
I00
S'http://www.web2py.com/book/default/chapter/07'
p5013
tp5014
a(g4568
(S's\r\x00\x00\x00Email and SMS'
tRp5015
I00
S'http://www.web2py.com/book/default/chapter/08'
p5016
tp5017
a(g4568
(S's\x0e\x00\x00\x00Access Control'
tRp5018
I00
S'http://www.web2py.com/book/default/chapter/09'
p5019
tp5020
a(g4568
(S's\x08\x00\x00\x00Services'
tRp5021
I00
S'http://www.web2py.com/book/default/chapter/10'
p5022
tp5023
a(g4568
(S's\x0c\x00\x00\x00Ajax Recipes'
tRp5024
I00
S'http://www.web2py.com/book/default/chapter/11'
p5025
tp5026
a(g4568
(S's\x16\x00\x00\x00Components and Plugins'
tRp5027
I00
S'http://www.web2py.com/book/default/chapter/12'
p5028
tp5029
a(g4568
(S's\x12\x00\x00\x00Deployment Recipes'
tRp5030
I00
S'http://www.web2py.com/book/default/chapter/13'
p5031
tp5032
a(g4568
(S's\r\x00\x00\x00Other Recipes'
tRp5033
I00
S'http://www.web2py.com/book/default/chapter/14'
p5034
tp5035
a(g4568
(S's\r\x00\x00\x00Buy this book'
tRp5036
I00
S'http://stores.lulu.com/web2py'
p5037
tp5038
aasbasbasbasbasbasbasbag57
(g73
g59
NtRp5039
(dp5040
g62
(dp5041
sg71
g4681
sg64
(lp5042
g57
(g78
g59
NtRp5043
(dp5044
g62
(dp5045
sg71
g5039
sg64
(lp5046
g57
(g58
g59
NtRp5047
(dp5048
g62
(dp5049
g70
I2
ssg71
g5043
sg64
(lp5050
g57
(g66
g59
NtRp5051
(dp5052
g62
(dp5053
g70
I1
ssg71
Nsg64
(lp5054
g57
(g73
g59
NtRp5055
(dp5056
g62
(dp5057
sg71
g5051
sg64
(lp5058
g57
(g78
g59
NtRp5059
(dp5060
g62
(dp5061
sg71
g5055
sg64
(lp5062
g57
(g58
g59
NtRp5063
(dp5064
g62
(dp5065
g70
I1
ssg71
g5059
sg64
(lp5066
g4568
(S's\t\x00\x00\x00Community'
tRp5067
asbasbasbag57
(g73
g59
NtRp5068
(dp5069
g62
(dp5070
sg71
g5051
sg64
(lp5071
g57
(g78
g59
NtRp5072
(dp5073
g62
(dp5074
sg71
g5068
sg64
(lp5075
g57
(g58
g59
NtRp5076
(dp5077
g62
(dp5078
g70
I1
ssg71
g5072
sg64
(lp5079
I00
asbasbasbag57
(g73
g59
NtRp5080
(dp5081
g62
(dp5082
sg71
g5051
sg64
(lp5083
g57
(g78
g59
NtRp5084
(dp5085
g62
(dp5086
sg71
g5080
sg64
(lp5087
g57
(g58
g59
NtRp5088
(dp5089
g62
(dp5090
g70
I1
ssg71
g5084
sg64
(lp5091
Nasbasbasbag57
(g73
g59
NtRp5092
(dp5093
g62
(dp5094
sg71
g5051
sg64
(lp5095
g57
(g78
g59
NtRp5096
(dp5097
g62
(dp5098
sg71
g5092
sg64
(lp5099
g57
(g58
g59
NtRp5100
(dp5101
g62
(dp5102
g70
I1
ssg71
g5096
sg64
(lp5103
(lp5104
(g4568
(S's\x06\x00\x00\x00Groups'
tRp5105
I00
S'http://www.web2py.com/examples/default/usergroups'
p5106
tp5107
a(g4568
(S's\x07\x00\x00\x00Twitter'
tRp5108
I00
S'http://twitter.com/web2py'
p5109
tp5110
a(g4568
(S's\t\x00\x00\x00Live Chat'
tRp5111
I00
S'http://webchat.freenode.net/?channels=web2py'
p5112
tp5113
aasbasbasbasbasbasbasbag57
(g73
g59
NtRp5114
(dp5115
g62
(dp5116
sg71
g4681
sg64
(lp5117
g57
(g78
g59
NtRp5118
(dp5119
g62
(dp5120
sg71
g5114
sg64
(lp5121
g57
(g58
g59
NtRp5122
(dp5123
g62
(dp5124
g70
I2
ssg71
g5118
sg64
(lp5125
g57
(g66
g59
NtRp5126
(dp5127
g62
(dp5128
g70
I1
ssg71
Nsg64
(lp5129
g57
(g73
g59
NtRp5130
(dp5131
g62
(dp5132
sg71
g5126
sg64
(lp5133
g57
(g78
g59
NtRp5134
(dp5135
g62
(dp5136
sg71
g5130
sg64
(lp5137
g57
(g58
g59
NtRp5138
(dp5139
g62
(dp5140
g70
I1
ssg71
g5134
sg64
(lp5141
g4568
(S's\x07\x00\x00\x00Plugins'
tRp5142
asbasbasbag57
(g73
g59
NtRp5143
(dp5144
g62
(dp5145
sg71
g5126
sg64
(lp5146
g57
(g78
g59
NtRp5147
(dp5148
g62
(dp5149
sg71
g5143
sg64
(lp5150
g57
(g58
g59
NtRp5151
(dp5152
g62
(dp5153
g70
I1
ssg71
g5147
sg64
(lp5154
I00
asbasbasbag57
(g73
g59
NtRp5155
(dp5156
g62
(dp5157
sg71
g5126
sg64
(lp5158
g57
(g78
g59
NtRp5159
(dp5160
g62
(dp5161
sg71
g5155
sg64
(lp5162
g57
(g58
g59
NtRp5163
(dp5164
g62
(dp5165
g70
I1
ssg71
g5159
sg64
(lp5166
Nasbasbasbag57
(g73
g59
NtRp5167
(dp5168
g62
(dp5169
sg71
g5126
sg64
(lp5170
g57
(g78
g59
NtRp5171
(dp5172
g62
(dp5173
sg71
g5167
sg64
(lp5174
g57
(g58
g59
NtRp5175
(dp5176
g62
(dp5177
g70
I1
ssg71
g5171
sg64
(lp5178
(lp5179
(S'plugin_wiki'
p5180
I00
S'http://web2py.com/examples/default/download'
p5181
tp5182
a(g4568
(S's\r\x00\x00\x00Other Plugins'
tRp5183
I00
g4913
tp5184
a(g4568
(S's\x0e\x00\x00\x00Layout Plugins'
tRp5185
I00
g4916
tp5186
aasbasbasbasbasbasbasbasbasbasbasbasbasbasbasbasbasbasbasbag57
(g73
g59
NtRp5187
(dp5188
g62
(dp5189
sg71
g3930
sg64
(lp5190
g57
(g78
g59
NtRp5191
(dp5192
g62
(dp5193
g82
g83
ssg71
g5187
sg64
(lp5194
S'meta'
p5195
asbag57
(g78
g59
NtRp5196
(dp5197
g62
(dp5198
g89
g90
ssg71
g5187
sg64
(lp5199
S':'
asbag57
(g78
g59
NtRp5200
(dp5201
g62
(dp5202
sg71
g5187
sg64
(lp5203
g57
(g58
g59
NtRp5204
(dp5205
g62
(dp5206
g70
I5
ssg71
g5200
sg64
(lp5207
g57
(g66
g59
NtRp5208
(dp5209
g62
(dp5210
g70
I4
ssg71
Nsg64
(lp5211
g57
(g73
g59
NtRp5212
(dp5213
g62
(dp5214
sg71
g5208
sg64
(lp5215
g57
(g78
g59
NtRp5216
(dp5217
g62
(dp5218
g82
g83
ssg71
g5212
sg64
(lp5219
S'author'
p5220
asbag57
(g78
g59
NtRp5221
(dp5222
g62
(dp5223
g89
g90
ssg71
g5212
sg64
(lp5224
S':'
asbag57
(g78
g59
NtRp5225
(dp5226
g62
(dp5227
sg71
g5212
sg64
(lp5228
g57
(g58
g59
NtRp5229
(dp5230
g62
(dp5231
g70
I4
ssg71
g5225
sg64
(lp5232
S'Your Name <you@example.com>'
p5233
asbasbasbag57
(g73
g59
NtRp5234
(dp5235
g62
(dp5236
sg71
g5208
sg64
(lp5237
g57
(g78
g59
NtRp5238
(dp5239
g62
(dp5240
g82
g83
ssg71
g5234
sg64
(lp5241
S'description'
p5242
asbag57
(g78
g59
NtRp5243
(dp5244
g62
(dp5245
g89
g90
ssg71
g5234
sg64
(lp5246
S':'
asbag57
(g78
g59
NtRp5247
(dp5248
g62
(dp5249
sg71
g5234
sg64
(lp5250
g57
(g58
g59
NtRp5251
(dp5252
g62
(dp5253
g70
I4
ssg71
g5247
sg64
(lp5254
S'a cool new app'
p5255
asbasbasbag57
(g73
g59
NtRp5256
(dp5257
g62
(dp5258
sg71
g5208
sg64
(lp5259
g57
(g78
g59
NtRp5260
(dp5261
g62
(dp5262
g82
g83
ssg71
g5256
sg64
(lp5263
S'generator'
p5264
asbag57
(g78
g59
NtRp5265
(dp5266
g62
(dp5267
g89
g90
ssg71
g5256
sg64
(lp5268
S':'
asbag57
(g78
g59
NtRp5269
(dp5270
g62
(dp5271
sg71
g5256
sg64
(lp5272
g57
(g58
g59
NtRp5273
(dp5274
g62
(dp5275
g70
I4
ssg71
g5269
sg64
(lp5276
S'Web2py Web Framework'
p5277
asbasbasbag57
(g73
g59
NtRp5278
(dp5279
g62
(dp5280
sg71
g5208
sg64
(lp5281
g57
(g78
g59
NtRp5282
(dp5283
g62
(dp5284
g82
g83
ssg71
g5278
sg64
(lp5285
S'keywords'
p5286
asbag57
(g78
g59
NtRp5287
(dp5288
g62
(dp5289
g89
g90
ssg71
g5278
sg64
(lp5290
S':'
asbag57
(g78
g59
NtRp5291
(dp5292
g62
(dp5293
sg71
g5278
sg64
(lp5294
g57
(g58
g59
NtRp5295
(dp5296
g62
(dp5297
g70
I4
ssg71
g5291
sg64
(lp5298
S'web2py, python, framework'
p5299
asbasbasbasbasbasbasbag57
(g73
g59
NtRp5300
(dp5301
g62
(dp5302
sg71
g3930
sg64
(lp5303
g57
(g78
g59
NtRp5304
(dp5305
g62
(dp5306
g82
g83
ssg71
g5300
sg64
(lp5307
S'models_to_run'
p5308
asbag57
(g78
g59
NtRp5309
(dp5310
g62
(dp5311
g89
g90
ssg71
g5300
sg64
(lp5312
S':'
asbag57
(g78
g59
NtRp5313
(dp5314
g62
(dp5315
sg71
g5300
sg64
(lp5316
g57
(g58
g59
NtRp5317
(dp5318
g62
(dp5319
g70
I5
ssg71
g5313
sg64
(lp5320
g57
(g66
g59
NtRp5321
(dp5322
g62
(dp5323
g70
I4
ssg71
Nsg64
(lp5324
g57
(g73
g59
NtRp5325
(dp5326
g62
(dp5327
sg71
g5321
sg64
(lp5328
g57
(g78
g59
NtRp5329
(dp5330
g62
(dp5331
sg71
g5325
sg64
(lp5332
g57
(g58
g59
NtRp5333
(dp5334
g62
(dp5335
g70
I4
ssg71
g5329
sg64
(lp5336
S'^\\w+\\.py$'
p5337
asbasbasbag57
(g73
g59
NtRp5338
(dp5339
g62
(dp5340
sg71
g5321
sg64
(lp5341
g57
(g78
g59
NtRp5342
(dp5343
g62
(dp5344
sg71
g5338
sg64
(lp5345
g57
(g58
g59
NtRp5346
(dp5347
g62
(dp5348
g70
I4
ssg71
g5342
sg64
(lp5349
S'^default/\\w+\\.py$'
p5350
asbasbasbag57
(g73
g59
NtRp5351
(dp5352
g62
(dp5353
sg71
g5321
sg64
(lp5354
g57
(g78
g59
NtRp5355
(dp5356
g62
(dp5357
sg71
g5351
sg64
(lp5358
g57
(g58
g59
NtRp5359
(dp5360
g62
(dp5361
g70
I4
ssg71
g5355
sg64
(lp5362
S'^default/comm_post/\\w+\\.py$'
p5363
asbasbasbasbasbasbasbag57
(g73
g59
NtRp5364
(dp5365
g62
(dp5366
sg71
g3930
sg64
(lp5367
g57
(g78
g59
NtRp5368
(dp5369
g62
(dp5370
g82
g83
ssg71
g5364
sg64
(lp5371
S'postprocessing'
p5372
asbag57
(g78
g59
NtRp5373
(dp5374
g62
(dp5375
g89
g90
ssg71
g5364
sg64
(lp5376
S':'
asbag57
(g78
g59
NtRp5377
(dp5378
g62
(dp5379
sg71
g5364
sg64
(lp5380
g57
(g58
g59
NtRp5381
(dp5382
g62
(dp5383
g70
I5
ssg71
g5377
sg64
(lp5384
g57
(g66
g59
NtRp5385
(dp5386
g62
(dp5387
g70
I4
ssg71
Nsg64
(lp5388
sbasbasbasbag57
(g73
g59
NtRp5389
(dp5390
g62
(dp5391
sg71
g3930
sg64
(lp5392
g57
(g78
g59
NtRp5393
(dp5394
g62
(dp5395
g82
g83
ssg71
g5389
sg64
(lp5396
S'session_cookie_expires'
p5397
asbag57
(g78
g59
NtRp5398
(dp5399
g62
(dp5400
g89
g90
ssg71
g5389
sg64
(lp5401
S':'
asbag57
(g78
g59
NtRp5402
(dp5403
g62
(dp5404
sg71
g5389
sg64
(lp5405
g57
(g58
g59
NtRp5406
(dp5407
g62
(dp5408
g70
I5
ssg71
g5402
sg64
(lp5409
S'None'
p5410
asbasbasbag57
(g73
g59
NtRp5411
(dp5412
g62
(dp5413
sg71
g3930
sg64
(lp5414
g57
(g78
g59
NtRp5415
(dp5416
g62
(dp5417
g82
g83
ssg71
g5411
sg64
(lp5418
S'session_data_name'
p5419
asbag57
(g78
g59
NtRp5420
(dp5421
g62
(dp5422
g89
g90
ssg71
g5411
sg64
(lp5423
S':'
asbag57
(g78
g59
NtRp5424
(dp5425
g62
(dp5426
sg71
g5411
sg64
(lp5427
g57
(g58
g59
NtRp5428
(dp5429
g62
(dp5430
g70
I5
ssg71
g5424
sg64
(lp5431
S'session_data_assignment_2'
p5432
asbasbasbag57
(g73
g59
NtRp5433
(dp5434
g62
(dp5435
sg71
g3930
sg64
(lp5436
g57
(g78
g59
NtRp5437
(dp5438
g62
(dp5439
g82
g83
ssg71
g5433
sg64
(lp5440
S'session_file'
p5441
asbag57
(g78
g59
NtRp5442
(dp5443
g62
(dp5444
g89
g90
ssg71
g5433
sg64
(lp5445
S':'
asbag57
(g78
g59
NtRp5446
(dp5447
g62
(dp5448
sg71
g5433
sg64
(lp5449
g57
(g58
g59
NtRp5450
(dp5451
g62
(dp5452
g70
I5
ssg71
g5446
sg64
(lp5453
S"<open file '/home/shipra/Desktop/Semester 1.2/ITWS-2/web2py/applications/Assignment_2/sessions/127.0.0.1-0036fb1c-fa58-480c-915d-54bdd0161dfd', mode 'rb+' at 0x7fbbb80c4660>"
p5454
asbasbasbag57
(g73
g59
NtRp5455
(dp5456
g62
(dp5457
sg71
g3930
sg64
(lp5458
g57
(g78
g59
NtRp5459
(dp5460
g62
(dp5461
g82
g83
ssg71
g5455
sg64
(lp5462
S'session_filename'
p5463
asbag57
(g78
g59
NtRp5464
(dp5465
g62
(dp5466
g89
g90
ssg71
g5455
sg64
(lp5467
S':'
asbag57
(g78
g59
NtRp5468
(dp5469
g62
(dp5470
sg71
g5455
sg64
(lp5471
g57
(g58
g59
NtRp5472
(dp5473
g62
(dp5474
g70
I5
ssg71
g5468
sg64
(lp5475
S'/home/shipra/Desktop/Semester 1.2/ITWS-2/web2py/applications/Assignment_2/sessions/127.0.0.1-0036fb1c-fa58-480c-915d-54bdd0161dfd'
p5476
asbasbasbag57
(g73
g59
NtRp5477
(dp5478
g62
(dp5479
sg71
g3930
sg64
(lp5480
g57
(g78
g59
NtRp5481
(dp5482
g62
(dp5483
g82
g83
ssg71
g5477
sg64
(lp5484
S'session_id'
p5485
asbag57
(g78
g59
NtRp5486
(dp5487
g62
(dp5488
g89
g90
ssg71
g5477
sg64
(lp5489
S':'
asbag57
(g78
g59
NtRp5490
(dp5491
g62
(dp5492
sg71
g5477
sg64
(lp5493
g57
(g58
g59
NtRp5494
(dp5495
g62
(dp5496
g70
I5
ssg71
g5490
sg64
(lp5497
g687
asbasbasbag57
(g73
g59
NtRp5498
(dp5499
g62
(dp5500
sg71
g3930
sg64
(lp5501
g57
(g78
g59
NtRp5502
(dp5503
g62
(dp5504
g82
g83
ssg71
g5498
sg64
(lp5505
S'session_id_name'
p5506
asbag57
(g78
g59
NtRp5507
(dp5508
g62
(dp5509
g89
g90
ssg71
g5498
sg64
(lp5510
S':'
asbag57
(g78
g59
NtRp5511
(dp5512
g62
(dp5513
sg71
g5498
sg64
(lp5514
g57
(g58
g59
NtRp5515
(dp5516
g62
(dp5517
g70
I5
ssg71
g5511
sg64
(lp5518
g3987
asbasbasbag57
(g73
g59
NtRp5519
(dp5520
g62
(dp5521
sg71
g3930
sg64
(lp5522
g57
(g78
g59
NtRp5523
(dp5524
g62
(dp5525
g82
g83
ssg71
g5519
sg64
(lp5526
S'session_locked'
p5527
asbag57
(g78
g59
NtRp5528
(dp5529
g62
(dp5530
g89
g90
ssg71
g5519
sg64
(lp5531
S':'
asbag57
(g78
g59
NtRp5532
(dp5533
g62
(dp5534
sg71
g5519
sg64
(lp5535
g57
(g58
g59
NtRp5536
(dp5537
g62
(dp5538
g70
I5
ssg71
g5532
sg64
(lp5539
g2007
asbasbasbag57
(g73
g59
NtRp5540
(dp5541
g62
(dp5542
sg71
g3930
sg64
(lp5543
g57
(g78
g59
NtRp5544
(dp5545
g62
(dp5546
g82
g83
ssg71
g5540
sg64
(lp5547
S'session_new'
p5548
asbag57
(g78
g59
NtRp5549
(dp5550
g62
(dp5551
g89
g90
ssg71
g5540
sg64
(lp5552
S':'
asbag57
(g78
g59
NtRp5553
(dp5554
g62
(dp5555
sg71
g5540
sg64
(lp5556
g57
(g58
g59
NtRp5557
(dp5558
g62
(dp5559
g70
I5
ssg71
g5553
sg64
(lp5560
g100
asbasbasbag57
(g73
g59
NtRp5561
(dp5562
g62
(dp5563
sg71
g3930
sg64
(lp5564
g57
(g78
g59
NtRp5565
(dp5566
g62
(dp5567
g82
g83
ssg71
g5561
sg64
(lp5568
S'session_storage_type'
p5569
asbag57
(g78
g59
NtRp5570
(dp5571
g62
(dp5572
g89
g90
ssg71
g5561
sg64
(lp5573
S':'
asbag57
(g78
g59
NtRp5574
(dp5575
g62
(dp5576
sg71
g5561
sg64
(lp5577
g57
(g58
g59
NtRp5578
(dp5579
g62
(dp5580
g70
I5
ssg71
g5574
sg64
(lp5581
g3463
asbasbasbag57
(g73
g59
NtRp5582
(dp5583
g62
(dp5584
sg71
g3930
sg64
(lp5585
g57
(g78
g59
NtRp5586
(dp5587
g62
(dp5588
g82
g83
ssg71
g5582
sg64
(lp5589
S'status'
p5590
asbag57
(g78
g59
NtRp5591
(dp5592
g62
(dp5593
g89
g90
ssg71
g5582
sg64
(lp5594
S':'
asbag57
(g78
g59
NtRp5595
(dp5596
g62
(dp5597
sg71
g5582
sg64
(lp5598
g57
(g58
g59
NtRp5599
(dp5600
g62
(dp5601
g70
I5
ssg71
g5595
sg64
(lp5602
S'200'
p5603
asbasbasbag57
(g73
g59
NtRp5604
(dp5605
g62
(dp5606
sg71
g3930
sg64
(lp5607
g57
(g78
g59
NtRp5608
(dp5609
g62
(dp5610
g82
g83
ssg71
g5604
sg64
(lp5611
S'subtitle'
p5612
asbag57
(g78
g59
NtRp5613
(dp5614
g62
(dp5615
g89
g90
ssg71
g5604
sg64
(lp5616
S':'
asbag57
(g78
g59
NtRp5617
(dp5618
g62
(dp5619
sg71
g5604
sg64
(lp5620
g57
(g58
g59
NtRp5621
(dp5622
g62
(dp5623
g70
I5
ssg71
g5617
sg64
(lp5624
g4568
(S's\r\x00\x00\x00customize me!'
tRp5625
asbasbasbag57
(g73
g59
NtRp5626
(dp5627
g62
(dp5628
sg71
g3930
sg64
(lp5629
g57
(g78
g59
NtRp5630
(dp5631
g62
(dp5632
g82
g83
ssg71
g5626
sg64
(lp5633
S'title'
p5634
asbag57
(g78
g59
NtRp5635
(dp5636
g62
(dp5637
g89
g90
ssg71
g5626
sg64
(lp5638
S':'
asbag57
(g78
g59
NtRp5639
(dp5640
g62
(dp5641
sg71
g5626
sg64
(lp5642
g57
(g58
g59
NtRp5643
(dp5644
g62
(dp5645
g70
I5
ssg71
g5639
sg64
(lp5646
S'Assignment 2'
p5647
asbasbasbag57
(g73
g59
NtRp5648
(dp5649
g62
(dp5650
sg71
g3930
sg64
(lp5651
g57
(g78
g59
NtRp5652
(dp5653
g62
(dp5654
g82
g83
ssg71
g5648
sg64
(lp5655
S'view'
p5656
asbag57
(g78
g59
NtRp5657
(dp5658
g62
(dp5659
g89
g90
ssg71
g5648
sg64
(lp5660
S':'
asbag57
(g78
g59
NtRp5661
(dp5662
g62
(dp5663
sg71
g5648
sg64
(lp5664
g57
(g58
g59
NtRp5665
(dp5666
g62
(dp5667
g70
I5
ssg71
g5661
sg64
(lp5668
S'default/comm_post.html'
p5669
asbasbasbasbasbsS'locals'
p5670
(dp5671
S'self'
p5672
S"<Row {'comm': 'Haww!'}>"
p5673
sS'm'
S'None'
p5674
sS'key'
p5675
S"'cdate'"
p5676
sssS'traceback'
p5677
S'Traceback (most recent call last):\n  File "/home/shipra/Desktop/Semester 1.2/ITWS-2/web2py/gluon/restricted.py", line 212, in restricted\n    exec ccode in environment\n  File "/home/shipra/Desktop/Semester 1.2/ITWS-2/web2py/applications/Assignment_2/views/default/comm_post.html", line 70, in <module>\n  File "/home/shipra/Desktop/Semester 1.2/ITWS-2/web2py/gluon/dal.py", line 6448, in __getitem__\n    return ogetattr(self, key)\nAttributeError: \'Row\' object has no attribute \'cdate\'\n'
p5678
s.