(dp1
S'output'
p2
S'<type \'exceptions.SyntaxError\'> invalid table/column name "Like" is a "ALL" reserved SQL keyword'
p3
sS'layer'
p4
S'/home/shipra/Desktop/Semester 1.2/ITWS-2/web2py/applications/Assignment_2/models/db.py'
p5
sS'code'
p6
S"# -*- coding: utf-8 -*-\n\n#########################################################################\n## This scaffolding model makes your app work on Google App Engine too\n## File is released under public domain and you can use without limitations\n#########################################################################\n\n## if SSL/HTTPS is properly configured and you want all HTTP requests to\n## be redirected to HTTPS, uncomment the line below:\n# request.requires_https()\n\nif not request.env.web2py_runtime_gae:\n    ## if NOT running on Google App Engine use SQLite or other DB\n    db = DAL('sqlite://storage.sqlite',pool_size=1,check_reserved=['all'])\nelse:\n    ## connect to Google BigTable (optional 'google:datastore://namespace')\n    db = DAL('google:datastore')\n    ## store sessions and tickets there\n    session.connect(request, response, db=db)\n    ## or store session in Memcache, Redis, etc.\n    ## from gluon.contrib.memdb import MEMDB\n    ## from google.appengine.api.memcache import Client\n    ## session.connect(request, response, db = MEMDB(Client()))\n\n## by default give a view/generic.extension to all actions from localhost\n## none otherwise. a pattern can be 'controller/function.extension'\nresponse.generic_patterns = ['*'] if request.is_local else []\n## (optional) optimize handling of static files\n# response.optimize_css = 'concat,minify,inline'\n# response.optimize_js = 'concat,minify,inline'\n\n#########################################################################\n## Here is sample code if you need for\n## - email capabilities\n## - authentication (registration, login, logout, ... )\n## - authorization (role based authorization)\n## - services (xml, csv, json, xmlrpc, jsonrpc, amf, rss)\n## - old style crud actions\n## (more options discussed in gluon/tools.py)\n#########################################################################\n\nfrom gluon.tools import Auth, Crud, Service, PluginManager, prettydate\nauth = Auth(db)\ncrud, service, plugins = Crud(db), Service(), PluginManager()\n\n## create all tables needed by auth if not custom tables\nauth.define_tables(username=True, signature=False)\n\n## configure email\nmail = auth.settings.mailer\nmail.settings.server = 'logging' or 'smtp.gmail.com:587'\nmail.settings.sender = 'you@gmail.com'\nmail.settings.login = 'username:password'\n\n## configure auth policy\nauth.settings.registration_requires_verification = False\nauth.settings.registration_requires_approval = False\nauth.settings.reset_password_requires_verification = True\n\n## if you need to use OpenID, Facebook, MySpace, Twitter, Linkedin, etc.\n## register with janrain.com, write your domain:api_key in private/janrain.key\nfrom gluon.contrib.login_methods.rpx_account import use_janrain\nuse_janrain(auth, filename='private/janrain.key')\n\n#########################################################################\n## Define your tables below (or better in another model file) for example\n##\n## >>> db.define_table('mytable',Field('myfield','string'))\n##\n## Fields can be 'string','text','password','integer','double','boolean'\n##       'date','time','datetime','blob','upload', 'reference TABLENAME'\n## There is an implicit 'id integer autoincrement' field\n## Consult manual for more options, validators, etc.\n##\n## More API examples for controllers:\n##\n## >>> db.mytable.insert(myfield='value')\n## >>> rows=db(db.mytable.myfield=='value').select(db.mytable.ALL)\n## >>> for row in rows: print row.id, row.myfield\n#########################################################################\n\n## after defining tables, uncomment below to enable auditing\n# auth.enable_record_versioning(db)\n\ndb.define_table('Post',\n\tdb.Field('Category','string'),\n\tdb.Field('Heading','string'),\n\tdb.Field('URL','string',requires=IS_URL()),\n\tdb.Field('ranking','integer'),\n\tdb.Field('userid','integer'))\n\ndb.define_table('Category',\n\tdb.Field('Cname','string'))\n\ndb.define_table('Like',\n\tdb.Field('userid','integer'),\n\tdb.Field('postid','integer'))\n\ndb.define_table('Dislike',\n\tdb.Field('userid','integer'),\n\tdb.Field('postid','integer'))\n"
p7
sS'snapshot'
p8
(dp9
S'exception'
p10
(dp11
S'__getslice__'
p12
S"<method-wrapper '__getslice__' of exceptions.SyntaxError object>"
p13
sS'text'
p14
S'None'
p15
sS'__str__'
p16
S"<method-wrapper '__str__' of exceptions.SyntaxError object>"
p17
sS'__reduce__'
p18
S'<built-in method __reduce__ of exceptions.SyntaxError object>'
p19
sS'__dict__'
p20
S'{}'
p21
sS'__sizeof__'
p22
S'<built-in method __sizeof__ of exceptions.SyntaxError object>'
p23
sS'__init__'
p24
S"<method-wrapper '__init__' of exceptions.SyntaxError object>"
p25
sS'__setattr__'
p26
S"<method-wrapper '__setattr__' of exceptions.SyntaxError object>"
p27
sS'__reduce_ex__'
p28
S'<built-in method __reduce_ex__ of exceptions.SyntaxError object>'
p29
sS'__new__'
p30
S'<built-in method __new__ of type object>'
p31
sS'__format__'
p32
S'<built-in method __format__ of exceptions.SyntaxError object>'
p33
sS'__class__'
p34
S"<type 'exceptions.SyntaxError'>"
p35
sS'filename'
p36
S'None'
p37
sS'lineno'
p38
S'None'
p39
sS'msg'
p40
S'\'invalid table/column name "Like" is a "ALL" reserved SQL keyword\''
p41
sS'__doc__'
p42
S"'Invalid syntax.'"
p43
sS'__getitem__'
p44
S"<method-wrapper '__getitem__' of exceptions.SyntaxError object>"
p45
sS'__setstate__'
p46
S'<built-in method __setstate__ of exceptions.SyntaxError object>'
p47
sS'__getattribute__'
p48
S"<method-wrapper '__getattribute__' of exceptions.SyntaxError object>"
p49
sS'print_file_and_line'
p50
S'None'
p51
sS'args'
p52
S'(\'invalid table/column name "Like" is a "ALL" reserved SQL keyword\',)'
p53
sS'__subclasshook__'
p54
S'<built-in method __subclasshook__ of type object>'
p55
sS'offset'
p56
S'None'
p57
sS'__unicode__'
p58
S'<built-in method __unicode__ of exceptions.SyntaxError object>'
p59
sS'__delattr__'
p60
S"<method-wrapper '__delattr__' of exceptions.SyntaxError object>"
p61
sS'__repr__'
p62
S"<method-wrapper '__repr__' of exceptions.SyntaxError object>"
p63
sS'__hash__'
p64
S"<method-wrapper '__hash__' of exceptions.SyntaxError object>"
p65
ssS'evalue'
p66
S'invalid table/column name "Like" is a "ALL" reserved SQL keyword'
p67
sS'request'
p68
ccopy_reg
_reconstructor
p69
(cgluon.html
BEAUTIFY
p70
c__builtin__
object
p71
NtRp72
(dp73
S'attributes'
p74
(dp75
sS'components'
p76
(lp77
g69
(cgluon.html
TABLE
p78
g71
NtRp79
(dp80
g74
(dp81
S'level'
p82
I5
ssS'parent'
p83
Nsg76
(lp84
g69
(cgluon.html
TR
p85
g71
NtRp86
(dp87
g74
(dp88
sg83
g79
sg76
(lp89
g69
(cgluon.html
TD
p90
g71
NtRp91
(dp92
g74
(dp93
S'_style'
p94
S'font-weight:bold;vertical-align:top'
p95
ssg83
g86
sg76
(lp96
S'ajax'
p97
asbag69
(g90
g71
NtRp98
(dp99
g74
(dp100
S'_valign'
p101
S'top'
p102
ssg83
g86
sg76
(lp103
S':'
asbag69
(g90
g71
NtRp104
(dp105
g74
(dp106
sg83
g86
sg76
(lp107
g69
(g70
g71
NtRp108
(dp109
g74
(dp110
g82
I5
ssg83
g104
sg76
(lp111
S'False'
p112
asbasbasbag69
(g85
g71
NtRp113
(dp114
g74
(dp115
sg83
g79
sg76
(lp116
g69
(g90
g71
NtRp117
(dp118
g74
(dp119
g94
g95
ssg83
g113
sg76
(lp120
S'application'
p121
asbag69
(g90
g71
NtRp122
(dp123
g74
(dp124
g101
g102
ssg83
g113
sg76
(lp125
S':'
asbag69
(g90
g71
NtRp126
(dp127
g74
(dp128
sg83
g113
sg76
(lp129
g69
(g70
g71
NtRp130
(dp131
g74
(dp132
g82
I5
ssg83
g126
sg76
(lp133
S'Assignment_2'
p134
asbasbasbag69
(g85
g71
NtRp135
(dp136
g74
(dp137
sg83
g79
sg76
(lp138
g69
(g90
g71
NtRp139
(dp140
g74
(dp141
g94
g95
ssg83
g135
sg76
(lp142
g52
asbag69
(g90
g71
NtRp143
(dp144
g74
(dp145
g101
g102
ssg83
g135
sg76
(lp146
S':'
asbag69
(g90
g71
NtRp147
(dp148
g74
(dp149
sg83
g135
sg76
(lp150
g69
(g70
g71
NtRp151
(dp152
g74
(dp153
g82
I5
ssg83
g147
sg76
(lp154
g69
(g78
g71
NtRp155
(dp156
g74
(dp157
g82
I4
ssg83
Nsg76
(lp158
g69
(g85
g71
NtRp159
(dp160
g74
(dp161
sg83
g155
sg76
(lp162
g69
(g90
g71
NtRp163
(dp164
g74
(dp165
sg83
g159
sg76
(lp166
g69
(g70
g71
NtRp167
(dp168
g74
(dp169
g82
I4
ssg83
g163
sg76
(lp170
S'World'
p171
asbasbasbasbasbasbasbag69
(g85
g71
NtRp172
(dp173
g74
(dp174
sg83
g79
sg76
(lp175
g69
(g90
g71
NtRp176
(dp177
g74
(dp178
g94
g95
ssg83
g172
sg76
(lp179
S'body'
p180
asbag69
(g90
g71
NtRp181
(dp182
g74
(dp183
g101
g102
ssg83
g172
sg76
(lp184
S':'
asbag69
(g90
g71
NtRp185
(dp186
g74
(dp187
sg83
g172
sg76
(lp188
g69
(g70
g71
NtRp189
(dp190
g74
(dp191
g82
I5
ssg83
g185
sg76
(lp192
S'<cStringIO.StringO object at 0x7f8f7414a0d8>'
p193
asbasbasbag69
(g85
g71
NtRp194
(dp195
g74
(dp196
sg83
g79
sg76
(lp197
g69
(g90
g71
NtRp198
(dp199
g74
(dp200
g94
g95
ssg83
g194
sg76
(lp201
S'cid'
p202
asbag69
(g90
g71
NtRp203
(dp204
g74
(dp205
g101
g102
ssg83
g194
sg76
(lp206
S':'
asbag69
(g90
g71
NtRp207
(dp208
g74
(dp209
sg83
g194
sg76
(lp210
g69
(g70
g71
NtRp211
(dp212
g74
(dp213
g82
I5
ssg83
g207
sg76
(lp214
S'None'
p215
asbasbasbag69
(g85
g71
NtRp216
(dp217
g74
(dp218
sg83
g79
sg76
(lp219
g69
(g90
g71
NtRp220
(dp221
g74
(dp222
g94
g95
ssg83
g216
sg76
(lp223
S'client'
p224
asbag69
(g90
g71
NtRp225
(dp226
g74
(dp227
g101
g102
ssg83
g216
sg76
(lp228
S':'
asbag69
(g90
g71
NtRp229
(dp230
g74
(dp231
sg83
g216
sg76
(lp232
g69
(g70
g71
NtRp233
(dp234
g74
(dp235
g82
I5
ssg83
g229
sg76
(lp236
S'127.0.0.1'
p237
asbasbasbag69
(g85
g71
NtRp238
(dp239
g74
(dp240
sg83
g79
sg76
(lp241
g69
(g90
g71
NtRp242
(dp243
g74
(dp244
g94
g95
ssg83
g238
sg76
(lp245
S'controller'
p246
asbag69
(g90
g71
NtRp247
(dp248
g74
(dp249
g101
g102
ssg83
g238
sg76
(lp250
S':'
asbag69
(g90
g71
NtRp251
(dp252
g74
(dp253
sg83
g238
sg76
(lp254
g69
(g70
g71
NtRp255
(dp256
g74
(dp257
g82
I5
ssg83
g251
sg76
(lp258
S'default'
p259
asbasbasbag69
(g85
g71
NtRp260
(dp261
g74
(dp262
sg83
g79
sg76
(lp263
g69
(g90
g71
NtRp264
(dp265
g74
(dp266
g94
g95
ssg83
g260
sg76
(lp267
S'cookies'
p268
asbag69
(g90
g71
NtRp269
(dp270
g74
(dp271
g101
g102
ssg83
g260
sg76
(lp272
S':'
asbag69
(g90
g71
NtRp273
(dp274
g74
(dp275
sg83
g260
sg76
(lp276
g69
(g70
g71
NtRp277
(dp278
g74
(dp279
g82
I5
ssg83
g273
sg76
(lp280
g69
(g78
g71
NtRp281
(dp282
g74
(dp283
g82
I4
ssg83
Nsg76
(lp284
g69
(g85
g71
NtRp285
(dp286
g74
(dp287
sg83
g281
sg76
(lp288
g69
(g90
g71
NtRp289
(dp290
g74
(dp291
g94
g95
ssg83
g285
sg76
(lp292
S'mp_2093ad9ff9c5428a2228386de2f2b0e4_mixpanel'
p293
asbag69
(g90
g71
NtRp294
(dp295
g74
(dp296
g101
g102
ssg83
g285
sg76
(lp297
S':'
asbag69
(g90
g71
NtRp298
(dp299
g74
(dp300
sg83
g285
sg76
(lp301
g69
(g70
g71
NtRp302
(dp303
g74
(dp304
g82
I4
ssg83
g298
sg76
(lp305
S'%7B%22distinct_id%22%3A%20%2262ffc2d0-7b9f-0130-efb0-22000a1cbb2a%22%2C%22is_registered_user%22%3A%20false%2C%22%24initial_referrer%22%3A%20%22%24direct%22%2C%22%24initial_referring_domain%22%3A%20%22%24direct%22%7D'
p306
ag69
(g78
g71
NtRp307
(dp308
g74
(dp309
g82
I3
ssg83
Nsg76
(lp310
g69
(g85
g71
NtRp311
(dp312
g74
(dp313
sg83
g307
sg76
(lp314
g69
(g90
g71
NtRp315
(dp316
g74
(dp317
g94
g95
ssg83
g311
sg76
(lp318
S'comment'
p319
asbag69
(g90
g71
NtRp320
(dp321
g74
(dp322
g101
g102
ssg83
g311
sg76
(lp323
S':'
asbag69
(g90
g71
NtRp324
(dp325
g74
(dp326
sg83
g311
sg76
(lp327
g69
(g70
g71
NtRp328
(dp329
g74
(dp330
g82
I3
ssg83
g324
sg76
(lp331
S''
asbasbasbag69
(g85
g71
NtRp332
(dp333
g74
(dp334
sg83
g307
sg76
(lp335
g69
(g90
g71
NtRp336
(dp337
g74
(dp338
g94
g95
ssg83
g332
sg76
(lp339
S'domain'
p340
asbag69
(g90
g71
NtRp341
(dp342
g74
(dp343
g101
g102
ssg83
g332
sg76
(lp344
S':'
asbag69
(g90
g71
NtRp345
(dp346
g74
(dp347
sg83
g332
sg76
(lp348
g69
(g70
g71
NtRp349
(dp350
g74
(dp351
g82
I3
ssg83
g345
sg76
(lp352
S''
asbasbasbag69
(g85
g71
NtRp353
(dp354
g74
(dp355
sg83
g307
sg76
(lp356
g69
(g90
g71
NtRp357
(dp358
g74
(dp359
g94
g95
ssg83
g353
sg76
(lp360
S'expires'
p361
asbag69
(g90
g71
NtRp362
(dp363
g74
(dp364
g101
g102
ssg83
g353
sg76
(lp365
S':'
asbag69
(g90
g71
NtRp366
(dp367
g74
(dp368
sg83
g353
sg76
(lp369
g69
(g70
g71
NtRp370
(dp371
g74
(dp372
g82
I3
ssg83
g366
sg76
(lp373
S''
asbasbasbag69
(g85
g71
NtRp374
(dp375
g74
(dp376
sg83
g307
sg76
(lp377
g69
(g90
g71
NtRp378
(dp379
g74
(dp380
g94
g95
ssg83
g374
sg76
(lp381
S'httponly'
p382
asbag69
(g90
g71
NtRp383
(dp384
g74
(dp385
g101
g102
ssg83
g374
sg76
(lp386
S':'
asbag69
(g90
g71
NtRp387
(dp388
g74
(dp389
sg83
g374
sg76
(lp390
g69
(g70
g71
NtRp391
(dp392
g74
(dp393
g82
I3
ssg83
g387
sg76
(lp394
S''
asbasbasbag69
(g85
g71
NtRp395
(dp396
g74
(dp397
sg83
g307
sg76
(lp398
g69
(g90
g71
NtRp399
(dp400
g74
(dp401
g94
g95
ssg83
g395
sg76
(lp402
S'max-age'
p403
asbag69
(g90
g71
NtRp404
(dp405
g74
(dp406
g101
g102
ssg83
g395
sg76
(lp407
S':'
asbag69
(g90
g71
NtRp408
(dp409
g74
(dp410
sg83
g395
sg76
(lp411
g69
(g70
g71
NtRp412
(dp413
g74
(dp414
g82
I3
ssg83
g408
sg76
(lp415
S''
asbasbasbag69
(g85
g71
NtRp416
(dp417
g74
(dp418
sg83
g307
sg76
(lp419
g69
(g90
g71
NtRp420
(dp421
g74
(dp422
g94
g95
ssg83
g416
sg76
(lp423
S'path'
p424
asbag69
(g90
g71
NtRp425
(dp426
g74
(dp427
g101
g102
ssg83
g416
sg76
(lp428
S':'
asbag69
(g90
g71
NtRp429
(dp430
g74
(dp431
sg83
g416
sg76
(lp432
g69
(g70
g71
NtRp433
(dp434
g74
(dp435
g82
I3
ssg83
g429
sg76
(lp436
S''
asbasbasbag69
(g85
g71
NtRp437
(dp438
g74
(dp439
sg83
g307
sg76
(lp440
g69
(g90
g71
NtRp441
(dp442
g74
(dp443
g94
g95
ssg83
g437
sg76
(lp444
S'secure'
p445
asbag69
(g90
g71
NtRp446
(dp447
g74
(dp448
g101
g102
ssg83
g437
sg76
(lp449
S':'
asbag69
(g90
g71
NtRp450
(dp451
g74
(dp452
sg83
g437
sg76
(lp453
g69
(g70
g71
NtRp454
(dp455
g74
(dp456
g82
I3
ssg83
g450
sg76
(lp457
S''
asbasbasbag69
(g85
g71
NtRp458
(dp459
g74
(dp460
sg83
g307
sg76
(lp461
g69
(g90
g71
NtRp462
(dp463
g74
(dp464
g94
g95
ssg83
g458
sg76
(lp465
S'version'
p466
asbag69
(g90
g71
NtRp467
(dp468
g74
(dp469
g101
g102
ssg83
g458
sg76
(lp470
S':'
asbag69
(g90
g71
NtRp471
(dp472
g74
(dp473
sg83
g458
sg76
(lp474
g69
(g70
g71
NtRp475
(dp476
g74
(dp477
g82
I3
ssg83
g471
sg76
(lp478
S''
asbasbasbasbasbasbasbag69
(g85
g71
NtRp479
(dp480
g74
(dp481
sg83
g281
sg76
(lp482
g69
(g90
g71
NtRp483
(dp484
g74
(dp485
g94
g95
ssg83
g479
sg76
(lp486
S'session_id_admin'
p487
asbag69
(g90
g71
NtRp488
(dp489
g74
(dp490
g101
g102
ssg83
g479
sg76
(lp491
S':'
asbag69
(g90
g71
NtRp492
(dp493
g74
(dp494
sg83
g479
sg76
(lp495
g69
(g70
g71
NtRp496
(dp497
g74
(dp498
g82
I4
ssg83
g492
sg76
(lp499
S'127.0.0.1-b5c7744b-6ba7-465d-9f13-0b1a277ff628'
p500
ag69
(g78
g71
NtRp501
(dp502
g74
(dp503
g82
I3
ssg83
Nsg76
(lp504
g69
(g85
g71
NtRp505
(dp506
g74
(dp507
sg83
g501
sg76
(lp508
g69
(g90
g71
NtRp509
(dp510
g74
(dp511
g94
g95
ssg83
g505
sg76
(lp512
g319
asbag69
(g90
g71
NtRp513
(dp514
g74
(dp515
g101
g102
ssg83
g505
sg76
(lp516
S':'
asbag69
(g90
g71
NtRp517
(dp518
g74
(dp519
sg83
g505
sg76
(lp520
g69
(g70
g71
NtRp521
(dp522
g74
(dp523
g82
I3
ssg83
g517
sg76
(lp524
S''
asbasbasbag69
(g85
g71
NtRp525
(dp526
g74
(dp527
sg83
g501
sg76
(lp528
g69
(g90
g71
NtRp529
(dp530
g74
(dp531
g94
g95
ssg83
g525
sg76
(lp532
g340
asbag69
(g90
g71
NtRp533
(dp534
g74
(dp535
g101
g102
ssg83
g525
sg76
(lp536
S':'
asbag69
(g90
g71
NtRp537
(dp538
g74
(dp539
sg83
g525
sg76
(lp540
g69
(g70
g71
NtRp541
(dp542
g74
(dp543
g82
I3
ssg83
g537
sg76
(lp544
S''
asbasbasbag69
(g85
g71
NtRp545
(dp546
g74
(dp547
sg83
g501
sg76
(lp548
g69
(g90
g71
NtRp549
(dp550
g74
(dp551
g94
g95
ssg83
g545
sg76
(lp552
g361
asbag69
(g90
g71
NtRp553
(dp554
g74
(dp555
g101
g102
ssg83
g545
sg76
(lp556
S':'
asbag69
(g90
g71
NtRp557
(dp558
g74
(dp559
sg83
g545
sg76
(lp560
g69
(g70
g71
NtRp561
(dp562
g74
(dp563
g82
I3
ssg83
g557
sg76
(lp564
S''
asbasbasbag69
(g85
g71
NtRp565
(dp566
g74
(dp567
sg83
g501
sg76
(lp568
g69
(g90
g71
NtRp569
(dp570
g74
(dp571
g94
g95
ssg83
g565
sg76
(lp572
g382
asbag69
(g90
g71
NtRp573
(dp574
g74
(dp575
g101
g102
ssg83
g565
sg76
(lp576
S':'
asbag69
(g90
g71
NtRp577
(dp578
g74
(dp579
sg83
g565
sg76
(lp580
g69
(g70
g71
NtRp581
(dp582
g74
(dp583
g82
I3
ssg83
g577
sg76
(lp584
S''
asbasbasbag69
(g85
g71
NtRp585
(dp586
g74
(dp587
sg83
g501
sg76
(lp588
g69
(g90
g71
NtRp589
(dp590
g74
(dp591
g94
g95
ssg83
g585
sg76
(lp592
g403
asbag69
(g90
g71
NtRp593
(dp594
g74
(dp595
g101
g102
ssg83
g585
sg76
(lp596
S':'
asbag69
(g90
g71
NtRp597
(dp598
g74
(dp599
sg83
g585
sg76
(lp600
g69
(g70
g71
NtRp601
(dp602
g74
(dp603
g82
I3
ssg83
g597
sg76
(lp604
S''
asbasbasbag69
(g85
g71
NtRp605
(dp606
g74
(dp607
sg83
g501
sg76
(lp608
g69
(g90
g71
NtRp609
(dp610
g74
(dp611
g94
g95
ssg83
g605
sg76
(lp612
g424
asbag69
(g90
g71
NtRp613
(dp614
g74
(dp615
g101
g102
ssg83
g605
sg76
(lp616
S':'
asbag69
(g90
g71
NtRp617
(dp618
g74
(dp619
sg83
g605
sg76
(lp620
g69
(g70
g71
NtRp621
(dp622
g74
(dp623
g82
I3
ssg83
g617
sg76
(lp624
S''
asbasbasbag69
(g85
g71
NtRp625
(dp626
g74
(dp627
sg83
g501
sg76
(lp628
g69
(g90
g71
NtRp629
(dp630
g74
(dp631
g94
g95
ssg83
g625
sg76
(lp632
g445
asbag69
(g90
g71
NtRp633
(dp634
g74
(dp635
g101
g102
ssg83
g625
sg76
(lp636
S':'
asbag69
(g90
g71
NtRp637
(dp638
g74
(dp639
sg83
g625
sg76
(lp640
g69
(g70
g71
NtRp641
(dp642
g74
(dp643
g82
I3
ssg83
g637
sg76
(lp644
S''
asbasbasbag69
(g85
g71
NtRp645
(dp646
g74
(dp647
sg83
g501
sg76
(lp648
g69
(g90
g71
NtRp649
(dp650
g74
(dp651
g94
g95
ssg83
g645
sg76
(lp652
g466
asbag69
(g90
g71
NtRp653
(dp654
g74
(dp655
g101
g102
ssg83
g645
sg76
(lp656
S':'
asbag69
(g90
g71
NtRp657
(dp658
g74
(dp659
sg83
g645
sg76
(lp660
g69
(g70
g71
NtRp661
(dp662
g74
(dp663
g82
I3
ssg83
g657
sg76
(lp664
S''
asbasbasbasbasbasbasbag69
(g85
g71
NtRp665
(dp666
g74
(dp667
sg83
g281
sg76
(lp668
g69
(g90
g71
NtRp669
(dp670
g74
(dp671
g94
g95
ssg83
g665
sg76
(lp672
S'session_id_assignment_2'
p673
asbag69
(g90
g71
NtRp674
(dp675
g74
(dp676
g101
g102
ssg83
g665
sg76
(lp677
S':'
asbag69
(g90
g71
NtRp678
(dp679
g74
(dp680
sg83
g665
sg76
(lp681
g69
(g70
g71
NtRp682
(dp683
g74
(dp684
g82
I4
ssg83
g678
sg76
(lp685
S'127.0.0.1-c3bf420d-fab5-418a-a226-75e7c25cbfd0'
p686
ag69
(g78
g71
NtRp687
(dp688
g74
(dp689
g82
I3
ssg83
Nsg76
(lp690
g69
(g85
g71
NtRp691
(dp692
g74
(dp693
sg83
g687
sg76
(lp694
g69
(g90
g71
NtRp695
(dp696
g74
(dp697
g94
g95
ssg83
g691
sg76
(lp698
g319
asbag69
(g90
g71
NtRp699
(dp700
g74
(dp701
g101
g102
ssg83
g691
sg76
(lp702
S':'
asbag69
(g90
g71
NtRp703
(dp704
g74
(dp705
sg83
g691
sg76
(lp706
g69
(g70
g71
NtRp707
(dp708
g74
(dp709
g82
I3
ssg83
g703
sg76
(lp710
S''
asbasbasbag69
(g85
g71
NtRp711
(dp712
g74
(dp713
sg83
g687
sg76
(lp714
g69
(g90
g71
NtRp715
(dp716
g74
(dp717
g94
g95
ssg83
g711
sg76
(lp718
g340
asbag69
(g90
g71
NtRp719
(dp720
g74
(dp721
g101
g102
ssg83
g711
sg76
(lp722
S':'
asbag69
(g90
g71
NtRp723
(dp724
g74
(dp725
sg83
g711
sg76
(lp726
g69
(g70
g71
NtRp727
(dp728
g74
(dp729
g82
I3
ssg83
g723
sg76
(lp730
S''
asbasbasbag69
(g85
g71
NtRp731
(dp732
g74
(dp733
sg83
g687
sg76
(lp734
g69
(g90
g71
NtRp735
(dp736
g74
(dp737
g94
g95
ssg83
g731
sg76
(lp738
g361
asbag69
(g90
g71
NtRp739
(dp740
g74
(dp741
g101
g102
ssg83
g731
sg76
(lp742
S':'
asbag69
(g90
g71
NtRp743
(dp744
g74
(dp745
sg83
g731
sg76
(lp746
g69
(g70
g71
NtRp747
(dp748
g74
(dp749
g82
I3
ssg83
g743
sg76
(lp750
S''
asbasbasbag69
(g85
g71
NtRp751
(dp752
g74
(dp753
sg83
g687
sg76
(lp754
g69
(g90
g71
NtRp755
(dp756
g74
(dp757
g94
g95
ssg83
g751
sg76
(lp758
g382
asbag69
(g90
g71
NtRp759
(dp760
g74
(dp761
g101
g102
ssg83
g751
sg76
(lp762
S':'
asbag69
(g90
g71
NtRp763
(dp764
g74
(dp765
sg83
g751
sg76
(lp766
g69
(g70
g71
NtRp767
(dp768
g74
(dp769
g82
I3
ssg83
g763
sg76
(lp770
S''
asbasbasbag69
(g85
g71
NtRp771
(dp772
g74
(dp773
sg83
g687
sg76
(lp774
g69
(g90
g71
NtRp775
(dp776
g74
(dp777
g94
g95
ssg83
g771
sg76
(lp778
g403
asbag69
(g90
g71
NtRp779
(dp780
g74
(dp781
g101
g102
ssg83
g771
sg76
(lp782
S':'
asbag69
(g90
g71
NtRp783
(dp784
g74
(dp785
sg83
g771
sg76
(lp786
g69
(g70
g71
NtRp787
(dp788
g74
(dp789
g82
I3
ssg83
g783
sg76
(lp790
S''
asbasbasbag69
(g85
g71
NtRp791
(dp792
g74
(dp793
sg83
g687
sg76
(lp794
g69
(g90
g71
NtRp795
(dp796
g74
(dp797
g94
g95
ssg83
g791
sg76
(lp798
g424
asbag69
(g90
g71
NtRp799
(dp800
g74
(dp801
g101
g102
ssg83
g791
sg76
(lp802
S':'
asbag69
(g90
g71
NtRp803
(dp804
g74
(dp805
sg83
g791
sg76
(lp806
g69
(g70
g71
NtRp807
(dp808
g74
(dp809
g82
I3
ssg83
g803
sg76
(lp810
S''
asbasbasbag69
(g85
g71
NtRp811
(dp812
g74
(dp813
sg83
g687
sg76
(lp814
g69
(g90
g71
NtRp815
(dp816
g74
(dp817
g94
g95
ssg83
g811
sg76
(lp818
g445
asbag69
(g90
g71
NtRp819
(dp820
g74
(dp821
g101
g102
ssg83
g811
sg76
(lp822
S':'
asbag69
(g90
g71
NtRp823
(dp824
g74
(dp825
sg83
g811
sg76
(lp826
g69
(g70
g71
NtRp827
(dp828
g74
(dp829
g82
I3
ssg83
g823
sg76
(lp830
S''
asbasbasbag69
(g85
g71
NtRp831
(dp832
g74
(dp833
sg83
g687
sg76
(lp834
g69
(g90
g71
NtRp835
(dp836
g74
(dp837
g94
g95
ssg83
g831
sg76
(lp838
g466
asbag69
(g90
g71
NtRp839
(dp840
g74
(dp841
g101
g102
ssg83
g831
sg76
(lp842
S':'
asbag69
(g90
g71
NtRp843
(dp844
g74
(dp845
sg83
g831
sg76
(lp846
g69
(g70
g71
NtRp847
(dp848
g74
(dp849
g82
I3
ssg83
g843
sg76
(lp850
S''
asbasbasbasbasbasbasbag69
(g85
g71
NtRp851
(dp852
g74
(dp853
sg83
g281
sg76
(lp854
g69
(g90
g71
NtRp855
(dp856
g74
(dp857
g94
g95
ssg83
g851
sg76
(lp858
S'session_id_welcome'
p859
asbag69
(g90
g71
NtRp860
(dp861
g74
(dp862
g101
g102
ssg83
g851
sg76
(lp863
S':'
asbag69
(g90
g71
NtRp864
(dp865
g74
(dp866
sg83
g851
sg76
(lp867
g69
(g70
g71
NtRp868
(dp869
g74
(dp870
g82
I4
ssg83
g864
sg76
(lp871
S'127.0.0.1-3dabeaf3-f7c2-4466-8cef-6b7f69fa0a1e'
p872
ag69
(g78
g71
NtRp873
(dp874
g74
(dp875
g82
I3
ssg83
Nsg76
(lp876
g69
(g85
g71
NtRp877
(dp878
g74
(dp879
sg83
g873
sg76
(lp880
g69
(g90
g71
NtRp881
(dp882
g74
(dp883
g94
g95
ssg83
g877
sg76
(lp884
g319
asbag69
(g90
g71
NtRp885
(dp886
g74
(dp887
g101
g102
ssg83
g877
sg76
(lp888
S':'
asbag69
(g90
g71
NtRp889
(dp890
g74
(dp891
sg83
g877
sg76
(lp892
g69
(g70
g71
NtRp893
(dp894
g74
(dp895
g82
I3
ssg83
g889
sg76
(lp896
S''
asbasbasbag69
(g85
g71
NtRp897
(dp898
g74
(dp899
sg83
g873
sg76
(lp900
g69
(g90
g71
NtRp901
(dp902
g74
(dp903
g94
g95
ssg83
g897
sg76
(lp904
g340
asbag69
(g90
g71
NtRp905
(dp906
g74
(dp907
g101
g102
ssg83
g897
sg76
(lp908
S':'
asbag69
(g90
g71
NtRp909
(dp910
g74
(dp911
sg83
g897
sg76
(lp912
g69
(g70
g71
NtRp913
(dp914
g74
(dp915
g82
I3
ssg83
g909
sg76
(lp916
S''
asbasbasbag69
(g85
g71
NtRp917
(dp918
g74
(dp919
sg83
g873
sg76
(lp920
g69
(g90
g71
NtRp921
(dp922
g74
(dp923
g94
g95
ssg83
g917
sg76
(lp924
g361
asbag69
(g90
g71
NtRp925
(dp926
g74
(dp927
g101
g102
ssg83
g917
sg76
(lp928
S':'
asbag69
(g90
g71
NtRp929
(dp930
g74
(dp931
sg83
g917
sg76
(lp932
g69
(g70
g71
NtRp933
(dp934
g74
(dp935
g82
I3
ssg83
g929
sg76
(lp936
S''
asbasbasbag69
(g85
g71
NtRp937
(dp938
g74
(dp939
sg83
g873
sg76
(lp940
g69
(g90
g71
NtRp941
(dp942
g74
(dp943
g94
g95
ssg83
g937
sg76
(lp944
g382
asbag69
(g90
g71
NtRp945
(dp946
g74
(dp947
g101
g102
ssg83
g937
sg76
(lp948
S':'
asbag69
(g90
g71
NtRp949
(dp950
g74
(dp951
sg83
g937
sg76
(lp952
g69
(g70
g71
NtRp953
(dp954
g74
(dp955
g82
I3
ssg83
g949
sg76
(lp956
S''
asbasbasbag69
(g85
g71
NtRp957
(dp958
g74
(dp959
sg83
g873
sg76
(lp960
g69
(g90
g71
NtRp961
(dp962
g74
(dp963
g94
g95
ssg83
g957
sg76
(lp964
g403
asbag69
(g90
g71
NtRp965
(dp966
g74
(dp967
g101
g102
ssg83
g957
sg76
(lp968
S':'
asbag69
(g90
g71
NtRp969
(dp970
g74
(dp971
sg83
g957
sg76
(lp972
g69
(g70
g71
NtRp973
(dp974
g74
(dp975
g82
I3
ssg83
g969
sg76
(lp976
S''
asbasbasbag69
(g85
g71
NtRp977
(dp978
g74
(dp979
sg83
g873
sg76
(lp980
g69
(g90
g71
NtRp981
(dp982
g74
(dp983
g94
g95
ssg83
g977
sg76
(lp984
g424
asbag69
(g90
g71
NtRp985
(dp986
g74
(dp987
g101
g102
ssg83
g977
sg76
(lp988
S':'
asbag69
(g90
g71
NtRp989
(dp990
g74
(dp991
sg83
g977
sg76
(lp992
g69
(g70
g71
NtRp993
(dp994
g74
(dp995
g82
I3
ssg83
g989
sg76
(lp996
S''
asbasbasbag69
(g85
g71
NtRp997
(dp998
g74
(dp999
sg83
g873
sg76
(lp1000
g69
(g90
g71
NtRp1001
(dp1002
g74
(dp1003
g94
g95
ssg83
g997
sg76
(lp1004
g445
asbag69
(g90
g71
NtRp1005
(dp1006
g74
(dp1007
g101
g102
ssg83
g997
sg76
(lp1008
S':'
asbag69
(g90
g71
NtRp1009
(dp1010
g74
(dp1011
sg83
g997
sg76
(lp1012
g69
(g70
g71
NtRp1013
(dp1014
g74
(dp1015
g82
I3
ssg83
g1009
sg76
(lp1016
S''
asbasbasbag69
(g85
g71
NtRp1017
(dp1018
g74
(dp1019
sg83
g873
sg76
(lp1020
g69
(g90
g71
NtRp1021
(dp1022
g74
(dp1023
g94
g95
ssg83
g1017
sg76
(lp1024
g466
asbag69
(g90
g71
NtRp1025
(dp1026
g74
(dp1027
g101
g102
ssg83
g1017
sg76
(lp1028
S':'
asbag69
(g90
g71
NtRp1029
(dp1030
g74
(dp1031
sg83
g1017
sg76
(lp1032
g69
(g70
g71
NtRp1033
(dp1034
g74
(dp1035
g82
I3
ssg83
g1029
sg76
(lp1036
S''
asbasbasbasbasbasbasbasbasbasbasbag69
(g85
g71
NtRp1037
(dp1038
g74
(dp1039
sg83
g79
sg76
(lp1040
g69
(g90
g71
NtRp1041
(dp1042
g74
(dp1043
g94
g95
ssg83
g1037
sg76
(lp1044
S'env'
p1045
asbag69
(g90
g71
NtRp1046
(dp1047
g74
(dp1048
g101
g102
ssg83
g1037
sg76
(lp1049
S':'
asbag69
(g90
g71
NtRp1050
(dp1051
g74
(dp1052
sg83
g1037
sg76
(lp1053
g69
(g70
g71
NtRp1054
(dp1055
g74
(dp1056
g82
I5
ssg83
g1050
sg76
(lp1057
g69
(g78
g71
NtRp1058
(dp1059
g74
(dp1060
g82
I4
ssg83
Nsg76
(lp1061
g69
(g85
g71
NtRp1062
(dp1063
g74
(dp1064
sg83
g1058
sg76
(lp1065
g69
(g90
g71
NtRp1066
(dp1067
g74
(dp1068
g94
g95
ssg83
g1062
sg76
(lp1069
S'app_folders'
p1070
asbag69
(g90
g71
NtRp1071
(dp1072
g74
(dp1073
g101
g102
ssg83
g1062
sg76
(lp1074
S':'
asbag69
(g90
g71
NtRp1075
(dp1076
g74
(dp1077
sg83
g1062
sg76
(lp1078
g69
(g70
g71
NtRp1079
(dp1080
g74
(dp1081
g82
I4
ssg83
g1075
sg76
(lp1082
S"set(['/home/shipra/Desktop/Semester 1.2/ITWS-2/web2py/applications/Assignment_2/', '/home/shipra/Desktop/Semester 1.2/ITWS-2/web2py/applications/welcome/', '/home/shipra/Desktop/Semester 1.2/ITWS-2/web2py/applications/admin/'])"
p1083
asbasbasbag69
(g85
g71
NtRp1084
(dp1085
g74
(dp1086
sg83
g1058
sg76
(lp1087
g69
(g90
g71
NtRp1088
(dp1089
g74
(dp1090
g94
g95
ssg83
g1084
sg76
(lp1091
S'applications_parent'
p1092
asbag69
(g90
g71
NtRp1093
(dp1094
g74
(dp1095
g101
g102
ssg83
g1084
sg76
(lp1096
S':'
asbag69
(g90
g71
NtRp1097
(dp1098
g74
(dp1099
sg83
g1084
sg76
(lp1100
g69
(g70
g71
NtRp1101
(dp1102
g74
(dp1103
g82
I4
ssg83
g1097
sg76
(lp1104
S'/home/shipra/Desktop/Semester 1.2/ITWS-2/web2py'
p1105
asbasbasbag69
(g85
g71
NtRp1106
(dp1107
g74
(dp1108
sg83
g1058
sg76
(lp1109
g69
(g90
g71
NtRp1110
(dp1111
g74
(dp1112
g94
g95
ssg83
g1106
sg76
(lp1113
S'cmd_args'
p1114
asbag69
(g90
g71
NtRp1115
(dp1116
g74
(dp1117
g101
g102
ssg83
g1106
sg76
(lp1118
S':'
asbag69
(g90
g71
NtRp1119
(dp1120
g74
(dp1121
sg83
g1106
sg76
(lp1122
g69
(g70
g71
NtRp1123
(dp1124
g74
(dp1125
g82
I4
ssg83
g1119
sg76
(lp1126
g69
(g78
g71
NtRp1127
(dp1128
g74
(dp1129
g82
I3
ssg83
Nsg76
(lp1130
sbasbasbasbag69
(g85
g71
NtRp1131
(dp1132
g74
(dp1133
sg83
g1058
sg76
(lp1134
g69
(g90
g71
NtRp1135
(dp1136
g74
(dp1137
g94
g95
ssg83
g1131
sg76
(lp1138
S'cmd_options'
p1139
asbag69
(g90
g71
NtRp1140
(dp1141
g74
(dp1142
g101
g102
ssg83
g1131
sg76
(lp1143
S':'
asbag69
(g90
g71
NtRp1144
(dp1145
g74
(dp1146
sg83
g1131
sg76
(lp1147
g69
(g70
g71
NtRp1148
(dp1149
g74
(dp1150
g82
I4
ssg83
g1144
sg76
(lp1151
S"<Values at 0x29db290: {'verbose': False, 'ip': '127.0.0.1', 'with_scheduler': False, 'ips': ['10.1.129.70', '192.168.122.1', '10.42.0.99', 'fe80::8a53:2eff:fe7d:9d6c%wlan0', 'fe80::e611:5bff:fe38:8d0d%p5p1'], 'shutdown_timeout': 5, 'taskbar': False, 'port': 8000, 'maxthreads': None, 'softcron': False, 'server_name': 'shipra', 'bpython': False, 'nogui': False, 'pid_filename': 'httpserver.pid', 'extcron': False, 'runcron': False, 'run_system_tests': False, 'test': None, 'folder': '/home/shipra/Desktop/Semester 1.2/ITWS-2/web2py', 'config': '', 'minthreads': None, 'winservice': '', 'shell': None, 'run': '', 'log_filename': 'httpserver.log', 'debuglevel': 30, 'args': [''], 'socket_timeout': 5, 'ssl_ca_certificate': None, 'scheduler': None, 'profiler_filename': None, 'ssl_private_key': '', 'scheduler_groups': None, 'password': '<ask>', 'request_queue_size': 5, 'ssl_certificate': '', 'cronjob': False, 'numthreads': None, 'quiet': False, 'interfaces': None, 'import_models': False, 'timeout': 10, 'plain': False, 'nobanner': False}>"
p1152
asbasbasbag69
(g85
g71
NtRp1153
(dp1154
g74
(dp1155
sg83
g1058
sg76
(lp1156
g69
(g90
g71
NtRp1157
(dp1158
g74
(dp1159
g94
g95
ssg83
g1153
sg76
(lp1160
S'db_sessions'
p1161
asbag69
(g90
g71
NtRp1162
(dp1163
g74
(dp1164
g101
g102
ssg83
g1153
sg76
(lp1165
S':'
asbag69
(g90
g71
NtRp1166
(dp1167
g74
(dp1168
sg83
g1153
sg76
(lp1169
g69
(g70
g71
NtRp1170
(dp1171
g74
(dp1172
g82
I4
ssg83
g1166
sg76
(lp1173
S'set([])'
p1174
asbasbasbag69
(g85
g71
NtRp1175
(dp1176
g74
(dp1177
sg83
g1058
sg76
(lp1178
g69
(g90
g71
NtRp1179
(dp1180
g74
(dp1181
g94
g95
ssg83
g1175
sg76
(lp1182
S'debugging'
p1183
asbag69
(g90
g71
NtRp1184
(dp1185
g74
(dp1186
g101
g102
ssg83
g1175
sg76
(lp1187
S':'
asbag69
(g90
g71
NtRp1188
(dp1189
g74
(dp1190
sg83
g1175
sg76
(lp1191
g69
(g70
g71
NtRp1192
(dp1193
g74
(dp1194
g82
I4
ssg83
g1188
sg76
(lp1195
g112
asbasbasbag69
(g85
g71
NtRp1196
(dp1197
g74
(dp1198
sg83
g1058
sg76
(lp1199
g69
(g90
g71
NtRp1200
(dp1201
g74
(dp1202
g94
g95
ssg83
g1196
sg76
(lp1203
S'gluon_parent'
p1204
asbag69
(g90
g71
NtRp1205
(dp1206
g74
(dp1207
g101
g102
ssg83
g1196
sg76
(lp1208
S':'
asbag69
(g90
g71
NtRp1209
(dp1210
g74
(dp1211
sg83
g1196
sg76
(lp1212
g69
(g70
g71
NtRp1213
(dp1214
g74
(dp1215
g82
I4
ssg83
g1209
sg76
(lp1216
S'/home/shipra/Desktop/Semester 1.2/ITWS-2/web2py'
p1217
asbasbasbag69
(g85
g71
NtRp1218
(dp1219
g74
(dp1220
sg83
g1058
sg76
(lp1221
g69
(g90
g71
NtRp1222
(dp1223
g74
(dp1224
g94
g95
ssg83
g1218
sg76
(lp1225
S'http_accept'
p1226
asbag69
(g90
g71
NtRp1227
(dp1228
g74
(dp1229
g101
g102
ssg83
g1218
sg76
(lp1230
S':'
asbag69
(g90
g71
NtRp1231
(dp1232
g74
(dp1233
sg83
g1218
sg76
(lp1234
g69
(g70
g71
NtRp1235
(dp1236
g74
(dp1237
g82
I4
ssg83
g1231
sg76
(lp1238
S'text/html,application/xhtml+xml,application/xml;q=0.9,*/*;q=0.8'
p1239
asbasbasbag69
(g85
g71
NtRp1240
(dp1241
g74
(dp1242
sg83
g1058
sg76
(lp1243
g69
(g90
g71
NtRp1244
(dp1245
g74
(dp1246
g94
g95
ssg83
g1240
sg76
(lp1247
S'http_accept_encoding'
p1248
asbag69
(g90
g71
NtRp1249
(dp1250
g74
(dp1251
g101
g102
ssg83
g1240
sg76
(lp1252
S':'
asbag69
(g90
g71
NtRp1253
(dp1254
g74
(dp1255
sg83
g1240
sg76
(lp1256
g69
(g70
g71
NtRp1257
(dp1258
g74
(dp1259
g82
I4
ssg83
g1253
sg76
(lp1260
S'gzip, deflate'
p1261
asbasbasbag69
(g85
g71
NtRp1262
(dp1263
g74
(dp1264
sg83
g1058
sg76
(lp1265
g69
(g90
g71
NtRp1266
(dp1267
g74
(dp1268
g94
g95
ssg83
g1262
sg76
(lp1269
S'http_accept_language'
p1270
asbag69
(g90
g71
NtRp1271
(dp1272
g74
(dp1273
g101
g102
ssg83
g1262
sg76
(lp1274
S':'
asbag69
(g90
g71
NtRp1275
(dp1276
g74
(dp1277
sg83
g1262
sg76
(lp1278
g69
(g70
g71
NtRp1279
(dp1280
g74
(dp1281
g82
I4
ssg83
g1275
sg76
(lp1282
S'en-us,en;q=0.5'
p1283
asbasbasbag69
(g85
g71
NtRp1284
(dp1285
g74
(dp1286
sg83
g1058
sg76
(lp1287
g69
(g90
g71
NtRp1288
(dp1289
g74
(dp1290
g94
g95
ssg83
g1284
sg76
(lp1291
S'http_connection'
p1292
asbag69
(g90
g71
NtRp1293
(dp1294
g74
(dp1295
g101
g102
ssg83
g1284
sg76
(lp1296
S':'
asbag69
(g90
g71
NtRp1297
(dp1298
g74
(dp1299
sg83
g1284
sg76
(lp1300
g69
(g70
g71
NtRp1301
(dp1302
g74
(dp1303
g82
I4
ssg83
g1297
sg76
(lp1304
S'keep-alive'
p1305
asbasbasbag69
(g85
g71
NtRp1306
(dp1307
g74
(dp1308
sg83
g1058
sg76
(lp1309
g69
(g90
g71
NtRp1310
(dp1311
g74
(dp1312
g94
g95
ssg83
g1306
sg76
(lp1313
S'http_cookie'
p1314
asbag69
(g90
g71
NtRp1315
(dp1316
g74
(dp1317
g101
g102
ssg83
g1306
sg76
(lp1318
S':'
asbag69
(g90
g71
NtRp1319
(dp1320
g74
(dp1321
sg83
g1306
sg76
(lp1322
g69
(g70
g71
NtRp1323
(dp1324
g74
(dp1325
g82
I4
ssg83
g1319
sg76
(lp1326
S'__utma=96992031.1334412862.1364672878.1364672878.1364718243.2; __utmz=96992031.1364672878.1.1.utmcsr=(direct)|utmccn=(direct)|utmcmd=(none); __lc.visitor_id.1195381=S1364672235.4faffcf2d2; __ar_v4=OWHSPOGHTNEIPPPBMHVFTA%3A20130329%3A12%7CAMEDRHI4VZG4TIA2AZ565D%3A20130329%3A12%7CWAEQXC4B2NH3DDBR3TZM6I%3A20130329%3A12; mp_2093ad9ff9c5428a2228386de2f2b0e4_mixpanel=%7B%22distinct_id%22%3A%20%2262ffc2d0-7b9f-0130-efb0-22000a1cbb2a%22%2C%22is_registered_user%22%3A%20false%2C%22%24initial_referrer%22%3A%20%22%24direct%22%2C%22%24initial_referring_domain%22%3A%20%22%24direct%22%7D; session_id_welcome=127.0.0.1-3dabeaf3-f7c2-4466-8cef-6b7f69fa0a1e; session_id_admin=127.0.0.1-b5c7744b-6ba7-465d-9f13-0b1a277ff628; session_id_assignment_2=127.0.0.1-c3bf420d-fab5-418a-a226-75e7c25cbfd0'
p1327
asbasbasbag69
(g85
g71
NtRp1328
(dp1329
g74
(dp1330
sg83
g1058
sg76
(lp1331
g69
(g90
g71
NtRp1332
(dp1333
g74
(dp1334
g94
g95
ssg83
g1328
sg76
(lp1335
S'http_host'
p1336
asbag69
(g90
g71
NtRp1337
(dp1338
g74
(dp1339
g101
g102
ssg83
g1328
sg76
(lp1340
S':'
asbag69
(g90
g71
NtRp1341
(dp1342
g74
(dp1343
sg83
g1328
sg76
(lp1344
g69
(g70
g71
NtRp1345
(dp1346
g74
(dp1347
g82
I4
ssg83
g1341
sg76
(lp1348
S'127.0.0.1:8000'
p1349
asbasbasbag69
(g85
g71
NtRp1350
(dp1351
g74
(dp1352
sg83
g1058
sg76
(lp1353
g69
(g90
g71
NtRp1354
(dp1355
g74
(dp1356
g94
g95
ssg83
g1350
sg76
(lp1357
S'http_user_agent'
p1358
asbag69
(g90
g71
NtRp1359
(dp1360
g74
(dp1361
g101
g102
ssg83
g1350
sg76
(lp1362
S':'
asbag69
(g90
g71
NtRp1363
(dp1364
g74
(dp1365
sg83
g1350
sg76
(lp1366
g69
(g70
g71
NtRp1367
(dp1368
g74
(dp1369
g82
I4
ssg83
g1363
sg76
(lp1370
S'Mozilla/5.0 (X11; Linux x86_64; rv:12.0) Gecko/20100101 Firefox/12.0'
p1371
asbasbasbag69
(g85
g71
NtRp1372
(dp1373
g74
(dp1374
sg83
g1058
sg76
(lp1375
g69
(g90
g71
NtRp1376
(dp1377
g74
(dp1378
g94
g95
ssg83
g1372
sg76
(lp1379
S'is_jython'
p1380
asbag69
(g90
g71
NtRp1381
(dp1382
g74
(dp1383
g101
g102
ssg83
g1372
sg76
(lp1384
S':'
asbag69
(g90
g71
NtRp1385
(dp1386
g74
(dp1387
sg83
g1372
sg76
(lp1388
g69
(g70
g71
NtRp1389
(dp1390
g74
(dp1391
g82
I4
ssg83
g1385
sg76
(lp1392
g112
asbasbasbag69
(g85
g71
NtRp1393
(dp1394
g74
(dp1395
sg83
g1058
sg76
(lp1396
g69
(g90
g71
NtRp1397
(dp1398
g74
(dp1399
g94
g95
ssg83
g1393
sg76
(lp1400
S'is_pypy'
p1401
asbag69
(g90
g71
NtRp1402
(dp1403
g74
(dp1404
g101
g102
ssg83
g1393
sg76
(lp1405
S':'
asbag69
(g90
g71
NtRp1406
(dp1407
g74
(dp1408
sg83
g1393
sg76
(lp1409
g69
(g70
g71
NtRp1410
(dp1411
g74
(dp1412
g82
I4
ssg83
g1406
sg76
(lp1413
g112
asbasbasbag69
(g85
g71
NtRp1414
(dp1415
g74
(dp1416
sg83
g1058
sg76
(lp1417
g69
(g90
g71
NtRp1418
(dp1419
g74
(dp1420
g94
g95
ssg83
g1414
sg76
(lp1421
S'local_hosts'
p1422
asbag69
(g90
g71
NtRp1423
(dp1424
g74
(dp1425
g101
g102
ssg83
g1414
sg76
(lp1426
S':'
asbag69
(g90
g71
NtRp1427
(dp1428
g74
(dp1429
sg83
g1414
sg76
(lp1430
g69
(g70
g71
NtRp1431
(dp1432
g74
(dp1433
g82
I4
ssg83
g1427
sg76
(lp1434
g69
(g78
g71
NtRp1435
(dp1436
g74
(dp1437
g82
I3
ssg83
Nsg76
(lp1438
g69
(g85
g71
NtRp1439
(dp1440
g74
(dp1441
sg83
g1435
sg76
(lp1442
g69
(g90
g71
NtRp1443
(dp1444
g74
(dp1445
sg83
g1439
sg76
(lp1446
g69
(g70
g71
NtRp1447
(dp1448
g74
(dp1449
g82
I3
ssg83
g1443
sg76
(lp1450
S'192.168.122.1'
p1451
asbasbasbag69
(g85
g71
NtRp1452
(dp1453
g74
(dp1454
sg83
g1435
sg76
(lp1455
g69
(g90
g71
NtRp1456
(dp1457
g74
(dp1458
sg83
g1452
sg76
(lp1459
g69
(g70
g71
NtRp1460
(dp1461
g74
(dp1462
g82
I3
ssg83
g1456
sg76
(lp1463
S'10.42.0.99'
p1464
asbasbasbag69
(g85
g71
NtRp1465
(dp1466
g74
(dp1467
sg83
g1435
sg76
(lp1468
g69
(g90
g71
NtRp1469
(dp1470
g74
(dp1471
sg83
g1465
sg76
(lp1472
g69
(g70
g71
NtRp1473
(dp1474
g74
(dp1475
g82
I3
ssg83
g1469
sg76
(lp1476
S'::ffff:127.0.0.1'
p1477
asbasbasbag69
(g85
g71
NtRp1478
(dp1479
g74
(dp1480
sg83
g1435
sg76
(lp1481
g69
(g90
g71
NtRp1482
(dp1483
g74
(dp1484
sg83
g1478
sg76
(lp1485
g69
(g70
g71
NtRp1486
(dp1487
g74
(dp1488
g82
I3
ssg83
g1482
sg76
(lp1489
S'::1'
p1490
asbasbasbag69
(g85
g71
NtRp1491
(dp1492
g74
(dp1493
sg83
g1435
sg76
(lp1494
g69
(g90
g71
NtRp1495
(dp1496
g74
(dp1497
sg83
g1491
sg76
(lp1498
g69
(g70
g71
NtRp1499
(dp1500
g74
(dp1501
g82
I3
ssg83
g1495
sg76
(lp1502
S'10.1.129.70'
p1503
asbasbasbag69
(g85
g71
NtRp1504
(dp1505
g74
(dp1506
sg83
g1435
sg76
(lp1507
g69
(g90
g71
NtRp1508
(dp1509
g74
(dp1510
sg83
g1504
sg76
(lp1511
g69
(g70
g71
NtRp1512
(dp1513
g74
(dp1514
g82
I3
ssg83
g1508
sg76
(lp1515
S'fe80::8a53:2eff:fe7d:9d6c%wlan0'
p1516
asbasbasbag69
(g85
g71
NtRp1517
(dp1518
g74
(dp1519
sg83
g1435
sg76
(lp1520
g69
(g90
g71
NtRp1521
(dp1522
g74
(dp1523
sg83
g1517
sg76
(lp1524
g69
(g70
g71
NtRp1525
(dp1526
g74
(dp1527
g82
I3
ssg83
g1521
sg76
(lp1528
S'fe80::e611:5bff:fe38:8d0d%p5p1'
p1529
asbasbasbag69
(g85
g71
NtRp1530
(dp1531
g74
(dp1532
sg83
g1435
sg76
(lp1533
g69
(g90
g71
NtRp1534
(dp1535
g74
(dp1536
sg83
g1530
sg76
(lp1537
g69
(g70
g71
NtRp1538
(dp1539
g74
(dp1540
g82
I3
ssg83
g1534
sg76
(lp1541
S'127.0.0.1'
p1542
asbasbasbag69
(g85
g71
NtRp1543
(dp1544
g74
(dp1545
sg83
g1435
sg76
(lp1546
g69
(g90
g71
NtRp1547
(dp1548
g74
(dp1549
sg83
g1543
sg76
(lp1550
g69
(g70
g71
NtRp1551
(dp1552
g74
(dp1553
g82
I3
ssg83
g1547
sg76
(lp1554
S'shipra'
p1555
asbasbasbasbasbasbasbag69
(g85
g71
NtRp1556
(dp1557
g74
(dp1558
sg83
g1058
sg76
(lp1559
g69
(g90
g71
NtRp1560
(dp1561
g74
(dp1562
g94
g95
ssg83
g1556
sg76
(lp1563
S'path_info'
p1564
asbag69
(g90
g71
NtRp1565
(dp1566
g74
(dp1567
g101
g102
ssg83
g1556
sg76
(lp1568
S':'
asbag69
(g90
g71
NtRp1569
(dp1570
g74
(dp1571
sg83
g1556
sg76
(lp1572
g69
(g70
g71
NtRp1573
(dp1574
g74
(dp1575
g82
I4
ssg83
g1569
sg76
(lp1576
S'/Assignment_2/default/categ_display/World'
p1577
asbasbasbag69
(g85
g71
NtRp1578
(dp1579
g74
(dp1580
sg83
g1058
sg76
(lp1581
g69
(g90
g71
NtRp1582
(dp1583
g74
(dp1584
g94
g95
ssg83
g1578
sg76
(lp1585
S'query_string'
p1586
asbag69
(g90
g71
NtRp1587
(dp1588
g74
(dp1589
g101
g102
ssg83
g1578
sg76
(lp1590
S':'
asbag69
(g90
g71
NtRp1591
(dp1592
g74
(dp1593
sg83
g1578
sg76
(lp1594
g69
(g70
g71
NtRp1595
(dp1596
g74
(dp1597
g82
I4
ssg83
g1591
sg76
(lp1598
S''
asbasbasbag69
(g85
g71
NtRp1599
(dp1600
g74
(dp1601
sg83
g1058
sg76
(lp1602
g69
(g90
g71
NtRp1603
(dp1604
g74
(dp1605
g94
g95
ssg83
g1599
sg76
(lp1606
S'remote_addr'
p1607
asbag69
(g90
g71
NtRp1608
(dp1609
g74
(dp1610
g101
g102
ssg83
g1599
sg76
(lp1611
S':'
asbag69
(g90
g71
NtRp1612
(dp1613
g74
(dp1614
sg83
g1599
sg76
(lp1615
g69
(g70
g71
NtRp1616
(dp1617
g74
(dp1618
g82
I4
ssg83
g1612
sg76
(lp1619
g237
asbasbasbag69
(g85
g71
NtRp1620
(dp1621
g74
(dp1622
sg83
g1058
sg76
(lp1623
g69
(g90
g71
NtRp1624
(dp1625
g74
(dp1626
g94
g95
ssg83
g1620
sg76
(lp1627
S'remote_port'
p1628
asbag69
(g90
g71
NtRp1629
(dp1630
g74
(dp1631
g101
g102
ssg83
g1620
sg76
(lp1632
S':'
asbag69
(g90
g71
NtRp1633
(dp1634
g74
(dp1635
sg83
g1620
sg76
(lp1636
g69
(g70
g71
NtRp1637
(dp1638
g74
(dp1639
g82
I4
ssg83
g1633
sg76
(lp1640
S'44399'
p1641
asbasbasbag69
(g85
g71
NtRp1642
(dp1643
g74
(dp1644
sg83
g1058
sg76
(lp1645
g69
(g90
g71
NtRp1646
(dp1647
g74
(dp1648
g94
g95
ssg83
g1642
sg76
(lp1649
S'request_method'
p1650
asbag69
(g90
g71
NtRp1651
(dp1652
g74
(dp1653
g101
g102
ssg83
g1642
sg76
(lp1654
S':'
asbag69
(g90
g71
NtRp1655
(dp1656
g74
(dp1657
sg83
g1642
sg76
(lp1658
g69
(g70
g71
NtRp1659
(dp1660
g74
(dp1661
g82
I4
ssg83
g1655
sg76
(lp1662
S'GET'
p1663
asbasbasbag69
(g85
g71
NtRp1664
(dp1665
g74
(dp1666
sg83
g1058
sg76
(lp1667
g69
(g90
g71
NtRp1668
(dp1669
g74
(dp1670
g94
g95
ssg83
g1664
sg76
(lp1671
S'request_uri'
p1672
asbag69
(g90
g71
NtRp1673
(dp1674
g74
(dp1675
g101
g102
ssg83
g1664
sg76
(lp1676
S':'
asbag69
(g90
g71
NtRp1677
(dp1678
g74
(dp1679
sg83
g1664
sg76
(lp1680
g69
(g70
g71
NtRp1681
(dp1682
g74
(dp1683
g82
I4
ssg83
g1677
sg76
(lp1684
g1577
asbasbasbag69
(g85
g71
NtRp1685
(dp1686
g74
(dp1687
sg83
g1058
sg76
(lp1688
g69
(g90
g71
NtRp1689
(dp1690
g74
(dp1691
g94
g95
ssg83
g1685
sg76
(lp1692
S'script_name'
p1693
asbag69
(g90
g71
NtRp1694
(dp1695
g74
(dp1696
g101
g102
ssg83
g1685
sg76
(lp1697
S':'
asbag69
(g90
g71
NtRp1698
(dp1699
g74
(dp1700
sg83
g1685
sg76
(lp1701
g69
(g70
g71
NtRp1702
(dp1703
g74
(dp1704
g82
I4
ssg83
g1698
sg76
(lp1705
S''
asbasbasbag69
(g85
g71
NtRp1706
(dp1707
g74
(dp1708
sg83
g1058
sg76
(lp1709
g69
(g90
g71
NtRp1710
(dp1711
g74
(dp1712
g94
g95
ssg83
g1706
sg76
(lp1713
S'server_name'
p1714
asbag69
(g90
g71
NtRp1715
(dp1716
g74
(dp1717
g101
g102
ssg83
g1706
sg76
(lp1718
S':'
asbag69
(g90
g71
NtRp1719
(dp1720
g74
(dp1721
sg83
g1706
sg76
(lp1722
g69
(g70
g71
NtRp1723
(dp1724
g74
(dp1725
g82
I4
ssg83
g1719
sg76
(lp1726
S'shipra'
p1727
asbasbasbag69
(g85
g71
NtRp1728
(dp1729
g74
(dp1730
sg83
g1058
sg76
(lp1731
g69
(g90
g71
NtRp1732
(dp1733
g74
(dp1734
g94
g95
ssg83
g1728
sg76
(lp1735
S'server_port'
p1736
asbag69
(g90
g71
NtRp1737
(dp1738
g74
(dp1739
g101
g102
ssg83
g1728
sg76
(lp1740
S':'
asbag69
(g90
g71
NtRp1741
(dp1742
g74
(dp1743
sg83
g1728
sg76
(lp1744
g69
(g70
g71
NtRp1745
(dp1746
g74
(dp1747
g82
I4
ssg83
g1741
sg76
(lp1748
S'8000'
p1749
asbasbasbag69
(g85
g71
NtRp1750
(dp1751
g74
(dp1752
sg83
g1058
sg76
(lp1753
g69
(g90
g71
NtRp1754
(dp1755
g74
(dp1756
g94
g95
ssg83
g1750
sg76
(lp1757
S'server_protocol'
p1758
asbag69
(g90
g71
NtRp1759
(dp1760
g74
(dp1761
g101
g102
ssg83
g1750
sg76
(lp1762
S':'
asbag69
(g90
g71
NtRp1763
(dp1764
g74
(dp1765
sg83
g1750
sg76
(lp1766
g69
(g70
g71
NtRp1767
(dp1768
g74
(dp1769
g82
I4
ssg83
g1763
sg76
(lp1770
S'HTTP/1.1'
p1771
asbasbasbag69
(g85
g71
NtRp1772
(dp1773
g74
(dp1774
sg83
g1058
sg76
(lp1775
g69
(g90
g71
NtRp1776
(dp1777
g74
(dp1778
g94
g95
ssg83
g1772
sg76
(lp1779
S'server_software'
p1780
asbag69
(g90
g71
NtRp1781
(dp1782
g74
(dp1783
g101
g102
ssg83
g1772
sg76
(lp1784
S':'
asbag69
(g90
g71
NtRp1785
(dp1786
g74
(dp1787
sg83
g1772
sg76
(lp1788
g69
(g70
g71
NtRp1789
(dp1790
g74
(dp1791
g82
I4
ssg83
g1785
sg76
(lp1792
S'Rocket 1.2.6'
p1793
asbasbasbag69
(g85
g71
NtRp1794
(dp1795
g74
(dp1796
sg83
g1058
sg76
(lp1797
g69
(g90
g71
NtRp1798
(dp1799
g74
(dp1800
g94
g95
ssg83
g1794
sg76
(lp1801
S'web2py_path'
p1802
asbag69
(g90
g71
NtRp1803
(dp1804
g74
(dp1805
g101
g102
ssg83
g1794
sg76
(lp1806
S':'
asbag69
(g90
g71
NtRp1807
(dp1808
g74
(dp1809
sg83
g1794
sg76
(lp1810
g69
(g70
g71
NtRp1811
(dp1812
g74
(dp1813
g82
I4
ssg83
g1807
sg76
(lp1814
g1105
asbasbasbag69
(g85
g71
NtRp1815
(dp1816
g74
(dp1817
sg83
g1058
sg76
(lp1818
g69
(g90
g71
NtRp1819
(dp1820
g74
(dp1821
g94
g95
ssg83
g1815
sg76
(lp1822
S'web2py_version'
p1823
asbag69
(g90
g71
NtRp1824
(dp1825
g74
(dp1826
g101
g102
ssg83
g1815
sg76
(lp1827
S':'
asbag69
(g90
g71
NtRp1828
(dp1829
g74
(dp1830
sg83
g1815
sg76
(lp1831
g69
(g70
g71
NtRp1832
(dp1833
g74
(dp1834
g82
I4
ssg83
g1828
sg76
(lp1835
g69
(g78
g71
NtRp1836
(dp1837
g74
(dp1838
g82
I3
ssg83
Nsg76
(lp1839
g69
(g85
g71
NtRp1840
(dp1841
g74
(dp1842
sg83
g1836
sg76
(lp1843
g69
(g90
g71
NtRp1844
(dp1845
g74
(dp1846
sg83
g1840
sg76
(lp1847
g69
(g70
g71
NtRp1848
(dp1849
g74
(dp1850
g82
I3
ssg83
g1844
sg76
(lp1851
S'2'
asbasbasbag69
(g85
g71
NtRp1852
(dp1853
g74
(dp1854
sg83
g1836
sg76
(lp1855
g69
(g90
g71
NtRp1856
(dp1857
g74
(dp1858
sg83
g1852
sg76
(lp1859
g69
(g70
g71
NtRp1860
(dp1861
g74
(dp1862
g82
I3
ssg83
g1856
sg76
(lp1863
S'3'
asbasbasbag69
(g85
g71
NtRp1864
(dp1865
g74
(dp1866
sg83
g1836
sg76
(lp1867
g69
(g90
g71
NtRp1868
(dp1869
g74
(dp1870
sg83
g1864
sg76
(lp1871
g69
(g70
g71
NtRp1872
(dp1873
g74
(dp1874
g82
I3
ssg83
g1868
sg76
(lp1875
S'2'
asbasbasbag69
(g85
g71
NtRp1876
(dp1877
g74
(dp1878
sg83
g1836
sg76
(lp1879
g69
(g90
g71
NtRp1880
(dp1881
g74
(dp1882
sg83
g1876
sg76
(lp1883
g69
(g70
g71
NtRp1884
(dp1885
g74
(dp1886
g82
I3
ssg83
g1880
sg76
(lp1887
S'datetime.datetime(2012, 12, 17, 15, 3, 30)'
p1888
asbasbasbag69
(g85
g71
NtRp1889
(dp1890
g74
(dp1891
sg83
g1836
sg76
(lp1892
g69
(g90
g71
NtRp1893
(dp1894
g74
(dp1895
sg83
g1889
sg76
(lp1896
g69
(g70
g71
NtRp1897
(dp1898
g74
(dp1899
g82
I3
ssg83
g1893
sg76
(lp1900
S'stable'
p1901
asbasbasbasbasbasbasbag69
(g85
g71
NtRp1902
(dp1903
g74
(dp1904
sg83
g1058
sg76
(lp1905
g69
(g90
g71
NtRp1906
(dp1907
g74
(dp1908
g94
g95
ssg83
g1902
sg76
(lp1909
S'wsgi_errors'
p1910
asbag69
(g90
g71
NtRp1911
(dp1912
g74
(dp1913
g101
g102
ssg83
g1902
sg76
(lp1914
S':'
asbag69
(g90
g71
NtRp1915
(dp1916
g74
(dp1917
sg83
g1902
sg76
(lp1918
g69
(g70
g71
NtRp1919
(dp1920
g74
(dp1921
g82
I4
ssg83
g1915
sg76
(lp1922
S"<open file '<stderr>', mode 'w' at 0x7f8fa085a270>"
p1923
asbasbasbag69
(g85
g71
NtRp1924
(dp1925
g74
(dp1926
sg83
g1058
sg76
(lp1927
g69
(g90
g71
NtRp1928
(dp1929
g74
(dp1930
g94
g95
ssg83
g1924
sg76
(lp1931
S'wsgi_file_wrapper'
p1932
asbag69
(g90
g71
NtRp1933
(dp1934
g74
(dp1935
g101
g102
ssg83
g1924
sg76
(lp1936
S':'
asbag69
(g90
g71
NtRp1937
(dp1938
g74
(dp1939
sg83
g1924
sg76
(lp1940
g69
(g70
g71
NtRp1941
(dp1942
g74
(dp1943
g82
I4
ssg83
g1937
sg76
(lp1944
S'<class wsgiref.util.FileWrapper at 0x2964e20>'
p1945
asbasbasbag69
(g85
g71
NtRp1946
(dp1947
g74
(dp1948
sg83
g1058
sg76
(lp1949
g69
(g90
g71
NtRp1950
(dp1951
g74
(dp1952
g94
g95
ssg83
g1946
sg76
(lp1953
S'wsgi_input'
p1954
asbag69
(g90
g71
NtRp1955
(dp1956
g74
(dp1957
g101
g102
ssg83
g1946
sg76
(lp1958
S':'
asbag69
(g90
g71
NtRp1959
(dp1960
g74
(dp1961
sg83
g1946
sg76
(lp1962
g69
(g70
g71
NtRp1963
(dp1964
g74
(dp1965
g82
I4
ssg83
g1959
sg76
(lp1966
S'<socket._fileobject object at 0x7f8f7c612450>'
p1967
asbasbasbag69
(g85
g71
NtRp1968
(dp1969
g74
(dp1970
sg83
g1058
sg76
(lp1971
g69
(g90
g71
NtRp1972
(dp1973
g74
(dp1974
g94
g95
ssg83
g1968
sg76
(lp1975
S'wsgi_multiprocess'
p1976
asbag69
(g90
g71
NtRp1977
(dp1978
g74
(dp1979
g101
g102
ssg83
g1968
sg76
(lp1980
S':'
asbag69
(g90
g71
NtRp1981
(dp1982
g74
(dp1983
sg83
g1968
sg76
(lp1984
g69
(g70
g71
NtRp1985
(dp1986
g74
(dp1987
g82
I4
ssg83
g1981
sg76
(lp1988
g112
asbasbasbag69
(g85
g71
NtRp1989
(dp1990
g74
(dp1991
sg83
g1058
sg76
(lp1992
g69
(g90
g71
NtRp1993
(dp1994
g74
(dp1995
g94
g95
ssg83
g1989
sg76
(lp1996
S'wsgi_multithread'
p1997
asbag69
(g90
g71
NtRp1998
(dp1999
g74
(dp2000
g101
g102
ssg83
g1989
sg76
(lp2001
S':'
asbag69
(g90
g71
NtRp2002
(dp2003
g74
(dp2004
sg83
g1989
sg76
(lp2005
g69
(g70
g71
NtRp2006
(dp2007
g74
(dp2008
g82
I4
ssg83
g2002
sg76
(lp2009
S'True'
p2010
asbasbasbag69
(g85
g71
NtRp2011
(dp2012
g74
(dp2013
sg83
g1058
sg76
(lp2014
g69
(g90
g71
NtRp2015
(dp2016
g74
(dp2017
g94
g95
ssg83
g2011
sg76
(lp2018
S'wsgi_run_once'
p2019
asbag69
(g90
g71
NtRp2020
(dp2021
g74
(dp2022
g101
g102
ssg83
g2011
sg76
(lp2023
S':'
asbag69
(g90
g71
NtRp2024
(dp2025
g74
(dp2026
sg83
g2011
sg76
(lp2027
g69
(g70
g71
NtRp2028
(dp2029
g74
(dp2030
g82
I4
ssg83
g2024
sg76
(lp2031
g112
asbasbasbag69
(g85
g71
NtRp2032
(dp2033
g74
(dp2034
sg83
g1058
sg76
(lp2035
g69
(g90
g71
NtRp2036
(dp2037
g74
(dp2038
g94
g95
ssg83
g2032
sg76
(lp2039
S'wsgi_url_scheme'
p2040
asbag69
(g90
g71
NtRp2041
(dp2042
g74
(dp2043
g101
g102
ssg83
g2032
sg76
(lp2044
S':'
asbag69
(g90
g71
NtRp2045
(dp2046
g74
(dp2047
sg83
g2032
sg76
(lp2048
g69
(g70
g71
NtRp2049
(dp2050
g74
(dp2051
g82
I4
ssg83
g2045
sg76
(lp2052
S'http'
p2053
asbasbasbag69
(g85
g71
NtRp2054
(dp2055
g74
(dp2056
sg83
g1058
sg76
(lp2057
g69
(g90
g71
NtRp2058
(dp2059
g74
(dp2060
g94
g95
ssg83
g2054
sg76
(lp2061
S'wsgi_version'
p2062
asbag69
(g90
g71
NtRp2063
(dp2064
g74
(dp2065
g101
g102
ssg83
g2054
sg76
(lp2066
S':'
asbag69
(g90
g71
NtRp2067
(dp2068
g74
(dp2069
sg83
g2054
sg76
(lp2070
g69
(g70
g71
NtRp2071
(dp2072
g74
(dp2073
g82
I4
ssg83
g2067
sg76
(lp2074
g69
(g78
g71
NtRp2075
(dp2076
g74
(dp2077
g82
I3
ssg83
Nsg76
(lp2078
g69
(g85
g71
NtRp2079
(dp2080
g74
(dp2081
sg83
g2075
sg76
(lp2082
g69
(g90
g71
NtRp2083
(dp2084
g74
(dp2085
sg83
g2079
sg76
(lp2086
g69
(g70
g71
NtRp2087
(dp2088
g74
(dp2089
g82
I3
ssg83
g2083
sg76
(lp2090
S'1'
asbasbasbag69
(g85
g71
NtRp2091
(dp2092
g74
(dp2093
sg83
g2075
sg76
(lp2094
g69
(g90
g71
NtRp2095
(dp2096
g74
(dp2097
sg83
g2091
sg76
(lp2098
g69
(g70
g71
NtRp2099
(dp2100
g74
(dp2101
g82
I3
ssg83
g2095
sg76
(lp2102
S'0'
asbasbasbasbasbasbasbasbasbasbasbag69
(g85
g71
NtRp2103
(dp2104
g74
(dp2105
sg83
g79
sg76
(lp2106
g69
(g90
g71
NtRp2107
(dp2108
g74
(dp2109
g94
g95
ssg83
g2103
sg76
(lp2110
S'extension'
p2111
asbag69
(g90
g71
NtRp2112
(dp2113
g74
(dp2114
g101
g102
ssg83
g2103
sg76
(lp2115
S':'
asbag69
(g90
g71
NtRp2116
(dp2117
g74
(dp2118
sg83
g2103
sg76
(lp2119
g69
(g70
g71
NtRp2120
(dp2121
g74
(dp2122
g82
I5
ssg83
g2116
sg76
(lp2123
S'html'
p2124
asbasbasbag69
(g85
g71
NtRp2125
(dp2126
g74
(dp2127
sg83
g79
sg76
(lp2128
g69
(g90
g71
NtRp2129
(dp2130
g74
(dp2131
g94
g95
ssg83
g2125
sg76
(lp2132
S'folder'
p2133
asbag69
(g90
g71
NtRp2134
(dp2135
g74
(dp2136
g101
g102
ssg83
g2125
sg76
(lp2137
S':'
asbag69
(g90
g71
NtRp2138
(dp2139
g74
(dp2140
sg83
g2125
sg76
(lp2141
g69
(g70
g71
NtRp2142
(dp2143
g74
(dp2144
g82
I5
ssg83
g2138
sg76
(lp2145
S'/home/shipra/Desktop/Semester 1.2/ITWS-2/web2py/applications/Assignment_2/'
p2146
asbasbasbag69
(g85
g71
NtRp2147
(dp2148
g74
(dp2149
sg83
g79
sg76
(lp2150
g69
(g90
g71
NtRp2151
(dp2152
g74
(dp2153
g94
g95
ssg83
g2147
sg76
(lp2154
S'function'
p2155
asbag69
(g90
g71
NtRp2156
(dp2157
g74
(dp2158
g101
g102
ssg83
g2147
sg76
(lp2159
S':'
asbag69
(g90
g71
NtRp2160
(dp2161
g74
(dp2162
sg83
g2147
sg76
(lp2163
g69
(g70
g71
NtRp2164
(dp2165
g74
(dp2166
g82
I5
ssg83
g2160
sg76
(lp2167
S'categ_display'
p2168
asbasbasbag69
(g85
g71
NtRp2169
(dp2170
g74
(dp2171
sg83
g79
sg76
(lp2172
g69
(g90
g71
NtRp2173
(dp2174
g74
(dp2175
g94
g95
ssg83
g2169
sg76
(lp2176
S'get_vars'
p2177
asbag69
(g90
g71
NtRp2178
(dp2179
g74
(dp2180
g101
g102
ssg83
g2169
sg76
(lp2181
S':'
asbag69
(g90
g71
NtRp2182
(dp2183
g74
(dp2184
sg83
g2169
sg76
(lp2185
g69
(g70
g71
NtRp2186
(dp2187
g74
(dp2188
g82
I5
ssg83
g2182
sg76
(lp2189
g69
(g78
g71
NtRp2190
(dp2191
g74
(dp2192
g82
I4
ssg83
Nsg76
(lp2193
sbasbasbasbag69
(g85
g71
NtRp2194
(dp2195
g74
(dp2196
sg83
g79
sg76
(lp2197
g69
(g90
g71
NtRp2198
(dp2199
g74
(dp2200
g94
g95
ssg83
g2194
sg76
(lp2201
S'global_settings'
p2202
asbag69
(g90
g71
NtRp2203
(dp2204
g74
(dp2205
g101
g102
ssg83
g2194
sg76
(lp2206
S':'
asbag69
(g90
g71
NtRp2207
(dp2208
g74
(dp2209
sg83
g2194
sg76
(lp2210
g69
(g70
g71
NtRp2211
(dp2212
g74
(dp2213
g82
I5
ssg83
g2207
sg76
(lp2214
g69
(g78
g71
NtRp2215
(dp2216
g74
(dp2217
g82
I4
ssg83
Nsg76
(lp2218
g69
(g85
g71
NtRp2219
(dp2220
g74
(dp2221
sg83
g2215
sg76
(lp2222
g69
(g90
g71
NtRp2223
(dp2224
g74
(dp2225
g94
g95
ssg83
g2219
sg76
(lp2226
g1070
asbag69
(g90
g71
NtRp2227
(dp2228
g74
(dp2229
g101
g102
ssg83
g2219
sg76
(lp2230
S':'
asbag69
(g90
g71
NtRp2231
(dp2232
g74
(dp2233
sg83
g2219
sg76
(lp2234
g69
(g70
g71
NtRp2235
(dp2236
g74
(dp2237
g82
I4
ssg83
g2231
sg76
(lp2238
S"set(['/home/shipra/Desktop/Semester 1.2/ITWS-2/web2py/applications/Assignment_2/', '/home/shipra/Desktop/Semester 1.2/ITWS-2/web2py/applications/welcome/', '/home/shipra/Desktop/Semester 1.2/ITWS-2/web2py/applications/admin/'])"
p2239
asbasbasbag69
(g85
g71
NtRp2240
(dp2241
g74
(dp2242
sg83
g2215
sg76
(lp2243
g69
(g90
g71
NtRp2244
(dp2245
g74
(dp2246
g94
g95
ssg83
g2240
sg76
(lp2247
g1092
asbag69
(g90
g71
NtRp2248
(dp2249
g74
(dp2250
g101
g102
ssg83
g2240
sg76
(lp2251
S':'
asbag69
(g90
g71
NtRp2252
(dp2253
g74
(dp2254
sg83
g2240
sg76
(lp2255
g69
(g70
g71
NtRp2256
(dp2257
g74
(dp2258
g82
I4
ssg83
g2252
sg76
(lp2259
g1105
asbasbasbag69
(g85
g71
NtRp2260
(dp2261
g74
(dp2262
sg83
g2215
sg76
(lp2263
g69
(g90
g71
NtRp2264
(dp2265
g74
(dp2266
g94
g95
ssg83
g2260
sg76
(lp2267
g1114
asbag69
(g90
g71
NtRp2268
(dp2269
g74
(dp2270
g101
g102
ssg83
g2260
sg76
(lp2271
S':'
asbag69
(g90
g71
NtRp2272
(dp2273
g74
(dp2274
sg83
g2260
sg76
(lp2275
g69
(g70
g71
NtRp2276
(dp2277
g74
(dp2278
g82
I4
ssg83
g2272
sg76
(lp2279
g69
(g78
g71
NtRp2280
(dp2281
g74
(dp2282
g82
I3
ssg83
Nsg76
(lp2283
sbasbasbasbag69
(g85
g71
NtRp2284
(dp2285
g74
(dp2286
sg83
g2215
sg76
(lp2287
g69
(g90
g71
NtRp2288
(dp2289
g74
(dp2290
g94
g95
ssg83
g2284
sg76
(lp2291
g1139
asbag69
(g90
g71
NtRp2292
(dp2293
g74
(dp2294
g101
g102
ssg83
g2284
sg76
(lp2295
S':'
asbag69
(g90
g71
NtRp2296
(dp2297
g74
(dp2298
sg83
g2284
sg76
(lp2299
g69
(g70
g71
NtRp2300
(dp2301
g74
(dp2302
g82
I4
ssg83
g2296
sg76
(lp2303
S"<Values at 0x29db290: {'verbose': False, 'ip': '127.0.0.1', 'with_scheduler': False, 'ips': ['10.1.129.70', '192.168.122.1', '10.42.0.99', 'fe80::8a53:2eff:fe7d:9d6c%wlan0', 'fe80::e611:5bff:fe38:8d0d%p5p1'], 'shutdown_timeout': 5, 'taskbar': False, 'port': 8000, 'maxthreads': None, 'softcron': False, 'server_name': 'shipra', 'bpython': False, 'nogui': False, 'pid_filename': 'httpserver.pid', 'extcron': False, 'runcron': False, 'run_system_tests': False, 'test': None, 'folder': '/home/shipra/Desktop/Semester 1.2/ITWS-2/web2py', 'config': '', 'minthreads': None, 'winservice': '', 'shell': None, 'run': '', 'log_filename': 'httpserver.log', 'debuglevel': 30, 'args': [''], 'socket_timeout': 5, 'ssl_ca_certificate': None, 'scheduler': None, 'profiler_filename': None, 'ssl_private_key': '', 'scheduler_groups': None, 'password': '<ask>', 'request_queue_size': 5, 'ssl_certificate': '', 'cronjob': False, 'numthreads': None, 'quiet': False, 'interfaces': None, 'import_models': False, 'timeout': 10, 'plain': False, 'nobanner': False}>"
p2304
asbasbasbag69
(g85
g71
NtRp2305
(dp2306
g74
(dp2307
sg83
g2215
sg76
(lp2308
g69
(g90
g71
NtRp2309
(dp2310
g74
(dp2311
g94
g95
ssg83
g2305
sg76
(lp2312
g1161
asbag69
(g90
g71
NtRp2313
(dp2314
g74
(dp2315
g101
g102
ssg83
g2305
sg76
(lp2316
S':'
asbag69
(g90
g71
NtRp2317
(dp2318
g74
(dp2319
sg83
g2305
sg76
(lp2320
g69
(g70
g71
NtRp2321
(dp2322
g74
(dp2323
g82
I4
ssg83
g2317
sg76
(lp2324
S'set([])'
p2325
asbasbasbag69
(g85
g71
NtRp2326
(dp2327
g74
(dp2328
sg83
g2215
sg76
(lp2329
g69
(g90
g71
NtRp2330
(dp2331
g74
(dp2332
g94
g95
ssg83
g2326
sg76
(lp2333
g1183
asbag69
(g90
g71
NtRp2334
(dp2335
g74
(dp2336
g101
g102
ssg83
g2326
sg76
(lp2337
S':'
asbag69
(g90
g71
NtRp2338
(dp2339
g74
(dp2340
sg83
g2326
sg76
(lp2341
g69
(g70
g71
NtRp2342
(dp2343
g74
(dp2344
g82
I4
ssg83
g2338
sg76
(lp2345
g112
asbasbasbag69
(g85
g71
NtRp2346
(dp2347
g74
(dp2348
sg83
g2215
sg76
(lp2349
g69
(g90
g71
NtRp2350
(dp2351
g74
(dp2352
g94
g95
ssg83
g2346
sg76
(lp2353
g1204
asbag69
(g90
g71
NtRp2354
(dp2355
g74
(dp2356
g101
g102
ssg83
g2346
sg76
(lp2357
S':'
asbag69
(g90
g71
NtRp2358
(dp2359
g74
(dp2360
sg83
g2346
sg76
(lp2361
g69
(g70
g71
NtRp2362
(dp2363
g74
(dp2364
g82
I4
ssg83
g2358
sg76
(lp2365
g1217
asbasbasbag69
(g85
g71
NtRp2366
(dp2367
g74
(dp2368
sg83
g2215
sg76
(lp2369
g69
(g90
g71
NtRp2370
(dp2371
g74
(dp2372
g94
g95
ssg83
g2366
sg76
(lp2373
g1380
asbag69
(g90
g71
NtRp2374
(dp2375
g74
(dp2376
g101
g102
ssg83
g2366
sg76
(lp2377
S':'
asbag69
(g90
g71
NtRp2378
(dp2379
g74
(dp2380
sg83
g2366
sg76
(lp2381
g69
(g70
g71
NtRp2382
(dp2383
g74
(dp2384
g82
I4
ssg83
g2378
sg76
(lp2385
g112
asbasbasbag69
(g85
g71
NtRp2386
(dp2387
g74
(dp2388
sg83
g2215
sg76
(lp2389
g69
(g90
g71
NtRp2390
(dp2391
g74
(dp2392
g94
g95
ssg83
g2386
sg76
(lp2393
g1401
asbag69
(g90
g71
NtRp2394
(dp2395
g74
(dp2396
g101
g102
ssg83
g2386
sg76
(lp2397
S':'
asbag69
(g90
g71
NtRp2398
(dp2399
g74
(dp2400
sg83
g2386
sg76
(lp2401
g69
(g70
g71
NtRp2402
(dp2403
g74
(dp2404
g82
I4
ssg83
g2398
sg76
(lp2405
g112
asbasbasbag69
(g85
g71
NtRp2406
(dp2407
g74
(dp2408
sg83
g2215
sg76
(lp2409
g69
(g90
g71
NtRp2410
(dp2411
g74
(dp2412
g94
g95
ssg83
g2406
sg76
(lp2413
g1422
asbag69
(g90
g71
NtRp2414
(dp2415
g74
(dp2416
g101
g102
ssg83
g2406
sg76
(lp2417
S':'
asbag69
(g90
g71
NtRp2418
(dp2419
g74
(dp2420
sg83
g2406
sg76
(lp2421
g69
(g70
g71
NtRp2422
(dp2423
g74
(dp2424
g82
I4
ssg83
g2418
sg76
(lp2425
g69
(g78
g71
NtRp2426
(dp2427
g74
(dp2428
g82
I3
ssg83
Nsg76
(lp2429
g69
(g85
g71
NtRp2430
(dp2431
g74
(dp2432
sg83
g2426
sg76
(lp2433
g69
(g90
g71
NtRp2434
(dp2435
g74
(dp2436
sg83
g2430
sg76
(lp2437
g69
(g70
g71
NtRp2438
(dp2439
g74
(dp2440
g82
I3
ssg83
g2434
sg76
(lp2441
g1451
asbasbasbag69
(g85
g71
NtRp2442
(dp2443
g74
(dp2444
sg83
g2426
sg76
(lp2445
g69
(g90
g71
NtRp2446
(dp2447
g74
(dp2448
sg83
g2442
sg76
(lp2449
g69
(g70
g71
NtRp2450
(dp2451
g74
(dp2452
g82
I3
ssg83
g2446
sg76
(lp2453
g1464
asbasbasbag69
(g85
g71
NtRp2454
(dp2455
g74
(dp2456
sg83
g2426
sg76
(lp2457
g69
(g90
g71
NtRp2458
(dp2459
g74
(dp2460
sg83
g2454
sg76
(lp2461
g69
(g70
g71
NtRp2462
(dp2463
g74
(dp2464
g82
I3
ssg83
g2458
sg76
(lp2465
g1477
asbasbasbag69
(g85
g71
NtRp2466
(dp2467
g74
(dp2468
sg83
g2426
sg76
(lp2469
g69
(g90
g71
NtRp2470
(dp2471
g74
(dp2472
sg83
g2466
sg76
(lp2473
g69
(g70
g71
NtRp2474
(dp2475
g74
(dp2476
g82
I3
ssg83
g2470
sg76
(lp2477
g1490
asbasbasbag69
(g85
g71
NtRp2478
(dp2479
g74
(dp2480
sg83
g2426
sg76
(lp2481
g69
(g90
g71
NtRp2482
(dp2483
g74
(dp2484
sg83
g2478
sg76
(lp2485
g69
(g70
g71
NtRp2486
(dp2487
g74
(dp2488
g82
I3
ssg83
g2482
sg76
(lp2489
g1503
asbasbasbag69
(g85
g71
NtRp2490
(dp2491
g74
(dp2492
sg83
g2426
sg76
(lp2493
g69
(g90
g71
NtRp2494
(dp2495
g74
(dp2496
sg83
g2490
sg76
(lp2497
g69
(g70
g71
NtRp2498
(dp2499
g74
(dp2500
g82
I3
ssg83
g2494
sg76
(lp2501
g1516
asbasbasbag69
(g85
g71
NtRp2502
(dp2503
g74
(dp2504
sg83
g2426
sg76
(lp2505
g69
(g90
g71
NtRp2506
(dp2507
g74
(dp2508
sg83
g2502
sg76
(lp2509
g69
(g70
g71
NtRp2510
(dp2511
g74
(dp2512
g82
I3
ssg83
g2506
sg76
(lp2513
g1529
asbasbasbag69
(g85
g71
NtRp2514
(dp2515
g74
(dp2516
sg83
g2426
sg76
(lp2517
g69
(g90
g71
NtRp2518
(dp2519
g74
(dp2520
sg83
g2514
sg76
(lp2521
g69
(g70
g71
NtRp2522
(dp2523
g74
(dp2524
g82
I3
ssg83
g2518
sg76
(lp2525
g1542
asbasbasbag69
(g85
g71
NtRp2526
(dp2527
g74
(dp2528
sg83
g2426
sg76
(lp2529
g69
(g90
g71
NtRp2530
(dp2531
g74
(dp2532
sg83
g2526
sg76
(lp2533
g69
(g70
g71
NtRp2534
(dp2535
g74
(dp2536
g82
I3
ssg83
g2530
sg76
(lp2537
g1555
asbasbasbasbasbasbasbag69
(g85
g71
NtRp2538
(dp2539
g74
(dp2540
sg83
g2215
sg76
(lp2541
g69
(g90
g71
NtRp2542
(dp2543
g74
(dp2544
g94
g95
ssg83
g2538
sg76
(lp2545
g1823
asbag69
(g90
g71
NtRp2546
(dp2547
g74
(dp2548
g101
g102
ssg83
g2538
sg76
(lp2549
S':'
asbag69
(g90
g71
NtRp2550
(dp2551
g74
(dp2552
sg83
g2538
sg76
(lp2553
g69
(g70
g71
NtRp2554
(dp2555
g74
(dp2556
g82
I4
ssg83
g2550
sg76
(lp2557
g69
(g78
g71
NtRp2558
(dp2559
g74
(dp2560
g82
I3
ssg83
Nsg76
(lp2561
g69
(g85
g71
NtRp2562
(dp2563
g74
(dp2564
sg83
g2558
sg76
(lp2565
g69
(g90
g71
NtRp2566
(dp2567
g74
(dp2568
sg83
g2562
sg76
(lp2569
g69
(g70
g71
NtRp2570
(dp2571
g74
(dp2572
g82
I3
ssg83
g2566
sg76
(lp2573
S'2'
asbasbasbag69
(g85
g71
NtRp2574
(dp2575
g74
(dp2576
sg83
g2558
sg76
(lp2577
g69
(g90
g71
NtRp2578
(dp2579
g74
(dp2580
sg83
g2574
sg76
(lp2581
g69
(g70
g71
NtRp2582
(dp2583
g74
(dp2584
g82
I3
ssg83
g2578
sg76
(lp2585
S'3'
asbasbasbag69
(g85
g71
NtRp2586
(dp2587
g74
(dp2588
sg83
g2558
sg76
(lp2589
g69
(g90
g71
NtRp2590
(dp2591
g74
(dp2592
sg83
g2586
sg76
(lp2593
g69
(g70
g71
NtRp2594
(dp2595
g74
(dp2596
g82
I3
ssg83
g2590
sg76
(lp2597
S'2'
asbasbasbag69
(g85
g71
NtRp2598
(dp2599
g74
(dp2600
sg83
g2558
sg76
(lp2601
g69
(g90
g71
NtRp2602
(dp2603
g74
(dp2604
sg83
g2598
sg76
(lp2605
g69
(g70
g71
NtRp2606
(dp2607
g74
(dp2608
g82
I3
ssg83
g2602
sg76
(lp2609
S'datetime.datetime(2012, 12, 17, 15, 3, 30)'
p2610
asbasbasbag69
(g85
g71
NtRp2611
(dp2612
g74
(dp2613
sg83
g2558
sg76
(lp2614
g69
(g90
g71
NtRp2615
(dp2616
g74
(dp2617
sg83
g2611
sg76
(lp2618
g69
(g70
g71
NtRp2619
(dp2620
g74
(dp2621
g82
I3
ssg83
g2615
sg76
(lp2622
g1901
asbasbasbasbasbasbasbasbasbasbasbag69
(g85
g71
NtRp2623
(dp2624
g74
(dp2625
sg83
g79
sg76
(lp2626
g69
(g90
g71
NtRp2627
(dp2628
g74
(dp2629
g94
g95
ssg83
g2623
sg76
(lp2630
S'is_https'
p2631
asbag69
(g90
g71
NtRp2632
(dp2633
g74
(dp2634
g101
g102
ssg83
g2623
sg76
(lp2635
S':'
asbag69
(g90
g71
NtRp2636
(dp2637
g74
(dp2638
sg83
g2623
sg76
(lp2639
g69
(g70
g71
NtRp2640
(dp2641
g74
(dp2642
g82
I5
ssg83
g2636
sg76
(lp2643
g112
asbasbasbag69
(g85
g71
NtRp2644
(dp2645
g74
(dp2646
sg83
g79
sg76
(lp2647
g69
(g90
g71
NtRp2648
(dp2649
g74
(dp2650
g94
g95
ssg83
g2644
sg76
(lp2651
S'is_local'
p2652
asbag69
(g90
g71
NtRp2653
(dp2654
g74
(dp2655
g101
g102
ssg83
g2644
sg76
(lp2656
S':'
asbag69
(g90
g71
NtRp2657
(dp2658
g74
(dp2659
sg83
g2644
sg76
(lp2660
g69
(g70
g71
NtRp2661
(dp2662
g74
(dp2663
g82
I5
ssg83
g2657
sg76
(lp2664
g2010
asbasbasbag69
(g85
g71
NtRp2665
(dp2666
g74
(dp2667
sg83
g79
sg76
(lp2668
g69
(g90
g71
NtRp2669
(dp2670
g74
(dp2671
g94
g95
ssg83
g2665
sg76
(lp2672
S'is_restful'
p2673
asbag69
(g90
g71
NtRp2674
(dp2675
g74
(dp2676
g101
g102
ssg83
g2665
sg76
(lp2677
S':'
asbag69
(g90
g71
NtRp2678
(dp2679
g74
(dp2680
sg83
g2665
sg76
(lp2681
g69
(g70
g71
NtRp2682
(dp2683
g74
(dp2684
g82
I5
ssg83
g2678
sg76
(lp2685
g112
asbasbasbag69
(g85
g71
NtRp2686
(dp2687
g74
(dp2688
sg83
g79
sg76
(lp2689
g69
(g90
g71
NtRp2690
(dp2691
g74
(dp2692
g94
g95
ssg83
g2686
sg76
(lp2693
S'now'
p2694
asbag69
(g90
g71
NtRp2695
(dp2696
g74
(dp2697
g101
g102
ssg83
g2686
sg76
(lp2698
S':'
asbag69
(g90
g71
NtRp2699
(dp2700
g74
(dp2701
sg83
g2686
sg76
(lp2702
g69
(g70
g71
NtRp2703
(dp2704
g74
(dp2705
g82
I5
ssg83
g2699
sg76
(lp2706
S'datetime.datetime(2013, 8, 26, 21, 48, 13, 782488)'
p2707
asbasbasbag69
(g85
g71
NtRp2708
(dp2709
g74
(dp2710
sg83
g79
sg76
(lp2711
g69
(g90
g71
NtRp2712
(dp2713
g74
(dp2714
g94
g95
ssg83
g2708
sg76
(lp2715
S'post_vars'
p2716
asbag69
(g90
g71
NtRp2717
(dp2718
g74
(dp2719
g101
g102
ssg83
g2708
sg76
(lp2720
S':'
asbag69
(g90
g71
NtRp2721
(dp2722
g74
(dp2723
sg83
g2708
sg76
(lp2724
g69
(g70
g71
NtRp2725
(dp2726
g74
(dp2727
g82
I5
ssg83
g2721
sg76
(lp2728
g69
(g78
g71
NtRp2729
(dp2730
g74
(dp2731
g82
I4
ssg83
Nsg76
(lp2732
sbasbasbasbag69
(g85
g71
NtRp2733
(dp2734
g74
(dp2735
sg83
g79
sg76
(lp2736
g69
(g90
g71
NtRp2737
(dp2738
g74
(dp2739
g94
g95
ssg83
g2733
sg76
(lp2740
S'raw_args'
p2741
asbag69
(g90
g71
NtRp2742
(dp2743
g74
(dp2744
g101
g102
ssg83
g2733
sg76
(lp2745
S':'
asbag69
(g90
g71
NtRp2746
(dp2747
g74
(dp2748
sg83
g2733
sg76
(lp2749
g69
(g70
g71
NtRp2750
(dp2751
g74
(dp2752
g82
I5
ssg83
g2746
sg76
(lp2753
g171
asbasbasbag69
(g85
g71
NtRp2754
(dp2755
g74
(dp2756
sg83
g79
sg76
(lp2757
g69
(g90
g71
NtRp2758
(dp2759
g74
(dp2760
g94
g95
ssg83
g2754
sg76
(lp2761
S'raw_extension'
p2762
asbag69
(g90
g71
NtRp2763
(dp2764
g74
(dp2765
g101
g102
ssg83
g2754
sg76
(lp2766
S':'
asbag69
(g90
g71
NtRp2767
(dp2768
g74
(dp2769
sg83
g2754
sg76
(lp2770
g69
(g70
g71
NtRp2771
(dp2772
g74
(dp2773
g82
I5
ssg83
g2767
sg76
(lp2774
S'None'
p2775
asbasbasbag69
(g85
g71
NtRp2776
(dp2777
g74
(dp2778
sg83
g79
sg76
(lp2779
g69
(g90
g71
NtRp2780
(dp2781
g74
(dp2782
g94
g95
ssg83
g2776
sg76
(lp2783
S'url'
p2784
asbag69
(g90
g71
NtRp2785
(dp2786
g74
(dp2787
g101
g102
ssg83
g2776
sg76
(lp2788
S':'
asbag69
(g90
g71
NtRp2789
(dp2790
g74
(dp2791
sg83
g2776
sg76
(lp2792
g69
(g70
g71
NtRp2793
(dp2794
g74
(dp2795
g82
I5
ssg83
g2789
sg76
(lp2796
g1577
asbasbasbag69
(g85
g71
NtRp2797
(dp2798
g74
(dp2799
sg83
g79
sg76
(lp2800
g69
(g90
g71
NtRp2801
(dp2802
g74
(dp2803
g94
g95
ssg83
g2797
sg76
(lp2804
S'utcnow'
p2805
asbag69
(g90
g71
NtRp2806
(dp2807
g74
(dp2808
g101
g102
ssg83
g2797
sg76
(lp2809
S':'
asbag69
(g90
g71
NtRp2810
(dp2811
g74
(dp2812
sg83
g2797
sg76
(lp2813
g69
(g70
g71
NtRp2814
(dp2815
g74
(dp2816
g82
I5
ssg83
g2810
sg76
(lp2817
S'datetime.datetime(2013, 8, 26, 16, 18, 13, 782610)'
p2818
asbasbasbag69
(g85
g71
NtRp2819
(dp2820
g74
(dp2821
sg83
g79
sg76
(lp2822
g69
(g90
g71
NtRp2823
(dp2824
g74
(dp2825
g94
g95
ssg83
g2819
sg76
(lp2826
S'uuid'
p2827
asbag69
(g90
g71
NtRp2828
(dp2829
g74
(dp2830
g101
g102
ssg83
g2819
sg76
(lp2831
S':'
asbag69
(g90
g71
NtRp2832
(dp2833
g74
(dp2834
sg83
g2819
sg76
(lp2835
g69
(g70
g71
NtRp2836
(dp2837
g74
(dp2838
g82
I5
ssg83
g2832
sg76
(lp2839
S'Assignment_2/127.0.0.1.2013-08-26.21-48-13.f5a4893f-ea1c-4ae1-a0fb-b9f6dc4b07f8'
p2840
asbasbasbag69
(g85
g71
NtRp2841
(dp2842
g74
(dp2843
sg83
g79
sg76
(lp2844
g69
(g90
g71
NtRp2845
(dp2846
g74
(dp2847
g94
g95
ssg83
g2841
sg76
(lp2848
S'vars'
p2849
asbag69
(g90
g71
NtRp2850
(dp2851
g74
(dp2852
g101
g102
ssg83
g2841
sg76
(lp2853
S':'
asbag69
(g90
g71
NtRp2854
(dp2855
g74
(dp2856
sg83
g2841
sg76
(lp2857
g69
(g70
g71
NtRp2858
(dp2859
g74
(dp2860
g82
I5
ssg83
g2854
sg76
(lp2861
g69
(g78
g71
NtRp2862
(dp2863
g74
(dp2864
g82
I4
ssg83
Nsg76
(lp2865
sbasbasbasbag69
(g85
g71
NtRp2866
(dp2867
g74
(dp2868
sg83
g79
sg76
(lp2869
g69
(g90
g71
NtRp2870
(dp2871
g74
(dp2872
g94
g95
ssg83
g2866
sg76
(lp2873
S'wsgi'
p2874
asbag69
(g90
g71
NtRp2875
(dp2876
g74
(dp2877
g101
g102
ssg83
g2866
sg76
(lp2878
S':'
asbag69
(g90
g71
NtRp2879
(dp2880
g74
(dp2881
sg83
g2866
sg76
(lp2882
g69
(g70
g71
NtRp2883
(dp2884
g74
(dp2885
g82
I5
ssg83
g2879
sg76
(lp2886
g69
(g78
g71
NtRp2887
(dp2888
g74
(dp2889
g82
I4
ssg83
Nsg76
(lp2890
g69
(g85
g71
NtRp2891
(dp2892
g74
(dp2893
sg83
g2887
sg76
(lp2894
g69
(g90
g71
NtRp2895
(dp2896
g74
(dp2897
g94
g95
ssg83
g2891
sg76
(lp2898
S'environ'
p2899
asbag69
(g90
g71
NtRp2900
(dp2901
g74
(dp2902
g101
g102
ssg83
g2891
sg76
(lp2903
S':'
asbag69
(g90
g71
NtRp2904
(dp2905
g74
(dp2906
sg83
g2891
sg76
(lp2907
g69
(g70
g71
NtRp2908
(dp2909
g74
(dp2910
g82
I4
ssg83
g2904
sg76
(lp2911
g69
(g78
g71
NtRp2912
(dp2913
g74
(dp2914
g82
I3
ssg83
Nsg76
(lp2915
g69
(g85
g71
NtRp2916
(dp2917
g74
(dp2918
sg83
g2912
sg76
(lp2919
g69
(g90
g71
NtRp2920
(dp2921
g74
(dp2922
g94
g95
ssg83
g2916
sg76
(lp2923
S'HTTP_ACCEPT'
p2924
asbag69
(g90
g71
NtRp2925
(dp2926
g74
(dp2927
g101
g102
ssg83
g2916
sg76
(lp2928
S':'
asbag69
(g90
g71
NtRp2929
(dp2930
g74
(dp2931
sg83
g2916
sg76
(lp2932
g69
(g70
g71
NtRp2933
(dp2934
g74
(dp2935
g82
I3
ssg83
g2929
sg76
(lp2936
g1239
asbasbasbag69
(g85
g71
NtRp2937
(dp2938
g74
(dp2939
sg83
g2912
sg76
(lp2940
g69
(g90
g71
NtRp2941
(dp2942
g74
(dp2943
g94
g95
ssg83
g2937
sg76
(lp2944
S'HTTP_ACCEPT_ENCODING'
p2945
asbag69
(g90
g71
NtRp2946
(dp2947
g74
(dp2948
g101
g102
ssg83
g2937
sg76
(lp2949
S':'
asbag69
(g90
g71
NtRp2950
(dp2951
g74
(dp2952
sg83
g2937
sg76
(lp2953
g69
(g70
g71
NtRp2954
(dp2955
g74
(dp2956
g82
I3
ssg83
g2950
sg76
(lp2957
g1261
asbasbasbag69
(g85
g71
NtRp2958
(dp2959
g74
(dp2960
sg83
g2912
sg76
(lp2961
g69
(g90
g71
NtRp2962
(dp2963
g74
(dp2964
g94
g95
ssg83
g2958
sg76
(lp2965
S'HTTP_ACCEPT_LANGUAGE'
p2966
asbag69
(g90
g71
NtRp2967
(dp2968
g74
(dp2969
g101
g102
ssg83
g2958
sg76
(lp2970
S':'
asbag69
(g90
g71
NtRp2971
(dp2972
g74
(dp2973
sg83
g2958
sg76
(lp2974
g69
(g70
g71
NtRp2975
(dp2976
g74
(dp2977
g82
I3
ssg83
g2971
sg76
(lp2978
g1283
asbasbasbag69
(g85
g71
NtRp2979
(dp2980
g74
(dp2981
sg83
g2912
sg76
(lp2982
g69
(g90
g71
NtRp2983
(dp2984
g74
(dp2985
g94
g95
ssg83
g2979
sg76
(lp2986
S'HTTP_CONNECTION'
p2987
asbag69
(g90
g71
NtRp2988
(dp2989
g74
(dp2990
g101
g102
ssg83
g2979
sg76
(lp2991
S':'
asbag69
(g90
g71
NtRp2992
(dp2993
g74
(dp2994
sg83
g2979
sg76
(lp2995
g69
(g70
g71
NtRp2996
(dp2997
g74
(dp2998
g82
I3
ssg83
g2992
sg76
(lp2999
g1305
asbasbasbag69
(g85
g71
NtRp3000
(dp3001
g74
(dp3002
sg83
g2912
sg76
(lp3003
g69
(g90
g71
NtRp3004
(dp3005
g74
(dp3006
g94
g95
ssg83
g3000
sg76
(lp3007
S'HTTP_COOKIE'
p3008
asbag69
(g90
g71
NtRp3009
(dp3010
g74
(dp3011
g101
g102
ssg83
g3000
sg76
(lp3012
S':'
asbag69
(g90
g71
NtRp3013
(dp3014
g74
(dp3015
sg83
g3000
sg76
(lp3016
g69
(g70
g71
NtRp3017
(dp3018
g74
(dp3019
g82
I3
ssg83
g3013
sg76
(lp3020
g1327
asbasbasbag69
(g85
g71
NtRp3021
(dp3022
g74
(dp3023
sg83
g2912
sg76
(lp3024
g69
(g90
g71
NtRp3025
(dp3026
g74
(dp3027
g94
g95
ssg83
g3021
sg76
(lp3028
S'HTTP_HOST'
p3029
asbag69
(g90
g71
NtRp3030
(dp3031
g74
(dp3032
g101
g102
ssg83
g3021
sg76
(lp3033
S':'
asbag69
(g90
g71
NtRp3034
(dp3035
g74
(dp3036
sg83
g3021
sg76
(lp3037
g69
(g70
g71
NtRp3038
(dp3039
g74
(dp3040
g82
I3
ssg83
g3034
sg76
(lp3041
g1349
asbasbasbag69
(g85
g71
NtRp3042
(dp3043
g74
(dp3044
sg83
g2912
sg76
(lp3045
g69
(g90
g71
NtRp3046
(dp3047
g74
(dp3048
g94
g95
ssg83
g3042
sg76
(lp3049
S'HTTP_USER_AGENT'
p3050
asbag69
(g90
g71
NtRp3051
(dp3052
g74
(dp3053
g101
g102
ssg83
g3042
sg76
(lp3054
S':'
asbag69
(g90
g71
NtRp3055
(dp3056
g74
(dp3057
sg83
g3042
sg76
(lp3058
g69
(g70
g71
NtRp3059
(dp3060
g74
(dp3061
g82
I3
ssg83
g3055
sg76
(lp3062
g1371
asbasbasbag69
(g85
g71
NtRp3063
(dp3064
g74
(dp3065
sg83
g2912
sg76
(lp3066
g69
(g90
g71
NtRp3067
(dp3068
g74
(dp3069
g94
g95
ssg83
g3063
sg76
(lp3070
S'PATH_INFO'
p3071
asbag69
(g90
g71
NtRp3072
(dp3073
g74
(dp3074
g101
g102
ssg83
g3063
sg76
(lp3075
S':'
asbag69
(g90
g71
NtRp3076
(dp3077
g74
(dp3078
sg83
g3063
sg76
(lp3079
g69
(g70
g71
NtRp3080
(dp3081
g74
(dp3082
g82
I3
ssg83
g3076
sg76
(lp3083
g1577
asbasbasbag69
(g85
g71
NtRp3084
(dp3085
g74
(dp3086
sg83
g2912
sg76
(lp3087
g69
(g90
g71
NtRp3088
(dp3089
g74
(dp3090
g94
g95
ssg83
g3084
sg76
(lp3091
S'QUERY_STRING'
p3092
asbag69
(g90
g71
NtRp3093
(dp3094
g74
(dp3095
g101
g102
ssg83
g3084
sg76
(lp3096
S':'
asbag69
(g90
g71
NtRp3097
(dp3098
g74
(dp3099
sg83
g3084
sg76
(lp3100
g69
(g70
g71
NtRp3101
(dp3102
g74
(dp3103
g82
I3
ssg83
g3097
sg76
(lp3104
S''
asbasbasbag69
(g85
g71
NtRp3105
(dp3106
g74
(dp3107
sg83
g2912
sg76
(lp3108
g69
(g90
g71
NtRp3109
(dp3110
g74
(dp3111
g94
g95
ssg83
g3105
sg76
(lp3112
S'REMOTE_ADDR'
p3113
asbag69
(g90
g71
NtRp3114
(dp3115
g74
(dp3116
g101
g102
ssg83
g3105
sg76
(lp3117
S':'
asbag69
(g90
g71
NtRp3118
(dp3119
g74
(dp3120
sg83
g3105
sg76
(lp3121
g69
(g70
g71
NtRp3122
(dp3123
g74
(dp3124
g82
I3
ssg83
g3118
sg76
(lp3125
g237
asbasbasbag69
(g85
g71
NtRp3126
(dp3127
g74
(dp3128
sg83
g2912
sg76
(lp3129
g69
(g90
g71
NtRp3130
(dp3131
g74
(dp3132
g94
g95
ssg83
g3126
sg76
(lp3133
S'REMOTE_PORT'
p3134
asbag69
(g90
g71
NtRp3135
(dp3136
g74
(dp3137
g101
g102
ssg83
g3126
sg76
(lp3138
S':'
asbag69
(g90
g71
NtRp3139
(dp3140
g74
(dp3141
sg83
g3126
sg76
(lp3142
g69
(g70
g71
NtRp3143
(dp3144
g74
(dp3145
g82
I3
ssg83
g3139
sg76
(lp3146
g1641
asbasbasbag69
(g85
g71
NtRp3147
(dp3148
g74
(dp3149
sg83
g2912
sg76
(lp3150
g69
(g90
g71
NtRp3151
(dp3152
g74
(dp3153
g94
g95
ssg83
g3147
sg76
(lp3154
S'REQUEST_METHOD'
p3155
asbag69
(g90
g71
NtRp3156
(dp3157
g74
(dp3158
g101
g102
ssg83
g3147
sg76
(lp3159
S':'
asbag69
(g90
g71
NtRp3160
(dp3161
g74
(dp3162
sg83
g3147
sg76
(lp3163
g69
(g70
g71
NtRp3164
(dp3165
g74
(dp3166
g82
I3
ssg83
g3160
sg76
(lp3167
g1663
asbasbasbag69
(g85
g71
NtRp3168
(dp3169
g74
(dp3170
sg83
g2912
sg76
(lp3171
g69
(g90
g71
NtRp3172
(dp3173
g74
(dp3174
g94
g95
ssg83
g3168
sg76
(lp3175
S'REQUEST_URI'
p3176
asbag69
(g90
g71
NtRp3177
(dp3178
g74
(dp3179
g101
g102
ssg83
g3168
sg76
(lp3180
S':'
asbag69
(g90
g71
NtRp3181
(dp3182
g74
(dp3183
sg83
g3168
sg76
(lp3184
g69
(g70
g71
NtRp3185
(dp3186
g74
(dp3187
g82
I3
ssg83
g3181
sg76
(lp3188
g1577
asbasbasbag69
(g85
g71
NtRp3189
(dp3190
g74
(dp3191
sg83
g2912
sg76
(lp3192
g69
(g90
g71
NtRp3193
(dp3194
g74
(dp3195
g94
g95
ssg83
g3189
sg76
(lp3196
S'SCRIPT_NAME'
p3197
asbag69
(g90
g71
NtRp3198
(dp3199
g74
(dp3200
g101
g102
ssg83
g3189
sg76
(lp3201
S':'
asbag69
(g90
g71
NtRp3202
(dp3203
g74
(dp3204
sg83
g3189
sg76
(lp3205
g69
(g70
g71
NtRp3206
(dp3207
g74
(dp3208
g82
I3
ssg83
g3202
sg76
(lp3209
S''
asbasbasbag69
(g85
g71
NtRp3210
(dp3211
g74
(dp3212
sg83
g2912
sg76
(lp3213
g69
(g90
g71
NtRp3214
(dp3215
g74
(dp3216
g94
g95
ssg83
g3210
sg76
(lp3217
S'SERVER_NAME'
p3218
asbag69
(g90
g71
NtRp3219
(dp3220
g74
(dp3221
g101
g102
ssg83
g3210
sg76
(lp3222
S':'
asbag69
(g90
g71
NtRp3223
(dp3224
g74
(dp3225
sg83
g3210
sg76
(lp3226
g69
(g70
g71
NtRp3227
(dp3228
g74
(dp3229
g82
I3
ssg83
g3223
sg76
(lp3230
g1727
asbasbasbag69
(g85
g71
NtRp3231
(dp3232
g74
(dp3233
sg83
g2912
sg76
(lp3234
g69
(g90
g71
NtRp3235
(dp3236
g74
(dp3237
g94
g95
ssg83
g3231
sg76
(lp3238
S'SERVER_PORT'
p3239
asbag69
(g90
g71
NtRp3240
(dp3241
g74
(dp3242
g101
g102
ssg83
g3231
sg76
(lp3243
S':'
asbag69
(g90
g71
NtRp3244
(dp3245
g74
(dp3246
sg83
g3231
sg76
(lp3247
g69
(g70
g71
NtRp3248
(dp3249
g74
(dp3250
g82
I3
ssg83
g3244
sg76
(lp3251
g1749
asbasbasbag69
(g85
g71
NtRp3252
(dp3253
g74
(dp3254
sg83
g2912
sg76
(lp3255
g69
(g90
g71
NtRp3256
(dp3257
g74
(dp3258
g94
g95
ssg83
g3252
sg76
(lp3259
S'SERVER_PROTOCOL'
p3260
asbag69
(g90
g71
NtRp3261
(dp3262
g74
(dp3263
g101
g102
ssg83
g3252
sg76
(lp3264
S':'
asbag69
(g90
g71
NtRp3265
(dp3266
g74
(dp3267
sg83
g3252
sg76
(lp3268
g69
(g70
g71
NtRp3269
(dp3270
g74
(dp3271
g82
I3
ssg83
g3265
sg76
(lp3272
g1771
asbasbasbag69
(g85
g71
NtRp3273
(dp3274
g74
(dp3275
sg83
g2912
sg76
(lp3276
g69
(g90
g71
NtRp3277
(dp3278
g74
(dp3279
g94
g95
ssg83
g3273
sg76
(lp3280
S'SERVER_SOFTWARE'
p3281
asbag69
(g90
g71
NtRp3282
(dp3283
g74
(dp3284
g101
g102
ssg83
g3273
sg76
(lp3285
S':'
asbag69
(g90
g71
NtRp3286
(dp3287
g74
(dp3288
sg83
g3273
sg76
(lp3289
g69
(g70
g71
NtRp3290
(dp3291
g74
(dp3292
g82
I3
ssg83
g3286
sg76
(lp3293
g1793
asbasbasbag69
(g85
g71
NtRp3294
(dp3295
g74
(dp3296
sg83
g2912
sg76
(lp3297
g69
(g90
g71
NtRp3298
(dp3299
g74
(dp3300
g94
g95
ssg83
g3294
sg76
(lp3301
S'wsgi.errors'
p3302
asbag69
(g90
g71
NtRp3303
(dp3304
g74
(dp3305
g101
g102
ssg83
g3294
sg76
(lp3306
S':'
asbag69
(g90
g71
NtRp3307
(dp3308
g74
(dp3309
sg83
g3294
sg76
(lp3310
g69
(g70
g71
NtRp3311
(dp3312
g74
(dp3313
g82
I3
ssg83
g3307
sg76
(lp3314
S"<open file '<stderr>', mode 'w' at 0x7f8fa085a270>"
p3315
asbasbasbag69
(g85
g71
NtRp3316
(dp3317
g74
(dp3318
sg83
g2912
sg76
(lp3319
g69
(g90
g71
NtRp3320
(dp3321
g74
(dp3322
g94
g95
ssg83
g3316
sg76
(lp3323
S'wsgi.file_wrapper'
p3324
asbag69
(g90
g71
NtRp3325
(dp3326
g74
(dp3327
g101
g102
ssg83
g3316
sg76
(lp3328
S':'
asbag69
(g90
g71
NtRp3329
(dp3330
g74
(dp3331
sg83
g3316
sg76
(lp3332
g69
(g70
g71
NtRp3333
(dp3334
g74
(dp3335
g82
I3
ssg83
g3329
sg76
(lp3336
S'<class wsgiref.util.FileWrapper at 0x2964e20>'
p3337
asbasbasbag69
(g85
g71
NtRp3338
(dp3339
g74
(dp3340
sg83
g2912
sg76
(lp3341
g69
(g90
g71
NtRp3342
(dp3343
g74
(dp3344
g94
g95
ssg83
g3338
sg76
(lp3345
S'wsgi.input'
p3346
asbag69
(g90
g71
NtRp3347
(dp3348
g74
(dp3349
g101
g102
ssg83
g3338
sg76
(lp3350
S':'
asbag69
(g90
g71
NtRp3351
(dp3352
g74
(dp3353
sg83
g3338
sg76
(lp3354
g69
(g70
g71
NtRp3355
(dp3356
g74
(dp3357
g82
I3
ssg83
g3351
sg76
(lp3358
S'<cStringIO.StringO object at 0x7f8f7414a0d8>'
p3359
asbasbasbag69
(g85
g71
NtRp3360
(dp3361
g74
(dp3362
sg83
g2912
sg76
(lp3363
g69
(g90
g71
NtRp3364
(dp3365
g74
(dp3366
g94
g95
ssg83
g3360
sg76
(lp3367
S'wsgi.multiprocess'
p3368
asbag69
(g90
g71
NtRp3369
(dp3370
g74
(dp3371
g101
g102
ssg83
g3360
sg76
(lp3372
S':'
asbag69
(g90
g71
NtRp3373
(dp3374
g74
(dp3375
sg83
g3360
sg76
(lp3376
g69
(g70
g71
NtRp3377
(dp3378
g74
(dp3379
g82
I3
ssg83
g3373
sg76
(lp3380
g112
asbasbasbag69
(g85
g71
NtRp3381
(dp3382
g74
(dp3383
sg83
g2912
sg76
(lp3384
g69
(g90
g71
NtRp3385
(dp3386
g74
(dp3387
g94
g95
ssg83
g3381
sg76
(lp3388
S'wsgi.multithread'
p3389
asbag69
(g90
g71
NtRp3390
(dp3391
g74
(dp3392
g101
g102
ssg83
g3381
sg76
(lp3393
S':'
asbag69
(g90
g71
NtRp3394
(dp3395
g74
(dp3396
sg83
g3381
sg76
(lp3397
g69
(g70
g71
NtRp3398
(dp3399
g74
(dp3400
g82
I3
ssg83
g3394
sg76
(lp3401
g2010
asbasbasbag69
(g85
g71
NtRp3402
(dp3403
g74
(dp3404
sg83
g2912
sg76
(lp3405
g69
(g90
g71
NtRp3406
(dp3407
g74
(dp3408
g94
g95
ssg83
g3402
sg76
(lp3409
S'wsgi.run_once'
p3410
asbag69
(g90
g71
NtRp3411
(dp3412
g74
(dp3413
g101
g102
ssg83
g3402
sg76
(lp3414
S':'
asbag69
(g90
g71
NtRp3415
(dp3416
g74
(dp3417
sg83
g3402
sg76
(lp3418
g69
(g70
g71
NtRp3419
(dp3420
g74
(dp3421
g82
I3
ssg83
g3415
sg76
(lp3422
g112
asbasbasbag69
(g85
g71
NtRp3423
(dp3424
g74
(dp3425
sg83
g2912
sg76
(lp3426
g69
(g90
g71
NtRp3427
(dp3428
g74
(dp3429
g94
g95
ssg83
g3423
sg76
(lp3430
S'wsgi.url_scheme'
p3431
asbag69
(g90
g71
NtRp3432
(dp3433
g74
(dp3434
g101
g102
ssg83
g3423
sg76
(lp3435
S':'
asbag69
(g90
g71
NtRp3436
(dp3437
g74
(dp3438
sg83
g3423
sg76
(lp3439
g69
(g70
g71
NtRp3440
(dp3441
g74
(dp3442
g82
I3
ssg83
g3436
sg76
(lp3443
g2053
asbasbasbag69
(g85
g71
NtRp3444
(dp3445
g74
(dp3446
sg83
g2912
sg76
(lp3447
g69
(g90
g71
NtRp3448
(dp3449
g74
(dp3450
g94
g95
ssg83
g3444
sg76
(lp3451
S'wsgi.version'
p3452
asbag69
(g90
g71
NtRp3453
(dp3454
g74
(dp3455
g101
g102
ssg83
g3444
sg76
(lp3456
S':'
asbag69
(g90
g71
NtRp3457
(dp3458
g74
(dp3459
sg83
g3444
sg76
(lp3460
g69
(g70
g71
NtRp3461
(dp3462
g74
(dp3463
g82
I3
ssg83
g3457
sg76
(lp3464
S'1'
asbasbasbasbasbasbasbasbasbasbasbasbasbsS'frames'
p3465
(lp3466
(dp3467
S'file'
p3468
S'/home/shipra/Desktop/Semester 1.2/ITWS-2/web2py/gluon/restricted.py'
p3469
sS'dump'
p3470
(dp3471
S'environment'
p3472
S"{'A': <class 'gluon.html.A'>, 'Auth': <class 'gluon.tools.Auth'>, 'B': <class 'gluon.html.B'>, 'BEAUTIFY': <class 'gluon.html.BEAUTIFY'>, 'BODY': <class 'gluon.html.BODY'>, 'BR': <class 'gluon.html.BR'>, 'BUTTON': <class 'gluon.html.BUTTON'>, 'CAT': <class 'gluon.html.CAT'>, 'CENTER': <class 'gluon.html.CENTER'>, 'CLEANUP': <class 'gluon.validators.CLEANUP'>, ...}"
p3473
sS'ccode'
p3474
S'<code object <module> at 0x7f8f7c60eeb0, file "/...applications/Assignment_2/models/db.py", line 12>'
p3475
ssS'lnum'
p3476
I212
sS'lines'
p3477
(dp3478
I207
S'    try:'
p3479
sI208
S'        if isinstance(code, types.CodeType):'
p3480
sI209
S'            ccode = code'
p3481
sI210
S'        else:'
p3482
sI211
S'            ccode = compile2(code, layer)'
p3483
sI212
S'        exec ccode in environment'
p3484
sI213
S'    except HTTP:'
p3485
sI214
S'        raise'
p3486
sI215
S'    except RestrictedError:'
p3487
sI216
S'        # do not encapsulate (obfuscate) the original RestrictedError'
p3488
ssS'call'
p3489
S'(code="# -*- coding: utf-8 -*-\\n\\n#######################...erid\',\'integer\'),\\n\\tdb.Field(\'postid\',\'integer\'))\\n", environment={\'A\': <class \'gluon.html.A\'>, \'Auth\': <class \'gluon.tools.Auth\'>, \'B\': <class \'gluon.html.B\'>, \'BEAUTIFY\': <class \'gluon.html.BEAUTIFY\'>, \'BODY\': <class \'gluon.html.BODY\'>, \'BR\': <class \'gluon.html.BR\'>, \'BUTTON\': <class \'gluon.html.BUTTON\'>, \'CAT\': <class \'gluon.html.CAT\'>, \'CENTER\': <class \'gluon.html.CENTER\'>, \'CLEANUP\': <class \'gluon.validators.CLEANUP\'>, ...}, layer=\'/home/shipra/Desktop/Semester 1.2/ITWS-2/web2py/applications/Assignment_2/models/db.py\')'
p3490
sS'func'
p3491
S'restricted'
p3492
sa(dp3493
g3468
S'/home/shipra/Desktop/Semester 1.2/ITWS-2/web2py/applications/Assignment_2/models/db.py'
p3494
sg3470
(dp3495
S'db.Field'
p3496
S"<class 'gluon.dal.Field'>"
p3497
sS'db'
p3498
S'<DAL uri="sqlite://storage.sqlite">'
p3499
ssg3476
I97
sg3477
(dp3500
I96
S"\tdb.Field('userid','integer'),"
p3501
sI97
S"\tdb.Field('postid','integer'))"
p3502
sI98
S''
sI99
S"db.define_table('Dislike',"
p3503
sI100
S"\tdb.Field('userid','integer'),"
p3504
sI101
S"\tdb.Field('postid','integer'))"
p3505
sI92
S"db.define_table('Category',"
p3506
sI93
S"\tdb.Field('Cname','string'))"
p3507
sI94
S''
sI95
S"db.define_table('Like',"
p3508
ssg3489
S'()'
p3509
sg3491
S'<module>'
p3510
sa(dp3511
g3468
S'/home/shipra/Desktop/Semester 1.2/ITWS-2/web2py/gluon/dal.py'
p3512
sg3470
(dp3513
S'self.check_reserved_keyword'
p3514
S'<bound method DAL.check_reserved_keyword of <DAL uri="sqlite://storage.sqlite">>'
p3515
sS'self'
p3516
S'<DAL uri="sqlite://storage.sqlite">'
p3517
sS'tablename'
p3518
S"'Like'"
p3519
ssg3476
I7176
sg3477
(dp3520
I7171
S"                raise SyntaxError('table already defined: %s' % tablename)"
p3521
sI7172
S"        elif tablename.startswith('_') or hasattr(self,tablename) or \\"
p3522
sI7173
S'                REGEX_PYTHON_KEYWORDS.match(tablename):'
p3523
sI7174
S"            raise SyntaxError('invalid table name: %s' % tablename)"
p3524
sI7175
S'        elif self.check_reserved:'
p3525
sI7176
S'            self.check_reserved_keyword(tablename)'
p3526
sI7177
S'        else:'
p3527
sI7178
S'            invalid_args = set(args)-TABLE_ARGS'
p3528
sI7179
S'            if invalid_args:'
p3529
sI7180
S'                raise SyntaxError(\'invalid table "%s" attributes: %s\' \\'
p3530
ssg3489
S'(self=<DAL uri="sqlite://storage.sqlite">, tablename=\'Like\', *fields=(<gluon.dal.Field object>, <gluon.dal.Field object>), **args={})'
p3531
sg3491
S'define_table'
p3532
sa(dp3533
g3468
S'/home/shipra/Desktop/Semester 1.2/ITWS-2/web2py/gluon/dal.py'
p3534
sg3470
(dp3535
S'backend.upper'
p3536
S'<built-in method upper of str object>'
p3537
sS'name'
p3538
S"'Like'"
p3539
sS'backend'
p3540
S"'all'"
p3541
ssg3476
I6930
sg3477
(dp3542
I6925
S"        ['all']"
p3543
sI6926
S'        """'
p3544
sI6927
S'        for backend in self.check_reserved:'
p3545
sI6928
S'            if name.upper() in self.RSK[backend]:'
p3546
sI6929
S'                raise SyntaxError('
p3547
sI6930
S'                    \'invalid table/column name "%s" is a "%s" reserved SQL keyword\' % (name, backend.upper()))'
p3548
sI6931
S''
sI6932
S'    def parse_as_rest(self,patterns,args,vars,queries=None,nested_select=True):'
p3549
sI6933
S'        """'
p3550
sI6934
S'        EXAMPLE:'
p3551
ssg3489
S'(self=<DAL uri="sqlite://storage.sqlite">, name=\'Like\')'
p3552
sg3491
S'check_reserved_keyword'
p3553
sasS'pyver'
p3554
S'Python 2.7.3: /usr/bin/python'
p3555
sS'session'
p3556
g69
(g70
g71
NtRp3557
(dp3558
g74
(dp3559
sg76
(lp3560
g69
(g78
g71
NtRp3561
(dp3562
g74
(dp3563
g82
I5
ssg83
Nsg76
(lp3564
g69
(g85
g71
NtRp3565
(dp3566
g74
(dp3567
sg83
g3561
sg76
(lp3568
g69
(g90
g71
NtRp3569
(dp3570
g74
(dp3571
g94
g95
ssg83
g3565
sg76
(lp3572
S'auth'
p3573
asbag69
(g90
g71
NtRp3574
(dp3575
g74
(dp3576
g101
g102
ssg83
g3565
sg76
(lp3577
S':'
asbag69
(g90
g71
NtRp3578
(dp3579
g74
(dp3580
sg83
g3565
sg76
(lp3581
g69
(g70
g71
NtRp3582
(dp3583
g74
(dp3584
g82
I5
ssg83
g3578
sg76
(lp3585
g69
(g78
g71
NtRp3586
(dp3587
g74
(dp3588
g82
I4
ssg83
Nsg76
(lp3589
g69
(g85
g71
NtRp3590
(dp3591
g74
(dp3592
sg83
g3586
sg76
(lp3593
g69
(g90
g71
NtRp3594
(dp3595
g74
(dp3596
g94
g95
ssg83
g3590
sg76
(lp3597
S'expiration'
p3598
asbag69
(g90
g71
NtRp3599
(dp3600
g74
(dp3601
g101
g102
ssg83
g3590
sg76
(lp3602
S':'
asbag69
(g90
g71
NtRp3603
(dp3604
g74
(dp3605
sg83
g3590
sg76
(lp3606
g69
(g70
g71
NtRp3607
(dp3608
g74
(dp3609
g82
I4
ssg83
g3603
sg76
(lp3610
S'3600'
p3611
asbasbasbag69
(g85
g71
NtRp3612
(dp3613
g74
(dp3614
sg83
g3586
sg76
(lp3615
g69
(g90
g71
NtRp3616
(dp3617
g74
(dp3618
g94
g95
ssg83
g3612
sg76
(lp3619
S'hmac_key'
p3620
asbag69
(g90
g71
NtRp3621
(dp3622
g74
(dp3623
g101
g102
ssg83
g3612
sg76
(lp3624
S':'
asbag69
(g90
g71
NtRp3625
(dp3626
g74
(dp3627
sg83
g3612
sg76
(lp3628
g69
(g70
g71
NtRp3629
(dp3630
g74
(dp3631
g82
I4
ssg83
g3625
sg76
(lp3632
S'19b6be16-473c-43aa-85c0-9213dc5eee79'
p3633
asbasbasbag69
(g85
g71
NtRp3634
(dp3635
g74
(dp3636
sg83
g3586
sg76
(lp3637
g69
(g90
g71
NtRp3638
(dp3639
g74
(dp3640
g94
g95
ssg83
g3634
sg76
(lp3641
S'last_visit'
p3642
asbag69
(g90
g71
NtRp3643
(dp3644
g74
(dp3645
g101
g102
ssg83
g3634
sg76
(lp3646
S':'
asbag69
(g90
g71
NtRp3647
(dp3648
g74
(dp3649
sg83
g3634
sg76
(lp3650
g69
(g70
g71
NtRp3651
(dp3652
g74
(dp3653
g82
I4
ssg83
g3647
sg76
(lp3654
S'datetime.datetime(2013, 8, 26, 21, 48, 13, 782488)'
p3655
asbasbasbag69
(g85
g71
NtRp3656
(dp3657
g74
(dp3658
sg83
g3586
sg76
(lp3659
g69
(g90
g71
NtRp3660
(dp3661
g74
(dp3662
g94
g95
ssg83
g3656
sg76
(lp3663
S'remember'
p3664
asbag69
(g90
g71
NtRp3665
(dp3666
g74
(dp3667
g101
g102
ssg83
g3656
sg76
(lp3668
S':'
asbag69
(g90
g71
NtRp3669
(dp3670
g74
(dp3671
sg83
g3656
sg76
(lp3672
g69
(g70
g71
NtRp3673
(dp3674
g74
(dp3675
g82
I4
ssg83
g3669
sg76
(lp3676
g112
asbasbasbag69
(g85
g71
NtRp3677
(dp3678
g74
(dp3679
sg83
g3586
sg76
(lp3680
g69
(g90
g71
NtRp3681
(dp3682
g74
(dp3683
g94
g95
ssg83
g3677
sg76
(lp3684
S'user'
p3685
asbag69
(g90
g71
NtRp3686
(dp3687
g74
(dp3688
g101
g102
ssg83
g3677
sg76
(lp3689
S':'
asbag69
(g90
g71
NtRp3690
(dp3691
g74
(dp3692
sg83
g3677
sg76
(lp3693
g69
(g70
g71
NtRp3694
(dp3695
g74
(dp3696
g82
I4
ssg83
g3690
sg76
(lp3697
g69
(g78
g71
NtRp3698
(dp3699
g74
(dp3700
g82
I3
ssg83
Nsg76
(lp3701
g69
(g85
g71
NtRp3702
(dp3703
g74
(dp3704
sg83
g3698
sg76
(lp3705
g69
(g90
g71
NtRp3706
(dp3707
g74
(dp3708
g94
g95
ssg83
g3702
sg76
(lp3709
S'email'
p3710
asbag69
(g90
g71
NtRp3711
(dp3712
g74
(dp3713
g101
g102
ssg83
g3702
sg76
(lp3714
S':'
asbag69
(g90
g71
NtRp3715
(dp3716
g74
(dp3717
sg83
g3702
sg76
(lp3718
g69
(g70
g71
NtRp3719
(dp3720
g74
(dp3721
g82
I3
ssg83
g3715
sg76
(lp3722
S'vanya.jauhal@gmail.com'
p3723
asbasbasbag69
(g85
g71
NtRp3724
(dp3725
g74
(dp3726
sg83
g3698
sg76
(lp3727
g69
(g90
g71
NtRp3728
(dp3729
g74
(dp3730
g94
g95
ssg83
g3724
sg76
(lp3731
S'first_name'
p3732
asbag69
(g90
g71
NtRp3733
(dp3734
g74
(dp3735
g101
g102
ssg83
g3724
sg76
(lp3736
S':'
asbag69
(g90
g71
NtRp3737
(dp3738
g74
(dp3739
sg83
g3724
sg76
(lp3740
g69
(g70
g71
NtRp3741
(dp3742
g74
(dp3743
g82
I3
ssg83
g3737
sg76
(lp3744
S'vanya'
p3745
asbasbasbag69
(g85
g71
NtRp3746
(dp3747
g74
(dp3748
sg83
g3698
sg76
(lp3749
g69
(g90
g71
NtRp3750
(dp3751
g74
(dp3752
g94
g95
ssg83
g3746
sg76
(lp3753
S'id'
p3754
asbag69
(g90
g71
NtRp3755
(dp3756
g74
(dp3757
g101
g102
ssg83
g3746
sg76
(lp3758
S':'
asbag69
(g90
g71
NtRp3759
(dp3760
g74
(dp3761
sg83
g3746
sg76
(lp3762
g69
(g70
g71
NtRp3763
(dp3764
g74
(dp3765
g82
I3
ssg83
g3759
sg76
(lp3766
S'4'
asbasbasbag69
(g85
g71
NtRp3767
(dp3768
g74
(dp3769
sg83
g3698
sg76
(lp3770
g69
(g90
g71
NtRp3771
(dp3772
g74
(dp3773
g94
g95
ssg83
g3767
sg76
(lp3774
S'last_name'
p3775
asbag69
(g90
g71
NtRp3776
(dp3777
g74
(dp3778
g101
g102
ssg83
g3767
sg76
(lp3779
S':'
asbag69
(g90
g71
NtRp3780
(dp3781
g74
(dp3782
sg83
g3767
sg76
(lp3783
g69
(g70
g71
NtRp3784
(dp3785
g74
(dp3786
g82
I3
ssg83
g3780
sg76
(lp3787
S'jauhal'
p3788
asbasbasbag69
(g85
g71
NtRp3789
(dp3790
g74
(dp3791
sg83
g3698
sg76
(lp3792
g69
(g90
g71
NtRp3793
(dp3794
g74
(dp3795
g94
g95
ssg83
g3789
sg76
(lp3796
S'registration_id'
p3797
asbag69
(g90
g71
NtRp3798
(dp3799
g74
(dp3800
g101
g102
ssg83
g3789
sg76
(lp3801
S':'
asbag69
(g90
g71
NtRp3802
(dp3803
g74
(dp3804
sg83
g3789
sg76
(lp3805
g69
(g70
g71
NtRp3806
(dp3807
g74
(dp3808
g82
I3
ssg83
g3802
sg76
(lp3809
S''
asbasbasbag69
(g85
g71
NtRp3810
(dp3811
g74
(dp3812
sg83
g3698
sg76
(lp3813
g69
(g90
g71
NtRp3814
(dp3815
g74
(dp3816
g94
g95
ssg83
g3810
sg76
(lp3817
S'registration_key'
p3818
asbag69
(g90
g71
NtRp3819
(dp3820
g74
(dp3821
g101
g102
ssg83
g3810
sg76
(lp3822
S':'
asbag69
(g90
g71
NtRp3823
(dp3824
g74
(dp3825
sg83
g3810
sg76
(lp3826
g69
(g70
g71
NtRp3827
(dp3828
g74
(dp3829
g82
I3
ssg83
g3823
sg76
(lp3830
S''
asbasbasbag69
(g85
g71
NtRp3831
(dp3832
g74
(dp3833
sg83
g3698
sg76
(lp3834
g69
(g90
g71
NtRp3835
(dp3836
g74
(dp3837
g94
g95
ssg83
g3831
sg76
(lp3838
S'reset_password_key'
p3839
asbag69
(g90
g71
NtRp3840
(dp3841
g74
(dp3842
g101
g102
ssg83
g3831
sg76
(lp3843
S':'
asbag69
(g90
g71
NtRp3844
(dp3845
g74
(dp3846
sg83
g3831
sg76
(lp3847
g69
(g70
g71
NtRp3848
(dp3849
g74
(dp3850
g82
I3
ssg83
g3844
sg76
(lp3851
S''
asbasbasbag69
(g85
g71
NtRp3852
(dp3853
g74
(dp3854
sg83
g3698
sg76
(lp3855
g69
(g90
g71
NtRp3856
(dp3857
g74
(dp3858
g94
g95
ssg83
g3852
sg76
(lp3859
S'username'
p3860
asbag69
(g90
g71
NtRp3861
(dp3862
g74
(dp3863
g101
g102
ssg83
g3852
sg76
(lp3864
S':'
asbag69
(g90
g71
NtRp3865
(dp3866
g74
(dp3867
sg83
g3852
sg76
(lp3868
g69
(g70
g71
NtRp3869
(dp3870
g74
(dp3871
g82
I3
ssg83
g3865
sg76
(lp3872
S'Vanya'
p3873
asbasbasbasbasbasbasbag69
(g85
g71
NtRp3874
(dp3875
g74
(dp3876
sg83
g3586
sg76
(lp3877
g69
(g90
g71
NtRp3878
(dp3879
g74
(dp3880
g94
g95
ssg83
g3874
sg76
(lp3881
S'user_groups'
p3882
asbag69
(g90
g71
NtRp3883
(dp3884
g74
(dp3885
g101
g102
ssg83
g3874
sg76
(lp3886
S':'
asbag69
(g90
g71
NtRp3887
(dp3888
g74
(dp3889
sg83
g3874
sg76
(lp3890
g69
(g70
g71
NtRp3891
(dp3892
g74
(dp3893
g82
I4
ssg83
g3887
sg76
(lp3894
g69
(g78
g71
NtRp3895
(dp3896
g74
(dp3897
g82
I3
ssg83
Nsg76
(lp3898
g69
(g85
g71
NtRp3899
(dp3900
g74
(dp3901
sg83
g3895
sg76
(lp3902
g69
(g90
g71
NtRp3903
(dp3904
g74
(dp3905
g94
g95
ssg83
g3899
sg76
(lp3906
S'3'
asbag69
(g90
g71
NtRp3907
(dp3908
g74
(dp3909
g101
g102
ssg83
g3899
sg76
(lp3910
S':'
asbag69
(g90
g71
NtRp3911
(dp3912
g74
(dp3913
sg83
g3899
sg76
(lp3914
g69
(g70
g71
NtRp3915
(dp3916
g74
(dp3917
g82
I3
ssg83
g3911
sg76
(lp3918
S'user_4'
p3919
asbasbasbasbasbasbasbasbasbasbasbag69
(g85
g71
NtRp3920
(dp3921
g74
(dp3922
sg83
g3561
sg76
(lp3923
g69
(g90
g71
NtRp3924
(dp3925
g74
(dp3926
g94
g95
ssg83
g3920
sg76
(lp3927
S'flash'
p3928
asbag69
(g90
g71
NtRp3929
(dp3930
g74
(dp3931
g101
g102
ssg83
g3920
sg76
(lp3932
S':'
asbag69
(g90
g71
NtRp3933
(dp3934
g74
(dp3935
sg83
g3920
sg76
(lp3936
g69
(g70
g71
NtRp3937
(dp3938
g74
(dp3939
g82
I5
ssg83
g3933
sg76
(lp3940
S'None'
p3941
asbasbasbag69
(g85
g71
NtRp3942
(dp3943
g74
(dp3944
sg83
g3561
sg76
(lp3945
g69
(g90
g71
NtRp3946
(dp3947
g74
(dp3948
g94
g95
ssg83
g3942
sg76
(lp3949
S'last_orderby'
p3950
asbag69
(g90
g71
NtRp3951
(dp3952
g74
(dp3953
g101
g102
ssg83
g3942
sg76
(lp3954
S':'
asbag69
(g90
g71
NtRp3955
(dp3956
g74
(dp3957
sg83
g3942
sg76
(lp3958
g69
(g70
g71
NtRp3959
(dp3960
g74
(dp3961
g82
I5
ssg83
g3955
sg76
(lp3962
S'None'
p3963
asbasbasbag69
(g85
g71
NtRp3964
(dp3965
g74
(dp3966
sg83
g3561
sg76
(lp3967
g69
(g90
g71
NtRp3968
(dp3969
g74
(dp3970
g94
g95
ssg83
g3964
sg76
(lp3971
S'last_query'
p3972
asbag69
(g90
g71
NtRp3973
(dp3974
g74
(dp3975
g101
g102
ssg83
g3964
sg76
(lp3976
S':'
asbag69
(g90
g71
NtRp3977
(dp3978
g74
(dp3979
sg83
g3964
sg76
(lp3980
g69
(g70
g71
NtRp3981
(dp3982
g74
(dp3983
g82
I5
ssg83
g3977
sg76
(lp3984
S'db.Post.id>0'
p3985
asbasbasbasbasbsS'etype'
p3986
S"<type 'exceptions.SyntaxError'>"
p3987
sS'date'
p3988
S'Mon Aug 26 21:48:14 2013'
p3989
sS'response'
p3990
g69
(g70
g71
NtRp3991
(dp3992
g74
(dp3993
sg76
(lp3994
g69
(g78
g71
NtRp3995
(dp3996
g74
(dp3997
g82
I5
ssg83
Nsg76
(lp3998
g69
(g85
g71
NtRp3999
(dp4000
g74
(dp4001
sg83
g3995
sg76
(lp4002
g69
(g90
g71
NtRp4003
(dp4004
g74
(dp4005
g94
g95
ssg83
g3999
sg76
(lp4006
g180
asbag69
(g90
g71
NtRp4007
(dp4008
g74
(dp4009
g101
g102
ssg83
g3999
sg76
(lp4010
S':'
asbag69
(g90
g71
NtRp4011
(dp4012
g74
(dp4013
sg83
g3999
sg76
(lp4014
g69
(g70
g71
NtRp4015
(dp4016
g74
(dp4017
g82
I5
ssg83
g4011
sg76
(lp4018
S'<cStringIO.StringO object at 0x7f8f6016a7a0>'
p4019
asbasbasbag69
(g85
g71
NtRp4020
(dp4021
g74
(dp4022
sg83
g3995
sg76
(lp4023
g69
(g90
g71
NtRp4024
(dp4025
g74
(dp4026
g94
g95
ssg83
g4020
sg76
(lp4027
g268
asbag69
(g90
g71
NtRp4028
(dp4029
g74
(dp4030
g101
g102
ssg83
g4020
sg76
(lp4031
S':'
asbag69
(g90
g71
NtRp4032
(dp4033
g74
(dp4034
sg83
g4020
sg76
(lp4035
g69
(g70
g71
NtRp4036
(dp4037
g74
(dp4038
g82
I5
ssg83
g4032
sg76
(lp4039
g69
(g78
g71
NtRp4040
(dp4041
g74
(dp4042
g82
I4
ssg83
Nsg76
(lp4043
g69
(g85
g71
NtRp4044
(dp4045
g74
(dp4046
sg83
g4040
sg76
(lp4047
g69
(g90
g71
NtRp4048
(dp4049
g74
(dp4050
g94
g95
ssg83
g4044
sg76
(lp4051
S'session_id_assignment_2'
p4052
asbag69
(g90
g71
NtRp4053
(dp4054
g74
(dp4055
g101
g102
ssg83
g4044
sg76
(lp4056
S':'
asbag69
(g90
g71
NtRp4057
(dp4058
g74
(dp4059
sg83
g4044
sg76
(lp4060
g69
(g70
g71
NtRp4061
(dp4062
g74
(dp4063
g82
I4
ssg83
g4057
sg76
(lp4064
g686
ag69
(g78
g71
NtRp4065
(dp4066
g74
(dp4067
g82
I3
ssg83
Nsg76
(lp4068
g69
(g85
g71
NtRp4069
(dp4070
g74
(dp4071
sg83
g4065
sg76
(lp4072
g69
(g90
g71
NtRp4073
(dp4074
g74
(dp4075
g94
g95
ssg83
g4069
sg76
(lp4076
g319
asbag69
(g90
g71
NtRp4077
(dp4078
g74
(dp4079
g101
g102
ssg83
g4069
sg76
(lp4080
S':'
asbag69
(g90
g71
NtRp4081
(dp4082
g74
(dp4083
sg83
g4069
sg76
(lp4084
g69
(g70
g71
NtRp4085
(dp4086
g74
(dp4087
g82
I3
ssg83
g4081
sg76
(lp4088
S''
asbasbasbag69
(g85
g71
NtRp4089
(dp4090
g74
(dp4091
sg83
g4065
sg76
(lp4092
g69
(g90
g71
NtRp4093
(dp4094
g74
(dp4095
g94
g95
ssg83
g4089
sg76
(lp4096
g340
asbag69
(g90
g71
NtRp4097
(dp4098
g74
(dp4099
g101
g102
ssg83
g4089
sg76
(lp4100
S':'
asbag69
(g90
g71
NtRp4101
(dp4102
g74
(dp4103
sg83
g4089
sg76
(lp4104
g69
(g70
g71
NtRp4105
(dp4106
g74
(dp4107
g82
I3
ssg83
g4101
sg76
(lp4108
S''
asbasbasbag69
(g85
g71
NtRp4109
(dp4110
g74
(dp4111
sg83
g4065
sg76
(lp4112
g69
(g90
g71
NtRp4113
(dp4114
g74
(dp4115
g94
g95
ssg83
g4109
sg76
(lp4116
g361
asbag69
(g90
g71
NtRp4117
(dp4118
g74
(dp4119
g101
g102
ssg83
g4109
sg76
(lp4120
S':'
asbag69
(g90
g71
NtRp4121
(dp4122
g74
(dp4123
sg83
g4109
sg76
(lp4124
g69
(g70
g71
NtRp4125
(dp4126
g74
(dp4127
g82
I3
ssg83
g4121
sg76
(lp4128
S''
asbasbasbag69
(g85
g71
NtRp4129
(dp4130
g74
(dp4131
sg83
g4065
sg76
(lp4132
g69
(g90
g71
NtRp4133
(dp4134
g74
(dp4135
g94
g95
ssg83
g4129
sg76
(lp4136
g382
asbag69
(g90
g71
NtRp4137
(dp4138
g74
(dp4139
g101
g102
ssg83
g4129
sg76
(lp4140
S':'
asbag69
(g90
g71
NtRp4141
(dp4142
g74
(dp4143
sg83
g4129
sg76
(lp4144
g69
(g70
g71
NtRp4145
(dp4146
g74
(dp4147
g82
I3
ssg83
g4141
sg76
(lp4148
S''
asbasbasbag69
(g85
g71
NtRp4149
(dp4150
g74
(dp4151
sg83
g4065
sg76
(lp4152
g69
(g90
g71
NtRp4153
(dp4154
g74
(dp4155
g94
g95
ssg83
g4149
sg76
(lp4156
g403
asbag69
(g90
g71
NtRp4157
(dp4158
g74
(dp4159
g101
g102
ssg83
g4149
sg76
(lp4160
S':'
asbag69
(g90
g71
NtRp4161
(dp4162
g74
(dp4163
sg83
g4149
sg76
(lp4164
g69
(g70
g71
NtRp4165
(dp4166
g74
(dp4167
g82
I3
ssg83
g4161
sg76
(lp4168
S''
asbasbasbag69
(g85
g71
NtRp4169
(dp4170
g74
(dp4171
sg83
g4065
sg76
(lp4172
g69
(g90
g71
NtRp4173
(dp4174
g74
(dp4175
g94
g95
ssg83
g4169
sg76
(lp4176
g424
asbag69
(g90
g71
NtRp4177
(dp4178
g74
(dp4179
g101
g102
ssg83
g4169
sg76
(lp4180
S':'
asbag69
(g90
g71
NtRp4181
(dp4182
g74
(dp4183
sg83
g4169
sg76
(lp4184
g69
(g70
g71
NtRp4185
(dp4186
g74
(dp4187
g82
I3
ssg83
g4181
sg76
(lp4188
S'/'
asbasbasbag69
(g85
g71
NtRp4189
(dp4190
g74
(dp4191
sg83
g4065
sg76
(lp4192
g69
(g90
g71
NtRp4193
(dp4194
g74
(dp4195
g94
g95
ssg83
g4189
sg76
(lp4196
g445
asbag69
(g90
g71
NtRp4197
(dp4198
g74
(dp4199
g101
g102
ssg83
g4189
sg76
(lp4200
S':'
asbag69
(g90
g71
NtRp4201
(dp4202
g74
(dp4203
sg83
g4189
sg76
(lp4204
g69
(g70
g71
NtRp4205
(dp4206
g74
(dp4207
g82
I3
ssg83
g4201
sg76
(lp4208
S''
asbasbasbag69
(g85
g71
NtRp4209
(dp4210
g74
(dp4211
sg83
g4065
sg76
(lp4212
g69
(g90
g71
NtRp4213
(dp4214
g74
(dp4215
g94
g95
ssg83
g4209
sg76
(lp4216
g466
asbag69
(g90
g71
NtRp4217
(dp4218
g74
(dp4219
g101
g102
ssg83
g4209
sg76
(lp4220
S':'
asbag69
(g90
g71
NtRp4221
(dp4222
g74
(dp4223
sg83
g4209
sg76
(lp4224
g69
(g70
g71
NtRp4225
(dp4226
g74
(dp4227
g82
I3
ssg83
g4221
sg76
(lp4228
S''
asbasbasbasbasbasbasbasbasbasbasbag69
(g85
g71
NtRp4229
(dp4230
g74
(dp4231
sg83
g3995
sg76
(lp4232
g69
(g90
g71
NtRp4233
(dp4234
g74
(dp4235
g94
g95
ssg83
g4229
sg76
(lp4236
S'delimiters'
p4237
asbag69
(g90
g71
NtRp4238
(dp4239
g74
(dp4240
g101
g102
ssg83
g4229
sg76
(lp4241
S':'
asbag69
(g90
g71
NtRp4242
(dp4243
g74
(dp4244
sg83
g4229
sg76
(lp4245
g69
(g70
g71
NtRp4246
(dp4247
g74
(dp4248
g82
I5
ssg83
g4242
sg76
(lp4249
g69
(g78
g71
NtRp4250
(dp4251
g74
(dp4252
g82
I4
ssg83
Nsg76
(lp4253
g69
(g85
g71
NtRp4254
(dp4255
g74
(dp4256
sg83
g4250
sg76
(lp4257
g69
(g90
g71
NtRp4258
(dp4259
g74
(dp4260
sg83
g4254
sg76
(lp4261
g69
(g70
g71
NtRp4262
(dp4263
g74
(dp4264
g82
I4
ssg83
g4258
sg76
(lp4265
S'{{'
p4266
asbasbasbag69
(g85
g71
NtRp4267
(dp4268
g74
(dp4269
sg83
g4250
sg76
(lp4270
g69
(g90
g71
NtRp4271
(dp4272
g74
(dp4273
sg83
g4267
sg76
(lp4274
g69
(g70
g71
NtRp4275
(dp4276
g74
(dp4277
g82
I4
ssg83
g4271
sg76
(lp4278
S'}}'
p4279
asbasbasbasbasbasbasbag69
(g85
g71
NtRp4280
(dp4281
g74
(dp4282
sg83
g3995
sg76
(lp4283
g69
(g90
g71
NtRp4284
(dp4285
g74
(dp4286
g94
g95
ssg83
g4280
sg76
(lp4287
S'files'
p4288
asbag69
(g90
g71
NtRp4289
(dp4290
g74
(dp4291
g101
g102
ssg83
g4280
sg76
(lp4292
S':'
asbag69
(g90
g71
NtRp4293
(dp4294
g74
(dp4295
sg83
g4280
sg76
(lp4296
g69
(g70
g71
NtRp4297
(dp4298
g74
(dp4299
g82
I5
ssg83
g4293
sg76
(lp4300
g69
(g78
g71
NtRp4301
(dp4302
g74
(dp4303
g82
I4
ssg83
Nsg76
(lp4304
sbasbasbasbag69
(g85
g71
NtRp4305
(dp4306
g74
(dp4307
sg83
g3995
sg76
(lp4308
g69
(g90
g71
NtRp4309
(dp4310
g74
(dp4311
g94
g95
ssg83
g4305
sg76
(lp4312
S'flash'
p4313
asbag69
(g90
g71
NtRp4314
(dp4315
g74
(dp4316
g101
g102
ssg83
g4305
sg76
(lp4317
S':'
asbag69
(g90
g71
NtRp4318
(dp4319
g74
(dp4320
sg83
g4305
sg76
(lp4321
g69
(g70
g71
NtRp4322
(dp4323
g74
(dp4324
g82
I5
ssg83
g4318
sg76
(lp4325
S''
asbasbasbag69
(g85
g71
NtRp4326
(dp4327
g74
(dp4328
sg83
g3995
sg76
(lp4329
g69
(g90
g71
NtRp4330
(dp4331
g74
(dp4332
g94
g95
ssg83
g4326
sg76
(lp4333
S'generic_patterns'
p4334
asbag69
(g90
g71
NtRp4335
(dp4336
g74
(dp4337
g101
g102
ssg83
g4326
sg76
(lp4338
S':'
asbag69
(g90
g71
NtRp4339
(dp4340
g74
(dp4341
sg83
g4326
sg76
(lp4342
g69
(g70
g71
NtRp4343
(dp4344
g74
(dp4345
g82
I5
ssg83
g4339
sg76
(lp4346
g69
(g78
g71
NtRp4347
(dp4348
g74
(dp4349
g82
I4
ssg83
Nsg76
(lp4350
g69
(g85
g71
NtRp4351
(dp4352
g74
(dp4353
sg83
g4347
sg76
(lp4354
g69
(g90
g71
NtRp4355
(dp4356
g74
(dp4357
sg83
g4351
sg76
(lp4358
g69
(g70
g71
NtRp4359
(dp4360
g74
(dp4361
g82
I4
ssg83
g4355
sg76
(lp4362
S'*'
asbasbasbasbasbasbasbag69
(g85
g71
NtRp4363
(dp4364
g74
(dp4365
sg83
g3995
sg76
(lp4366
g69
(g90
g71
NtRp4367
(dp4368
g74
(dp4369
g94
g95
ssg83
g4363
sg76
(lp4370
S'headers'
p4371
asbag69
(g90
g71
NtRp4372
(dp4373
g74
(dp4374
g101
g102
ssg83
g4363
sg76
(lp4375
S':'
asbag69
(g90
g71
NtRp4376
(dp4377
g74
(dp4378
sg83
g4363
sg76
(lp4379
g69
(g70
g71
NtRp4380
(dp4381
g74
(dp4382
g82
I5
ssg83
g4376
sg76
(lp4383
g69
(g78
g71
NtRp4384
(dp4385
g74
(dp4386
g82
I4
ssg83
Nsg76
(lp4387
g69
(g85
g71
NtRp4388
(dp4389
g74
(dp4390
sg83
g4384
sg76
(lp4391
g69
(g90
g71
NtRp4392
(dp4393
g74
(dp4394
g94
g95
ssg83
g4388
sg76
(lp4395
S'X-Powered-By'
p4396
asbag69
(g90
g71
NtRp4397
(dp4398
g74
(dp4399
g101
g102
ssg83
g4388
sg76
(lp4400
S':'
asbag69
(g90
g71
NtRp4401
(dp4402
g74
(dp4403
sg83
g4388
sg76
(lp4404
g69
(g70
g71
NtRp4405
(dp4406
g74
(dp4407
g82
I4
ssg83
g4401
sg76
(lp4408
S'web2py'
p4409
asbasbasbasbasbasbasbag69
(g85
g71
NtRp4410
(dp4411
g74
(dp4412
sg83
g3995
sg76
(lp4413
g69
(g90
g71
NtRp4414
(dp4415
g74
(dp4416
g94
g95
ssg83
g4410
sg76
(lp4417
S'menu'
p4418
asbag69
(g90
g71
NtRp4419
(dp4420
g74
(dp4421
g101
g102
ssg83
g4410
sg76
(lp4422
S':'
asbag69
(g90
g71
NtRp4423
(dp4424
g74
(dp4425
sg83
g4410
sg76
(lp4426
g69
(g70
g71
NtRp4427
(dp4428
g74
(dp4429
g82
I5
ssg83
g4423
sg76
(lp4430
g69
(g78
g71
NtRp4431
(dp4432
g74
(dp4433
g82
I4
ssg83
Nsg76
(lp4434
sbasbasbasbag69
(g85
g71
NtRp4435
(dp4436
g74
(dp4437
sg83
g3995
sg76
(lp4438
g69
(g90
g71
NtRp4439
(dp4440
g74
(dp4441
g94
g95
ssg83
g4435
sg76
(lp4442
S'meta'
p4443
asbag69
(g90
g71
NtRp4444
(dp4445
g74
(dp4446
g101
g102
ssg83
g4435
sg76
(lp4447
S':'
asbag69
(g90
g71
NtRp4448
(dp4449
g74
(dp4450
sg83
g4435
sg76
(lp4451
g69
(g70
g71
NtRp4452
(dp4453
g74
(dp4454
g82
I5
ssg83
g4448
sg76
(lp4455
g69
(g78
g71
NtRp4456
(dp4457
g74
(dp4458
g82
I4
ssg83
Nsg76
(lp4459
sbasbasbasbag69
(g85
g71
NtRp4460
(dp4461
g74
(dp4462
sg83
g3995
sg76
(lp4463
g69
(g90
g71
NtRp4464
(dp4465
g74
(dp4466
g94
g95
ssg83
g4460
sg76
(lp4467
S'models_to_run'
p4468
asbag69
(g90
g71
NtRp4469
(dp4470
g74
(dp4471
g101
g102
ssg83
g4460
sg76
(lp4472
S':'
asbag69
(g90
g71
NtRp4473
(dp4474
g74
(dp4475
sg83
g4460
sg76
(lp4476
g69
(g70
g71
NtRp4477
(dp4478
g74
(dp4479
g82
I5
ssg83
g4473
sg76
(lp4480
g69
(g78
g71
NtRp4481
(dp4482
g74
(dp4483
g82
I4
ssg83
Nsg76
(lp4484
g69
(g85
g71
NtRp4485
(dp4486
g74
(dp4487
sg83
g4481
sg76
(lp4488
g69
(g90
g71
NtRp4489
(dp4490
g74
(dp4491
sg83
g4485
sg76
(lp4492
g69
(g70
g71
NtRp4493
(dp4494
g74
(dp4495
g82
I4
ssg83
g4489
sg76
(lp4496
S'^\\w+\\.py$'
p4497
asbasbasbag69
(g85
g71
NtRp4498
(dp4499
g74
(dp4500
sg83
g4481
sg76
(lp4501
g69
(g90
g71
NtRp4502
(dp4503
g74
(dp4504
sg83
g4498
sg76
(lp4505
g69
(g70
g71
NtRp4506
(dp4507
g74
(dp4508
g82
I4
ssg83
g4502
sg76
(lp4509
S'^default/\\w+\\.py$'
p4510
asbasbasbag69
(g85
g71
NtRp4511
(dp4512
g74
(dp4513
sg83
g4481
sg76
(lp4514
g69
(g90
g71
NtRp4515
(dp4516
g74
(dp4517
sg83
g4511
sg76
(lp4518
g69
(g70
g71
NtRp4519
(dp4520
g74
(dp4521
g82
I4
ssg83
g4515
sg76
(lp4522
S'^default/categ_display/\\w+\\.py$'
p4523
asbasbasbasbasbasbasbag69
(g85
g71
NtRp4524
(dp4525
g74
(dp4526
sg83
g3995
sg76
(lp4527
g69
(g90
g71
NtRp4528
(dp4529
g74
(dp4530
g94
g95
ssg83
g4524
sg76
(lp4531
S'postprocessing'
p4532
asbag69
(g90
g71
NtRp4533
(dp4534
g74
(dp4535
g101
g102
ssg83
g4524
sg76
(lp4536
S':'
asbag69
(g90
g71
NtRp4537
(dp4538
g74
(dp4539
sg83
g4524
sg76
(lp4540
g69
(g70
g71
NtRp4541
(dp4542
g74
(dp4543
g82
I5
ssg83
g4537
sg76
(lp4544
g69
(g78
g71
NtRp4545
(dp4546
g74
(dp4547
g82
I4
ssg83
Nsg76
(lp4548
sbasbasbasbag69
(g85
g71
NtRp4549
(dp4550
g74
(dp4551
sg83
g3995
sg76
(lp4552
g69
(g90
g71
NtRp4553
(dp4554
g74
(dp4555
g94
g95
ssg83
g4549
sg76
(lp4556
S'session_cookie_expires'
p4557
asbag69
(g90
g71
NtRp4558
(dp4559
g74
(dp4560
g101
g102
ssg83
g4549
sg76
(lp4561
S':'
asbag69
(g90
g71
NtRp4562
(dp4563
g74
(dp4564
sg83
g4549
sg76
(lp4565
g69
(g70
g71
NtRp4566
(dp4567
g74
(dp4568
g82
I5
ssg83
g4562
sg76
(lp4569
S'None'
p4570
asbasbasbag69
(g85
g71
NtRp4571
(dp4572
g74
(dp4573
sg83
g3995
sg76
(lp4574
g69
(g90
g71
NtRp4575
(dp4576
g74
(dp4577
g94
g95
ssg83
g4571
sg76
(lp4578
S'session_data_name'
p4579
asbag69
(g90
g71
NtRp4580
(dp4581
g74
(dp4582
g101
g102
ssg83
g4571
sg76
(lp4583
S':'
asbag69
(g90
g71
NtRp4584
(dp4585
g74
(dp4586
sg83
g4571
sg76
(lp4587
g69
(g70
g71
NtRp4588
(dp4589
g74
(dp4590
g82
I5
ssg83
g4584
sg76
(lp4591
S'session_data_assignment_2'
p4592
asbasbasbag69
(g85
g71
NtRp4593
(dp4594
g74
(dp4595
sg83
g3995
sg76
(lp4596
g69
(g90
g71
NtRp4597
(dp4598
g74
(dp4599
g94
g95
ssg83
g4593
sg76
(lp4600
S'session_file'
p4601
asbag69
(g90
g71
NtRp4602
(dp4603
g74
(dp4604
g101
g102
ssg83
g4593
sg76
(lp4605
S':'
asbag69
(g90
g71
NtRp4606
(dp4607
g74
(dp4608
sg83
g4593
sg76
(lp4609
g69
(g70
g71
NtRp4610
(dp4611
g74
(dp4612
g82
I5
ssg83
g4606
sg76
(lp4613
S"<open file '/home/shipra/Desktop/Semester 1.2/ITWS-2/web2py/applications/Assignment_2/sessions/127.0.0.1-c3bf420d-fab5-418a-a226-75e7c25cbfd0', mode 'rb+' at 0x7f8f80125270>"
p4614
asbasbasbag69
(g85
g71
NtRp4615
(dp4616
g74
(dp4617
sg83
g3995
sg76
(lp4618
g69
(g90
g71
NtRp4619
(dp4620
g74
(dp4621
g94
g95
ssg83
g4615
sg76
(lp4622
S'session_filename'
p4623
asbag69
(g90
g71
NtRp4624
(dp4625
g74
(dp4626
g101
g102
ssg83
g4615
sg76
(lp4627
S':'
asbag69
(g90
g71
NtRp4628
(dp4629
g74
(dp4630
sg83
g4615
sg76
(lp4631
g69
(g70
g71
NtRp4632
(dp4633
g74
(dp4634
g82
I5
ssg83
g4628
sg76
(lp4635
S'/home/shipra/Desktop/Semester 1.2/ITWS-2/web2py/applications/Assignment_2/sessions/127.0.0.1-c3bf420d-fab5-418a-a226-75e7c25cbfd0'
p4636
asbasbasbag69
(g85
g71
NtRp4637
(dp4638
g74
(dp4639
sg83
g3995
sg76
(lp4640
g69
(g90
g71
NtRp4641
(dp4642
g74
(dp4643
g94
g95
ssg83
g4637
sg76
(lp4644
S'session_id'
p4645
asbag69
(g90
g71
NtRp4646
(dp4647
g74
(dp4648
g101
g102
ssg83
g4637
sg76
(lp4649
S':'
asbag69
(g90
g71
NtRp4650
(dp4651
g74
(dp4652
sg83
g4637
sg76
(lp4653
g69
(g70
g71
NtRp4654
(dp4655
g74
(dp4656
g82
I5
ssg83
g4650
sg76
(lp4657
g686
asbasbasbag69
(g85
g71
NtRp4658
(dp4659
g74
(dp4660
sg83
g3995
sg76
(lp4661
g69
(g90
g71
NtRp4662
(dp4663
g74
(dp4664
g94
g95
ssg83
g4658
sg76
(lp4665
S'session_id_name'
p4666
asbag69
(g90
g71
NtRp4667
(dp4668
g74
(dp4669
g101
g102
ssg83
g4658
sg76
(lp4670
S':'
asbag69
(g90
g71
NtRp4671
(dp4672
g74
(dp4673
sg83
g4658
sg76
(lp4674
g69
(g70
g71
NtRp4675
(dp4676
g74
(dp4677
g82
I5
ssg83
g4671
sg76
(lp4678
g4052
asbasbasbag69
(g85
g71
NtRp4679
(dp4680
g74
(dp4681
sg83
g3995
sg76
(lp4682
g69
(g90
g71
NtRp4683
(dp4684
g74
(dp4685
g94
g95
ssg83
g4679
sg76
(lp4686
S'session_locked'
p4687
asbag69
(g90
g71
NtRp4688
(dp4689
g74
(dp4690
g101
g102
ssg83
g4679
sg76
(lp4691
S':'
asbag69
(g90
g71
NtRp4692
(dp4693
g74
(dp4694
sg83
g4679
sg76
(lp4695
g69
(g70
g71
NtRp4696
(dp4697
g74
(dp4698
g82
I5
ssg83
g4692
sg76
(lp4699
g2010
asbasbasbag69
(g85
g71
NtRp4700
(dp4701
g74
(dp4702
sg83
g3995
sg76
(lp4703
g69
(g90
g71
NtRp4704
(dp4705
g74
(dp4706
g94
g95
ssg83
g4700
sg76
(lp4707
S'session_new'
p4708
asbag69
(g90
g71
NtRp4709
(dp4710
g74
(dp4711
g101
g102
ssg83
g4700
sg76
(lp4712
S':'
asbag69
(g90
g71
NtRp4713
(dp4714
g74
(dp4715
sg83
g4700
sg76
(lp4716
g69
(g70
g71
NtRp4717
(dp4718
g74
(dp4719
g82
I5
ssg83
g4713
sg76
(lp4720
g112
asbasbasbag69
(g85
g71
NtRp4721
(dp4722
g74
(dp4723
sg83
g3995
sg76
(lp4724
g69
(g90
g71
NtRp4725
(dp4726
g74
(dp4727
g94
g95
ssg83
g4721
sg76
(lp4728
S'session_storage_type'
p4729
asbag69
(g90
g71
NtRp4730
(dp4731
g74
(dp4732
g101
g102
ssg83
g4721
sg76
(lp4733
S':'
asbag69
(g90
g71
NtRp4734
(dp4735
g74
(dp4736
sg83
g4721
sg76
(lp4737
g69
(g70
g71
NtRp4738
(dp4739
g74
(dp4740
g82
I5
ssg83
g4734
sg76
(lp4741
g3468
asbasbasbag69
(g85
g71
NtRp4742
(dp4743
g74
(dp4744
sg83
g3995
sg76
(lp4745
g69
(g90
g71
NtRp4746
(dp4747
g74
(dp4748
g94
g95
ssg83
g4742
sg76
(lp4749
S'status'
p4750
asbag69
(g90
g71
NtRp4751
(dp4752
g74
(dp4753
g101
g102
ssg83
g4742
sg76
(lp4754
S':'
asbag69
(g90
g71
NtRp4755
(dp4756
g74
(dp4757
sg83
g4742
sg76
(lp4758
g69
(g70
g71
NtRp4759
(dp4760
g74
(dp4761
g82
I5
ssg83
g4755
sg76
(lp4762
S'200'
p4763
asbasbasbag69
(g85
g71
NtRp4764
(dp4765
g74
(dp4766
sg83
g3995
sg76
(lp4767
g69
(g90
g71
NtRp4768
(dp4769
g74
(dp4770
g94
g95
ssg83
g4764
sg76
(lp4771
S'view'
p4772
asbag69
(g90
g71
NtRp4773
(dp4774
g74
(dp4775
g101
g102
ssg83
g4764
sg76
(lp4776
S':'
asbag69
(g90
g71
NtRp4777
(dp4778
g74
(dp4779
sg83
g4764
sg76
(lp4780
g69
(g70
g71
NtRp4781
(dp4782
g74
(dp4783
g82
I5
ssg83
g4777
sg76
(lp4784
S'default/categ_display.html'
p4785
asbasbasbasbasbsS'locals'
p4786
(dp4787
S'self'
p4788
S'<DAL uri="sqlite://storage.sqlite">'
p4789
sS'name'
p4790
S"'Like'"
p4791
sS'backend'
p4792
S"'all'"
p4793
sssS'traceback'
p4794
S'Traceback (most recent call last):\n  File "/home/shipra/Desktop/Semester 1.2/ITWS-2/web2py/gluon/restricted.py", line 212, in restricted\n    exec ccode in environment\n  File "/home/shipra/Desktop/Semester 1.2/ITWS-2/web2py/applications/Assignment_2/models/db.py", line 97, in <module>\n    db.Field(\'postid\',\'integer\'))\n  File "/home/shipra/Desktop/Semester 1.2/ITWS-2/web2py/gluon/dal.py", line 7176, in define_table\n    self.check_reserved_keyword(tablename)\n  File "/home/shipra/Desktop/Semester 1.2/ITWS-2/web2py/gluon/dal.py", line 6930, in check_reserved_keyword\n    \'invalid table/column name "%s" is a "%s" reserved SQL keyword\' % (name, backend.upper()))\nSyntaxError: invalid table/column name "Like" is a "ALL" reserved SQL keyword\n'
p4795
s.