(dp1
S'output'
p2
S"<type 'exceptions.IndentationError'> unexpected indent (default.py, line 15)"
p3
sS'layer'
p4
S'/home/shipra/Desktop/Semester 1.2/ITWS-2/web2py/applications/Assignment_2/controllers/default.py'
p5
sS'code'
p6
S'# -*- coding: utf-8 -*-\n# this file is released under public domain and you can use without limitations\n\n#########################################################################\n## This is a samples controller\n## - index is the default action of any application\n## - user is required for authentication and authorization\n## - download is for downloading files uploaded in the db (does streaming)\n## - call exposes all registered services (none by default)\n#########################################################################\n\n@auth.requires_login()\ndef index():\n    \'auth\' in globals()\n     if auth.user:\n     \t\tc1=auth.user_id\n    \t\tresponse.flash=T("Welcome to web2py!")\n    \t\tif(c1==3):\n\t\t    redirect(URL(\'admin\'))\n   \t\telse:\n\t\t    redirect(URL(\'client\'))\n    return locals()\n\ndef admin():\n\treturn locals()\ndef user():\n    """\n    exposes:\n    http://..../[app]/default/user/login\n    http://..../[app]/default/user/logout\n    http://..../[app]/default/user/register\n    http://..../[app]/default/user/profile\n    http://..../[app]/default/user/retrieve_password\n    http://..../[app]/default/user/change_password\n    use @auth.requires_login()\n        @auth.requires_membership(\'group name\')\n        @auth.requires_permission(\'read\',\'table name\',record_id)\n    to decorate functions that need access control\n    """\n    return dict(form=auth())\ndef client():\n\treturn locals()\n\ndef download():\n    """\n    allows downloading of uploaded files\n    http://..../[app]/default/download/[filename]\n    """\n    return response.download(request, db)\n\n\ndef call():\n    """\n    exposes services. for example:\n    http://..../[app]/default/call/jsonrpc\n    decorate with @services.jsonrpc the functions to expose\n    supports xml, json, xmlrpc, jsonrpc, amfrpc, rss, csv\n    """\n    return service()\n\n\n@auth.requires_signature()\ndef data():\n    """\n    http://..../[app]/default/data/tables\n    http://..../[app]/default/data/create/[table]\n    http://..../[app]/default/data/read/[table]/[id]\n    http://..../[app]/default/data/update/[table]/[id]\n    http://..../[app]/default/data/delete/[table]/[id]\n    http://..../[app]/default/data/select/[table]\n    http://..../[app]/default/data/search/[table]\n    but URLs must be signed, i.e. linked with\n      A(\'table\',_href=URL(\'data/tables\',user_signature=True))\n    or with the signed load operator\n      LOAD(\'default\',\'data.load\',args=\'tables\',ajax=True,user_signature=True)\n    """\n    return dict(form=crud())\n\nresponse._vars=response._caller(user)\n'
p7
sS'snapshot'
p8
(dp9
S'exception'
p10
(dp11
S'__getslice__'
p12
S"<method-wrapper '__getslice__' of exceptions.IndentationError object>"
p13
sS'text'
p14
S"'     if auth.user:\\n'"
p15
sS'__str__'
p16
S"<method-wrapper '__str__' of exceptions.IndentationError object>"
p17
sS'__reduce__'
p18
S'<built-in method __reduce__ of exceptions.IndentationError object>'
p19
sS'__dict__'
p20
S'{}'
p21
sS'__sizeof__'
p22
S'<built-in method __sizeof__ of exceptions.IndentationError object>'
p23
sS'__init__'
p24
S"<method-wrapper '__init__' of exceptions.IndentationError object>"
p25
sS'__setattr__'
p26
S"<method-wrapper '__setattr__' of exceptions.IndentationError object>"
p27
sS'__reduce_ex__'
p28
S'<built-in method __reduce_ex__ of exceptions.IndentationError object>'
p29
sS'__new__'
p30
S'<built-in method __new__ of type object>'
p31
sS'__format__'
p32
S'<built-in method __format__ of exceptions.IndentationError object>'
p33
sS'__class__'
p34
S"<type 'exceptions.IndentationError'>"
p35
sS'filename'
p36
S"'/home/shipra/Desktop/Semester 1.2/ITWS-2/web2py/applications/Assignment_2/controllers/default.py'"
p37
sS'lineno'
p38
S'15'
p39
sS'msg'
p40
S"'unexpected indent'"
p41
sS'__doc__'
p42
S"'Improper indentation.'"
p43
sS'__getitem__'
p44
S"<method-wrapper '__getitem__' of exceptions.IndentationError object>"
p45
sS'__setstate__'
p46
S'<built-in method __setstate__ of exceptions.IndentationError object>'
p47
sS'__getattribute__'
p48
S"<method-wrapper '__getattribute__' of exceptions.IndentationError object>"
p49
sS'print_file_and_line'
p50
S'None'
p51
sS'args'
p52
S"('unexpected indent', ('/home/shipra/Desktop/Semester 1.2/ITWS-2/web2py/applications/Assignment_2/controllers/default.py', 15, 5, '     if auth.user:\\n'))"
p53
sS'__subclasshook__'
p54
S'<built-in method __subclasshook__ of type object>'
p55
sS'offset'
p56
S'5'
sS'__unicode__'
p57
S'<built-in method __unicode__ of exceptions.IndentationError object>'
p58
sS'__delattr__'
p59
S"<method-wrapper '__delattr__' of exceptions.IndentationError object>"
p60
sS'__repr__'
p61
S"<method-wrapper '__repr__' of exceptions.IndentationError object>"
p62
sS'__hash__'
p63
S"<method-wrapper '__hash__' of exceptions.IndentationError object>"
p64
ssS'evalue'
p65
S'unexpected indent (default.py, line 15)'
p66
sS'request'
p67
ccopy_reg
_reconstructor
p68
(cgluon.html
BEAUTIFY
p69
c__builtin__
object
p70
NtRp71
(dp72
S'attributes'
p73
(dp74
sS'components'
p75
(lp76
g68
(cgluon.html
TABLE
p77
g70
NtRp78
(dp79
g73
(dp80
S'level'
p81
I5
ssS'parent'
p82
Nsg75
(lp83
g68
(cgluon.html
TR
p84
g70
NtRp85
(dp86
g73
(dp87
sg82
g78
sg75
(lp88
g68
(cgluon.html
TD
p89
g70
NtRp90
(dp91
g73
(dp92
S'_style'
p93
S'font-weight:bold;vertical-align:top'
p94
ssg82
g85
sg75
(lp95
S'ajax'
p96
asbag68
(g89
g70
NtRp97
(dp98
g73
(dp99
S'_valign'
p100
S'top'
p101
ssg82
g85
sg75
(lp102
S':'
asbag68
(g89
g70
NtRp103
(dp104
g73
(dp105
sg82
g85
sg75
(lp106
g68
(g69
g70
NtRp107
(dp108
g73
(dp109
g81
I5
ssg82
g103
sg75
(lp110
S'False'
p111
asbasbasbag68
(g84
g70
NtRp112
(dp113
g73
(dp114
sg82
g78
sg75
(lp115
g68
(g89
g70
NtRp116
(dp117
g73
(dp118
g93
g94
ssg82
g112
sg75
(lp119
S'application'
p120
asbag68
(g89
g70
NtRp121
(dp122
g73
(dp123
g100
g101
ssg82
g112
sg75
(lp124
S':'
asbag68
(g89
g70
NtRp125
(dp126
g73
(dp127
sg82
g112
sg75
(lp128
g68
(g69
g70
NtRp129
(dp130
g73
(dp131
g81
I5
ssg82
g125
sg75
(lp132
S'Assignment_2'
p133
asbasbasbag68
(g84
g70
NtRp134
(dp135
g73
(dp136
sg82
g78
sg75
(lp137
g68
(g89
g70
NtRp138
(dp139
g73
(dp140
g93
g94
ssg82
g134
sg75
(lp141
g52
asbag68
(g89
g70
NtRp142
(dp143
g73
(dp144
g100
g101
ssg82
g134
sg75
(lp145
S':'
asbag68
(g89
g70
NtRp146
(dp147
g73
(dp148
sg82
g134
sg75
(lp149
g68
(g69
g70
NtRp150
(dp151
g73
(dp152
g81
I5
ssg82
g146
sg75
(lp153
g68
(g77
g70
NtRp154
(dp155
g73
(dp156
g81
I4
ssg82
Nsg75
(lp157
g68
(g84
g70
NtRp158
(dp159
g73
(dp160
sg82
g154
sg75
(lp161
g68
(g89
g70
NtRp162
(dp163
g73
(dp164
sg82
g158
sg75
(lp165
g68
(g69
g70
NtRp166
(dp167
g73
(dp168
g81
I4
ssg82
g162
sg75
(lp169
S'login'
p170
asbasbasbasbasbasbasbag68
(g84
g70
NtRp171
(dp172
g73
(dp173
sg82
g78
sg75
(lp174
g68
(g89
g70
NtRp175
(dp176
g73
(dp177
g93
g94
ssg82
g171
sg75
(lp178
S'body'
p179
asbag68
(g89
g70
NtRp180
(dp181
g73
(dp182
g100
g101
ssg82
g171
sg75
(lp183
S':'
asbag68
(g89
g70
NtRp184
(dp185
g73
(dp186
sg82
g171
sg75
(lp187
g68
(g69
g70
NtRp188
(dp189
g73
(dp190
g81
I5
ssg82
g184
sg75
(lp191
S'<cStringIO.StringO object at 0x7f40fc6e3490>'
p192
asbasbasbag68
(g84
g70
NtRp193
(dp194
g73
(dp195
sg82
g78
sg75
(lp196
g68
(g89
g70
NtRp197
(dp198
g73
(dp199
g93
g94
ssg82
g193
sg75
(lp200
S'cid'
p201
asbag68
(g89
g70
NtRp202
(dp203
g73
(dp204
g100
g101
ssg82
g193
sg75
(lp205
S':'
asbag68
(g89
g70
NtRp206
(dp207
g73
(dp208
sg82
g193
sg75
(lp209
g68
(g69
g70
NtRp210
(dp211
g73
(dp212
g81
I5
ssg82
g206
sg75
(lp213
S'None'
p214
asbasbasbag68
(g84
g70
NtRp215
(dp216
g73
(dp217
sg82
g78
sg75
(lp218
g68
(g89
g70
NtRp219
(dp220
g73
(dp221
g93
g94
ssg82
g215
sg75
(lp222
S'client'
p223
asbag68
(g89
g70
NtRp224
(dp225
g73
(dp226
g100
g101
ssg82
g215
sg75
(lp227
S':'
asbag68
(g89
g70
NtRp228
(dp229
g73
(dp230
sg82
g215
sg75
(lp231
g68
(g69
g70
NtRp232
(dp233
g73
(dp234
g81
I5
ssg82
g228
sg75
(lp235
S'127.0.0.1'
p236
asbasbasbag68
(g84
g70
NtRp237
(dp238
g73
(dp239
sg82
g78
sg75
(lp240
g68
(g89
g70
NtRp241
(dp242
g73
(dp243
g93
g94
ssg82
g237
sg75
(lp244
S'controller'
p245
asbag68
(g89
g70
NtRp246
(dp247
g73
(dp248
g100
g101
ssg82
g237
sg75
(lp249
S':'
asbag68
(g89
g70
NtRp250
(dp251
g73
(dp252
sg82
g237
sg75
(lp253
g68
(g69
g70
NtRp254
(dp255
g73
(dp256
g81
I5
ssg82
g250
sg75
(lp257
S'default'
p258
asbasbasbag68
(g84
g70
NtRp259
(dp260
g73
(dp261
sg82
g78
sg75
(lp262
g68
(g89
g70
NtRp263
(dp264
g73
(dp265
g93
g94
ssg82
g259
sg75
(lp266
S'cookies'
p267
asbag68
(g89
g70
NtRp268
(dp269
g73
(dp270
g100
g101
ssg82
g259
sg75
(lp271
S':'
asbag68
(g89
g70
NtRp272
(dp273
g73
(dp274
sg82
g259
sg75
(lp275
g68
(g69
g70
NtRp276
(dp277
g73
(dp278
g81
I5
ssg82
g272
sg75
(lp279
g68
(g77
g70
NtRp280
(dp281
g73
(dp282
g81
I4
ssg82
Nsg75
(lp283
g68
(g84
g70
NtRp284
(dp285
g73
(dp286
sg82
g280
sg75
(lp287
g68
(g89
g70
NtRp288
(dp289
g73
(dp290
g93
g94
ssg82
g284
sg75
(lp291
S'mp_2093ad9ff9c5428a2228386de2f2b0e4_mixpanel'
p292
asbag68
(g89
g70
NtRp293
(dp294
g73
(dp295
g100
g101
ssg82
g284
sg75
(lp296
S':'
asbag68
(g89
g70
NtRp297
(dp298
g73
(dp299
sg82
g284
sg75
(lp300
g68
(g69
g70
NtRp301
(dp302
g73
(dp303
g81
I4
ssg82
g297
sg75
(lp304
S'%7B%22distinct_id%22%3A%20%2262ffc2d0-7b9f-0130-efb0-22000a1cbb2a%22%2C%22is_registered_user%22%3A%20false%2C%22%24initial_referrer%22%3A%20%22%24direct%22%2C%22%24initial_referring_domain%22%3A%20%22%24direct%22%7D'
p305
ag68
(g77
g70
NtRp306
(dp307
g73
(dp308
g81
I3
ssg82
Nsg75
(lp309
g68
(g84
g70
NtRp310
(dp311
g73
(dp312
sg82
g306
sg75
(lp313
g68
(g89
g70
NtRp314
(dp315
g73
(dp316
g93
g94
ssg82
g310
sg75
(lp317
S'comment'
p318
asbag68
(g89
g70
NtRp319
(dp320
g73
(dp321
g100
g101
ssg82
g310
sg75
(lp322
S':'
asbag68
(g89
g70
NtRp323
(dp324
g73
(dp325
sg82
g310
sg75
(lp326
g68
(g69
g70
NtRp327
(dp328
g73
(dp329
g81
I3
ssg82
g323
sg75
(lp330
S''
asbasbasbag68
(g84
g70
NtRp331
(dp332
g73
(dp333
sg82
g306
sg75
(lp334
g68
(g89
g70
NtRp335
(dp336
g73
(dp337
g93
g94
ssg82
g331
sg75
(lp338
S'domain'
p339
asbag68
(g89
g70
NtRp340
(dp341
g73
(dp342
g100
g101
ssg82
g331
sg75
(lp343
S':'
asbag68
(g89
g70
NtRp344
(dp345
g73
(dp346
sg82
g331
sg75
(lp347
g68
(g69
g70
NtRp348
(dp349
g73
(dp350
g81
I3
ssg82
g344
sg75
(lp351
S''
asbasbasbag68
(g84
g70
NtRp352
(dp353
g73
(dp354
sg82
g306
sg75
(lp355
g68
(g89
g70
NtRp356
(dp357
g73
(dp358
g93
g94
ssg82
g352
sg75
(lp359
S'expires'
p360
asbag68
(g89
g70
NtRp361
(dp362
g73
(dp363
g100
g101
ssg82
g352
sg75
(lp364
S':'
asbag68
(g89
g70
NtRp365
(dp366
g73
(dp367
sg82
g352
sg75
(lp368
g68
(g69
g70
NtRp369
(dp370
g73
(dp371
g81
I3
ssg82
g365
sg75
(lp372
S''
asbasbasbag68
(g84
g70
NtRp373
(dp374
g73
(dp375
sg82
g306
sg75
(lp376
g68
(g89
g70
NtRp377
(dp378
g73
(dp379
g93
g94
ssg82
g373
sg75
(lp380
S'httponly'
p381
asbag68
(g89
g70
NtRp382
(dp383
g73
(dp384
g100
g101
ssg82
g373
sg75
(lp385
S':'
asbag68
(g89
g70
NtRp386
(dp387
g73
(dp388
sg82
g373
sg75
(lp389
g68
(g69
g70
NtRp390
(dp391
g73
(dp392
g81
I3
ssg82
g386
sg75
(lp393
S''
asbasbasbag68
(g84
g70
NtRp394
(dp395
g73
(dp396
sg82
g306
sg75
(lp397
g68
(g89
g70
NtRp398
(dp399
g73
(dp400
g93
g94
ssg82
g394
sg75
(lp401
S'max-age'
p402
asbag68
(g89
g70
NtRp403
(dp404
g73
(dp405
g100
g101
ssg82
g394
sg75
(lp406
S':'
asbag68
(g89
g70
NtRp407
(dp408
g73
(dp409
sg82
g394
sg75
(lp410
g68
(g69
g70
NtRp411
(dp412
g73
(dp413
g81
I3
ssg82
g407
sg75
(lp414
S''
asbasbasbag68
(g84
g70
NtRp415
(dp416
g73
(dp417
sg82
g306
sg75
(lp418
g68
(g89
g70
NtRp419
(dp420
g73
(dp421
g93
g94
ssg82
g415
sg75
(lp422
S'path'
p423
asbag68
(g89
g70
NtRp424
(dp425
g73
(dp426
g100
g101
ssg82
g415
sg75
(lp427
S':'
asbag68
(g89
g70
NtRp428
(dp429
g73
(dp430
sg82
g415
sg75
(lp431
g68
(g69
g70
NtRp432
(dp433
g73
(dp434
g81
I3
ssg82
g428
sg75
(lp435
S''
asbasbasbag68
(g84
g70
NtRp436
(dp437
g73
(dp438
sg82
g306
sg75
(lp439
g68
(g89
g70
NtRp440
(dp441
g73
(dp442
g93
g94
ssg82
g436
sg75
(lp443
S'secure'
p444
asbag68
(g89
g70
NtRp445
(dp446
g73
(dp447
g100
g101
ssg82
g436
sg75
(lp448
S':'
asbag68
(g89
g70
NtRp449
(dp450
g73
(dp451
sg82
g436
sg75
(lp452
g68
(g69
g70
NtRp453
(dp454
g73
(dp455
g81
I3
ssg82
g449
sg75
(lp456
S''
asbasbasbag68
(g84
g70
NtRp457
(dp458
g73
(dp459
sg82
g306
sg75
(lp460
g68
(g89
g70
NtRp461
(dp462
g73
(dp463
g93
g94
ssg82
g457
sg75
(lp464
S'version'
p465
asbag68
(g89
g70
NtRp466
(dp467
g73
(dp468
g100
g101
ssg82
g457
sg75
(lp469
S':'
asbag68
(g89
g70
NtRp470
(dp471
g73
(dp472
sg82
g457
sg75
(lp473
g68
(g69
g70
NtRp474
(dp475
g73
(dp476
g81
I3
ssg82
g470
sg75
(lp477
S''
asbasbasbasbasbasbasbag68
(g84
g70
NtRp478
(dp479
g73
(dp480
sg82
g280
sg75
(lp481
g68
(g89
g70
NtRp482
(dp483
g73
(dp484
g93
g94
ssg82
g478
sg75
(lp485
S'session_id_admin'
p486
asbag68
(g89
g70
NtRp487
(dp488
g73
(dp489
g100
g101
ssg82
g478
sg75
(lp490
S':'
asbag68
(g89
g70
NtRp491
(dp492
g73
(dp493
sg82
g478
sg75
(lp494
g68
(g69
g70
NtRp495
(dp496
g73
(dp497
g81
I4
ssg82
g491
sg75
(lp498
S'127.0.0.1-dc460202-62d9-43ac-881c-17f356e5f59c'
p499
ag68
(g77
g70
NtRp500
(dp501
g73
(dp502
g81
I3
ssg82
Nsg75
(lp503
g68
(g84
g70
NtRp504
(dp505
g73
(dp506
sg82
g500
sg75
(lp507
g68
(g89
g70
NtRp508
(dp509
g73
(dp510
g93
g94
ssg82
g504
sg75
(lp511
g318
asbag68
(g89
g70
NtRp512
(dp513
g73
(dp514
g100
g101
ssg82
g504
sg75
(lp515
S':'
asbag68
(g89
g70
NtRp516
(dp517
g73
(dp518
sg82
g504
sg75
(lp519
g68
(g69
g70
NtRp520
(dp521
g73
(dp522
g81
I3
ssg82
g516
sg75
(lp523
S''
asbasbasbag68
(g84
g70
NtRp524
(dp525
g73
(dp526
sg82
g500
sg75
(lp527
g68
(g89
g70
NtRp528
(dp529
g73
(dp530
g93
g94
ssg82
g524
sg75
(lp531
g339
asbag68
(g89
g70
NtRp532
(dp533
g73
(dp534
g100
g101
ssg82
g524
sg75
(lp535
S':'
asbag68
(g89
g70
NtRp536
(dp537
g73
(dp538
sg82
g524
sg75
(lp539
g68
(g69
g70
NtRp540
(dp541
g73
(dp542
g81
I3
ssg82
g536
sg75
(lp543
S''
asbasbasbag68
(g84
g70
NtRp544
(dp545
g73
(dp546
sg82
g500
sg75
(lp547
g68
(g89
g70
NtRp548
(dp549
g73
(dp550
g93
g94
ssg82
g544
sg75
(lp551
g360
asbag68
(g89
g70
NtRp552
(dp553
g73
(dp554
g100
g101
ssg82
g544
sg75
(lp555
S':'
asbag68
(g89
g70
NtRp556
(dp557
g73
(dp558
sg82
g544
sg75
(lp559
g68
(g69
g70
NtRp560
(dp561
g73
(dp562
g81
I3
ssg82
g556
sg75
(lp563
S''
asbasbasbag68
(g84
g70
NtRp564
(dp565
g73
(dp566
sg82
g500
sg75
(lp567
g68
(g89
g70
NtRp568
(dp569
g73
(dp570
g93
g94
ssg82
g564
sg75
(lp571
g381
asbag68
(g89
g70
NtRp572
(dp573
g73
(dp574
g100
g101
ssg82
g564
sg75
(lp575
S':'
asbag68
(g89
g70
NtRp576
(dp577
g73
(dp578
sg82
g564
sg75
(lp579
g68
(g69
g70
NtRp580
(dp581
g73
(dp582
g81
I3
ssg82
g576
sg75
(lp583
S''
asbasbasbag68
(g84
g70
NtRp584
(dp585
g73
(dp586
sg82
g500
sg75
(lp587
g68
(g89
g70
NtRp588
(dp589
g73
(dp590
g93
g94
ssg82
g584
sg75
(lp591
g402
asbag68
(g89
g70
NtRp592
(dp593
g73
(dp594
g100
g101
ssg82
g584
sg75
(lp595
S':'
asbag68
(g89
g70
NtRp596
(dp597
g73
(dp598
sg82
g584
sg75
(lp599
g68
(g69
g70
NtRp600
(dp601
g73
(dp602
g81
I3
ssg82
g596
sg75
(lp603
S''
asbasbasbag68
(g84
g70
NtRp604
(dp605
g73
(dp606
sg82
g500
sg75
(lp607
g68
(g89
g70
NtRp608
(dp609
g73
(dp610
g93
g94
ssg82
g604
sg75
(lp611
g423
asbag68
(g89
g70
NtRp612
(dp613
g73
(dp614
g100
g101
ssg82
g604
sg75
(lp615
S':'
asbag68
(g89
g70
NtRp616
(dp617
g73
(dp618
sg82
g604
sg75
(lp619
g68
(g69
g70
NtRp620
(dp621
g73
(dp622
g81
I3
ssg82
g616
sg75
(lp623
S''
asbasbasbag68
(g84
g70
NtRp624
(dp625
g73
(dp626
sg82
g500
sg75
(lp627
g68
(g89
g70
NtRp628
(dp629
g73
(dp630
g93
g94
ssg82
g624
sg75
(lp631
g444
asbag68
(g89
g70
NtRp632
(dp633
g73
(dp634
g100
g101
ssg82
g624
sg75
(lp635
S':'
asbag68
(g89
g70
NtRp636
(dp637
g73
(dp638
sg82
g624
sg75
(lp639
g68
(g69
g70
NtRp640
(dp641
g73
(dp642
g81
I3
ssg82
g636
sg75
(lp643
S''
asbasbasbag68
(g84
g70
NtRp644
(dp645
g73
(dp646
sg82
g500
sg75
(lp647
g68
(g89
g70
NtRp648
(dp649
g73
(dp650
g93
g94
ssg82
g644
sg75
(lp651
g465
asbag68
(g89
g70
NtRp652
(dp653
g73
(dp654
g100
g101
ssg82
g644
sg75
(lp655
S':'
asbag68
(g89
g70
NtRp656
(dp657
g73
(dp658
sg82
g644
sg75
(lp659
g68
(g69
g70
NtRp660
(dp661
g73
(dp662
g81
I3
ssg82
g656
sg75
(lp663
S''
asbasbasbasbasbasbasbag68
(g84
g70
NtRp664
(dp665
g73
(dp666
sg82
g280
sg75
(lp667
g68
(g89
g70
NtRp668
(dp669
g73
(dp670
g93
g94
ssg82
g664
sg75
(lp671
S'session_id_assignment_2'
p672
asbag68
(g89
g70
NtRp673
(dp674
g73
(dp675
g100
g101
ssg82
g664
sg75
(lp676
S':'
asbag68
(g89
g70
NtRp677
(dp678
g73
(dp679
sg82
g664
sg75
(lp680
g68
(g69
g70
NtRp681
(dp682
g73
(dp683
g81
I4
ssg82
g677
sg75
(lp684
S'127.0.0.1-a1ea54ad-1f50-4df2-bed9-5564e0abdc15'
p685
ag68
(g77
g70
NtRp686
(dp687
g73
(dp688
g81
I3
ssg82
Nsg75
(lp689
g68
(g84
g70
NtRp690
(dp691
g73
(dp692
sg82
g686
sg75
(lp693
g68
(g89
g70
NtRp694
(dp695
g73
(dp696
g93
g94
ssg82
g690
sg75
(lp697
g318
asbag68
(g89
g70
NtRp698
(dp699
g73
(dp700
g100
g101
ssg82
g690
sg75
(lp701
S':'
asbag68
(g89
g70
NtRp702
(dp703
g73
(dp704
sg82
g690
sg75
(lp705
g68
(g69
g70
NtRp706
(dp707
g73
(dp708
g81
I3
ssg82
g702
sg75
(lp709
S''
asbasbasbag68
(g84
g70
NtRp710
(dp711
g73
(dp712
sg82
g686
sg75
(lp713
g68
(g89
g70
NtRp714
(dp715
g73
(dp716
g93
g94
ssg82
g710
sg75
(lp717
g339
asbag68
(g89
g70
NtRp718
(dp719
g73
(dp720
g100
g101
ssg82
g710
sg75
(lp721
S':'
asbag68
(g89
g70
NtRp722
(dp723
g73
(dp724
sg82
g710
sg75
(lp725
g68
(g69
g70
NtRp726
(dp727
g73
(dp728
g81
I3
ssg82
g722
sg75
(lp729
S''
asbasbasbag68
(g84
g70
NtRp730
(dp731
g73
(dp732
sg82
g686
sg75
(lp733
g68
(g89
g70
NtRp734
(dp735
g73
(dp736
g93
g94
ssg82
g730
sg75
(lp737
g360
asbag68
(g89
g70
NtRp738
(dp739
g73
(dp740
g100
g101
ssg82
g730
sg75
(lp741
S':'
asbag68
(g89
g70
NtRp742
(dp743
g73
(dp744
sg82
g730
sg75
(lp745
g68
(g69
g70
NtRp746
(dp747
g73
(dp748
g81
I3
ssg82
g742
sg75
(lp749
S''
asbasbasbag68
(g84
g70
NtRp750
(dp751
g73
(dp752
sg82
g686
sg75
(lp753
g68
(g89
g70
NtRp754
(dp755
g73
(dp756
g93
g94
ssg82
g750
sg75
(lp757
g381
asbag68
(g89
g70
NtRp758
(dp759
g73
(dp760
g100
g101
ssg82
g750
sg75
(lp761
S':'
asbag68
(g89
g70
NtRp762
(dp763
g73
(dp764
sg82
g750
sg75
(lp765
g68
(g69
g70
NtRp766
(dp767
g73
(dp768
g81
I3
ssg82
g762
sg75
(lp769
S''
asbasbasbag68
(g84
g70
NtRp770
(dp771
g73
(dp772
sg82
g686
sg75
(lp773
g68
(g89
g70
NtRp774
(dp775
g73
(dp776
g93
g94
ssg82
g770
sg75
(lp777
g402
asbag68
(g89
g70
NtRp778
(dp779
g73
(dp780
g100
g101
ssg82
g770
sg75
(lp781
S':'
asbag68
(g89
g70
NtRp782
(dp783
g73
(dp784
sg82
g770
sg75
(lp785
g68
(g69
g70
NtRp786
(dp787
g73
(dp788
g81
I3
ssg82
g782
sg75
(lp789
S''
asbasbasbag68
(g84
g70
NtRp790
(dp791
g73
(dp792
sg82
g686
sg75
(lp793
g68
(g89
g70
NtRp794
(dp795
g73
(dp796
g93
g94
ssg82
g790
sg75
(lp797
g423
asbag68
(g89
g70
NtRp798
(dp799
g73
(dp800
g100
g101
ssg82
g790
sg75
(lp801
S':'
asbag68
(g89
g70
NtRp802
(dp803
g73
(dp804
sg82
g790
sg75
(lp805
g68
(g69
g70
NtRp806
(dp807
g73
(dp808
g81
I3
ssg82
g802
sg75
(lp809
S''
asbasbasbag68
(g84
g70
NtRp810
(dp811
g73
(dp812
sg82
g686
sg75
(lp813
g68
(g89
g70
NtRp814
(dp815
g73
(dp816
g93
g94
ssg82
g810
sg75
(lp817
g444
asbag68
(g89
g70
NtRp818
(dp819
g73
(dp820
g100
g101
ssg82
g810
sg75
(lp821
S':'
asbag68
(g89
g70
NtRp822
(dp823
g73
(dp824
sg82
g810
sg75
(lp825
g68
(g69
g70
NtRp826
(dp827
g73
(dp828
g81
I3
ssg82
g822
sg75
(lp829
S''
asbasbasbag68
(g84
g70
NtRp830
(dp831
g73
(dp832
sg82
g686
sg75
(lp833
g68
(g89
g70
NtRp834
(dp835
g73
(dp836
g93
g94
ssg82
g830
sg75
(lp837
g465
asbag68
(g89
g70
NtRp838
(dp839
g73
(dp840
g100
g101
ssg82
g830
sg75
(lp841
S':'
asbag68
(g89
g70
NtRp842
(dp843
g73
(dp844
sg82
g830
sg75
(lp845
g68
(g69
g70
NtRp846
(dp847
g73
(dp848
g81
I3
ssg82
g842
sg75
(lp849
S''
asbasbasbasbasbasbasbag68
(g84
g70
NtRp850
(dp851
g73
(dp852
sg82
g280
sg75
(lp853
g68
(g89
g70
NtRp854
(dp855
g73
(dp856
g93
g94
ssg82
g850
sg75
(lp857
S'session_id_welcome'
p858
asbag68
(g89
g70
NtRp859
(dp860
g73
(dp861
g100
g101
ssg82
g850
sg75
(lp862
S':'
asbag68
(g89
g70
NtRp863
(dp864
g73
(dp865
sg82
g850
sg75
(lp866
g68
(g69
g70
NtRp867
(dp868
g73
(dp869
g81
I4
ssg82
g863
sg75
(lp870
S'127.0.0.1-a1dcee7c-e184-4b24-994e-b9d344891f24'
p871
ag68
(g77
g70
NtRp872
(dp873
g73
(dp874
g81
I3
ssg82
Nsg75
(lp875
g68
(g84
g70
NtRp876
(dp877
g73
(dp878
sg82
g872
sg75
(lp879
g68
(g89
g70
NtRp880
(dp881
g73
(dp882
g93
g94
ssg82
g876
sg75
(lp883
g318
asbag68
(g89
g70
NtRp884
(dp885
g73
(dp886
g100
g101
ssg82
g876
sg75
(lp887
S':'
asbag68
(g89
g70
NtRp888
(dp889
g73
(dp890
sg82
g876
sg75
(lp891
g68
(g69
g70
NtRp892
(dp893
g73
(dp894
g81
I3
ssg82
g888
sg75
(lp895
S''
asbasbasbag68
(g84
g70
NtRp896
(dp897
g73
(dp898
sg82
g872
sg75
(lp899
g68
(g89
g70
NtRp900
(dp901
g73
(dp902
g93
g94
ssg82
g896
sg75
(lp903
g339
asbag68
(g89
g70
NtRp904
(dp905
g73
(dp906
g100
g101
ssg82
g896
sg75
(lp907
S':'
asbag68
(g89
g70
NtRp908
(dp909
g73
(dp910
sg82
g896
sg75
(lp911
g68
(g69
g70
NtRp912
(dp913
g73
(dp914
g81
I3
ssg82
g908
sg75
(lp915
S''
asbasbasbag68
(g84
g70
NtRp916
(dp917
g73
(dp918
sg82
g872
sg75
(lp919
g68
(g89
g70
NtRp920
(dp921
g73
(dp922
g93
g94
ssg82
g916
sg75
(lp923
g360
asbag68
(g89
g70
NtRp924
(dp925
g73
(dp926
g100
g101
ssg82
g916
sg75
(lp927
S':'
asbag68
(g89
g70
NtRp928
(dp929
g73
(dp930
sg82
g916
sg75
(lp931
g68
(g69
g70
NtRp932
(dp933
g73
(dp934
g81
I3
ssg82
g928
sg75
(lp935
S''
asbasbasbag68
(g84
g70
NtRp936
(dp937
g73
(dp938
sg82
g872
sg75
(lp939
g68
(g89
g70
NtRp940
(dp941
g73
(dp942
g93
g94
ssg82
g936
sg75
(lp943
g381
asbag68
(g89
g70
NtRp944
(dp945
g73
(dp946
g100
g101
ssg82
g936
sg75
(lp947
S':'
asbag68
(g89
g70
NtRp948
(dp949
g73
(dp950
sg82
g936
sg75
(lp951
g68
(g69
g70
NtRp952
(dp953
g73
(dp954
g81
I3
ssg82
g948
sg75
(lp955
S''
asbasbasbag68
(g84
g70
NtRp956
(dp957
g73
(dp958
sg82
g872
sg75
(lp959
g68
(g89
g70
NtRp960
(dp961
g73
(dp962
g93
g94
ssg82
g956
sg75
(lp963
g402
asbag68
(g89
g70
NtRp964
(dp965
g73
(dp966
g100
g101
ssg82
g956
sg75
(lp967
S':'
asbag68
(g89
g70
NtRp968
(dp969
g73
(dp970
sg82
g956
sg75
(lp971
g68
(g69
g70
NtRp972
(dp973
g73
(dp974
g81
I3
ssg82
g968
sg75
(lp975
S''
asbasbasbag68
(g84
g70
NtRp976
(dp977
g73
(dp978
sg82
g872
sg75
(lp979
g68
(g89
g70
NtRp980
(dp981
g73
(dp982
g93
g94
ssg82
g976
sg75
(lp983
g423
asbag68
(g89
g70
NtRp984
(dp985
g73
(dp986
g100
g101
ssg82
g976
sg75
(lp987
S':'
asbag68
(g89
g70
NtRp988
(dp989
g73
(dp990
sg82
g976
sg75
(lp991
g68
(g69
g70
NtRp992
(dp993
g73
(dp994
g81
I3
ssg82
g988
sg75
(lp995
S''
asbasbasbag68
(g84
g70
NtRp996
(dp997
g73
(dp998
sg82
g872
sg75
(lp999
g68
(g89
g70
NtRp1000
(dp1001
g73
(dp1002
g93
g94
ssg82
g996
sg75
(lp1003
g444
asbag68
(g89
g70
NtRp1004
(dp1005
g73
(dp1006
g100
g101
ssg82
g996
sg75
(lp1007
S':'
asbag68
(g89
g70
NtRp1008
(dp1009
g73
(dp1010
sg82
g996
sg75
(lp1011
g68
(g69
g70
NtRp1012
(dp1013
g73
(dp1014
g81
I3
ssg82
g1008
sg75
(lp1015
S''
asbasbasbag68
(g84
g70
NtRp1016
(dp1017
g73
(dp1018
sg82
g872
sg75
(lp1019
g68
(g89
g70
NtRp1020
(dp1021
g73
(dp1022
g93
g94
ssg82
g1016
sg75
(lp1023
g465
asbag68
(g89
g70
NtRp1024
(dp1025
g73
(dp1026
g100
g101
ssg82
g1016
sg75
(lp1027
S':'
asbag68
(g89
g70
NtRp1028
(dp1029
g73
(dp1030
sg82
g1016
sg75
(lp1031
g68
(g69
g70
NtRp1032
(dp1033
g73
(dp1034
g81
I3
ssg82
g1028
sg75
(lp1035
S''
asbasbasbasbasbasbasbasbasbasbasbag68
(g84
g70
NtRp1036
(dp1037
g73
(dp1038
sg82
g78
sg75
(lp1039
g68
(g89
g70
NtRp1040
(dp1041
g73
(dp1042
g93
g94
ssg82
g1036
sg75
(lp1043
S'env'
p1044
asbag68
(g89
g70
NtRp1045
(dp1046
g73
(dp1047
g100
g101
ssg82
g1036
sg75
(lp1048
S':'
asbag68
(g89
g70
NtRp1049
(dp1050
g73
(dp1051
sg82
g1036
sg75
(lp1052
g68
(g69
g70
NtRp1053
(dp1054
g73
(dp1055
g81
I5
ssg82
g1049
sg75
(lp1056
g68
(g77
g70
NtRp1057
(dp1058
g73
(dp1059
g81
I4
ssg82
Nsg75
(lp1060
g68
(g84
g70
NtRp1061
(dp1062
g73
(dp1063
sg82
g1057
sg75
(lp1064
g68
(g89
g70
NtRp1065
(dp1066
g73
(dp1067
g93
g94
ssg82
g1061
sg75
(lp1068
S'app_folders'
p1069
asbag68
(g89
g70
NtRp1070
(dp1071
g73
(dp1072
g100
g101
ssg82
g1061
sg75
(lp1073
S':'
asbag68
(g89
g70
NtRp1074
(dp1075
g73
(dp1076
sg82
g1061
sg75
(lp1077
g68
(g69
g70
NtRp1078
(dp1079
g73
(dp1080
g81
I4
ssg82
g1074
sg75
(lp1081
S"set(['/home/shipra/Desktop/Semester 1.2/ITWS-2/web2py/applications/Assignment_2/', '/home/shipra/Desktop/Semester 1.2/ITWS-2/web2py/applications/welcome/', '/home/shipra/Desktop/Semester 1.2/ITWS-2/web2py/applications/admin/'])"
p1082
asbasbasbag68
(g84
g70
NtRp1083
(dp1084
g73
(dp1085
sg82
g1057
sg75
(lp1086
g68
(g89
g70
NtRp1087
(dp1088
g73
(dp1089
g93
g94
ssg82
g1083
sg75
(lp1090
S'applications_parent'
p1091
asbag68
(g89
g70
NtRp1092
(dp1093
g73
(dp1094
g100
g101
ssg82
g1083
sg75
(lp1095
S':'
asbag68
(g89
g70
NtRp1096
(dp1097
g73
(dp1098
sg82
g1083
sg75
(lp1099
g68
(g69
g70
NtRp1100
(dp1101
g73
(dp1102
g81
I4
ssg82
g1096
sg75
(lp1103
S'/home/shipra/Desktop/Semester 1.2/ITWS-2/web2py'
p1104
asbasbasbag68
(g84
g70
NtRp1105
(dp1106
g73
(dp1107
sg82
g1057
sg75
(lp1108
g68
(g89
g70
NtRp1109
(dp1110
g73
(dp1111
g93
g94
ssg82
g1105
sg75
(lp1112
S'cmd_args'
p1113
asbag68
(g89
g70
NtRp1114
(dp1115
g73
(dp1116
g100
g101
ssg82
g1105
sg75
(lp1117
S':'
asbag68
(g89
g70
NtRp1118
(dp1119
g73
(dp1120
sg82
g1105
sg75
(lp1121
g68
(g69
g70
NtRp1122
(dp1123
g73
(dp1124
g81
I4
ssg82
g1118
sg75
(lp1125
g68
(g77
g70
NtRp1126
(dp1127
g73
(dp1128
g81
I3
ssg82
Nsg75
(lp1129
sbasbasbasbag68
(g84
g70
NtRp1130
(dp1131
g73
(dp1132
sg82
g1057
sg75
(lp1133
g68
(g89
g70
NtRp1134
(dp1135
g73
(dp1136
g93
g94
ssg82
g1130
sg75
(lp1137
S'cmd_options'
p1138
asbag68
(g89
g70
NtRp1139
(dp1140
g73
(dp1141
g100
g101
ssg82
g1130
sg75
(lp1142
S':'
asbag68
(g89
g70
NtRp1143
(dp1144
g73
(dp1145
sg82
g1130
sg75
(lp1146
g68
(g69
g70
NtRp1147
(dp1148
g73
(dp1149
g81
I4
ssg82
g1143
sg75
(lp1150
S"<Values at 0x1a09290: {'verbose': False, 'ip': '127.0.0.1', 'with_scheduler': False, 'ips': ['10.1.129.70', '192.168.122.1', 'fe80::e611:5bff:fe38:8d0d%p5p1'], 'shutdown_timeout': 5, 'taskbar': False, 'port': 8000, 'maxthreads': None, 'softcron': False, 'server_name': 'shipra', 'bpython': False, 'nogui': False, 'pid_filename': 'httpserver.pid', 'extcron': False, 'runcron': False, 'run_system_tests': False, 'test': None, 'folder': '/home/shipra/Desktop/Semester 1.2/ITWS-2/web2py', 'config': '', 'minthreads': None, 'winservice': '', 'shell': None, 'run': '', 'log_filename': 'httpserver.log', 'debuglevel': 30, 'args': [''], 'socket_timeout': 5, 'ssl_ca_certificate': None, 'scheduler': None, 'profiler_filename': None, 'ssl_private_key': '', 'scheduler_groups': None, 'password': '<ask>', 'request_queue_size': 5, 'ssl_certificate': '', 'cronjob': False, 'numthreads': None, 'quiet': False, 'interfaces': None, 'import_models': False, 'timeout': 10, 'plain': False, 'nobanner': False}>"
p1151
asbasbasbag68
(g84
g70
NtRp1152
(dp1153
g73
(dp1154
sg82
g1057
sg75
(lp1155
g68
(g89
g70
NtRp1156
(dp1157
g73
(dp1158
g93
g94
ssg82
g1152
sg75
(lp1159
S'db_sessions'
p1160
asbag68
(g89
g70
NtRp1161
(dp1162
g73
(dp1163
g100
g101
ssg82
g1152
sg75
(lp1164
S':'
asbag68
(g89
g70
NtRp1165
(dp1166
g73
(dp1167
sg82
g1152
sg75
(lp1168
g68
(g69
g70
NtRp1169
(dp1170
g73
(dp1171
g81
I4
ssg82
g1165
sg75
(lp1172
S'set([])'
p1173
asbasbasbag68
(g84
g70
NtRp1174
(dp1175
g73
(dp1176
sg82
g1057
sg75
(lp1177
g68
(g89
g70
NtRp1178
(dp1179
g73
(dp1180
g93
g94
ssg82
g1174
sg75
(lp1181
S'debugging'
p1182
asbag68
(g89
g70
NtRp1183
(dp1184
g73
(dp1185
g100
g101
ssg82
g1174
sg75
(lp1186
S':'
asbag68
(g89
g70
NtRp1187
(dp1188
g73
(dp1189
sg82
g1174
sg75
(lp1190
g68
(g69
g70
NtRp1191
(dp1192
g73
(dp1193
g81
I4
ssg82
g1187
sg75
(lp1194
g111
asbasbasbag68
(g84
g70
NtRp1195
(dp1196
g73
(dp1197
sg82
g1057
sg75
(lp1198
g68
(g89
g70
NtRp1199
(dp1200
g73
(dp1201
g93
g94
ssg82
g1195
sg75
(lp1202
S'gluon_parent'
p1203
asbag68
(g89
g70
NtRp1204
(dp1205
g73
(dp1206
g100
g101
ssg82
g1195
sg75
(lp1207
S':'
asbag68
(g89
g70
NtRp1208
(dp1209
g73
(dp1210
sg82
g1195
sg75
(lp1211
g68
(g69
g70
NtRp1212
(dp1213
g73
(dp1214
g81
I4
ssg82
g1208
sg75
(lp1215
S'/home/shipra/Desktop/Semester 1.2/ITWS-2/web2py'
p1216
asbasbasbag68
(g84
g70
NtRp1217
(dp1218
g73
(dp1219
sg82
g1057
sg75
(lp1220
g68
(g89
g70
NtRp1221
(dp1222
g73
(dp1223
g93
g94
ssg82
g1217
sg75
(lp1224
S'http_accept'
p1225
asbag68
(g89
g70
NtRp1226
(dp1227
g73
(dp1228
g100
g101
ssg82
g1217
sg75
(lp1229
S':'
asbag68
(g89
g70
NtRp1230
(dp1231
g73
(dp1232
sg82
g1217
sg75
(lp1233
g68
(g69
g70
NtRp1234
(dp1235
g73
(dp1236
g81
I4
ssg82
g1230
sg75
(lp1237
S'text/html,application/xhtml+xml,application/xml;q=0.9,*/*;q=0.8'
p1238
asbasbasbag68
(g84
g70
NtRp1239
(dp1240
g73
(dp1241
sg82
g1057
sg75
(lp1242
g68
(g89
g70
NtRp1243
(dp1244
g73
(dp1245
g93
g94
ssg82
g1239
sg75
(lp1246
S'http_accept_encoding'
p1247
asbag68
(g89
g70
NtRp1248
(dp1249
g73
(dp1250
g100
g101
ssg82
g1239
sg75
(lp1251
S':'
asbag68
(g89
g70
NtRp1252
(dp1253
g73
(dp1254
sg82
g1239
sg75
(lp1255
g68
(g69
g70
NtRp1256
(dp1257
g73
(dp1258
g81
I4
ssg82
g1252
sg75
(lp1259
S'gzip, deflate'
p1260
asbasbasbag68
(g84
g70
NtRp1261
(dp1262
g73
(dp1263
sg82
g1057
sg75
(lp1264
g68
(g89
g70
NtRp1265
(dp1266
g73
(dp1267
g93
g94
ssg82
g1261
sg75
(lp1268
S'http_accept_language'
p1269
asbag68
(g89
g70
NtRp1270
(dp1271
g73
(dp1272
g100
g101
ssg82
g1261
sg75
(lp1273
S':'
asbag68
(g89
g70
NtRp1274
(dp1275
g73
(dp1276
sg82
g1261
sg75
(lp1277
g68
(g69
g70
NtRp1278
(dp1279
g73
(dp1280
g81
I4
ssg82
g1274
sg75
(lp1281
S'en-us,en;q=0.5'
p1282
asbasbasbag68
(g84
g70
NtRp1283
(dp1284
g73
(dp1285
sg82
g1057
sg75
(lp1286
g68
(g89
g70
NtRp1287
(dp1288
g73
(dp1289
g93
g94
ssg82
g1283
sg75
(lp1290
S'http_connection'
p1291
asbag68
(g89
g70
NtRp1292
(dp1293
g73
(dp1294
g100
g101
ssg82
g1283
sg75
(lp1295
S':'
asbag68
(g89
g70
NtRp1296
(dp1297
g73
(dp1298
sg82
g1283
sg75
(lp1299
g68
(g69
g70
NtRp1300
(dp1301
g73
(dp1302
g81
I4
ssg82
g1296
sg75
(lp1303
S'keep-alive'
p1304
asbasbasbag68
(g84
g70
NtRp1305
(dp1306
g73
(dp1307
sg82
g1057
sg75
(lp1308
g68
(g89
g70
NtRp1309
(dp1310
g73
(dp1311
g93
g94
ssg82
g1305
sg75
(lp1312
S'http_cookie'
p1313
asbag68
(g89
g70
NtRp1314
(dp1315
g73
(dp1316
g100
g101
ssg82
g1305
sg75
(lp1317
S':'
asbag68
(g89
g70
NtRp1318
(dp1319
g73
(dp1320
sg82
g1305
sg75
(lp1321
g68
(g69
g70
NtRp1322
(dp1323
g73
(dp1324
g81
I4
ssg82
g1318
sg75
(lp1325
S'__utma=96992031.1334412862.1364672878.1364672878.1364718243.2; __utmz=96992031.1364672878.1.1.utmcsr=(direct)|utmccn=(direct)|utmcmd=(none); __lc.visitor_id.1195381=S1364672235.4faffcf2d2; __ar_v4=OWHSPOGHTNEIPPPBMHVFTA%3A20130329%3A12%7CAMEDRHI4VZG4TIA2AZ565D%3A20130329%3A12%7CWAEQXC4B2NH3DDBR3TZM6I%3A20130329%3A12; mp_2093ad9ff9c5428a2228386de2f2b0e4_mixpanel=%7B%22distinct_id%22%3A%20%2262ffc2d0-7b9f-0130-efb0-22000a1cbb2a%22%2C%22is_registered_user%22%3A%20false%2C%22%24initial_referrer%22%3A%20%22%24direct%22%2C%22%24initial_referring_domain%22%3A%20%22%24direct%22%7D; session_id_welcome=127.0.0.1-a1dcee7c-e184-4b24-994e-b9d344891f24; session_id_admin=127.0.0.1-dc460202-62d9-43ac-881c-17f356e5f59c; session_id_assignment_2=127.0.0.1-a1ea54ad-1f50-4df2-bed9-5564e0abdc15'
p1326
asbasbasbag68
(g84
g70
NtRp1327
(dp1328
g73
(dp1329
sg82
g1057
sg75
(lp1330
g68
(g89
g70
NtRp1331
(dp1332
g73
(dp1333
g93
g94
ssg82
g1327
sg75
(lp1334
S'http_host'
p1335
asbag68
(g89
g70
NtRp1336
(dp1337
g73
(dp1338
g100
g101
ssg82
g1327
sg75
(lp1339
S':'
asbag68
(g89
g70
NtRp1340
(dp1341
g73
(dp1342
sg82
g1327
sg75
(lp1343
g68
(g69
g70
NtRp1344
(dp1345
g73
(dp1346
g81
I4
ssg82
g1340
sg75
(lp1347
S'127.0.0.1:8000'
p1348
asbasbasbag68
(g84
g70
NtRp1349
(dp1350
g73
(dp1351
sg82
g1057
sg75
(lp1352
g68
(g89
g70
NtRp1353
(dp1354
g73
(dp1355
g93
g94
ssg82
g1349
sg75
(lp1356
S'http_user_agent'
p1357
asbag68
(g89
g70
NtRp1358
(dp1359
g73
(dp1360
g100
g101
ssg82
g1349
sg75
(lp1361
S':'
asbag68
(g89
g70
NtRp1362
(dp1363
g73
(dp1364
sg82
g1349
sg75
(lp1365
g68
(g69
g70
NtRp1366
(dp1367
g73
(dp1368
g81
I4
ssg82
g1362
sg75
(lp1369
S'Mozilla/5.0 (X11; Linux x86_64; rv:12.0) Gecko/20100101 Firefox/12.0'
p1370
asbasbasbag68
(g84
g70
NtRp1371
(dp1372
g73
(dp1373
sg82
g1057
sg75
(lp1374
g68
(g89
g70
NtRp1375
(dp1376
g73
(dp1377
g93
g94
ssg82
g1371
sg75
(lp1378
S'is_jython'
p1379
asbag68
(g89
g70
NtRp1380
(dp1381
g73
(dp1382
g100
g101
ssg82
g1371
sg75
(lp1383
S':'
asbag68
(g89
g70
NtRp1384
(dp1385
g73
(dp1386
sg82
g1371
sg75
(lp1387
g68
(g69
g70
NtRp1388
(dp1389
g73
(dp1390
g81
I4
ssg82
g1384
sg75
(lp1391
g111
asbasbasbag68
(g84
g70
NtRp1392
(dp1393
g73
(dp1394
sg82
g1057
sg75
(lp1395
g68
(g89
g70
NtRp1396
(dp1397
g73
(dp1398
g93
g94
ssg82
g1392
sg75
(lp1399
S'is_pypy'
p1400
asbag68
(g89
g70
NtRp1401
(dp1402
g73
(dp1403
g100
g101
ssg82
g1392
sg75
(lp1404
S':'
asbag68
(g89
g70
NtRp1405
(dp1406
g73
(dp1407
sg82
g1392
sg75
(lp1408
g68
(g69
g70
NtRp1409
(dp1410
g73
(dp1411
g81
I4
ssg82
g1405
sg75
(lp1412
g111
asbasbasbag68
(g84
g70
NtRp1413
(dp1414
g73
(dp1415
sg82
g1057
sg75
(lp1416
g68
(g89
g70
NtRp1417
(dp1418
g73
(dp1419
g93
g94
ssg82
g1413
sg75
(lp1420
S'local_hosts'
p1421
asbag68
(g89
g70
NtRp1422
(dp1423
g73
(dp1424
g100
g101
ssg82
g1413
sg75
(lp1425
S':'
asbag68
(g89
g70
NtRp1426
(dp1427
g73
(dp1428
sg82
g1413
sg75
(lp1429
g68
(g69
g70
NtRp1430
(dp1431
g73
(dp1432
g81
I4
ssg82
g1426
sg75
(lp1433
g68
(g77
g70
NtRp1434
(dp1435
g73
(dp1436
g81
I3
ssg82
Nsg75
(lp1437
g68
(g84
g70
NtRp1438
(dp1439
g73
(dp1440
sg82
g1434
sg75
(lp1441
g68
(g89
g70
NtRp1442
(dp1443
g73
(dp1444
sg82
g1438
sg75
(lp1445
g68
(g69
g70
NtRp1446
(dp1447
g73
(dp1448
g81
I3
ssg82
g1442
sg75
(lp1449
S'192.168.122.1'
p1450
asbasbasbag68
(g84
g70
NtRp1451
(dp1452
g73
(dp1453
sg82
g1434
sg75
(lp1454
g68
(g89
g70
NtRp1455
(dp1456
g73
(dp1457
sg82
g1451
sg75
(lp1458
g68
(g69
g70
NtRp1459
(dp1460
g73
(dp1461
g81
I3
ssg82
g1455
sg75
(lp1462
S'::ffff:127.0.0.1'
p1463
asbasbasbag68
(g84
g70
NtRp1464
(dp1465
g73
(dp1466
sg82
g1434
sg75
(lp1467
g68
(g89
g70
NtRp1468
(dp1469
g73
(dp1470
sg82
g1464
sg75
(lp1471
g68
(g69
g70
NtRp1472
(dp1473
g73
(dp1474
g81
I3
ssg82
g1468
sg75
(lp1475
S'::1'
p1476
asbasbasbag68
(g84
g70
NtRp1477
(dp1478
g73
(dp1479
sg82
g1434
sg75
(lp1480
g68
(g89
g70
NtRp1481
(dp1482
g73
(dp1483
sg82
g1477
sg75
(lp1484
g68
(g69
g70
NtRp1485
(dp1486
g73
(dp1487
g81
I3
ssg82
g1481
sg75
(lp1488
S'10.1.129.70'
p1489
asbasbasbag68
(g84
g70
NtRp1490
(dp1491
g73
(dp1492
sg82
g1434
sg75
(lp1493
g68
(g89
g70
NtRp1494
(dp1495
g73
(dp1496
sg82
g1490
sg75
(lp1497
g68
(g69
g70
NtRp1498
(dp1499
g73
(dp1500
g81
I3
ssg82
g1494
sg75
(lp1501
S'fe80::e611:5bff:fe38:8d0d%p5p1'
p1502
asbasbasbag68
(g84
g70
NtRp1503
(dp1504
g73
(dp1505
sg82
g1434
sg75
(lp1506
g68
(g89
g70
NtRp1507
(dp1508
g73
(dp1509
sg82
g1503
sg75
(lp1510
g68
(g69
g70
NtRp1511
(dp1512
g73
(dp1513
g81
I3
ssg82
g1507
sg75
(lp1514
S'127.0.0.1'
p1515
asbasbasbag68
(g84
g70
NtRp1516
(dp1517
g73
(dp1518
sg82
g1434
sg75
(lp1519
g68
(g89
g70
NtRp1520
(dp1521
g73
(dp1522
sg82
g1516
sg75
(lp1523
g68
(g69
g70
NtRp1524
(dp1525
g73
(dp1526
g81
I3
ssg82
g1520
sg75
(lp1527
S'shipra'
p1528
asbasbasbasbasbasbasbag68
(g84
g70
NtRp1529
(dp1530
g73
(dp1531
sg82
g1057
sg75
(lp1532
g68
(g89
g70
NtRp1533
(dp1534
g73
(dp1535
g93
g94
ssg82
g1529
sg75
(lp1536
S'path_info'
p1537
asbag68
(g89
g70
NtRp1538
(dp1539
g73
(dp1540
g100
g101
ssg82
g1529
sg75
(lp1541
S':'
asbag68
(g89
g70
NtRp1542
(dp1543
g73
(dp1544
sg82
g1529
sg75
(lp1545
g68
(g69
g70
NtRp1546
(dp1547
g73
(dp1548
g81
I4
ssg82
g1542
sg75
(lp1549
S'/Assignment_2/default/user/login'
p1550
asbasbasbag68
(g84
g70
NtRp1551
(dp1552
g73
(dp1553
sg82
g1057
sg75
(lp1554
g68
(g89
g70
NtRp1555
(dp1556
g73
(dp1557
g93
g94
ssg82
g1551
sg75
(lp1558
S'query_string'
p1559
asbag68
(g89
g70
NtRp1560
(dp1561
g73
(dp1562
g100
g101
ssg82
g1551
sg75
(lp1563
S':'
asbag68
(g89
g70
NtRp1564
(dp1565
g73
(dp1566
sg82
g1551
sg75
(lp1567
g68
(g69
g70
NtRp1568
(dp1569
g73
(dp1570
g81
I4
ssg82
g1564
sg75
(lp1571
S''
asbasbasbag68
(g84
g70
NtRp1572
(dp1573
g73
(dp1574
sg82
g1057
sg75
(lp1575
g68
(g89
g70
NtRp1576
(dp1577
g73
(dp1578
g93
g94
ssg82
g1572
sg75
(lp1579
S'remote_addr'
p1580
asbag68
(g89
g70
NtRp1581
(dp1582
g73
(dp1583
g100
g101
ssg82
g1572
sg75
(lp1584
S':'
asbag68
(g89
g70
NtRp1585
(dp1586
g73
(dp1587
sg82
g1572
sg75
(lp1588
g68
(g69
g70
NtRp1589
(dp1590
g73
(dp1591
g81
I4
ssg82
g1585
sg75
(lp1592
g236
asbasbasbag68
(g84
g70
NtRp1593
(dp1594
g73
(dp1595
sg82
g1057
sg75
(lp1596
g68
(g89
g70
NtRp1597
(dp1598
g73
(dp1599
g93
g94
ssg82
g1593
sg75
(lp1600
S'remote_port'
p1601
asbag68
(g89
g70
NtRp1602
(dp1603
g73
(dp1604
g100
g101
ssg82
g1593
sg75
(lp1605
S':'
asbag68
(g89
g70
NtRp1606
(dp1607
g73
(dp1608
sg82
g1593
sg75
(lp1609
g68
(g69
g70
NtRp1610
(dp1611
g73
(dp1612
g81
I4
ssg82
g1606
sg75
(lp1613
S'35550'
p1614
asbasbasbag68
(g84
g70
NtRp1615
(dp1616
g73
(dp1617
sg82
g1057
sg75
(lp1618
g68
(g89
g70
NtRp1619
(dp1620
g73
(dp1621
g93
g94
ssg82
g1615
sg75
(lp1622
S'request_method'
p1623
asbag68
(g89
g70
NtRp1624
(dp1625
g73
(dp1626
g100
g101
ssg82
g1615
sg75
(lp1627
S':'
asbag68
(g89
g70
NtRp1628
(dp1629
g73
(dp1630
sg82
g1615
sg75
(lp1631
g68
(g69
g70
NtRp1632
(dp1633
g73
(dp1634
g81
I4
ssg82
g1628
sg75
(lp1635
S'GET'
p1636
asbasbasbag68
(g84
g70
NtRp1637
(dp1638
g73
(dp1639
sg82
g1057
sg75
(lp1640
g68
(g89
g70
NtRp1641
(dp1642
g73
(dp1643
g93
g94
ssg82
g1637
sg75
(lp1644
S'request_uri'
p1645
asbag68
(g89
g70
NtRp1646
(dp1647
g73
(dp1648
g100
g101
ssg82
g1637
sg75
(lp1649
S':'
asbag68
(g89
g70
NtRp1650
(dp1651
g73
(dp1652
sg82
g1637
sg75
(lp1653
g68
(g69
g70
NtRp1654
(dp1655
g73
(dp1656
g81
I4
ssg82
g1650
sg75
(lp1657
g1550
asbasbasbag68
(g84
g70
NtRp1658
(dp1659
g73
(dp1660
sg82
g1057
sg75
(lp1661
g68
(g89
g70
NtRp1662
(dp1663
g73
(dp1664
g93
g94
ssg82
g1658
sg75
(lp1665
S'script_name'
p1666
asbag68
(g89
g70
NtRp1667
(dp1668
g73
(dp1669
g100
g101
ssg82
g1658
sg75
(lp1670
S':'
asbag68
(g89
g70
NtRp1671
(dp1672
g73
(dp1673
sg82
g1658
sg75
(lp1674
g68
(g69
g70
NtRp1675
(dp1676
g73
(dp1677
g81
I4
ssg82
g1671
sg75
(lp1678
S''
asbasbasbag68
(g84
g70
NtRp1679
(dp1680
g73
(dp1681
sg82
g1057
sg75
(lp1682
g68
(g89
g70
NtRp1683
(dp1684
g73
(dp1685
g93
g94
ssg82
g1679
sg75
(lp1686
S'server_name'
p1687
asbag68
(g89
g70
NtRp1688
(dp1689
g73
(dp1690
g100
g101
ssg82
g1679
sg75
(lp1691
S':'
asbag68
(g89
g70
NtRp1692
(dp1693
g73
(dp1694
sg82
g1679
sg75
(lp1695
g68
(g69
g70
NtRp1696
(dp1697
g73
(dp1698
g81
I4
ssg82
g1692
sg75
(lp1699
S'shipra'
p1700
asbasbasbag68
(g84
g70
NtRp1701
(dp1702
g73
(dp1703
sg82
g1057
sg75
(lp1704
g68
(g89
g70
NtRp1705
(dp1706
g73
(dp1707
g93
g94
ssg82
g1701
sg75
(lp1708
S'server_port'
p1709
asbag68
(g89
g70
NtRp1710
(dp1711
g73
(dp1712
g100
g101
ssg82
g1701
sg75
(lp1713
S':'
asbag68
(g89
g70
NtRp1714
(dp1715
g73
(dp1716
sg82
g1701
sg75
(lp1717
g68
(g69
g70
NtRp1718
(dp1719
g73
(dp1720
g81
I4
ssg82
g1714
sg75
(lp1721
S'8000'
p1722
asbasbasbag68
(g84
g70
NtRp1723
(dp1724
g73
(dp1725
sg82
g1057
sg75
(lp1726
g68
(g89
g70
NtRp1727
(dp1728
g73
(dp1729
g93
g94
ssg82
g1723
sg75
(lp1730
S'server_protocol'
p1731
asbag68
(g89
g70
NtRp1732
(dp1733
g73
(dp1734
g100
g101
ssg82
g1723
sg75
(lp1735
S':'
asbag68
(g89
g70
NtRp1736
(dp1737
g73
(dp1738
sg82
g1723
sg75
(lp1739
g68
(g69
g70
NtRp1740
(dp1741
g73
(dp1742
g81
I4
ssg82
g1736
sg75
(lp1743
S'HTTP/1.1'
p1744
asbasbasbag68
(g84
g70
NtRp1745
(dp1746
g73
(dp1747
sg82
g1057
sg75
(lp1748
g68
(g89
g70
NtRp1749
(dp1750
g73
(dp1751
g93
g94
ssg82
g1745
sg75
(lp1752
S'server_software'
p1753
asbag68
(g89
g70
NtRp1754
(dp1755
g73
(dp1756
g100
g101
ssg82
g1745
sg75
(lp1757
S':'
asbag68
(g89
g70
NtRp1758
(dp1759
g73
(dp1760
sg82
g1745
sg75
(lp1761
g68
(g69
g70
NtRp1762
(dp1763
g73
(dp1764
g81
I4
ssg82
g1758
sg75
(lp1765
S'Rocket 1.2.6'
p1766
asbasbasbag68
(g84
g70
NtRp1767
(dp1768
g73
(dp1769
sg82
g1057
sg75
(lp1770
g68
(g89
g70
NtRp1771
(dp1772
g73
(dp1773
g93
g94
ssg82
g1767
sg75
(lp1774
S'web2py_path'
p1775
asbag68
(g89
g70
NtRp1776
(dp1777
g73
(dp1778
g100
g101
ssg82
g1767
sg75
(lp1779
S':'
asbag68
(g89
g70
NtRp1780
(dp1781
g73
(dp1782
sg82
g1767
sg75
(lp1783
g68
(g69
g70
NtRp1784
(dp1785
g73
(dp1786
g81
I4
ssg82
g1780
sg75
(lp1787
g1104
asbasbasbag68
(g84
g70
NtRp1788
(dp1789
g73
(dp1790
sg82
g1057
sg75
(lp1791
g68
(g89
g70
NtRp1792
(dp1793
g73
(dp1794
g93
g94
ssg82
g1788
sg75
(lp1795
S'web2py_version'
p1796
asbag68
(g89
g70
NtRp1797
(dp1798
g73
(dp1799
g100
g101
ssg82
g1788
sg75
(lp1800
S':'
asbag68
(g89
g70
NtRp1801
(dp1802
g73
(dp1803
sg82
g1788
sg75
(lp1804
g68
(g69
g70
NtRp1805
(dp1806
g73
(dp1807
g81
I4
ssg82
g1801
sg75
(lp1808
g68
(g77
g70
NtRp1809
(dp1810
g73
(dp1811
g81
I3
ssg82
Nsg75
(lp1812
g68
(g84
g70
NtRp1813
(dp1814
g73
(dp1815
sg82
g1809
sg75
(lp1816
g68
(g89
g70
NtRp1817
(dp1818
g73
(dp1819
sg82
g1813
sg75
(lp1820
g68
(g69
g70
NtRp1821
(dp1822
g73
(dp1823
g81
I3
ssg82
g1817
sg75
(lp1824
S'2'
asbasbasbag68
(g84
g70
NtRp1825
(dp1826
g73
(dp1827
sg82
g1809
sg75
(lp1828
g68
(g89
g70
NtRp1829
(dp1830
g73
(dp1831
sg82
g1825
sg75
(lp1832
g68
(g69
g70
NtRp1833
(dp1834
g73
(dp1835
g81
I3
ssg82
g1829
sg75
(lp1836
S'3'
asbasbasbag68
(g84
g70
NtRp1837
(dp1838
g73
(dp1839
sg82
g1809
sg75
(lp1840
g68
(g89
g70
NtRp1841
(dp1842
g73
(dp1843
sg82
g1837
sg75
(lp1844
g68
(g69
g70
NtRp1845
(dp1846
g73
(dp1847
g81
I3
ssg82
g1841
sg75
(lp1848
S'2'
asbasbasbag68
(g84
g70
NtRp1849
(dp1850
g73
(dp1851
sg82
g1809
sg75
(lp1852
g68
(g89
g70
NtRp1853
(dp1854
g73
(dp1855
sg82
g1849
sg75
(lp1856
g68
(g69
g70
NtRp1857
(dp1858
g73
(dp1859
g81
I3
ssg82
g1853
sg75
(lp1860
S'datetime.datetime(2012, 12, 17, 15, 3, 30)'
p1861
asbasbasbag68
(g84
g70
NtRp1862
(dp1863
g73
(dp1864
sg82
g1809
sg75
(lp1865
g68
(g89
g70
NtRp1866
(dp1867
g73
(dp1868
sg82
g1862
sg75
(lp1869
g68
(g69
g70
NtRp1870
(dp1871
g73
(dp1872
g81
I3
ssg82
g1866
sg75
(lp1873
S'stable'
p1874
asbasbasbasbasbasbasbag68
(g84
g70
NtRp1875
(dp1876
g73
(dp1877
sg82
g1057
sg75
(lp1878
g68
(g89
g70
NtRp1879
(dp1880
g73
(dp1881
g93
g94
ssg82
g1875
sg75
(lp1882
S'wsgi_errors'
p1883
asbag68
(g89
g70
NtRp1884
(dp1885
g73
(dp1886
g100
g101
ssg82
g1875
sg75
(lp1887
S':'
asbag68
(g89
g70
NtRp1888
(dp1889
g73
(dp1890
sg82
g1875
sg75
(lp1891
g68
(g69
g70
NtRp1892
(dp1893
g73
(dp1894
g81
I4
ssg82
g1888
sg75
(lp1895
S"<open file '<stderr>', mode 'w' at 0x7f411ee5d270>"
p1896
asbasbasbag68
(g84
g70
NtRp1897
(dp1898
g73
(dp1899
sg82
g1057
sg75
(lp1900
g68
(g89
g70
NtRp1901
(dp1902
g73
(dp1903
g93
g94
ssg82
g1897
sg75
(lp1904
S'wsgi_file_wrapper'
p1905
asbag68
(g89
g70
NtRp1906
(dp1907
g73
(dp1908
g100
g101
ssg82
g1897
sg75
(lp1909
S':'
asbag68
(g89
g70
NtRp1910
(dp1911
g73
(dp1912
sg82
g1897
sg75
(lp1913
g68
(g69
g70
NtRp1914
(dp1915
g73
(dp1916
g81
I4
ssg82
g1910
sg75
(lp1917
S'<class wsgiref.util.FileWrapper at 0x1992e20>'
p1918
asbasbasbag68
(g84
g70
NtRp1919
(dp1920
g73
(dp1921
sg82
g1057
sg75
(lp1922
g68
(g89
g70
NtRp1923
(dp1924
g73
(dp1925
g93
g94
ssg82
g1919
sg75
(lp1926
S'wsgi_input'
p1927
asbag68
(g89
g70
NtRp1928
(dp1929
g73
(dp1930
g100
g101
ssg82
g1919
sg75
(lp1931
S':'
asbag68
(g89
g70
NtRp1932
(dp1933
g73
(dp1934
sg82
g1919
sg75
(lp1935
g68
(g69
g70
NtRp1936
(dp1937
g73
(dp1938
g81
I4
ssg82
g1932
sg75
(lp1939
S'<socket._fileobject object at 0x7f40f40c0950>'
p1940
asbasbasbag68
(g84
g70
NtRp1941
(dp1942
g73
(dp1943
sg82
g1057
sg75
(lp1944
g68
(g89
g70
NtRp1945
(dp1946
g73
(dp1947
g93
g94
ssg82
g1941
sg75
(lp1948
S'wsgi_multiprocess'
p1949
asbag68
(g89
g70
NtRp1950
(dp1951
g73
(dp1952
g100
g101
ssg82
g1941
sg75
(lp1953
S':'
asbag68
(g89
g70
NtRp1954
(dp1955
g73
(dp1956
sg82
g1941
sg75
(lp1957
g68
(g69
g70
NtRp1958
(dp1959
g73
(dp1960
g81
I4
ssg82
g1954
sg75
(lp1961
g111
asbasbasbag68
(g84
g70
NtRp1962
(dp1963
g73
(dp1964
sg82
g1057
sg75
(lp1965
g68
(g89
g70
NtRp1966
(dp1967
g73
(dp1968
g93
g94
ssg82
g1962
sg75
(lp1969
S'wsgi_multithread'
p1970
asbag68
(g89
g70
NtRp1971
(dp1972
g73
(dp1973
g100
g101
ssg82
g1962
sg75
(lp1974
S':'
asbag68
(g89
g70
NtRp1975
(dp1976
g73
(dp1977
sg82
g1962
sg75
(lp1978
g68
(g69
g70
NtRp1979
(dp1980
g73
(dp1981
g81
I4
ssg82
g1975
sg75
(lp1982
S'True'
p1983
asbasbasbag68
(g84
g70
NtRp1984
(dp1985
g73
(dp1986
sg82
g1057
sg75
(lp1987
g68
(g89
g70
NtRp1988
(dp1989
g73
(dp1990
g93
g94
ssg82
g1984
sg75
(lp1991
S'wsgi_run_once'
p1992
asbag68
(g89
g70
NtRp1993
(dp1994
g73
(dp1995
g100
g101
ssg82
g1984
sg75
(lp1996
S':'
asbag68
(g89
g70
NtRp1997
(dp1998
g73
(dp1999
sg82
g1984
sg75
(lp2000
g68
(g69
g70
NtRp2001
(dp2002
g73
(dp2003
g81
I4
ssg82
g1997
sg75
(lp2004
g111
asbasbasbag68
(g84
g70
NtRp2005
(dp2006
g73
(dp2007
sg82
g1057
sg75
(lp2008
g68
(g89
g70
NtRp2009
(dp2010
g73
(dp2011
g93
g94
ssg82
g2005
sg75
(lp2012
S'wsgi_url_scheme'
p2013
asbag68
(g89
g70
NtRp2014
(dp2015
g73
(dp2016
g100
g101
ssg82
g2005
sg75
(lp2017
S':'
asbag68
(g89
g70
NtRp2018
(dp2019
g73
(dp2020
sg82
g2005
sg75
(lp2021
g68
(g69
g70
NtRp2022
(dp2023
g73
(dp2024
g81
I4
ssg82
g2018
sg75
(lp2025
S'http'
p2026
asbasbasbag68
(g84
g70
NtRp2027
(dp2028
g73
(dp2029
sg82
g1057
sg75
(lp2030
g68
(g89
g70
NtRp2031
(dp2032
g73
(dp2033
g93
g94
ssg82
g2027
sg75
(lp2034
S'wsgi_version'
p2035
asbag68
(g89
g70
NtRp2036
(dp2037
g73
(dp2038
g100
g101
ssg82
g2027
sg75
(lp2039
S':'
asbag68
(g89
g70
NtRp2040
(dp2041
g73
(dp2042
sg82
g2027
sg75
(lp2043
g68
(g69
g70
NtRp2044
(dp2045
g73
(dp2046
g81
I4
ssg82
g2040
sg75
(lp2047
g68
(g77
g70
NtRp2048
(dp2049
g73
(dp2050
g81
I3
ssg82
Nsg75
(lp2051
g68
(g84
g70
NtRp2052
(dp2053
g73
(dp2054
sg82
g2048
sg75
(lp2055
g68
(g89
g70
NtRp2056
(dp2057
g73
(dp2058
sg82
g2052
sg75
(lp2059
g68
(g69
g70
NtRp2060
(dp2061
g73
(dp2062
g81
I3
ssg82
g2056
sg75
(lp2063
S'1'
asbasbasbag68
(g84
g70
NtRp2064
(dp2065
g73
(dp2066
sg82
g2048
sg75
(lp2067
g68
(g89
g70
NtRp2068
(dp2069
g73
(dp2070
sg82
g2064
sg75
(lp2071
g68
(g69
g70
NtRp2072
(dp2073
g73
(dp2074
g81
I3
ssg82
g2068
sg75
(lp2075
S'0'
asbasbasbasbasbasbasbasbasbasbasbag68
(g84
g70
NtRp2076
(dp2077
g73
(dp2078
sg82
g78
sg75
(lp2079
g68
(g89
g70
NtRp2080
(dp2081
g73
(dp2082
g93
g94
ssg82
g2076
sg75
(lp2083
S'extension'
p2084
asbag68
(g89
g70
NtRp2085
(dp2086
g73
(dp2087
g100
g101
ssg82
g2076
sg75
(lp2088
S':'
asbag68
(g89
g70
NtRp2089
(dp2090
g73
(dp2091
sg82
g2076
sg75
(lp2092
g68
(g69
g70
NtRp2093
(dp2094
g73
(dp2095
g81
I5
ssg82
g2089
sg75
(lp2096
S'html'
p2097
asbasbasbag68
(g84
g70
NtRp2098
(dp2099
g73
(dp2100
sg82
g78
sg75
(lp2101
g68
(g89
g70
NtRp2102
(dp2103
g73
(dp2104
g93
g94
ssg82
g2098
sg75
(lp2105
S'folder'
p2106
asbag68
(g89
g70
NtRp2107
(dp2108
g73
(dp2109
g100
g101
ssg82
g2098
sg75
(lp2110
S':'
asbag68
(g89
g70
NtRp2111
(dp2112
g73
(dp2113
sg82
g2098
sg75
(lp2114
g68
(g69
g70
NtRp2115
(dp2116
g73
(dp2117
g81
I5
ssg82
g2111
sg75
(lp2118
S'/home/shipra/Desktop/Semester 1.2/ITWS-2/web2py/applications/Assignment_2/'
p2119
asbasbasbag68
(g84
g70
NtRp2120
(dp2121
g73
(dp2122
sg82
g78
sg75
(lp2123
g68
(g89
g70
NtRp2124
(dp2125
g73
(dp2126
g93
g94
ssg82
g2120
sg75
(lp2127
S'function'
p2128
asbag68
(g89
g70
NtRp2129
(dp2130
g73
(dp2131
g100
g101
ssg82
g2120
sg75
(lp2132
S':'
asbag68
(g89
g70
NtRp2133
(dp2134
g73
(dp2135
sg82
g2120
sg75
(lp2136
g68
(g69
g70
NtRp2137
(dp2138
g73
(dp2139
g81
I5
ssg82
g2133
sg75
(lp2140
S'user'
p2141
asbasbasbag68
(g84
g70
NtRp2142
(dp2143
g73
(dp2144
sg82
g78
sg75
(lp2145
g68
(g89
g70
NtRp2146
(dp2147
g73
(dp2148
g93
g94
ssg82
g2142
sg75
(lp2149
S'get_vars'
p2150
asbag68
(g89
g70
NtRp2151
(dp2152
g73
(dp2153
g100
g101
ssg82
g2142
sg75
(lp2154
S':'
asbag68
(g89
g70
NtRp2155
(dp2156
g73
(dp2157
sg82
g2142
sg75
(lp2158
g68
(g69
g70
NtRp2159
(dp2160
g73
(dp2161
g81
I5
ssg82
g2155
sg75
(lp2162
g68
(g77
g70
NtRp2163
(dp2164
g73
(dp2165
g81
I4
ssg82
Nsg75
(lp2166
sbasbasbasbag68
(g84
g70
NtRp2167
(dp2168
g73
(dp2169
sg82
g78
sg75
(lp2170
g68
(g89
g70
NtRp2171
(dp2172
g73
(dp2173
g93
g94
ssg82
g2167
sg75
(lp2174
S'global_settings'
p2175
asbag68
(g89
g70
NtRp2176
(dp2177
g73
(dp2178
g100
g101
ssg82
g2167
sg75
(lp2179
S':'
asbag68
(g89
g70
NtRp2180
(dp2181
g73
(dp2182
sg82
g2167
sg75
(lp2183
g68
(g69
g70
NtRp2184
(dp2185
g73
(dp2186
g81
I5
ssg82
g2180
sg75
(lp2187
g68
(g77
g70
NtRp2188
(dp2189
g73
(dp2190
g81
I4
ssg82
Nsg75
(lp2191
g68
(g84
g70
NtRp2192
(dp2193
g73
(dp2194
sg82
g2188
sg75
(lp2195
g68
(g89
g70
NtRp2196
(dp2197
g73
(dp2198
g93
g94
ssg82
g2192
sg75
(lp2199
g1069
asbag68
(g89
g70
NtRp2200
(dp2201
g73
(dp2202
g100
g101
ssg82
g2192
sg75
(lp2203
S':'
asbag68
(g89
g70
NtRp2204
(dp2205
g73
(dp2206
sg82
g2192
sg75
(lp2207
g68
(g69
g70
NtRp2208
(dp2209
g73
(dp2210
g81
I4
ssg82
g2204
sg75
(lp2211
S"set(['/home/shipra/Desktop/Semester 1.2/ITWS-2/web2py/applications/Assignment_2/', '/home/shipra/Desktop/Semester 1.2/ITWS-2/web2py/applications/welcome/', '/home/shipra/Desktop/Semester 1.2/ITWS-2/web2py/applications/admin/'])"
p2212
asbasbasbag68
(g84
g70
NtRp2213
(dp2214
g73
(dp2215
sg82
g2188
sg75
(lp2216
g68
(g89
g70
NtRp2217
(dp2218
g73
(dp2219
g93
g94
ssg82
g2213
sg75
(lp2220
g1091
asbag68
(g89
g70
NtRp2221
(dp2222
g73
(dp2223
g100
g101
ssg82
g2213
sg75
(lp2224
S':'
asbag68
(g89
g70
NtRp2225
(dp2226
g73
(dp2227
sg82
g2213
sg75
(lp2228
g68
(g69
g70
NtRp2229
(dp2230
g73
(dp2231
g81
I4
ssg82
g2225
sg75
(lp2232
g1104
asbasbasbag68
(g84
g70
NtRp2233
(dp2234
g73
(dp2235
sg82
g2188
sg75
(lp2236
g68
(g89
g70
NtRp2237
(dp2238
g73
(dp2239
g93
g94
ssg82
g2233
sg75
(lp2240
g1113
asbag68
(g89
g70
NtRp2241
(dp2242
g73
(dp2243
g100
g101
ssg82
g2233
sg75
(lp2244
S':'
asbag68
(g89
g70
NtRp2245
(dp2246
g73
(dp2247
sg82
g2233
sg75
(lp2248
g68
(g69
g70
NtRp2249
(dp2250
g73
(dp2251
g81
I4
ssg82
g2245
sg75
(lp2252
g68
(g77
g70
NtRp2253
(dp2254
g73
(dp2255
g81
I3
ssg82
Nsg75
(lp2256
sbasbasbasbag68
(g84
g70
NtRp2257
(dp2258
g73
(dp2259
sg82
g2188
sg75
(lp2260
g68
(g89
g70
NtRp2261
(dp2262
g73
(dp2263
g93
g94
ssg82
g2257
sg75
(lp2264
g1138
asbag68
(g89
g70
NtRp2265
(dp2266
g73
(dp2267
g100
g101
ssg82
g2257
sg75
(lp2268
S':'
asbag68
(g89
g70
NtRp2269
(dp2270
g73
(dp2271
sg82
g2257
sg75
(lp2272
g68
(g69
g70
NtRp2273
(dp2274
g73
(dp2275
g81
I4
ssg82
g2269
sg75
(lp2276
S"<Values at 0x1a09290: {'verbose': False, 'ip': '127.0.0.1', 'with_scheduler': False, 'ips': ['10.1.129.70', '192.168.122.1', 'fe80::e611:5bff:fe38:8d0d%p5p1'], 'shutdown_timeout': 5, 'taskbar': False, 'port': 8000, 'maxthreads': None, 'softcron': False, 'server_name': 'shipra', 'bpython': False, 'nogui': False, 'pid_filename': 'httpserver.pid', 'extcron': False, 'runcron': False, 'run_system_tests': False, 'test': None, 'folder': '/home/shipra/Desktop/Semester 1.2/ITWS-2/web2py', 'config': '', 'minthreads': None, 'winservice': '', 'shell': None, 'run': '', 'log_filename': 'httpserver.log', 'debuglevel': 30, 'args': [''], 'socket_timeout': 5, 'ssl_ca_certificate': None, 'scheduler': None, 'profiler_filename': None, 'ssl_private_key': '', 'scheduler_groups': None, 'password': '<ask>', 'request_queue_size': 5, 'ssl_certificate': '', 'cronjob': False, 'numthreads': None, 'quiet': False, 'interfaces': None, 'import_models': False, 'timeout': 10, 'plain': False, 'nobanner': False}>"
p2277
asbasbasbag68
(g84
g70
NtRp2278
(dp2279
g73
(dp2280
sg82
g2188
sg75
(lp2281
g68
(g89
g70
NtRp2282
(dp2283
g73
(dp2284
g93
g94
ssg82
g2278
sg75
(lp2285
g1160
asbag68
(g89
g70
NtRp2286
(dp2287
g73
(dp2288
g100
g101
ssg82
g2278
sg75
(lp2289
S':'
asbag68
(g89
g70
NtRp2290
(dp2291
g73
(dp2292
sg82
g2278
sg75
(lp2293
g68
(g69
g70
NtRp2294
(dp2295
g73
(dp2296
g81
I4
ssg82
g2290
sg75
(lp2297
S'set([])'
p2298
asbasbasbag68
(g84
g70
NtRp2299
(dp2300
g73
(dp2301
sg82
g2188
sg75
(lp2302
g68
(g89
g70
NtRp2303
(dp2304
g73
(dp2305
g93
g94
ssg82
g2299
sg75
(lp2306
g1182
asbag68
(g89
g70
NtRp2307
(dp2308
g73
(dp2309
g100
g101
ssg82
g2299
sg75
(lp2310
S':'
asbag68
(g89
g70
NtRp2311
(dp2312
g73
(dp2313
sg82
g2299
sg75
(lp2314
g68
(g69
g70
NtRp2315
(dp2316
g73
(dp2317
g81
I4
ssg82
g2311
sg75
(lp2318
g111
asbasbasbag68
(g84
g70
NtRp2319
(dp2320
g73
(dp2321
sg82
g2188
sg75
(lp2322
g68
(g89
g70
NtRp2323
(dp2324
g73
(dp2325
g93
g94
ssg82
g2319
sg75
(lp2326
g1203
asbag68
(g89
g70
NtRp2327
(dp2328
g73
(dp2329
g100
g101
ssg82
g2319
sg75
(lp2330
S':'
asbag68
(g89
g70
NtRp2331
(dp2332
g73
(dp2333
sg82
g2319
sg75
(lp2334
g68
(g69
g70
NtRp2335
(dp2336
g73
(dp2337
g81
I4
ssg82
g2331
sg75
(lp2338
g1216
asbasbasbag68
(g84
g70
NtRp2339
(dp2340
g73
(dp2341
sg82
g2188
sg75
(lp2342
g68
(g89
g70
NtRp2343
(dp2344
g73
(dp2345
g93
g94
ssg82
g2339
sg75
(lp2346
g1379
asbag68
(g89
g70
NtRp2347
(dp2348
g73
(dp2349
g100
g101
ssg82
g2339
sg75
(lp2350
S':'
asbag68
(g89
g70
NtRp2351
(dp2352
g73
(dp2353
sg82
g2339
sg75
(lp2354
g68
(g69
g70
NtRp2355
(dp2356
g73
(dp2357
g81
I4
ssg82
g2351
sg75
(lp2358
g111
asbasbasbag68
(g84
g70
NtRp2359
(dp2360
g73
(dp2361
sg82
g2188
sg75
(lp2362
g68
(g89
g70
NtRp2363
(dp2364
g73
(dp2365
g93
g94
ssg82
g2359
sg75
(lp2366
g1400
asbag68
(g89
g70
NtRp2367
(dp2368
g73
(dp2369
g100
g101
ssg82
g2359
sg75
(lp2370
S':'
asbag68
(g89
g70
NtRp2371
(dp2372
g73
(dp2373
sg82
g2359
sg75
(lp2374
g68
(g69
g70
NtRp2375
(dp2376
g73
(dp2377
g81
I4
ssg82
g2371
sg75
(lp2378
g111
asbasbasbag68
(g84
g70
NtRp2379
(dp2380
g73
(dp2381
sg82
g2188
sg75
(lp2382
g68
(g89
g70
NtRp2383
(dp2384
g73
(dp2385
g93
g94
ssg82
g2379
sg75
(lp2386
g1421
asbag68
(g89
g70
NtRp2387
(dp2388
g73
(dp2389
g100
g101
ssg82
g2379
sg75
(lp2390
S':'
asbag68
(g89
g70
NtRp2391
(dp2392
g73
(dp2393
sg82
g2379
sg75
(lp2394
g68
(g69
g70
NtRp2395
(dp2396
g73
(dp2397
g81
I4
ssg82
g2391
sg75
(lp2398
g68
(g77
g70
NtRp2399
(dp2400
g73
(dp2401
g81
I3
ssg82
Nsg75
(lp2402
g68
(g84
g70
NtRp2403
(dp2404
g73
(dp2405
sg82
g2399
sg75
(lp2406
g68
(g89
g70
NtRp2407
(dp2408
g73
(dp2409
sg82
g2403
sg75
(lp2410
g68
(g69
g70
NtRp2411
(dp2412
g73
(dp2413
g81
I3
ssg82
g2407
sg75
(lp2414
g1450
asbasbasbag68
(g84
g70
NtRp2415
(dp2416
g73
(dp2417
sg82
g2399
sg75
(lp2418
g68
(g89
g70
NtRp2419
(dp2420
g73
(dp2421
sg82
g2415
sg75
(lp2422
g68
(g69
g70
NtRp2423
(dp2424
g73
(dp2425
g81
I3
ssg82
g2419
sg75
(lp2426
g1463
asbasbasbag68
(g84
g70
NtRp2427
(dp2428
g73
(dp2429
sg82
g2399
sg75
(lp2430
g68
(g89
g70
NtRp2431
(dp2432
g73
(dp2433
sg82
g2427
sg75
(lp2434
g68
(g69
g70
NtRp2435
(dp2436
g73
(dp2437
g81
I3
ssg82
g2431
sg75
(lp2438
g1476
asbasbasbag68
(g84
g70
NtRp2439
(dp2440
g73
(dp2441
sg82
g2399
sg75
(lp2442
g68
(g89
g70
NtRp2443
(dp2444
g73
(dp2445
sg82
g2439
sg75
(lp2446
g68
(g69
g70
NtRp2447
(dp2448
g73
(dp2449
g81
I3
ssg82
g2443
sg75
(lp2450
g1489
asbasbasbag68
(g84
g70
NtRp2451
(dp2452
g73
(dp2453
sg82
g2399
sg75
(lp2454
g68
(g89
g70
NtRp2455
(dp2456
g73
(dp2457
sg82
g2451
sg75
(lp2458
g68
(g69
g70
NtRp2459
(dp2460
g73
(dp2461
g81
I3
ssg82
g2455
sg75
(lp2462
g1502
asbasbasbag68
(g84
g70
NtRp2463
(dp2464
g73
(dp2465
sg82
g2399
sg75
(lp2466
g68
(g89
g70
NtRp2467
(dp2468
g73
(dp2469
sg82
g2463
sg75
(lp2470
g68
(g69
g70
NtRp2471
(dp2472
g73
(dp2473
g81
I3
ssg82
g2467
sg75
(lp2474
g1515
asbasbasbag68
(g84
g70
NtRp2475
(dp2476
g73
(dp2477
sg82
g2399
sg75
(lp2478
g68
(g89
g70
NtRp2479
(dp2480
g73
(dp2481
sg82
g2475
sg75
(lp2482
g68
(g69
g70
NtRp2483
(dp2484
g73
(dp2485
g81
I3
ssg82
g2479
sg75
(lp2486
g1528
asbasbasbasbasbasbasbag68
(g84
g70
NtRp2487
(dp2488
g73
(dp2489
sg82
g2188
sg75
(lp2490
g68
(g89
g70
NtRp2491
(dp2492
g73
(dp2493
g93
g94
ssg82
g2487
sg75
(lp2494
g1796
asbag68
(g89
g70
NtRp2495
(dp2496
g73
(dp2497
g100
g101
ssg82
g2487
sg75
(lp2498
S':'
asbag68
(g89
g70
NtRp2499
(dp2500
g73
(dp2501
sg82
g2487
sg75
(lp2502
g68
(g69
g70
NtRp2503
(dp2504
g73
(dp2505
g81
I4
ssg82
g2499
sg75
(lp2506
g68
(g77
g70
NtRp2507
(dp2508
g73
(dp2509
g81
I3
ssg82
Nsg75
(lp2510
g68
(g84
g70
NtRp2511
(dp2512
g73
(dp2513
sg82
g2507
sg75
(lp2514
g68
(g89
g70
NtRp2515
(dp2516
g73
(dp2517
sg82
g2511
sg75
(lp2518
g68
(g69
g70
NtRp2519
(dp2520
g73
(dp2521
g81
I3
ssg82
g2515
sg75
(lp2522
S'2'
asbasbasbag68
(g84
g70
NtRp2523
(dp2524
g73
(dp2525
sg82
g2507
sg75
(lp2526
g68
(g89
g70
NtRp2527
(dp2528
g73
(dp2529
sg82
g2523
sg75
(lp2530
g68
(g69
g70
NtRp2531
(dp2532
g73
(dp2533
g81
I3
ssg82
g2527
sg75
(lp2534
S'3'
asbasbasbag68
(g84
g70
NtRp2535
(dp2536
g73
(dp2537
sg82
g2507
sg75
(lp2538
g68
(g89
g70
NtRp2539
(dp2540
g73
(dp2541
sg82
g2535
sg75
(lp2542
g68
(g69
g70
NtRp2543
(dp2544
g73
(dp2545
g81
I3
ssg82
g2539
sg75
(lp2546
S'2'
asbasbasbag68
(g84
g70
NtRp2547
(dp2548
g73
(dp2549
sg82
g2507
sg75
(lp2550
g68
(g89
g70
NtRp2551
(dp2552
g73
(dp2553
sg82
g2547
sg75
(lp2554
g68
(g69
g70
NtRp2555
(dp2556
g73
(dp2557
g81
I3
ssg82
g2551
sg75
(lp2558
S'datetime.datetime(2012, 12, 17, 15, 3, 30)'
p2559
asbasbasbag68
(g84
g70
NtRp2560
(dp2561
g73
(dp2562
sg82
g2507
sg75
(lp2563
g68
(g89
g70
NtRp2564
(dp2565
g73
(dp2566
sg82
g2560
sg75
(lp2567
g68
(g69
g70
NtRp2568
(dp2569
g73
(dp2570
g81
I3
ssg82
g2564
sg75
(lp2571
g1874
asbasbasbasbasbasbasbasbasbasbasbag68
(g84
g70
NtRp2572
(dp2573
g73
(dp2574
sg82
g78
sg75
(lp2575
g68
(g89
g70
NtRp2576
(dp2577
g73
(dp2578
g93
g94
ssg82
g2572
sg75
(lp2579
S'is_https'
p2580
asbag68
(g89
g70
NtRp2581
(dp2582
g73
(dp2583
g100
g101
ssg82
g2572
sg75
(lp2584
S':'
asbag68
(g89
g70
NtRp2585
(dp2586
g73
(dp2587
sg82
g2572
sg75
(lp2588
g68
(g69
g70
NtRp2589
(dp2590
g73
(dp2591
g81
I5
ssg82
g2585
sg75
(lp2592
g111
asbasbasbag68
(g84
g70
NtRp2593
(dp2594
g73
(dp2595
sg82
g78
sg75
(lp2596
g68
(g89
g70
NtRp2597
(dp2598
g73
(dp2599
g93
g94
ssg82
g2593
sg75
(lp2600
S'is_local'
p2601
asbag68
(g89
g70
NtRp2602
(dp2603
g73
(dp2604
g100
g101
ssg82
g2593
sg75
(lp2605
S':'
asbag68
(g89
g70
NtRp2606
(dp2607
g73
(dp2608
sg82
g2593
sg75
(lp2609
g68
(g69
g70
NtRp2610
(dp2611
g73
(dp2612
g81
I5
ssg82
g2606
sg75
(lp2613
g1983
asbasbasbag68
(g84
g70
NtRp2614
(dp2615
g73
(dp2616
sg82
g78
sg75
(lp2617
g68
(g89
g70
NtRp2618
(dp2619
g73
(dp2620
g93
g94
ssg82
g2614
sg75
(lp2621
S'is_restful'
p2622
asbag68
(g89
g70
NtRp2623
(dp2624
g73
(dp2625
g100
g101
ssg82
g2614
sg75
(lp2626
S':'
asbag68
(g89
g70
NtRp2627
(dp2628
g73
(dp2629
sg82
g2614
sg75
(lp2630
g68
(g69
g70
NtRp2631
(dp2632
g73
(dp2633
g81
I5
ssg82
g2627
sg75
(lp2634
g111
asbasbasbag68
(g84
g70
NtRp2635
(dp2636
g73
(dp2637
sg82
g78
sg75
(lp2638
g68
(g89
g70
NtRp2639
(dp2640
g73
(dp2641
g93
g94
ssg82
g2635
sg75
(lp2642
S'now'
p2643
asbag68
(g89
g70
NtRp2644
(dp2645
g73
(dp2646
g100
g101
ssg82
g2635
sg75
(lp2647
S':'
asbag68
(g89
g70
NtRp2648
(dp2649
g73
(dp2650
sg82
g2635
sg75
(lp2651
g68
(g69
g70
NtRp2652
(dp2653
g73
(dp2654
g81
I5
ssg82
g2648
sg75
(lp2655
S'datetime.datetime(2013, 8, 26, 0, 41, 30, 155381)'
p2656
asbasbasbag68
(g84
g70
NtRp2657
(dp2658
g73
(dp2659
sg82
g78
sg75
(lp2660
g68
(g89
g70
NtRp2661
(dp2662
g73
(dp2663
g93
g94
ssg82
g2657
sg75
(lp2664
S'post_vars'
p2665
asbag68
(g89
g70
NtRp2666
(dp2667
g73
(dp2668
g100
g101
ssg82
g2657
sg75
(lp2669
S':'
asbag68
(g89
g70
NtRp2670
(dp2671
g73
(dp2672
sg82
g2657
sg75
(lp2673
g68
(g69
g70
NtRp2674
(dp2675
g73
(dp2676
g81
I5
ssg82
g2670
sg75
(lp2677
g68
(g77
g70
NtRp2678
(dp2679
g73
(dp2680
g81
I4
ssg82
Nsg75
(lp2681
sbasbasbasbag68
(g84
g70
NtRp2682
(dp2683
g73
(dp2684
sg82
g78
sg75
(lp2685
g68
(g89
g70
NtRp2686
(dp2687
g73
(dp2688
g93
g94
ssg82
g2682
sg75
(lp2689
S'raw_args'
p2690
asbag68
(g89
g70
NtRp2691
(dp2692
g73
(dp2693
g100
g101
ssg82
g2682
sg75
(lp2694
S':'
asbag68
(g89
g70
NtRp2695
(dp2696
g73
(dp2697
sg82
g2682
sg75
(lp2698
g68
(g69
g70
NtRp2699
(dp2700
g73
(dp2701
g81
I5
ssg82
g2695
sg75
(lp2702
g170
asbasbasbag68
(g84
g70
NtRp2703
(dp2704
g73
(dp2705
sg82
g78
sg75
(lp2706
g68
(g89
g70
NtRp2707
(dp2708
g73
(dp2709
g93
g94
ssg82
g2703
sg75
(lp2710
S'raw_extension'
p2711
asbag68
(g89
g70
NtRp2712
(dp2713
g73
(dp2714
g100
g101
ssg82
g2703
sg75
(lp2715
S':'
asbag68
(g89
g70
NtRp2716
(dp2717
g73
(dp2718
sg82
g2703
sg75
(lp2719
g68
(g69
g70
NtRp2720
(dp2721
g73
(dp2722
g81
I5
ssg82
g2716
sg75
(lp2723
S'None'
p2724
asbasbasbag68
(g84
g70
NtRp2725
(dp2726
g73
(dp2727
sg82
g78
sg75
(lp2728
g68
(g89
g70
NtRp2729
(dp2730
g73
(dp2731
g93
g94
ssg82
g2725
sg75
(lp2732
S'url'
p2733
asbag68
(g89
g70
NtRp2734
(dp2735
g73
(dp2736
g100
g101
ssg82
g2725
sg75
(lp2737
S':'
asbag68
(g89
g70
NtRp2738
(dp2739
g73
(dp2740
sg82
g2725
sg75
(lp2741
g68
(g69
g70
NtRp2742
(dp2743
g73
(dp2744
g81
I5
ssg82
g2738
sg75
(lp2745
g1550
asbasbasbag68
(g84
g70
NtRp2746
(dp2747
g73
(dp2748
sg82
g78
sg75
(lp2749
g68
(g89
g70
NtRp2750
(dp2751
g73
(dp2752
g93
g94
ssg82
g2746
sg75
(lp2753
S'utcnow'
p2754
asbag68
(g89
g70
NtRp2755
(dp2756
g73
(dp2757
g100
g101
ssg82
g2746
sg75
(lp2758
S':'
asbag68
(g89
g70
NtRp2759
(dp2760
g73
(dp2761
sg82
g2746
sg75
(lp2762
g68
(g69
g70
NtRp2763
(dp2764
g73
(dp2765
g81
I5
ssg82
g2759
sg75
(lp2766
S'datetime.datetime(2013, 8, 25, 19, 11, 30, 155446)'
p2767
asbasbasbag68
(g84
g70
NtRp2768
(dp2769
g73
(dp2770
sg82
g78
sg75
(lp2771
g68
(g89
g70
NtRp2772
(dp2773
g73
(dp2774
g93
g94
ssg82
g2768
sg75
(lp2775
S'uuid'
p2776
asbag68
(g89
g70
NtRp2777
(dp2778
g73
(dp2779
g100
g101
ssg82
g2768
sg75
(lp2780
S':'
asbag68
(g89
g70
NtRp2781
(dp2782
g73
(dp2783
sg82
g2768
sg75
(lp2784
g68
(g69
g70
NtRp2785
(dp2786
g73
(dp2787
g81
I5
ssg82
g2781
sg75
(lp2788
S'Assignment_2/127.0.0.1.2013-08-26.00-41-30.69f08acd-bc4e-4bef-93b0-46baab8a0c79'
p2789
asbasbasbag68
(g84
g70
NtRp2790
(dp2791
g73
(dp2792
sg82
g78
sg75
(lp2793
g68
(g89
g70
NtRp2794
(dp2795
g73
(dp2796
g93
g94
ssg82
g2790
sg75
(lp2797
S'vars'
p2798
asbag68
(g89
g70
NtRp2799
(dp2800
g73
(dp2801
g100
g101
ssg82
g2790
sg75
(lp2802
S':'
asbag68
(g89
g70
NtRp2803
(dp2804
g73
(dp2805
sg82
g2790
sg75
(lp2806
g68
(g69
g70
NtRp2807
(dp2808
g73
(dp2809
g81
I5
ssg82
g2803
sg75
(lp2810
g68
(g77
g70
NtRp2811
(dp2812
g73
(dp2813
g81
I4
ssg82
Nsg75
(lp2814
sbasbasbasbag68
(g84
g70
NtRp2815
(dp2816
g73
(dp2817
sg82
g78
sg75
(lp2818
g68
(g89
g70
NtRp2819
(dp2820
g73
(dp2821
g93
g94
ssg82
g2815
sg75
(lp2822
S'wsgi'
p2823
asbag68
(g89
g70
NtRp2824
(dp2825
g73
(dp2826
g100
g101
ssg82
g2815
sg75
(lp2827
S':'
asbag68
(g89
g70
NtRp2828
(dp2829
g73
(dp2830
sg82
g2815
sg75
(lp2831
g68
(g69
g70
NtRp2832
(dp2833
g73
(dp2834
g81
I5
ssg82
g2828
sg75
(lp2835
g68
(g77
g70
NtRp2836
(dp2837
g73
(dp2838
g81
I4
ssg82
Nsg75
(lp2839
g68
(g84
g70
NtRp2840
(dp2841
g73
(dp2842
sg82
g2836
sg75
(lp2843
g68
(g89
g70
NtRp2844
(dp2845
g73
(dp2846
g93
g94
ssg82
g2840
sg75
(lp2847
S'environ'
p2848
asbag68
(g89
g70
NtRp2849
(dp2850
g73
(dp2851
g100
g101
ssg82
g2840
sg75
(lp2852
S':'
asbag68
(g89
g70
NtRp2853
(dp2854
g73
(dp2855
sg82
g2840
sg75
(lp2856
g68
(g69
g70
NtRp2857
(dp2858
g73
(dp2859
g81
I4
ssg82
g2853
sg75
(lp2860
g68
(g77
g70
NtRp2861
(dp2862
g73
(dp2863
g81
I3
ssg82
Nsg75
(lp2864
g68
(g84
g70
NtRp2865
(dp2866
g73
(dp2867
sg82
g2861
sg75
(lp2868
g68
(g89
g70
NtRp2869
(dp2870
g73
(dp2871
g93
g94
ssg82
g2865
sg75
(lp2872
S'HTTP_ACCEPT'
p2873
asbag68
(g89
g70
NtRp2874
(dp2875
g73
(dp2876
g100
g101
ssg82
g2865
sg75
(lp2877
S':'
asbag68
(g89
g70
NtRp2878
(dp2879
g73
(dp2880
sg82
g2865
sg75
(lp2881
g68
(g69
g70
NtRp2882
(dp2883
g73
(dp2884
g81
I3
ssg82
g2878
sg75
(lp2885
g1238
asbasbasbag68
(g84
g70
NtRp2886
(dp2887
g73
(dp2888
sg82
g2861
sg75
(lp2889
g68
(g89
g70
NtRp2890
(dp2891
g73
(dp2892
g93
g94
ssg82
g2886
sg75
(lp2893
S'HTTP_ACCEPT_ENCODING'
p2894
asbag68
(g89
g70
NtRp2895
(dp2896
g73
(dp2897
g100
g101
ssg82
g2886
sg75
(lp2898
S':'
asbag68
(g89
g70
NtRp2899
(dp2900
g73
(dp2901
sg82
g2886
sg75
(lp2902
g68
(g69
g70
NtRp2903
(dp2904
g73
(dp2905
g81
I3
ssg82
g2899
sg75
(lp2906
g1260
asbasbasbag68
(g84
g70
NtRp2907
(dp2908
g73
(dp2909
sg82
g2861
sg75
(lp2910
g68
(g89
g70
NtRp2911
(dp2912
g73
(dp2913
g93
g94
ssg82
g2907
sg75
(lp2914
S'HTTP_ACCEPT_LANGUAGE'
p2915
asbag68
(g89
g70
NtRp2916
(dp2917
g73
(dp2918
g100
g101
ssg82
g2907
sg75
(lp2919
S':'
asbag68
(g89
g70
NtRp2920
(dp2921
g73
(dp2922
sg82
g2907
sg75
(lp2923
g68
(g69
g70
NtRp2924
(dp2925
g73
(dp2926
g81
I3
ssg82
g2920
sg75
(lp2927
g1282
asbasbasbag68
(g84
g70
NtRp2928
(dp2929
g73
(dp2930
sg82
g2861
sg75
(lp2931
g68
(g89
g70
NtRp2932
(dp2933
g73
(dp2934
g93
g94
ssg82
g2928
sg75
(lp2935
S'HTTP_CONNECTION'
p2936
asbag68
(g89
g70
NtRp2937
(dp2938
g73
(dp2939
g100
g101
ssg82
g2928
sg75
(lp2940
S':'
asbag68
(g89
g70
NtRp2941
(dp2942
g73
(dp2943
sg82
g2928
sg75
(lp2944
g68
(g69
g70
NtRp2945
(dp2946
g73
(dp2947
g81
I3
ssg82
g2941
sg75
(lp2948
g1304
asbasbasbag68
(g84
g70
NtRp2949
(dp2950
g73
(dp2951
sg82
g2861
sg75
(lp2952
g68
(g89
g70
NtRp2953
(dp2954
g73
(dp2955
g93
g94
ssg82
g2949
sg75
(lp2956
S'HTTP_COOKIE'
p2957
asbag68
(g89
g70
NtRp2958
(dp2959
g73
(dp2960
g100
g101
ssg82
g2949
sg75
(lp2961
S':'
asbag68
(g89
g70
NtRp2962
(dp2963
g73
(dp2964
sg82
g2949
sg75
(lp2965
g68
(g69
g70
NtRp2966
(dp2967
g73
(dp2968
g81
I3
ssg82
g2962
sg75
(lp2969
g1326
asbasbasbag68
(g84
g70
NtRp2970
(dp2971
g73
(dp2972
sg82
g2861
sg75
(lp2973
g68
(g89
g70
NtRp2974
(dp2975
g73
(dp2976
g93
g94
ssg82
g2970
sg75
(lp2977
S'HTTP_HOST'
p2978
asbag68
(g89
g70
NtRp2979
(dp2980
g73
(dp2981
g100
g101
ssg82
g2970
sg75
(lp2982
S':'
asbag68
(g89
g70
NtRp2983
(dp2984
g73
(dp2985
sg82
g2970
sg75
(lp2986
g68
(g69
g70
NtRp2987
(dp2988
g73
(dp2989
g81
I3
ssg82
g2983
sg75
(lp2990
g1348
asbasbasbag68
(g84
g70
NtRp2991
(dp2992
g73
(dp2993
sg82
g2861
sg75
(lp2994
g68
(g89
g70
NtRp2995
(dp2996
g73
(dp2997
g93
g94
ssg82
g2991
sg75
(lp2998
S'HTTP_USER_AGENT'
p2999
asbag68
(g89
g70
NtRp3000
(dp3001
g73
(dp3002
g100
g101
ssg82
g2991
sg75
(lp3003
S':'
asbag68
(g89
g70
NtRp3004
(dp3005
g73
(dp3006
sg82
g2991
sg75
(lp3007
g68
(g69
g70
NtRp3008
(dp3009
g73
(dp3010
g81
I3
ssg82
g3004
sg75
(lp3011
g1370
asbasbasbag68
(g84
g70
NtRp3012
(dp3013
g73
(dp3014
sg82
g2861
sg75
(lp3015
g68
(g89
g70
NtRp3016
(dp3017
g73
(dp3018
g93
g94
ssg82
g3012
sg75
(lp3019
S'PATH_INFO'
p3020
asbag68
(g89
g70
NtRp3021
(dp3022
g73
(dp3023
g100
g101
ssg82
g3012
sg75
(lp3024
S':'
asbag68
(g89
g70
NtRp3025
(dp3026
g73
(dp3027
sg82
g3012
sg75
(lp3028
g68
(g69
g70
NtRp3029
(dp3030
g73
(dp3031
g81
I3
ssg82
g3025
sg75
(lp3032
g1550
asbasbasbag68
(g84
g70
NtRp3033
(dp3034
g73
(dp3035
sg82
g2861
sg75
(lp3036
g68
(g89
g70
NtRp3037
(dp3038
g73
(dp3039
g93
g94
ssg82
g3033
sg75
(lp3040
S'QUERY_STRING'
p3041
asbag68
(g89
g70
NtRp3042
(dp3043
g73
(dp3044
g100
g101
ssg82
g3033
sg75
(lp3045
S':'
asbag68
(g89
g70
NtRp3046
(dp3047
g73
(dp3048
sg82
g3033
sg75
(lp3049
g68
(g69
g70
NtRp3050
(dp3051
g73
(dp3052
g81
I3
ssg82
g3046
sg75
(lp3053
S''
asbasbasbag68
(g84
g70
NtRp3054
(dp3055
g73
(dp3056
sg82
g2861
sg75
(lp3057
g68
(g89
g70
NtRp3058
(dp3059
g73
(dp3060
g93
g94
ssg82
g3054
sg75
(lp3061
S'REMOTE_ADDR'
p3062
asbag68
(g89
g70
NtRp3063
(dp3064
g73
(dp3065
g100
g101
ssg82
g3054
sg75
(lp3066
S':'
asbag68
(g89
g70
NtRp3067
(dp3068
g73
(dp3069
sg82
g3054
sg75
(lp3070
g68
(g69
g70
NtRp3071
(dp3072
g73
(dp3073
g81
I3
ssg82
g3067
sg75
(lp3074
g236
asbasbasbag68
(g84
g70
NtRp3075
(dp3076
g73
(dp3077
sg82
g2861
sg75
(lp3078
g68
(g89
g70
NtRp3079
(dp3080
g73
(dp3081
g93
g94
ssg82
g3075
sg75
(lp3082
S'REMOTE_PORT'
p3083
asbag68
(g89
g70
NtRp3084
(dp3085
g73
(dp3086
g100
g101
ssg82
g3075
sg75
(lp3087
S':'
asbag68
(g89
g70
NtRp3088
(dp3089
g73
(dp3090
sg82
g3075
sg75
(lp3091
g68
(g69
g70
NtRp3092
(dp3093
g73
(dp3094
g81
I3
ssg82
g3088
sg75
(lp3095
g1614
asbasbasbag68
(g84
g70
NtRp3096
(dp3097
g73
(dp3098
sg82
g2861
sg75
(lp3099
g68
(g89
g70
NtRp3100
(dp3101
g73
(dp3102
g93
g94
ssg82
g3096
sg75
(lp3103
S'REQUEST_METHOD'
p3104
asbag68
(g89
g70
NtRp3105
(dp3106
g73
(dp3107
g100
g101
ssg82
g3096
sg75
(lp3108
S':'
asbag68
(g89
g70
NtRp3109
(dp3110
g73
(dp3111
sg82
g3096
sg75
(lp3112
g68
(g69
g70
NtRp3113
(dp3114
g73
(dp3115
g81
I3
ssg82
g3109
sg75
(lp3116
g1636
asbasbasbag68
(g84
g70
NtRp3117
(dp3118
g73
(dp3119
sg82
g2861
sg75
(lp3120
g68
(g89
g70
NtRp3121
(dp3122
g73
(dp3123
g93
g94
ssg82
g3117
sg75
(lp3124
S'REQUEST_URI'
p3125
asbag68
(g89
g70
NtRp3126
(dp3127
g73
(dp3128
g100
g101
ssg82
g3117
sg75
(lp3129
S':'
asbag68
(g89
g70
NtRp3130
(dp3131
g73
(dp3132
sg82
g3117
sg75
(lp3133
g68
(g69
g70
NtRp3134
(dp3135
g73
(dp3136
g81
I3
ssg82
g3130
sg75
(lp3137
g1550
asbasbasbag68
(g84
g70
NtRp3138
(dp3139
g73
(dp3140
sg82
g2861
sg75
(lp3141
g68
(g89
g70
NtRp3142
(dp3143
g73
(dp3144
g93
g94
ssg82
g3138
sg75
(lp3145
S'SCRIPT_NAME'
p3146
asbag68
(g89
g70
NtRp3147
(dp3148
g73
(dp3149
g100
g101
ssg82
g3138
sg75
(lp3150
S':'
asbag68
(g89
g70
NtRp3151
(dp3152
g73
(dp3153
sg82
g3138
sg75
(lp3154
g68
(g69
g70
NtRp3155
(dp3156
g73
(dp3157
g81
I3
ssg82
g3151
sg75
(lp3158
S''
asbasbasbag68
(g84
g70
NtRp3159
(dp3160
g73
(dp3161
sg82
g2861
sg75
(lp3162
g68
(g89
g70
NtRp3163
(dp3164
g73
(dp3165
g93
g94
ssg82
g3159
sg75
(lp3166
S'SERVER_NAME'
p3167
asbag68
(g89
g70
NtRp3168
(dp3169
g73
(dp3170
g100
g101
ssg82
g3159
sg75
(lp3171
S':'
asbag68
(g89
g70
NtRp3172
(dp3173
g73
(dp3174
sg82
g3159
sg75
(lp3175
g68
(g69
g70
NtRp3176
(dp3177
g73
(dp3178
g81
I3
ssg82
g3172
sg75
(lp3179
g1700
asbasbasbag68
(g84
g70
NtRp3180
(dp3181
g73
(dp3182
sg82
g2861
sg75
(lp3183
g68
(g89
g70
NtRp3184
(dp3185
g73
(dp3186
g93
g94
ssg82
g3180
sg75
(lp3187
S'SERVER_PORT'
p3188
asbag68
(g89
g70
NtRp3189
(dp3190
g73
(dp3191
g100
g101
ssg82
g3180
sg75
(lp3192
S':'
asbag68
(g89
g70
NtRp3193
(dp3194
g73
(dp3195
sg82
g3180
sg75
(lp3196
g68
(g69
g70
NtRp3197
(dp3198
g73
(dp3199
g81
I3
ssg82
g3193
sg75
(lp3200
g1722
asbasbasbag68
(g84
g70
NtRp3201
(dp3202
g73
(dp3203
sg82
g2861
sg75
(lp3204
g68
(g89
g70
NtRp3205
(dp3206
g73
(dp3207
g93
g94
ssg82
g3201
sg75
(lp3208
S'SERVER_PROTOCOL'
p3209
asbag68
(g89
g70
NtRp3210
(dp3211
g73
(dp3212
g100
g101
ssg82
g3201
sg75
(lp3213
S':'
asbag68
(g89
g70
NtRp3214
(dp3215
g73
(dp3216
sg82
g3201
sg75
(lp3217
g68
(g69
g70
NtRp3218
(dp3219
g73
(dp3220
g81
I3
ssg82
g3214
sg75
(lp3221
g1744
asbasbasbag68
(g84
g70
NtRp3222
(dp3223
g73
(dp3224
sg82
g2861
sg75
(lp3225
g68
(g89
g70
NtRp3226
(dp3227
g73
(dp3228
g93
g94
ssg82
g3222
sg75
(lp3229
S'SERVER_SOFTWARE'
p3230
asbag68
(g89
g70
NtRp3231
(dp3232
g73
(dp3233
g100
g101
ssg82
g3222
sg75
(lp3234
S':'
asbag68
(g89
g70
NtRp3235
(dp3236
g73
(dp3237
sg82
g3222
sg75
(lp3238
g68
(g69
g70
NtRp3239
(dp3240
g73
(dp3241
g81
I3
ssg82
g3235
sg75
(lp3242
g1766
asbasbasbag68
(g84
g70
NtRp3243
(dp3244
g73
(dp3245
sg82
g2861
sg75
(lp3246
g68
(g89
g70
NtRp3247
(dp3248
g73
(dp3249
g93
g94
ssg82
g3243
sg75
(lp3250
S'wsgi.errors'
p3251
asbag68
(g89
g70
NtRp3252
(dp3253
g73
(dp3254
g100
g101
ssg82
g3243
sg75
(lp3255
S':'
asbag68
(g89
g70
NtRp3256
(dp3257
g73
(dp3258
sg82
g3243
sg75
(lp3259
g68
(g69
g70
NtRp3260
(dp3261
g73
(dp3262
g81
I3
ssg82
g3256
sg75
(lp3263
S"<open file '<stderr>', mode 'w' at 0x7f411ee5d270>"
p3264
asbasbasbag68
(g84
g70
NtRp3265
(dp3266
g73
(dp3267
sg82
g2861
sg75
(lp3268
g68
(g89
g70
NtRp3269
(dp3270
g73
(dp3271
g93
g94
ssg82
g3265
sg75
(lp3272
S'wsgi.file_wrapper'
p3273
asbag68
(g89
g70
NtRp3274
(dp3275
g73
(dp3276
g100
g101
ssg82
g3265
sg75
(lp3277
S':'
asbag68
(g89
g70
NtRp3278
(dp3279
g73
(dp3280
sg82
g3265
sg75
(lp3281
g68
(g69
g70
NtRp3282
(dp3283
g73
(dp3284
g81
I3
ssg82
g3278
sg75
(lp3285
S'<class wsgiref.util.FileWrapper at 0x1992e20>'
p3286
asbasbasbag68
(g84
g70
NtRp3287
(dp3288
g73
(dp3289
sg82
g2861
sg75
(lp3290
g68
(g89
g70
NtRp3291
(dp3292
g73
(dp3293
g93
g94
ssg82
g3287
sg75
(lp3294
S'wsgi.input'
p3295
asbag68
(g89
g70
NtRp3296
(dp3297
g73
(dp3298
g100
g101
ssg82
g3287
sg75
(lp3299
S':'
asbag68
(g89
g70
NtRp3300
(dp3301
g73
(dp3302
sg82
g3287
sg75
(lp3303
g68
(g69
g70
NtRp3304
(dp3305
g73
(dp3306
g81
I3
ssg82
g3300
sg75
(lp3307
S'<cStringIO.StringO object at 0x7f40fc6e3490>'
p3308
asbasbasbag68
(g84
g70
NtRp3309
(dp3310
g73
(dp3311
sg82
g2861
sg75
(lp3312
g68
(g89
g70
NtRp3313
(dp3314
g73
(dp3315
g93
g94
ssg82
g3309
sg75
(lp3316
S'wsgi.multiprocess'
p3317
asbag68
(g89
g70
NtRp3318
(dp3319
g73
(dp3320
g100
g101
ssg82
g3309
sg75
(lp3321
S':'
asbag68
(g89
g70
NtRp3322
(dp3323
g73
(dp3324
sg82
g3309
sg75
(lp3325
g68
(g69
g70
NtRp3326
(dp3327
g73
(dp3328
g81
I3
ssg82
g3322
sg75
(lp3329
g111
asbasbasbag68
(g84
g70
NtRp3330
(dp3331
g73
(dp3332
sg82
g2861
sg75
(lp3333
g68
(g89
g70
NtRp3334
(dp3335
g73
(dp3336
g93
g94
ssg82
g3330
sg75
(lp3337
S'wsgi.multithread'
p3338
asbag68
(g89
g70
NtRp3339
(dp3340
g73
(dp3341
g100
g101
ssg82
g3330
sg75
(lp3342
S':'
asbag68
(g89
g70
NtRp3343
(dp3344
g73
(dp3345
sg82
g3330
sg75
(lp3346
g68
(g69
g70
NtRp3347
(dp3348
g73
(dp3349
g81
I3
ssg82
g3343
sg75
(lp3350
g1983
asbasbasbag68
(g84
g70
NtRp3351
(dp3352
g73
(dp3353
sg82
g2861
sg75
(lp3354
g68
(g89
g70
NtRp3355
(dp3356
g73
(dp3357
g93
g94
ssg82
g3351
sg75
(lp3358
S'wsgi.run_once'
p3359
asbag68
(g89
g70
NtRp3360
(dp3361
g73
(dp3362
g100
g101
ssg82
g3351
sg75
(lp3363
S':'
asbag68
(g89
g70
NtRp3364
(dp3365
g73
(dp3366
sg82
g3351
sg75
(lp3367
g68
(g69
g70
NtRp3368
(dp3369
g73
(dp3370
g81
I3
ssg82
g3364
sg75
(lp3371
g111
asbasbasbag68
(g84
g70
NtRp3372
(dp3373
g73
(dp3374
sg82
g2861
sg75
(lp3375
g68
(g89
g70
NtRp3376
(dp3377
g73
(dp3378
g93
g94
ssg82
g3372
sg75
(lp3379
S'wsgi.url_scheme'
p3380
asbag68
(g89
g70
NtRp3381
(dp3382
g73
(dp3383
g100
g101
ssg82
g3372
sg75
(lp3384
S':'
asbag68
(g89
g70
NtRp3385
(dp3386
g73
(dp3387
sg82
g3372
sg75
(lp3388
g68
(g69
g70
NtRp3389
(dp3390
g73
(dp3391
g81
I3
ssg82
g3385
sg75
(lp3392
g2026
asbasbasbag68
(g84
g70
NtRp3393
(dp3394
g73
(dp3395
sg82
g2861
sg75
(lp3396
g68
(g89
g70
NtRp3397
(dp3398
g73
(dp3399
g93
g94
ssg82
g3393
sg75
(lp3400
S'wsgi.version'
p3401
asbag68
(g89
g70
NtRp3402
(dp3403
g73
(dp3404
g100
g101
ssg82
g3393
sg75
(lp3405
S':'
asbag68
(g89
g70
NtRp3406
(dp3407
g73
(dp3408
sg82
g3393
sg75
(lp3409
g68
(g69
g70
NtRp3410
(dp3411
g73
(dp3412
g81
I3
ssg82
g3406
sg75
(lp3413
S'1'
asbasbasbasbasbasbasbasbasbasbasbasbasbsS'frames'
p3414
(lp3415
(dp3416
S'file'
p3417
S'/home/shipra/Desktop/Semester 1.2/ITWS-2/web2py/gluon/restricted.py'
p3418
sS'dump'
p3419
(dp3420
S'code'
p3421
S"'# -*- coding: utf-8 -*-\\n# this file is released ...m=crud())\\n\\nresponse._vars=response._caller(user)\\n'"
p3422
sS'layer'
p3423
S"'/home/shipra/Desktop/Semester 1.2/ITWS-2/web2py/applications/Assignment_2/controllers/default.py'"
p3424
sS'global compile2'
p3425
S'<function compile2>'
p3426
sS'ccode'
p3427
S'undefined'
p3428
ssS'lnum'
p3429
I211
sS'lines'
p3430
(dp3431
I206
S"    environment['__name__'] = '__restricted__'"
p3432
sI207
S'    try:'
p3433
sI208
S'        if isinstance(code, types.CodeType):'
p3434
sI209
S'            ccode = code'
p3435
sI210
S'        else:'
p3436
sI211
S'            ccode = compile2(code, layer)'
p3437
sI212
S'        exec ccode in environment'
p3438
sI213
S'    except HTTP:'
p3439
sI214
S'        raise'
p3440
sI215
S'    except RestrictedError:'
p3441
ssS'call'
p3442
S"(code='# -*- coding: utf-8 -*-\\n# this file is released ...m=crud())\\n\\nresponse._vars=response._caller(user)\\n', environment={'A': <class 'gluon.html.A'>, 'Auth': <class 'gluon.tools.Auth'>, 'B': <class 'gluon.html.B'>, 'BEAUTIFY': <class 'gluon.html.BEAUTIFY'>, 'BODY': <class 'gluon.html.BODY'>, 'BR': <class 'gluon.html.BR'>, 'BUTTON': <class 'gluon.html.BUTTON'>, 'CAT': <class 'gluon.html.CAT'>, 'CENTER': <class 'gluon.html.CENTER'>, 'CLEANUP': <class 'gluon.validators.CLEANUP'>, ...}, layer='/home/shipra/Desktop/Semester 1.2/ITWS-2/web2py/applications/Assignment_2/controllers/default.py')"
p3443
sS'func'
p3444
S'restricted'
p3445
sa(dp3446
g3417
S'/home/shipra/Desktop/Semester 1.2/ITWS-2/web2py/gluon/restricted.py'
p3447
sg3419
(dp3448
S'builtincompile'
p3449
S'<built-in function compile>'
p3450
sS'code'
p3451
S"'# -*- coding: utf-8 -*-\\n# this file is released ...m=crud())\\n\\nresponse._vars=response._caller(user)\\n'"
p3452
sS'code.rstrip'
p3453
S'<built-in method rstrip of str object>'
p3454
sS').replace'
p3455
g3428
sS'layer'
p3456
S"'/home/shipra/Desktop/Semester 1.2/ITWS-2/web2py/applications/Assignment_2/controllers/default.py'"
p3457
ssg3429
I194
sg3430
(dp3458
I192
S"    The +'\\n' is necessary else compile fails when code ends in a comment."
p3459
sI193
S'    """'
p3460
sI194
S"    return compile(code.rstrip().replace('\\r\\n', '\\n') + '\\n', layer, 'exec')"
p3461
sI195
S''
sI196
S''
sI197
S"def restricted(code, environment=None, layer='Unknown'):"
p3462
sI198
S'    """'
p3463
sI189
S''
sI190
S'def compile2(code, layer):'
p3464
sI191
S'    """'
p3465
ssg3442
S"(code='# -*- coding: utf-8 -*-\\n# this file is released ...m=crud())\\n\\nresponse._vars=response._caller(user)\\n', layer='/home/shipra/Desktop/Semester 1.2/ITWS-2/web2py/applications/Assignment_2/controllers/default.py')"
p3466
sg3444
S'compile2'
p3467
sasS'pyver'
p3468
S'Python 2.7.3: /usr/bin/python'
p3469
sS'session'
p3470
g68
(g69
g70
NtRp3471
(dp3472
g73
(dp3473
sg75
(lp3474
g68
(g77
g70
NtRp3475
(dp3476
g73
(dp3477
g81
I5
ssg82
Nsg75
(lp3478
g68
(g84
g70
NtRp3479
(dp3480
g73
(dp3481
sg82
g3475
sg75
(lp3482
g68
(g89
g70
NtRp3483
(dp3484
g73
(dp3485
g93
g94
ssg82
g3479
sg75
(lp3486
S'auth'
p3487
asbag68
(g89
g70
NtRp3488
(dp3489
g73
(dp3490
g100
g101
ssg82
g3479
sg75
(lp3491
S':'
asbag68
(g89
g70
NtRp3492
(dp3493
g73
(dp3494
sg82
g3479
sg75
(lp3495
g68
(g69
g70
NtRp3496
(dp3497
g73
(dp3498
g81
I5
ssg82
g3492
sg75
(lp3499
g68
(g77
g70
NtRp3500
(dp3501
g73
(dp3502
g81
I4
ssg82
Nsg75
(lp3503
g68
(g84
g70
NtRp3504
(dp3505
g73
(dp3506
sg82
g3500
sg75
(lp3507
g68
(g89
g70
NtRp3508
(dp3509
g73
(dp3510
g93
g94
ssg82
g3504
sg75
(lp3511
S'expiration'
p3512
asbag68
(g89
g70
NtRp3513
(dp3514
g73
(dp3515
g100
g101
ssg82
g3504
sg75
(lp3516
S':'
asbag68
(g89
g70
NtRp3517
(dp3518
g73
(dp3519
sg82
g3504
sg75
(lp3520
g68
(g69
g70
NtRp3521
(dp3522
g73
(dp3523
g81
I4
ssg82
g3517
sg75
(lp3524
S'3600'
p3525
asbasbasbag68
(g84
g70
NtRp3526
(dp3527
g73
(dp3528
sg82
g3500
sg75
(lp3529
g68
(g89
g70
NtRp3530
(dp3531
g73
(dp3532
g93
g94
ssg82
g3526
sg75
(lp3533
S'hmac_key'
p3534
asbag68
(g89
g70
NtRp3535
(dp3536
g73
(dp3537
g100
g101
ssg82
g3526
sg75
(lp3538
S':'
asbag68
(g89
g70
NtRp3539
(dp3540
g73
(dp3541
sg82
g3526
sg75
(lp3542
g68
(g69
g70
NtRp3543
(dp3544
g73
(dp3545
g81
I4
ssg82
g3539
sg75
(lp3546
S'e0d59fa9-213c-46d5-ab23-0f7bbac88f10'
p3547
asbasbasbag68
(g84
g70
NtRp3548
(dp3549
g73
(dp3550
sg82
g3500
sg75
(lp3551
g68
(g89
g70
NtRp3552
(dp3553
g73
(dp3554
g93
g94
ssg82
g3548
sg75
(lp3555
S'last_visit'
p3556
asbag68
(g89
g70
NtRp3557
(dp3558
g73
(dp3559
g100
g101
ssg82
g3548
sg75
(lp3560
S':'
asbag68
(g89
g70
NtRp3561
(dp3562
g73
(dp3563
sg82
g3548
sg75
(lp3564
g68
(g69
g70
NtRp3565
(dp3566
g73
(dp3567
g81
I4
ssg82
g3561
sg75
(lp3568
S'datetime.datetime(2013, 8, 26, 0, 37, 19, 934311)'
p3569
asbasbasbag68
(g84
g70
NtRp3570
(dp3571
g73
(dp3572
sg82
g3500
sg75
(lp3573
g68
(g89
g70
NtRp3574
(dp3575
g73
(dp3576
g93
g94
ssg82
g3570
sg75
(lp3577
S'remember'
p3578
asbag68
(g89
g70
NtRp3579
(dp3580
g73
(dp3581
g100
g101
ssg82
g3570
sg75
(lp3582
S':'
asbag68
(g89
g70
NtRp3583
(dp3584
g73
(dp3585
sg82
g3570
sg75
(lp3586
g68
(g69
g70
NtRp3587
(dp3588
g73
(dp3589
g81
I4
ssg82
g3583
sg75
(lp3590
g111
asbasbasbag68
(g84
g70
NtRp3591
(dp3592
g73
(dp3593
sg82
g3500
sg75
(lp3594
g68
(g89
g70
NtRp3595
(dp3596
g73
(dp3597
g93
g94
ssg82
g3591
sg75
(lp3598
S'user'
p3599
asbag68
(g89
g70
NtRp3600
(dp3601
g73
(dp3602
g100
g101
ssg82
g3591
sg75
(lp3603
S':'
asbag68
(g89
g70
NtRp3604
(dp3605
g73
(dp3606
sg82
g3591
sg75
(lp3607
g68
(g69
g70
NtRp3608
(dp3609
g73
(dp3610
g81
I4
ssg82
g3604
sg75
(lp3611
g68
(g77
g70
NtRp3612
(dp3613
g73
(dp3614
g81
I3
ssg82
Nsg75
(lp3615
g68
(g84
g70
NtRp3616
(dp3617
g73
(dp3618
sg82
g3612
sg75
(lp3619
g68
(g89
g70
NtRp3620
(dp3621
g73
(dp3622
g93
g94
ssg82
g3616
sg75
(lp3623
S'email'
p3624
asbag68
(g89
g70
NtRp3625
(dp3626
g73
(dp3627
g100
g101
ssg82
g3616
sg75
(lp3628
S':'
asbag68
(g89
g70
NtRp3629
(dp3630
g73
(dp3631
sg82
g3616
sg75
(lp3632
g68
(g69
g70
NtRp3633
(dp3634
g73
(dp3635
g81
I3
ssg82
g3629
sg75
(lp3636
S'vanya.jauhal@gmail.com'
p3637
asbasbasbag68
(g84
g70
NtRp3638
(dp3639
g73
(dp3640
sg82
g3612
sg75
(lp3641
g68
(g89
g70
NtRp3642
(dp3643
g73
(dp3644
g93
g94
ssg82
g3638
sg75
(lp3645
S'first_name'
p3646
asbag68
(g89
g70
NtRp3647
(dp3648
g73
(dp3649
g100
g101
ssg82
g3638
sg75
(lp3650
S':'
asbag68
(g89
g70
NtRp3651
(dp3652
g73
(dp3653
sg82
g3638
sg75
(lp3654
g68
(g69
g70
NtRp3655
(dp3656
g73
(dp3657
g81
I3
ssg82
g3651
sg75
(lp3658
S'vanya'
p3659
asbasbasbag68
(g84
g70
NtRp3660
(dp3661
g73
(dp3662
sg82
g3612
sg75
(lp3663
g68
(g89
g70
NtRp3664
(dp3665
g73
(dp3666
g93
g94
ssg82
g3660
sg75
(lp3667
S'id'
p3668
asbag68
(g89
g70
NtRp3669
(dp3670
g73
(dp3671
g100
g101
ssg82
g3660
sg75
(lp3672
S':'
asbag68
(g89
g70
NtRp3673
(dp3674
g73
(dp3675
sg82
g3660
sg75
(lp3676
g68
(g69
g70
NtRp3677
(dp3678
g73
(dp3679
g81
I3
ssg82
g3673
sg75
(lp3680
S'4'
asbasbasbag68
(g84
g70
NtRp3681
(dp3682
g73
(dp3683
sg82
g3612
sg75
(lp3684
g68
(g89
g70
NtRp3685
(dp3686
g73
(dp3687
g93
g94
ssg82
g3681
sg75
(lp3688
S'last_name'
p3689
asbag68
(g89
g70
NtRp3690
(dp3691
g73
(dp3692
g100
g101
ssg82
g3681
sg75
(lp3693
S':'
asbag68
(g89
g70
NtRp3694
(dp3695
g73
(dp3696
sg82
g3681
sg75
(lp3697
g68
(g69
g70
NtRp3698
(dp3699
g73
(dp3700
g81
I3
ssg82
g3694
sg75
(lp3701
S'jauhal'
p3702
asbasbasbag68
(g84
g70
NtRp3703
(dp3704
g73
(dp3705
sg82
g3612
sg75
(lp3706
g68
(g89
g70
NtRp3707
(dp3708
g73
(dp3709
g93
g94
ssg82
g3703
sg75
(lp3710
S'registration_id'
p3711
asbag68
(g89
g70
NtRp3712
(dp3713
g73
(dp3714
g100
g101
ssg82
g3703
sg75
(lp3715
S':'
asbag68
(g89
g70
NtRp3716
(dp3717
g73
(dp3718
sg82
g3703
sg75
(lp3719
g68
(g69
g70
NtRp3720
(dp3721
g73
(dp3722
g81
I3
ssg82
g3716
sg75
(lp3723
S''
asbasbasbag68
(g84
g70
NtRp3724
(dp3725
g73
(dp3726
sg82
g3612
sg75
(lp3727
g68
(g89
g70
NtRp3728
(dp3729
g73
(dp3730
g93
g94
ssg82
g3724
sg75
(lp3731
S'registration_key'
p3732
asbag68
(g89
g70
NtRp3733
(dp3734
g73
(dp3735
g100
g101
ssg82
g3724
sg75
(lp3736
S':'
asbag68
(g89
g70
NtRp3737
(dp3738
g73
(dp3739
sg82
g3724
sg75
(lp3740
g68
(g69
g70
NtRp3741
(dp3742
g73
(dp3743
g81
I3
ssg82
g3737
sg75
(lp3744
S''
asbasbasbag68
(g84
g70
NtRp3745
(dp3746
g73
(dp3747
sg82
g3612
sg75
(lp3748
g68
(g89
g70
NtRp3749
(dp3750
g73
(dp3751
g93
g94
ssg82
g3745
sg75
(lp3752
S'reset_password_key'
p3753
asbag68
(g89
g70
NtRp3754
(dp3755
g73
(dp3756
g100
g101
ssg82
g3745
sg75
(lp3757
S':'
asbag68
(g89
g70
NtRp3758
(dp3759
g73
(dp3760
sg82
g3745
sg75
(lp3761
g68
(g69
g70
NtRp3762
(dp3763
g73
(dp3764
g81
I3
ssg82
g3758
sg75
(lp3765
S''
asbasbasbag68
(g84
g70
NtRp3766
(dp3767
g73
(dp3768
sg82
g3612
sg75
(lp3769
g68
(g89
g70
NtRp3770
(dp3771
g73
(dp3772
g93
g94
ssg82
g3766
sg75
(lp3773
S'username'
p3774
asbag68
(g89
g70
NtRp3775
(dp3776
g73
(dp3777
g100
g101
ssg82
g3766
sg75
(lp3778
S':'
asbag68
(g89
g70
NtRp3779
(dp3780
g73
(dp3781
sg82
g3766
sg75
(lp3782
g68
(g69
g70
NtRp3783
(dp3784
g73
(dp3785
g81
I3
ssg82
g3779
sg75
(lp3786
S'Vanya'
p3787
asbasbasbasbasbasbasbag68
(g84
g70
NtRp3788
(dp3789
g73
(dp3790
sg82
g3500
sg75
(lp3791
g68
(g89
g70
NtRp3792
(dp3793
g73
(dp3794
g93
g94
ssg82
g3788
sg75
(lp3795
S'user_groups'
p3796
asbag68
(g89
g70
NtRp3797
(dp3798
g73
(dp3799
g100
g101
ssg82
g3788
sg75
(lp3800
S':'
asbag68
(g89
g70
NtRp3801
(dp3802
g73
(dp3803
sg82
g3788
sg75
(lp3804
g68
(g69
g70
NtRp3805
(dp3806
g73
(dp3807
g81
I4
ssg82
g3801
sg75
(lp3808
g68
(g77
g70
NtRp3809
(dp3810
g73
(dp3811
g81
I3
ssg82
Nsg75
(lp3812
g68
(g84
g70
NtRp3813
(dp3814
g73
(dp3815
sg82
g3809
sg75
(lp3816
g68
(g89
g70
NtRp3817
(dp3818
g73
(dp3819
g93
g94
ssg82
g3813
sg75
(lp3820
S'3'
asbag68
(g89
g70
NtRp3821
(dp3822
g73
(dp3823
g100
g101
ssg82
g3813
sg75
(lp3824
S':'
asbag68
(g89
g70
NtRp3825
(dp3826
g73
(dp3827
sg82
g3813
sg75
(lp3828
g68
(g69
g70
NtRp3829
(dp3830
g73
(dp3831
g81
I3
ssg82
g3825
sg75
(lp3832
S'user_4'
p3833
asbasbasbasbasbasbasbasbasbasbasbag68
(g84
g70
NtRp3834
(dp3835
g73
(dp3836
sg82
g3475
sg75
(lp3837
g68
(g89
g70
NtRp3838
(dp3839
g73
(dp3840
g93
g94
ssg82
g3834
sg75
(lp3841
S'flash'
p3842
asbag68
(g89
g70
NtRp3843
(dp3844
g73
(dp3845
g100
g101
ssg82
g3834
sg75
(lp3846
S':'
asbag68
(g89
g70
NtRp3847
(dp3848
g73
(dp3849
sg82
g3834
sg75
(lp3850
g68
(g69
g70
NtRp3851
(dp3852
g73
(dp3853
g81
I5
ssg82
g3847
sg75
(lp3854
S'None'
p3855
asbasbasbag68
(g84
g70
NtRp3856
(dp3857
g73
(dp3858
sg82
g3475
sg75
(lp3859
g68
(g89
g70
NtRp3860
(dp3861
g73
(dp3862
g93
g94
ssg82
g3856
sg75
(lp3863
S'last_orderby'
p3864
asbag68
(g89
g70
NtRp3865
(dp3866
g73
(dp3867
g100
g101
ssg82
g3856
sg75
(lp3868
S':'
asbag68
(g89
g70
NtRp3869
(dp3870
g73
(dp3871
sg82
g3856
sg75
(lp3872
g68
(g69
g70
NtRp3873
(dp3874
g73
(dp3875
g81
I5
ssg82
g3869
sg75
(lp3876
S'None'
p3877
asbasbasbag68
(g84
g70
NtRp3878
(dp3879
g73
(dp3880
sg82
g3475
sg75
(lp3881
g68
(g89
g70
NtRp3882
(dp3883
g73
(dp3884
g93
g94
ssg82
g3878
sg75
(lp3885
S'last_query'
p3886
asbag68
(g89
g70
NtRp3887
(dp3888
g73
(dp3889
g100
g101
ssg82
g3878
sg75
(lp3890
S':'
asbag68
(g89
g70
NtRp3891
(dp3892
g73
(dp3893
sg82
g3878
sg75
(lp3894
g68
(g69
g70
NtRp3895
(dp3896
g73
(dp3897
g81
I5
ssg82
g3891
sg75
(lp3898
S'db.auth_user.id>0'
p3899
asbasbasbasbasbsS'etype'
p3900
S"<type 'exceptions.IndentationError'>"
p3901
sS'date'
p3902
S'Mon Aug 26 00:41:30 2013'
p3903
sS'response'
p3904
g68
(g69
g70
NtRp3905
(dp3906
g73
(dp3907
sg75
(lp3908
g68
(g77
g70
NtRp3909
(dp3910
g73
(dp3911
g81
I5
ssg82
Nsg75
(lp3912
g68
(g84
g70
NtRp3913
(dp3914
g73
(dp3915
sg82
g3909
sg75
(lp3916
g68
(g89
g70
NtRp3917
(dp3918
g73
(dp3919
g93
g94
ssg82
g3913
sg75
(lp3920
g179
asbag68
(g89
g70
NtRp3921
(dp3922
g73
(dp3923
g100
g101
ssg82
g3913
sg75
(lp3924
S':'
asbag68
(g89
g70
NtRp3925
(dp3926
g73
(dp3927
sg82
g3913
sg75
(lp3928
g68
(g69
g70
NtRp3929
(dp3930
g73
(dp3931
g81
I5
ssg82
g3925
sg75
(lp3932
S'<cStringIO.StringO object at 0x1d5bfb8>'
p3933
asbasbasbag68
(g84
g70
NtRp3934
(dp3935
g73
(dp3936
sg82
g3909
sg75
(lp3937
g68
(g89
g70
NtRp3938
(dp3939
g73
(dp3940
g93
g94
ssg82
g3934
sg75
(lp3941
g267
asbag68
(g89
g70
NtRp3942
(dp3943
g73
(dp3944
g100
g101
ssg82
g3934
sg75
(lp3945
S':'
asbag68
(g89
g70
NtRp3946
(dp3947
g73
(dp3948
sg82
g3934
sg75
(lp3949
g68
(g69
g70
NtRp3950
(dp3951
g73
(dp3952
g81
I5
ssg82
g3946
sg75
(lp3953
g68
(g77
g70
NtRp3954
(dp3955
g73
(dp3956
g81
I4
ssg82
Nsg75
(lp3957
g68
(g84
g70
NtRp3958
(dp3959
g73
(dp3960
sg82
g3954
sg75
(lp3961
g68
(g89
g70
NtRp3962
(dp3963
g73
(dp3964
g93
g94
ssg82
g3958
sg75
(lp3965
S'session_id_assignment_2'
p3966
asbag68
(g89
g70
NtRp3967
(dp3968
g73
(dp3969
g100
g101
ssg82
g3958
sg75
(lp3970
S':'
asbag68
(g89
g70
NtRp3971
(dp3972
g73
(dp3973
sg82
g3958
sg75
(lp3974
g68
(g69
g70
NtRp3975
(dp3976
g73
(dp3977
g81
I4
ssg82
g3971
sg75
(lp3978
g685
ag68
(g77
g70
NtRp3979
(dp3980
g73
(dp3981
g81
I3
ssg82
Nsg75
(lp3982
g68
(g84
g70
NtRp3983
(dp3984
g73
(dp3985
sg82
g3979
sg75
(lp3986
g68
(g89
g70
NtRp3987
(dp3988
g73
(dp3989
g93
g94
ssg82
g3983
sg75
(lp3990
g318
asbag68
(g89
g70
NtRp3991
(dp3992
g73
(dp3993
g100
g101
ssg82
g3983
sg75
(lp3994
S':'
asbag68
(g89
g70
NtRp3995
(dp3996
g73
(dp3997
sg82
g3983
sg75
(lp3998
g68
(g69
g70
NtRp3999
(dp4000
g73
(dp4001
g81
I3
ssg82
g3995
sg75
(lp4002
S''
asbasbasbag68
(g84
g70
NtRp4003
(dp4004
g73
(dp4005
sg82
g3979
sg75
(lp4006
g68
(g89
g70
NtRp4007
(dp4008
g73
(dp4009
g93
g94
ssg82
g4003
sg75
(lp4010
g339
asbag68
(g89
g70
NtRp4011
(dp4012
g73
(dp4013
g100
g101
ssg82
g4003
sg75
(lp4014
S':'
asbag68
(g89
g70
NtRp4015
(dp4016
g73
(dp4017
sg82
g4003
sg75
(lp4018
g68
(g69
g70
NtRp4019
(dp4020
g73
(dp4021
g81
I3
ssg82
g4015
sg75
(lp4022
S''
asbasbasbag68
(g84
g70
NtRp4023
(dp4024
g73
(dp4025
sg82
g3979
sg75
(lp4026
g68
(g89
g70
NtRp4027
(dp4028
g73
(dp4029
g93
g94
ssg82
g4023
sg75
(lp4030
g360
asbag68
(g89
g70
NtRp4031
(dp4032
g73
(dp4033
g100
g101
ssg82
g4023
sg75
(lp4034
S':'
asbag68
(g89
g70
NtRp4035
(dp4036
g73
(dp4037
sg82
g4023
sg75
(lp4038
g68
(g69
g70
NtRp4039
(dp4040
g73
(dp4041
g81
I3
ssg82
g4035
sg75
(lp4042
S''
asbasbasbag68
(g84
g70
NtRp4043
(dp4044
g73
(dp4045
sg82
g3979
sg75
(lp4046
g68
(g89
g70
NtRp4047
(dp4048
g73
(dp4049
g93
g94
ssg82
g4043
sg75
(lp4050
g381
asbag68
(g89
g70
NtRp4051
(dp4052
g73
(dp4053
g100
g101
ssg82
g4043
sg75
(lp4054
S':'
asbag68
(g89
g70
NtRp4055
(dp4056
g73
(dp4057
sg82
g4043
sg75
(lp4058
g68
(g69
g70
NtRp4059
(dp4060
g73
(dp4061
g81
I3
ssg82
g4055
sg75
(lp4062
S''
asbasbasbag68
(g84
g70
NtRp4063
(dp4064
g73
(dp4065
sg82
g3979
sg75
(lp4066
g68
(g89
g70
NtRp4067
(dp4068
g73
(dp4069
g93
g94
ssg82
g4063
sg75
(lp4070
g402
asbag68
(g89
g70
NtRp4071
(dp4072
g73
(dp4073
g100
g101
ssg82
g4063
sg75
(lp4074
S':'
asbag68
(g89
g70
NtRp4075
(dp4076
g73
(dp4077
sg82
g4063
sg75
(lp4078
g68
(g69
g70
NtRp4079
(dp4080
g73
(dp4081
g81
I3
ssg82
g4075
sg75
(lp4082
S''
asbasbasbag68
(g84
g70
NtRp4083
(dp4084
g73
(dp4085
sg82
g3979
sg75
(lp4086
g68
(g89
g70
NtRp4087
(dp4088
g73
(dp4089
g93
g94
ssg82
g4083
sg75
(lp4090
g423
asbag68
(g89
g70
NtRp4091
(dp4092
g73
(dp4093
g100
g101
ssg82
g4083
sg75
(lp4094
S':'
asbag68
(g89
g70
NtRp4095
(dp4096
g73
(dp4097
sg82
g4083
sg75
(lp4098
g68
(g69
g70
NtRp4099
(dp4100
g73
(dp4101
g81
I3
ssg82
g4095
sg75
(lp4102
S'/'
asbasbasbag68
(g84
g70
NtRp4103
(dp4104
g73
(dp4105
sg82
g3979
sg75
(lp4106
g68
(g89
g70
NtRp4107
(dp4108
g73
(dp4109
g93
g94
ssg82
g4103
sg75
(lp4110
g444
asbag68
(g89
g70
NtRp4111
(dp4112
g73
(dp4113
g100
g101
ssg82
g4103
sg75
(lp4114
S':'
asbag68
(g89
g70
NtRp4115
(dp4116
g73
(dp4117
sg82
g4103
sg75
(lp4118
g68
(g69
g70
NtRp4119
(dp4120
g73
(dp4121
g81
I3
ssg82
g4115
sg75
(lp4122
S''
asbasbasbag68
(g84
g70
NtRp4123
(dp4124
g73
(dp4125
sg82
g3979
sg75
(lp4126
g68
(g89
g70
NtRp4127
(dp4128
g73
(dp4129
g93
g94
ssg82
g4123
sg75
(lp4130
g465
asbag68
(g89
g70
NtRp4131
(dp4132
g73
(dp4133
g100
g101
ssg82
g4123
sg75
(lp4134
S':'
asbag68
(g89
g70
NtRp4135
(dp4136
g73
(dp4137
sg82
g4123
sg75
(lp4138
g68
(g69
g70
NtRp4139
(dp4140
g73
(dp4141
g81
I3
ssg82
g4135
sg75
(lp4142
S''
asbasbasbasbasbasbasbasbasbasbasbag68
(g84
g70
NtRp4143
(dp4144
g73
(dp4145
sg82
g3909
sg75
(lp4146
g68
(g89
g70
NtRp4147
(dp4148
g73
(dp4149
g93
g94
ssg82
g4143
sg75
(lp4150
S'delimiters'
p4151
asbag68
(g89
g70
NtRp4152
(dp4153
g73
(dp4154
g100
g101
ssg82
g4143
sg75
(lp4155
S':'
asbag68
(g89
g70
NtRp4156
(dp4157
g73
(dp4158
sg82
g4143
sg75
(lp4159
g68
(g69
g70
NtRp4160
(dp4161
g73
(dp4162
g81
I5
ssg82
g4156
sg75
(lp4163
g68
(g77
g70
NtRp4164
(dp4165
g73
(dp4166
g81
I4
ssg82
Nsg75
(lp4167
g68
(g84
g70
NtRp4168
(dp4169
g73
(dp4170
sg82
g4164
sg75
(lp4171
g68
(g89
g70
NtRp4172
(dp4173
g73
(dp4174
sg82
g4168
sg75
(lp4175
g68
(g69
g70
NtRp4176
(dp4177
g73
(dp4178
g81
I4
ssg82
g4172
sg75
(lp4179
S'{{'
p4180
asbasbasbag68
(g84
g70
NtRp4181
(dp4182
g73
(dp4183
sg82
g4164
sg75
(lp4184
g68
(g89
g70
NtRp4185
(dp4186
g73
(dp4187
sg82
g4181
sg75
(lp4188
g68
(g69
g70
NtRp4189
(dp4190
g73
(dp4191
g81
I4
ssg82
g4185
sg75
(lp4192
S'}}'
p4193
asbasbasbasbasbasbasbag68
(g84
g70
NtRp4194
(dp4195
g73
(dp4196
sg82
g3909
sg75
(lp4197
g68
(g89
g70
NtRp4198
(dp4199
g73
(dp4200
g93
g94
ssg82
g4194
sg75
(lp4201
S'files'
p4202
asbag68
(g89
g70
NtRp4203
(dp4204
g73
(dp4205
g100
g101
ssg82
g4194
sg75
(lp4206
S':'
asbag68
(g89
g70
NtRp4207
(dp4208
g73
(dp4209
sg82
g4194
sg75
(lp4210
g68
(g69
g70
NtRp4211
(dp4212
g73
(dp4213
g81
I5
ssg82
g4207
sg75
(lp4214
g68
(g77
g70
NtRp4215
(dp4216
g73
(dp4217
g81
I4
ssg82
Nsg75
(lp4218
sbasbasbasbag68
(g84
g70
NtRp4219
(dp4220
g73
(dp4221
sg82
g3909
sg75
(lp4222
g68
(g89
g70
NtRp4223
(dp4224
g73
(dp4225
g93
g94
ssg82
g4219
sg75
(lp4226
S'flash'
p4227
asbag68
(g89
g70
NtRp4228
(dp4229
g73
(dp4230
g100
g101
ssg82
g4219
sg75
(lp4231
S':'
asbag68
(g89
g70
NtRp4232
(dp4233
g73
(dp4234
sg82
g4219
sg75
(lp4235
g68
(g69
g70
NtRp4236
(dp4237
g73
(dp4238
g81
I5
ssg82
g4232
sg75
(lp4239
S''
asbasbasbag68
(g84
g70
NtRp4240
(dp4241
g73
(dp4242
sg82
g3909
sg75
(lp4243
g68
(g89
g70
NtRp4244
(dp4245
g73
(dp4246
g93
g94
ssg82
g4240
sg75
(lp4247
S'generic_patterns'
p4248
asbag68
(g89
g70
NtRp4249
(dp4250
g73
(dp4251
g100
g101
ssg82
g4240
sg75
(lp4252
S':'
asbag68
(g89
g70
NtRp4253
(dp4254
g73
(dp4255
sg82
g4240
sg75
(lp4256
g68
(g69
g70
NtRp4257
(dp4258
g73
(dp4259
g81
I5
ssg82
g4253
sg75
(lp4260
g68
(g77
g70
NtRp4261
(dp4262
g73
(dp4263
g81
I4
ssg82
Nsg75
(lp4264
g68
(g84
g70
NtRp4265
(dp4266
g73
(dp4267
sg82
g4261
sg75
(lp4268
g68
(g89
g70
NtRp4269
(dp4270
g73
(dp4271
sg82
g4265
sg75
(lp4272
g68
(g69
g70
NtRp4273
(dp4274
g73
(dp4275
g81
I4
ssg82
g4269
sg75
(lp4276
S'*'
asbasbasbasbasbasbasbag68
(g84
g70
NtRp4277
(dp4278
g73
(dp4279
sg82
g3909
sg75
(lp4280
g68
(g89
g70
NtRp4281
(dp4282
g73
(dp4283
g93
g94
ssg82
g4277
sg75
(lp4284
S'google_analytics_id'
p4285
asbag68
(g89
g70
NtRp4286
(dp4287
g73
(dp4288
g100
g101
ssg82
g4277
sg75
(lp4289
S':'
asbag68
(g89
g70
NtRp4290
(dp4291
g73
(dp4292
sg82
g4277
sg75
(lp4293
g68
(g69
g70
NtRp4294
(dp4295
g73
(dp4296
g81
I5
ssg82
g4290
sg75
(lp4297
S'None'
p4298
asbasbasbag68
(g84
g70
NtRp4299
(dp4300
g73
(dp4301
sg82
g3909
sg75
(lp4302
g68
(g89
g70
NtRp4303
(dp4304
g73
(dp4305
g93
g94
ssg82
g4299
sg75
(lp4306
S'headers'
p4307
asbag68
(g89
g70
NtRp4308
(dp4309
g73
(dp4310
g100
g101
ssg82
g4299
sg75
(lp4311
S':'
asbag68
(g89
g70
NtRp4312
(dp4313
g73
(dp4314
sg82
g4299
sg75
(lp4315
g68
(g69
g70
NtRp4316
(dp4317
g73
(dp4318
g81
I5
ssg82
g4312
sg75
(lp4319
g68
(g77
g70
NtRp4320
(dp4321
g73
(dp4322
g81
I4
ssg82
Nsg75
(lp4323
g68
(g84
g70
NtRp4324
(dp4325
g73
(dp4326
sg82
g4320
sg75
(lp4327
g68
(g89
g70
NtRp4328
(dp4329
g73
(dp4330
g93
g94
ssg82
g4324
sg75
(lp4331
S'X-Powered-By'
p4332
asbag68
(g89
g70
NtRp4333
(dp4334
g73
(dp4335
g100
g101
ssg82
g4324
sg75
(lp4336
S':'
asbag68
(g89
g70
NtRp4337
(dp4338
g73
(dp4339
sg82
g4324
sg75
(lp4340
g68
(g69
g70
NtRp4341
(dp4342
g73
(dp4343
g81
I4
ssg82
g4337
sg75
(lp4344
S'web2py'
p4345
asbasbasbasbasbasbasbag68
(g84
g70
NtRp4346
(dp4347
g73
(dp4348
sg82
g3909
sg75
(lp4349
g68
(g89
g70
NtRp4350
(dp4351
g73
(dp4352
g93
g94
ssg82
g4346
sg75
(lp4353
S'logo'
p4354
asbag68
(g89
g70
NtRp4355
(dp4356
g73
(dp4357
g100
g101
ssg82
g4346
sg75
(lp4358
S':'
asbag68
(g89
g70
NtRp4359
(dp4360
g73
(dp4361
sg82
g4346
sg75
(lp4362
g68
(g69
g70
NtRp4363
(dp4364
g73
(dp4365
g81
I5
ssg82
g4359
sg75
(lp4366
g68
(cgluon.html
A
p4367
g70
NtRp4368
(dp4369
g73
(dp4370
S'_class'
p4371
S'brand'
p4372
sS'_href'
p4373
S'http://www.web2py.com/'
p4374
ssg82
Nsg75
(lp4375
g68
(cgluon.html
B
p4376
g70
NtRp4377
(dp4378
g73
(dp4379
sg82
g4368
sg75
(lp4380
S'web'
p4381
ag68
(cgluon.html
SPAN
p4382
g70
NtRp4383
(dp4384
g73
(dp4385
sg82
g4377
sg75
(lp4386
I2
asbaS'py'
p4387
asbacgluon.html
XML_unpickle
p4388
(S's\r\x00\x00\x00&trade;&nbsp;'
tRp4389
asbasbasbasbag68
(g84
g70
NtRp4390
(dp4391
g73
(dp4392
sg82
g3909
sg75
(lp4393
g68
(g89
g70
NtRp4394
(dp4395
g73
(dp4396
g93
g94
ssg82
g4390
sg75
(lp4397
S'menu'
p4398
asbag68
(g89
g70
NtRp4399
(dp4400
g73
(dp4401
g100
g101
ssg82
g4390
sg75
(lp4402
S':'
asbag68
(g89
g70
NtRp4403
(dp4404
g73
(dp4405
sg82
g4390
sg75
(lp4406
g68
(g69
g70
NtRp4407
(dp4408
g73
(dp4409
g81
I5
ssg82
g4403
sg75
(lp4410
g68
(g77
g70
NtRp4411
(dp4412
g73
(dp4413
g81
I4
ssg82
Nsg75
(lp4414
g68
(g84
g70
NtRp4415
(dp4416
g73
(dp4417
sg82
g4411
sg75
(lp4418
g68
(g89
g70
NtRp4419
(dp4420
g73
(dp4421
sg82
g4415
sg75
(lp4422
g68
(g69
g70
NtRp4423
(dp4424
g73
(dp4425
g81
I4
ssg82
g4419
sg75
(lp4426
g68
(g77
g70
NtRp4427
(dp4428
g73
(dp4429
g81
I3
ssg82
Nsg75
(lp4430
g68
(g84
g70
NtRp4431
(dp4432
g73
(dp4433
sg82
g4427
sg75
(lp4434
g68
(g89
g70
NtRp4435
(dp4436
g73
(dp4437
sg82
g4431
sg75
(lp4438
g68
(g69
g70
NtRp4439
(dp4440
g73
(dp4441
g81
I3
ssg82
g4435
sg75
(lp4442
cgluon.languages
lazyT_unpickle
p4443
(S's\x04\x00\x00\x00Home'
tRp4444
asbasbasbag68
(g84
g70
NtRp4445
(dp4446
g73
(dp4447
sg82
g4427
sg75
(lp4448
g68
(g89
g70
NtRp4449
(dp4450
g73
(dp4451
sg82
g4445
sg75
(lp4452
g68
(g69
g70
NtRp4453
(dp4454
g73
(dp4455
g81
I3
ssg82
g4449
sg75
(lp4456
g111
asbasbasbag68
(g84
g70
NtRp4457
(dp4458
g73
(dp4459
sg82
g4427
sg75
(lp4460
g68
(g89
g70
NtRp4461
(dp4462
g73
(dp4463
sg82
g4457
sg75
(lp4464
g68
(g69
g70
NtRp4465
(dp4466
g73
(dp4467
g81
I3
ssg82
g4461
sg75
(lp4468
S'/Assignment_2/default/index'
p4469
asbasbasbag68
(g84
g70
NtRp4470
(dp4471
g73
(dp4472
sg82
g4427
sg75
(lp4473
g68
(g89
g70
NtRp4474
(dp4475
g73
(dp4476
sg82
g4470
sg75
(lp4477
g68
(g69
g70
NtRp4478
(dp4479
g73
(dp4480
g81
I3
ssg82
g4474
sg75
(lp4481
g68
(g77
g70
NtRp4482
(dp4483
g73
(dp4484
g81
I2
ssg82
Nsg75
(lp4485
sbasbasbasbasbasbasbasbag68
(g84
g70
NtRp4486
(dp4487
g73
(dp4488
sg82
g4411
sg75
(lp4489
g68
(g89
g70
NtRp4490
(dp4491
g73
(dp4492
sg82
g4486
sg75
(lp4493
g68
(g69
g70
NtRp4494
(dp4495
g73
(dp4496
g81
I4
ssg82
g4490
sg75
(lp4497
g68
(g77
g70
NtRp4498
(dp4499
g73
(dp4500
g81
I3
ssg82
Nsg75
(lp4501
g68
(g84
g70
NtRp4502
(dp4503
g73
(dp4504
sg82
g4498
sg75
(lp4505
g68
(g89
g70
NtRp4506
(dp4507
g73
(dp4508
sg82
g4502
sg75
(lp4509
g68
(g69
g70
NtRp4510
(dp4511
g73
(dp4512
g81
I3
ssg82
g4506
sg75
(lp4513
g68
(g4382
g70
NtRp4514
(dp4515
g73
(dp4516
g4371
S'highlighted'
p4517
ssg82
Nsg75
(lp4518
g4345
asbasbasbasbag68
(g84
g70
NtRp4519
(dp4520
g73
(dp4521
sg82
g4498
sg75
(lp4522
g68
(g89
g70
NtRp4523
(dp4524
g73
(dp4525
sg82
g4519
sg75
(lp4526
g68
(g69
g70
NtRp4527
(dp4528
g73
(dp4529
g81
I3
ssg82
g4523
sg75
(lp4530
g111
asbasbasbag68
(g84
g70
NtRp4531
(dp4532
g73
(dp4533
sg82
g4498
sg75
(lp4534
g68
(g89
g70
NtRp4535
(dp4536
g73
(dp4537
sg82
g4531
sg75
(lp4538
g68
(g69
g70
NtRp4539
(dp4540
g73
(dp4541
g81
I3
ssg82
g4535
sg75
(lp4542
S'http://web2py.com'
p4543
asbasbasbag68
(g84
g70
NtRp4544
(dp4545
g73
(dp4546
sg82
g4498
sg75
(lp4547
g68
(g89
g70
NtRp4548
(dp4549
g73
(dp4550
sg82
g4544
sg75
(lp4551
g68
(g69
g70
NtRp4552
(dp4553
g73
(dp4554
g81
I3
ssg82
g4548
sg75
(lp4555
g68
(g77
g70
NtRp4556
(dp4557
g73
(dp4558
g81
I2
ssg82
Nsg75
(lp4559
g68
(g84
g70
NtRp4560
(dp4561
g73
(dp4562
sg82
g4556
sg75
(lp4563
g68
(g89
g70
NtRp4564
(dp4565
g73
(dp4566
sg82
g4560
sg75
(lp4567
g68
(g69
g70
NtRp4568
(dp4569
g73
(dp4570
g81
I2
ssg82
g4564
sg75
(lp4571
g68
(g77
g70
NtRp4572
(dp4573
g73
(dp4574
g81
I1
ssg82
Nsg75
(lp4575
g68
(g84
g70
NtRp4576
(dp4577
g73
(dp4578
sg82
g4572
sg75
(lp4579
g68
(g89
g70
NtRp4580
(dp4581
g73
(dp4582
sg82
g4576
sg75
(lp4583
g68
(g69
g70
NtRp4584
(dp4585
g73
(dp4586
g81
I1
ssg82
g4580
sg75
(lp4587
g4443
(S's\x08\x00\x00\x00My Sites'
tRp4588
asbasbasbag68
(g84
g70
NtRp4589
(dp4590
g73
(dp4591
sg82
g4572
sg75
(lp4592
g68
(g89
g70
NtRp4593
(dp4594
g73
(dp4595
sg82
g4589
sg75
(lp4596
g68
(g69
g70
NtRp4597
(dp4598
g73
(dp4599
g81
I1
ssg82
g4593
sg75
(lp4600
I00
asbasbasbag68
(g84
g70
NtRp4601
(dp4602
g73
(dp4603
sg82
g4572
sg75
(lp4604
g68
(g89
g70
NtRp4605
(dp4606
g73
(dp4607
sg82
g4601
sg75
(lp4608
g68
(g69
g70
NtRp4609
(dp4610
g73
(dp4611
g81
I1
ssg82
g4605
sg75
(lp4612
S'/admin/default/site'
p4613
asbasbasbasbasbasbasbag68
(g84
g70
NtRp4614
(dp4615
g73
(dp4616
sg82
g4556
sg75
(lp4617
g68
(g89
g70
NtRp4618
(dp4619
g73
(dp4620
sg82
g4614
sg75
(lp4621
g68
(g69
g70
NtRp4622
(dp4623
g73
(dp4624
g81
I2
ssg82
g4618
sg75
(lp4625
g68
(g77
g70
NtRp4626
(dp4627
g73
(dp4628
g81
I1
ssg82
Nsg75
(lp4629
g68
(g84
g70
NtRp4630
(dp4631
g73
(dp4632
sg82
g4626
sg75
(lp4633
g68
(g89
g70
NtRp4634
(dp4635
g73
(dp4636
sg82
g4630
sg75
(lp4637
g68
(g69
g70
NtRp4638
(dp4639
g73
(dp4640
g81
I1
ssg82
g4634
sg75
(lp4641
g4443
(S's\x08\x00\x00\x00This App'
tRp4642
asbasbasbag68
(g84
g70
NtRp4643
(dp4644
g73
(dp4645
sg82
g4626
sg75
(lp4646
g68
(g89
g70
NtRp4647
(dp4648
g73
(dp4649
sg82
g4643
sg75
(lp4650
g68
(g69
g70
NtRp4651
(dp4652
g73
(dp4653
g81
I1
ssg82
g4647
sg75
(lp4654
I00
asbasbasbag68
(g84
g70
NtRp4655
(dp4656
g73
(dp4657
sg82
g4626
sg75
(lp4658
g68
(g89
g70
NtRp4659
(dp4660
g73
(dp4661
sg82
g4655
sg75
(lp4662
g68
(g69
g70
NtRp4663
(dp4664
g73
(dp4665
g81
I1
ssg82
g4659
sg75
(lp4666
S'/admin/default/design/Assignment_2'
p4667
asbasbasbag68
(g84
g70
NtRp4668
(dp4669
g73
(dp4670
sg82
g4626
sg75
(lp4671
g68
(g89
g70
NtRp4672
(dp4673
g73
(dp4674
sg82
g4668
sg75
(lp4675
g68
(g69
g70
NtRp4676
(dp4677
g73
(dp4678
g81
I1
ssg82
g4672
sg75
(lp4679
(lp4680
(g4443
(S's\n\x00\x00\x00Controller'
tRp4681
I00
S'/admin/default/edit/Assignment_2/controllers/default.py'
tp4682
a(g4443
(S's\x04\x00\x00\x00View'
tRp4683
I00
S'/admin/default/edit/Assignment_2/views/default/user.html'
tp4684
a(g4443
(S's\x06\x00\x00\x00Layout'
tRp4685
I00
S'/admin/default/edit/Assignment_2/views/layout.html'
tp4686
a(g4443
(S's\n\x00\x00\x00Stylesheet'
tRp4687
I00
S'/admin/default/edit/Assignment_2/static/css/web2py.css'
tp4688
a(g4443
(S's\x08\x00\x00\x00DB Model'
tRp4689
I00
S'/admin/default/edit/Assignment_2/models/db.py'
tp4690
a(g4443
(S's\n\x00\x00\x00Menu Model'
tRp4691
I00
S'/admin/default/edit/Assignment_2/models/menu.py'
tp4692
a(g4443
(S's\x08\x00\x00\x00Database'
tRp4693
I00
S'/Assignment_2/appadmin/index'
tp4694
a(g4443
(S's\x06\x00\x00\x00Errors'
tRp4695
I00
S'/admin/default/errors/Assignment_2'
tp4696
a(g4443
(S's\x05\x00\x00\x00About'
tRp4697
I00
S'/admin/default/about/Assignment_2'
tp4698
aasbasbasbasbasbasbasbag68
(g84
g70
NtRp4699
(dp4700
g73
(dp4701
sg82
g4556
sg75
(lp4702
g68
(g89
g70
NtRp4703
(dp4704
g73
(dp4705
sg82
g4699
sg75
(lp4706
g68
(g69
g70
NtRp4707
(dp4708
g73
(dp4709
g81
I2
ssg82
g4703
sg75
(lp4710
g68
(g77
g70
NtRp4711
(dp4712
g73
(dp4713
g81
I1
ssg82
Nsg75
(lp4714
g68
(g84
g70
NtRp4715
(dp4716
g73
(dp4717
sg82
g4711
sg75
(lp4718
g68
(g89
g70
NtRp4719
(dp4720
g73
(dp4721
sg82
g4715
sg75
(lp4722
g68
(g69
g70
NtRp4723
(dp4724
g73
(dp4725
g81
I1
ssg82
g4719
sg75
(lp4726
S'web2py.com'
p4727
asbasbasbag68
(g84
g70
NtRp4728
(dp4729
g73
(dp4730
sg82
g4711
sg75
(lp4731
g68
(g89
g70
NtRp4732
(dp4733
g73
(dp4734
sg82
g4728
sg75
(lp4735
g68
(g69
g70
NtRp4736
(dp4737
g73
(dp4738
g81
I1
ssg82
g4732
sg75
(lp4739
I00
asbasbasbag68
(g84
g70
NtRp4740
(dp4741
g73
(dp4742
sg82
g4711
sg75
(lp4743
g68
(g89
g70
NtRp4744
(dp4745
g73
(dp4746
sg82
g4740
sg75
(lp4747
g68
(g69
g70
NtRp4748
(dp4749
g73
(dp4750
g81
I1
ssg82
g4744
sg75
(lp4751
S'http://www.web2py.com'
p4752
asbasbasbag68
(g84
g70
NtRp4753
(dp4754
g73
(dp4755
sg82
g4711
sg75
(lp4756
g68
(g89
g70
NtRp4757
(dp4758
g73
(dp4759
sg82
g4753
sg75
(lp4760
g68
(g69
g70
NtRp4761
(dp4762
g73
(dp4763
g81
I1
ssg82
g4757
sg75
(lp4764
(lp4765
(g4443
(S's\x08\x00\x00\x00Download'
tRp4766
I00
S'http://www.web2py.com/examples/default/download'
p4767
tp4768
a(g4443
(S's\x07\x00\x00\x00Support'
tRp4769
I00
S'http://www.web2py.com/examples/default/support'
p4770
tp4771
a(g4443
(S's\x04\x00\x00\x00Demo'
tRp4772
I00
S'http://web2py.com/demo_admin'
p4773
tp4774
a(g4443
(S's\x0e\x00\x00\x00Quick Examples'
tRp4775
I00
S'http://web2py.com/examples/default/examples'
p4776
tp4777
a(g4443
(S's\x03\x00\x00\x00FAQ'
tRp4778
I00
S'http://web2py.com/AlterEgo'
p4779
tp4780
a(g4443
(S's\x06\x00\x00\x00Videos'
tRp4781
I00
S'http://www.web2py.com/examples/default/videos/'
p4782
tp4783
a(g4443
(S's\x11\x00\x00\x00Free Applications'
tRp4784
I00
S'http://web2py.com/appliances'
p4785
tp4786
a(g4443
(S's\x07\x00\x00\x00Plugins'
tRp4787
I00
S'http://web2py.com/plugins'
p4788
tp4789
a(g4443
(S's\x07\x00\x00\x00Layouts'
tRp4790
I00
S'http://web2py.com/layouts'
p4791
tp4792
a(g4443
(S's\x07\x00\x00\x00Recipes'
tRp4793
I00
S'http://web2pyslices.com/'
p4794
tp4795
a(g4443
(S's\x08\x00\x00\x00Semantic'
tRp4796
I00
S'http://web2py.com/semantic'
p4797
tp4798
aasbasbasbasbasbasbasbag68
(g84
g70
NtRp4799
(dp4800
g73
(dp4801
sg82
g4556
sg75
(lp4802
g68
(g89
g70
NtRp4803
(dp4804
g73
(dp4805
sg82
g4799
sg75
(lp4806
g68
(g69
g70
NtRp4807
(dp4808
g73
(dp4809
g81
I2
ssg82
g4803
sg75
(lp4810
g68
(g77
g70
NtRp4811
(dp4812
g73
(dp4813
g81
I1
ssg82
Nsg75
(lp4814
g68
(g84
g70
NtRp4815
(dp4816
g73
(dp4817
sg82
g4811
sg75
(lp4818
g68
(g89
g70
NtRp4819
(dp4820
g73
(dp4821
sg82
g4815
sg75
(lp4822
g68
(g69
g70
NtRp4823
(dp4824
g73
(dp4825
g81
I1
ssg82
g4819
sg75
(lp4826
g4443
(S's\r\x00\x00\x00Documentation'
tRp4827
asbasbasbag68
(g84
g70
NtRp4828
(dp4829
g73
(dp4830
sg82
g4811
sg75
(lp4831
g68
(g89
g70
NtRp4832
(dp4833
g73
(dp4834
sg82
g4828
sg75
(lp4835
g68
(g69
g70
NtRp4836
(dp4837
g73
(dp4838
g81
I1
ssg82
g4832
sg75
(lp4839
I00
asbasbasbag68
(g84
g70
NtRp4840
(dp4841
g73
(dp4842
sg82
g4811
sg75
(lp4843
g68
(g89
g70
NtRp4844
(dp4845
g73
(dp4846
sg82
g4840
sg75
(lp4847
g68
(g69
g70
NtRp4848
(dp4849
g73
(dp4850
g81
I1
ssg82
g4844
sg75
(lp4851
S'http://www.web2py.com/book'
p4852
asbasbasbag68
(g84
g70
NtRp4853
(dp4854
g73
(dp4855
sg82
g4811
sg75
(lp4856
g68
(g89
g70
NtRp4857
(dp4858
g73
(dp4859
sg82
g4853
sg75
(lp4860
g68
(g69
g70
NtRp4861
(dp4862
g73
(dp4863
g81
I1
ssg82
g4857
sg75
(lp4864
(lp4865
(g4443
(S's\x07\x00\x00\x00Preface'
tRp4866
I00
S'http://www.web2py.com/book/default/chapter/00'
p4867
tp4868
a(g4443
(S's\x0c\x00\x00\x00Introduction'
tRp4869
I00
S'http://www.web2py.com/book/default/chapter/01'
p4870
tp4871
a(g4443
(S's\x06\x00\x00\x00Python'
tRp4872
I00
S'http://www.web2py.com/book/default/chapter/02'
p4873
tp4874
a(g4443
(S's\x08\x00\x00\x00Overview'
tRp4875
I00
S'http://www.web2py.com/book/default/chapter/03'
p4876
tp4877
a(g4443
(S's\x08\x00\x00\x00The Core'
tRp4878
I00
S'http://www.web2py.com/book/default/chapter/04'
p4879
tp4880
a(g4443
(S's\t\x00\x00\x00The Views'
tRp4881
I00
S'http://www.web2py.com/book/default/chapter/05'
p4882
tp4883
a(g4443
(S's\x08\x00\x00\x00Database'
tRp4884
I00
S'http://www.web2py.com/book/default/chapter/06'
p4885
tp4886
a(g4443
(S's\x14\x00\x00\x00Forms and Validators'
tRp4887
I00
S'http://www.web2py.com/book/default/chapter/07'
p4888
tp4889
a(g4443
(S's\r\x00\x00\x00Email and SMS'
tRp4890
I00
S'http://www.web2py.com/book/default/chapter/08'
p4891
tp4892
a(g4443
(S's\x0e\x00\x00\x00Access Control'
tRp4893
I00
S'http://www.web2py.com/book/default/chapter/09'
p4894
tp4895
a(g4443
(S's\x08\x00\x00\x00Services'
tRp4896
I00
S'http://www.web2py.com/book/default/chapter/10'
p4897
tp4898
a(g4443
(S's\x0c\x00\x00\x00Ajax Recipes'
tRp4899
I00
S'http://www.web2py.com/book/default/chapter/11'
p4900
tp4901
a(g4443
(S's\x16\x00\x00\x00Components and Plugins'
tRp4902
I00
S'http://www.web2py.com/book/default/chapter/12'
p4903
tp4904
a(g4443
(S's\x12\x00\x00\x00Deployment Recipes'
tRp4905
I00
S'http://www.web2py.com/book/default/chapter/13'
p4906
tp4907
a(g4443
(S's\r\x00\x00\x00Other Recipes'
tRp4908
I00
S'http://www.web2py.com/book/default/chapter/14'
p4909
tp4910
a(g4443
(S's\r\x00\x00\x00Buy this book'
tRp4911
I00
S'http://stores.lulu.com/web2py'
p4912
tp4913
aasbasbasbasbasbasbasbag68
(g84
g70
NtRp4914
(dp4915
g73
(dp4916
sg82
g4556
sg75
(lp4917
g68
(g89
g70
NtRp4918
(dp4919
g73
(dp4920
sg82
g4914
sg75
(lp4921
g68
(g69
g70
NtRp4922
(dp4923
g73
(dp4924
g81
I2
ssg82
g4918
sg75
(lp4925
g68
(g77
g70
NtRp4926
(dp4927
g73
(dp4928
g81
I1
ssg82
Nsg75
(lp4929
g68
(g84
g70
NtRp4930
(dp4931
g73
(dp4932
sg82
g4926
sg75
(lp4933
g68
(g89
g70
NtRp4934
(dp4935
g73
(dp4936
sg82
g4930
sg75
(lp4937
g68
(g69
g70
NtRp4938
(dp4939
g73
(dp4940
g81
I1
ssg82
g4934
sg75
(lp4941
g4443
(S's\t\x00\x00\x00Community'
tRp4942
asbasbasbag68
(g84
g70
NtRp4943
(dp4944
g73
(dp4945
sg82
g4926
sg75
(lp4946
g68
(g89
g70
NtRp4947
(dp4948
g73
(dp4949
sg82
g4943
sg75
(lp4950
g68
(g69
g70
NtRp4951
(dp4952
g73
(dp4953
g81
I1
ssg82
g4947
sg75
(lp4954
I00
asbasbasbag68
(g84
g70
NtRp4955
(dp4956
g73
(dp4957
sg82
g4926
sg75
(lp4958
g68
(g89
g70
NtRp4959
(dp4960
g73
(dp4961
sg82
g4955
sg75
(lp4962
g68
(g69
g70
NtRp4963
(dp4964
g73
(dp4965
g81
I1
ssg82
g4959
sg75
(lp4966
Nasbasbasbag68
(g84
g70
NtRp4967
(dp4968
g73
(dp4969
sg82
g4926
sg75
(lp4970
g68
(g89
g70
NtRp4971
(dp4972
g73
(dp4973
sg82
g4967
sg75
(lp4974
g68
(g69
g70
NtRp4975
(dp4976
g73
(dp4977
g81
I1
ssg82
g4971
sg75
(lp4978
(lp4979
(g4443
(S's\x06\x00\x00\x00Groups'
tRp4980
I00
S'http://www.web2py.com/examples/default/usergroups'
p4981
tp4982
a(g4443
(S's\x07\x00\x00\x00Twitter'
tRp4983
I00
S'http://twitter.com/web2py'
p4984
tp4985
a(g4443
(S's\t\x00\x00\x00Live Chat'
tRp4986
I00
S'http://webchat.freenode.net/?channels=web2py'
p4987
tp4988
aasbasbasbasbasbasbasbag68
(g84
g70
NtRp4989
(dp4990
g73
(dp4991
sg82
g4556
sg75
(lp4992
g68
(g89
g70
NtRp4993
(dp4994
g73
(dp4995
sg82
g4989
sg75
(lp4996
g68
(g69
g70
NtRp4997
(dp4998
g73
(dp4999
g81
I2
ssg82
g4993
sg75
(lp5000
g68
(g77
g70
NtRp5001
(dp5002
g73
(dp5003
g81
I1
ssg82
Nsg75
(lp5004
g68
(g84
g70
NtRp5005
(dp5006
g73
(dp5007
sg82
g5001
sg75
(lp5008
g68
(g89
g70
NtRp5009
(dp5010
g73
(dp5011
sg82
g5005
sg75
(lp5012
g68
(g69
g70
NtRp5013
(dp5014
g73
(dp5015
g81
I1
ssg82
g5009
sg75
(lp5016
g4443
(S's\x07\x00\x00\x00Plugins'
tRp5017
asbasbasbag68
(g84
g70
NtRp5018
(dp5019
g73
(dp5020
sg82
g5001
sg75
(lp5021
g68
(g89
g70
NtRp5022
(dp5023
g73
(dp5024
sg82
g5018
sg75
(lp5025
g68
(g69
g70
NtRp5026
(dp5027
g73
(dp5028
g81
I1
ssg82
g5022
sg75
(lp5029
I00
asbasbasbag68
(g84
g70
NtRp5030
(dp5031
g73
(dp5032
sg82
g5001
sg75
(lp5033
g68
(g89
g70
NtRp5034
(dp5035
g73
(dp5036
sg82
g5030
sg75
(lp5037
g68
(g69
g70
NtRp5038
(dp5039
g73
(dp5040
g81
I1
ssg82
g5034
sg75
(lp5041
Nasbasbasbag68
(g84
g70
NtRp5042
(dp5043
g73
(dp5044
sg82
g5001
sg75
(lp5045
g68
(g89
g70
NtRp5046
(dp5047
g73
(dp5048
sg82
g5042
sg75
(lp5049
g68
(g69
g70
NtRp5050
(dp5051
g73
(dp5052
g81
I1
ssg82
g5046
sg75
(lp5053
(lp5054
(S'plugin_wiki'
p5055
I00
S'http://web2py.com/examples/default/download'
p5056
tp5057
a(g4443
(S's\r\x00\x00\x00Other Plugins'
tRp5058
I00
g4788
tp5059
a(g4443
(S's\x0e\x00\x00\x00Layout Plugins'
tRp5060
I00
g4791
tp5061
aasbasbasbasbasbasbasbasbasbasbasbasbasbasbasbasbasbasbasbag68
(g84
g70
NtRp5062
(dp5063
g73
(dp5064
sg82
g3909
sg75
(lp5065
g68
(g89
g70
NtRp5066
(dp5067
g73
(dp5068
g93
g94
ssg82
g5062
sg75
(lp5069
S'meta'
p5070
asbag68
(g89
g70
NtRp5071
(dp5072
g73
(dp5073
g100
g101
ssg82
g5062
sg75
(lp5074
S':'
asbag68
(g89
g70
NtRp5075
(dp5076
g73
(dp5077
sg82
g5062
sg75
(lp5078
g68
(g69
g70
NtRp5079
(dp5080
g73
(dp5081
g81
I5
ssg82
g5075
sg75
(lp5082
g68
(g77
g70
NtRp5083
(dp5084
g73
(dp5085
g81
I4
ssg82
Nsg75
(lp5086
g68
(g84
g70
NtRp5087
(dp5088
g73
(dp5089
sg82
g5083
sg75
(lp5090
g68
(g89
g70
NtRp5091
(dp5092
g73
(dp5093
g93
g94
ssg82
g5087
sg75
(lp5094
S'author'
p5095
asbag68
(g89
g70
NtRp5096
(dp5097
g73
(dp5098
g100
g101
ssg82
g5087
sg75
(lp5099
S':'
asbag68
(g89
g70
NtRp5100
(dp5101
g73
(dp5102
sg82
g5087
sg75
(lp5103
g68
(g69
g70
NtRp5104
(dp5105
g73
(dp5106
g81
I4
ssg82
g5100
sg75
(lp5107
S'Your Name <you@example.com>'
p5108
asbasbasbag68
(g84
g70
NtRp5109
(dp5110
g73
(dp5111
sg82
g5083
sg75
(lp5112
g68
(g89
g70
NtRp5113
(dp5114
g73
(dp5115
g93
g94
ssg82
g5109
sg75
(lp5116
S'description'
p5117
asbag68
(g89
g70
NtRp5118
(dp5119
g73
(dp5120
g100
g101
ssg82
g5109
sg75
(lp5121
S':'
asbag68
(g89
g70
NtRp5122
(dp5123
g73
(dp5124
sg82
g5109
sg75
(lp5125
g68
(g69
g70
NtRp5126
(dp5127
g73
(dp5128
g81
I4
ssg82
g5122
sg75
(lp5129
S'a cool new app'
p5130
asbasbasbag68
(g84
g70
NtRp5131
(dp5132
g73
(dp5133
sg82
g5083
sg75
(lp5134
g68
(g89
g70
NtRp5135
(dp5136
g73
(dp5137
g93
g94
ssg82
g5131
sg75
(lp5138
S'generator'
p5139
asbag68
(g89
g70
NtRp5140
(dp5141
g73
(dp5142
g100
g101
ssg82
g5131
sg75
(lp5143
S':'
asbag68
(g89
g70
NtRp5144
(dp5145
g73
(dp5146
sg82
g5131
sg75
(lp5147
g68
(g69
g70
NtRp5148
(dp5149
g73
(dp5150
g81
I4
ssg82
g5144
sg75
(lp5151
S'Web2py Web Framework'
p5152
asbasbasbag68
(g84
g70
NtRp5153
(dp5154
g73
(dp5155
sg82
g5083
sg75
(lp5156
g68
(g89
g70
NtRp5157
(dp5158
g73
(dp5159
g93
g94
ssg82
g5153
sg75
(lp5160
S'keywords'
p5161
asbag68
(g89
g70
NtRp5162
(dp5163
g73
(dp5164
g100
g101
ssg82
g5153
sg75
(lp5165
S':'
asbag68
(g89
g70
NtRp5166
(dp5167
g73
(dp5168
sg82
g5153
sg75
(lp5169
g68
(g69
g70
NtRp5170
(dp5171
g73
(dp5172
g81
I4
ssg82
g5166
sg75
(lp5173
S'web2py, python, framework'
p5174
asbasbasbasbasbasbasbag68
(g84
g70
NtRp5175
(dp5176
g73
(dp5177
sg82
g3909
sg75
(lp5178
g68
(g89
g70
NtRp5179
(dp5180
g73
(dp5181
g93
g94
ssg82
g5175
sg75
(lp5182
S'models_to_run'
p5183
asbag68
(g89
g70
NtRp5184
(dp5185
g73
(dp5186
g100
g101
ssg82
g5175
sg75
(lp5187
S':'
asbag68
(g89
g70
NtRp5188
(dp5189
g73
(dp5190
sg82
g5175
sg75
(lp5191
g68
(g69
g70
NtRp5192
(dp5193
g73
(dp5194
g81
I5
ssg82
g5188
sg75
(lp5195
g68
(g77
g70
NtRp5196
(dp5197
g73
(dp5198
g81
I4
ssg82
Nsg75
(lp5199
g68
(g84
g70
NtRp5200
(dp5201
g73
(dp5202
sg82
g5196
sg75
(lp5203
g68
(g89
g70
NtRp5204
(dp5205
g73
(dp5206
sg82
g5200
sg75
(lp5207
g68
(g69
g70
NtRp5208
(dp5209
g73
(dp5210
g81
I4
ssg82
g5204
sg75
(lp5211
S'^\\w+\\.py$'
p5212
asbasbasbag68
(g84
g70
NtRp5213
(dp5214
g73
(dp5215
sg82
g5196
sg75
(lp5216
g68
(g89
g70
NtRp5217
(dp5218
g73
(dp5219
sg82
g5213
sg75
(lp5220
g68
(g69
g70
NtRp5221
(dp5222
g73
(dp5223
g81
I4
ssg82
g5217
sg75
(lp5224
S'^default/\\w+\\.py$'
p5225
asbasbasbag68
(g84
g70
NtRp5226
(dp5227
g73
(dp5228
sg82
g5196
sg75
(lp5229
g68
(g89
g70
NtRp5230
(dp5231
g73
(dp5232
sg82
g5226
sg75
(lp5233
g68
(g69
g70
NtRp5234
(dp5235
g73
(dp5236
g81
I4
ssg82
g5230
sg75
(lp5237
S'^default/user/\\w+\\.py$'
p5238
asbasbasbasbasbasbasbag68
(g84
g70
NtRp5239
(dp5240
g73
(dp5241
sg82
g3909
sg75
(lp5242
g68
(g89
g70
NtRp5243
(dp5244
g73
(dp5245
g93
g94
ssg82
g5239
sg75
(lp5246
S'postprocessing'
p5247
asbag68
(g89
g70
NtRp5248
(dp5249
g73
(dp5250
g100
g101
ssg82
g5239
sg75
(lp5251
S':'
asbag68
(g89
g70
NtRp5252
(dp5253
g73
(dp5254
sg82
g5239
sg75
(lp5255
g68
(g69
g70
NtRp5256
(dp5257
g73
(dp5258
g81
I5
ssg82
g5252
sg75
(lp5259
g68
(g77
g70
NtRp5260
(dp5261
g73
(dp5262
g81
I4
ssg82
Nsg75
(lp5263
sbasbasbasbag68
(g84
g70
NtRp5264
(dp5265
g73
(dp5266
sg82
g3909
sg75
(lp5267
g68
(g89
g70
NtRp5268
(dp5269
g73
(dp5270
g93
g94
ssg82
g5264
sg75
(lp5271
S'session_cookie_expires'
p5272
asbag68
(g89
g70
NtRp5273
(dp5274
g73
(dp5275
g100
g101
ssg82
g5264
sg75
(lp5276
S':'
asbag68
(g89
g70
NtRp5277
(dp5278
g73
(dp5279
sg82
g5264
sg75
(lp5280
g68
(g69
g70
NtRp5281
(dp5282
g73
(dp5283
g81
I5
ssg82
g5277
sg75
(lp5284
S'None'
p5285
asbasbasbag68
(g84
g70
NtRp5286
(dp5287
g73
(dp5288
sg82
g3909
sg75
(lp5289
g68
(g89
g70
NtRp5290
(dp5291
g73
(dp5292
g93
g94
ssg82
g5286
sg75
(lp5293
S'session_data_name'
p5294
asbag68
(g89
g70
NtRp5295
(dp5296
g73
(dp5297
g100
g101
ssg82
g5286
sg75
(lp5298
S':'
asbag68
(g89
g70
NtRp5299
(dp5300
g73
(dp5301
sg82
g5286
sg75
(lp5302
g68
(g69
g70
NtRp5303
(dp5304
g73
(dp5305
g81
I5
ssg82
g5299
sg75
(lp5306
S'session_data_assignment_2'
p5307
asbasbasbag68
(g84
g70
NtRp5308
(dp5309
g73
(dp5310
sg82
g3909
sg75
(lp5311
g68
(g89
g70
NtRp5312
(dp5313
g73
(dp5314
g93
g94
ssg82
g5308
sg75
(lp5315
S'session_file'
p5316
asbag68
(g89
g70
NtRp5317
(dp5318
g73
(dp5319
g100
g101
ssg82
g5308
sg75
(lp5320
S':'
asbag68
(g89
g70
NtRp5321
(dp5322
g73
(dp5323
sg82
g5308
sg75
(lp5324
g68
(g69
g70
NtRp5325
(dp5326
g73
(dp5327
g81
I5
ssg82
g5321
sg75
(lp5328
S"<open file '/home/shipra/Desktop/Semester 1.2/ITWS-2/web2py/applications/Assignment_2/sessions/127.0.0.1-a1ea54ad-1f50-4df2-bed9-5564e0abdc15', mode 'rb+' at 0x7f41083d99c0>"
p5329
asbasbasbag68
(g84
g70
NtRp5330
(dp5331
g73
(dp5332
sg82
g3909
sg75
(lp5333
g68
(g89
g70
NtRp5334
(dp5335
g73
(dp5336
g93
g94
ssg82
g5330
sg75
(lp5337
S'session_filename'
p5338
asbag68
(g89
g70
NtRp5339
(dp5340
g73
(dp5341
g100
g101
ssg82
g5330
sg75
(lp5342
S':'
asbag68
(g89
g70
NtRp5343
(dp5344
g73
(dp5345
sg82
g5330
sg75
(lp5346
g68
(g69
g70
NtRp5347
(dp5348
g73
(dp5349
g81
I5
ssg82
g5343
sg75
(lp5350
S'/home/shipra/Desktop/Semester 1.2/ITWS-2/web2py/applications/Assignment_2/sessions/127.0.0.1-a1ea54ad-1f50-4df2-bed9-5564e0abdc15'
p5351
asbasbasbag68
(g84
g70
NtRp5352
(dp5353
g73
(dp5354
sg82
g3909
sg75
(lp5355
g68
(g89
g70
NtRp5356
(dp5357
g73
(dp5358
g93
g94
ssg82
g5352
sg75
(lp5359
S'session_id'
p5360
asbag68
(g89
g70
NtRp5361
(dp5362
g73
(dp5363
g100
g101
ssg82
g5352
sg75
(lp5364
S':'
asbag68
(g89
g70
NtRp5365
(dp5366
g73
(dp5367
sg82
g5352
sg75
(lp5368
g68
(g69
g70
NtRp5369
(dp5370
g73
(dp5371
g81
I5
ssg82
g5365
sg75
(lp5372
g685
asbasbasbag68
(g84
g70
NtRp5373
(dp5374
g73
(dp5375
sg82
g3909
sg75
(lp5376
g68
(g89
g70
NtRp5377
(dp5378
g73
(dp5379
g93
g94
ssg82
g5373
sg75
(lp5380
S'session_id_name'
p5381
asbag68
(g89
g70
NtRp5382
(dp5383
g73
(dp5384
g100
g101
ssg82
g5373
sg75
(lp5385
S':'
asbag68
(g89
g70
NtRp5386
(dp5387
g73
(dp5388
sg82
g5373
sg75
(lp5389
g68
(g69
g70
NtRp5390
(dp5391
g73
(dp5392
g81
I5
ssg82
g5386
sg75
(lp5393
g3966
asbasbasbag68
(g84
g70
NtRp5394
(dp5395
g73
(dp5396
sg82
g3909
sg75
(lp5397
g68
(g89
g70
NtRp5398
(dp5399
g73
(dp5400
g93
g94
ssg82
g5394
sg75
(lp5401
S'session_locked'
p5402
asbag68
(g89
g70
NtRp5403
(dp5404
g73
(dp5405
g100
g101
ssg82
g5394
sg75
(lp5406
S':'
asbag68
(g89
g70
NtRp5407
(dp5408
g73
(dp5409
sg82
g5394
sg75
(lp5410
g68
(g69
g70
NtRp5411
(dp5412
g73
(dp5413
g81
I5
ssg82
g5407
sg75
(lp5414
g1983
asbasbasbag68
(g84
g70
NtRp5415
(dp5416
g73
(dp5417
sg82
g3909
sg75
(lp5418
g68
(g89
g70
NtRp5419
(dp5420
g73
(dp5421
g93
g94
ssg82
g5415
sg75
(lp5422
S'session_new'
p5423
asbag68
(g89
g70
NtRp5424
(dp5425
g73
(dp5426
g100
g101
ssg82
g5415
sg75
(lp5427
S':'
asbag68
(g89
g70
NtRp5428
(dp5429
g73
(dp5430
sg82
g5415
sg75
(lp5431
g68
(g69
g70
NtRp5432
(dp5433
g73
(dp5434
g81
I5
ssg82
g5428
sg75
(lp5435
g111
asbasbasbag68
(g84
g70
NtRp5436
(dp5437
g73
(dp5438
sg82
g3909
sg75
(lp5439
g68
(g89
g70
NtRp5440
(dp5441
g73
(dp5442
g93
g94
ssg82
g5436
sg75
(lp5443
S'session_storage_type'
p5444
asbag68
(g89
g70
NtRp5445
(dp5446
g73
(dp5447
g100
g101
ssg82
g5436
sg75
(lp5448
S':'
asbag68
(g89
g70
NtRp5449
(dp5450
g73
(dp5451
sg82
g5436
sg75
(lp5452
g68
(g69
g70
NtRp5453
(dp5454
g73
(dp5455
g81
I5
ssg82
g5449
sg75
(lp5456
g3417
asbasbasbag68
(g84
g70
NtRp5457
(dp5458
g73
(dp5459
sg82
g3909
sg75
(lp5460
g68
(g89
g70
NtRp5461
(dp5462
g73
(dp5463
g93
g94
ssg82
g5457
sg75
(lp5464
S'status'
p5465
asbag68
(g89
g70
NtRp5466
(dp5467
g73
(dp5468
g100
g101
ssg82
g5457
sg75
(lp5469
S':'
asbag68
(g89
g70
NtRp5470
(dp5471
g73
(dp5472
sg82
g5457
sg75
(lp5473
g68
(g69
g70
NtRp5474
(dp5475
g73
(dp5476
g81
I5
ssg82
g5470
sg75
(lp5477
S'200'
p5478
asbasbasbag68
(g84
g70
NtRp5479
(dp5480
g73
(dp5481
sg82
g3909
sg75
(lp5482
g68
(g89
g70
NtRp5483
(dp5484
g73
(dp5485
g93
g94
ssg82
g5479
sg75
(lp5486
S'subtitle'
p5487
asbag68
(g89
g70
NtRp5488
(dp5489
g73
(dp5490
g100
g101
ssg82
g5479
sg75
(lp5491
S':'
asbag68
(g89
g70
NtRp5492
(dp5493
g73
(dp5494
sg82
g5479
sg75
(lp5495
g68
(g69
g70
NtRp5496
(dp5497
g73
(dp5498
g81
I5
ssg82
g5492
sg75
(lp5499
g4443
(S's\r\x00\x00\x00customize me!'
tRp5500
asbasbasbag68
(g84
g70
NtRp5501
(dp5502
g73
(dp5503
sg82
g3909
sg75
(lp5504
g68
(g89
g70
NtRp5505
(dp5506
g73
(dp5507
g93
g94
ssg82
g5501
sg75
(lp5508
S'title'
p5509
asbag68
(g89
g70
NtRp5510
(dp5511
g73
(dp5512
g100
g101
ssg82
g5501
sg75
(lp5513
S':'
asbag68
(g89
g70
NtRp5514
(dp5515
g73
(dp5516
sg82
g5501
sg75
(lp5517
g68
(g69
g70
NtRp5518
(dp5519
g73
(dp5520
g81
I5
ssg82
g5514
sg75
(lp5521
S'Assignment 2'
p5522
asbasbasbag68
(g84
g70
NtRp5523
(dp5524
g73
(dp5525
sg82
g3909
sg75
(lp5526
g68
(g89
g70
NtRp5527
(dp5528
g73
(dp5529
g93
g94
ssg82
g5523
sg75
(lp5530
S'view'
p5531
asbag68
(g89
g70
NtRp5532
(dp5533
g73
(dp5534
g100
g101
ssg82
g5523
sg75
(lp5535
S':'
asbag68
(g89
g70
NtRp5536
(dp5537
g73
(dp5538
sg82
g5523
sg75
(lp5539
g68
(g69
g70
NtRp5540
(dp5541
g73
(dp5542
g81
I5
ssg82
g5536
sg75
(lp5543
S'default/user.html'
p5544
asbasbasbasbasbsS'locals'
p5545
(dp5546
g4
S"'/home/shipra/Desktop/Semester 1.2/ITWS-2/web2py/applications/Assignment_2/controllers/default.py'"
p5547
sg6
S"'# -*- coding: utf-8 -*-\\n# this file is released ...m=crud())\\n\\nresponse._vars=response._caller(user)\\n'"
p5548
sssS'traceback'
p5549
S'Traceback (most recent call last):\n  File "/home/shipra/Desktop/Semester 1.2/ITWS-2/web2py/gluon/restricted.py", line 211, in restricted\n    ccode = compile2(code, layer)\n  File "/home/shipra/Desktop/Semester 1.2/ITWS-2/web2py/gluon/restricted.py", line 194, in compile2\n    return compile(code.rstrip().replace(\'\\r\\n\', \'\\n\') + \'\\n\', layer, \'exec\')\n  File "/home/shipra/Desktop/Semester 1.2/ITWS-2/web2py/applications/Assignment_2/controllers/default.py", line 15\n    if auth.user:\n   ^\nIndentationError: unexpected indent\n'
p5550
s.