(dp1
S'output'
p2
S"<type 'exceptions.SyntaxError'> invalid syntax (index.html, line 83)"
p3
sS'layer'
p4
S'/home/shipra/Desktop/Semester 1.2/ITWS-2/web2py/applications/Assignment_2/views/default/index.html'
p5
sS'code'
p6
S'left_sidebar_enabled,right_sidebar_enabled=False,(\'message\' in globals())\nresponse.write(\'\\n\', escape=False)\nresponse.write(\'<!DOCTYPE html>\\n<!-- paulirish.com/2008/conditional-stylesheets-vs-css-hacks-answer-neither/ -->\\n<!--[if lt IE 7]><html class="ie ie6 ie-lte9 ie-lte8 ie-lte7 no-js" lang="\', escape=False)\nresponse.write(T.accepted_language or \'en\')\nresponse.write(\'"> <![endif]-->\\n<!--[if IE 7]><html class="ie ie7 ie-lte9 ie-lte8 ie-lte7 no-js" lang="\', escape=False)\nresponse.write(T.accepted_language or \'en\')\nresponse.write(\'"> <![endif]-->\\n<!--[if IE 8]><html class="ie ie8 ie-lte9 ie-lte8 no-js" lang="\', escape=False)\nresponse.write(T.accepted_language or \'en\')\nresponse.write(\'"> <![endif]-->\\n<!--[if IE 9]><html class="ie9 ie-lte9 no-js" lang="\', escape=False)\nresponse.write(T.accepted_language or \'en\')\nresponse.write(\'"> <![endif]-->\\n<!--[if (gt IE 9)|!(IE)]><!--> <html class="no-js" lang="\', escape=False)\nresponse.write(T.accepted_language or \'en\')\nresponse.write(\'"> <!--<![endif]-->\\n<head>\\n  <meta charset="utf-8" />\\n  <!-- www.phpied.com/conditional-comments-block-downloads/ -->\\n  <!-- Always force latest IE rendering engine\\n       (even in intranet) & Chrome Frame\\n       Remove this if you use the .htaccess -->\\n  <!--[if IE]>\\n      <meta http-equiv="X-UA-Compatible" content="IE=edge\', escape=False)\nresponse.write(not request.is_local and \',chrome=1\' or \'\')\nresponse.write(\'">\\n      <![endif]-->\\n\\n  <title>\', escape=False)\nresponse.write(response.title or request.application)\nresponse.write(\'</title>\\n\\n  <!-- http://dev.w3.org/html5/markup/meta.name.html -->\\n  <meta name="application-name" content="\', escape=False)\nresponse.write(request.application)\nresponse.write(\'" />\\n\\n  <!-- Speaking of Google, don\\\'t forget to set your site up:\\n       http://google.com/webmasters -->\\n  <meta name="google-site-verification" content="" />\\n\\n  <!--  Mobile Viewport Fix\\n        j.mp/mobileviewport & davidbcalhoun.com/2010/viewport-metatag\\n        device-width: Occupy full width of the screen in its current orientation\\n        initial-scale = 1.0 retains dimensions instead of zooming out if page height > device height\\n        user-scalable = yes allows the user to zoom in -->\\n  <meta name="viewport" content="width=device-width, initial-scale=1.0" />\\n\\n  <link rel="shortcut icon" href="\', escape=False)\nresponse.write(URL(\'static\',\'images/favicon.ico\'))\nresponse.write(\'" type="image/x-icon">\\n  <link rel="apple-touch-icon" href="\', escape=False)\nresponse.write(URL(\'static\',\'images/favicon.png\'))\nresponse.write(\'">\\n\\n  <!-- All JavaScript at the bottom, except for Modernizr which enables\\n       HTML5 elements & feature detects -->\\n  <script src="\', escape=False)\nresponse.write(URL(\'static\',\'js/modernizr.custom.js\'))\nresponse.write(\'"></script>\\n\\n  <!-- include stylesheets -->\\n  \', escape=False)\nresponse.files.append(URL(\'static\',\'css/web2py.css\'))\nresponse.files.append(URL(\'static\',\'css/bootstrap.min.css\'))\nresponse.files.append(URL(\'static\',\'css/bootstrap-responsive.min.css\'))\nresponse.files.append(URL(\'static\',\'css/web2py_bootstrap.css\'))\nresponse.write(\'\\n\\n  \', escape=False)\nresponse.write(\'<script type="text/javascript"><!--\\n    // These variables are used by the web2py_ajax_init function in web2py_ajax.js (which is loaded below).\\n    var w2p_ajax_confirm_message = "\', escape=False)\nresponse.write(T(\'Are you sure you want to delete this object?\'))\nresponse.write(\'";\\n    var w2p_ajax_date_format = "\', escape=False)\nresponse.write(T(\'%Y-%m-%d\'))\nresponse.write(\'";\\n    var w2p_ajax_datetime_format = "\', escape=False)\nresponse.write(T(\'%Y-%m-%d %H:%M:%S\'))\nresponse.write(\'";\\n    //--></script>\\n\', escape=False)\nresponse.files.insert(0,URL(\'static\',\'js/jquery.js\'))\nresponse.files.insert(1,URL(\'static\',\'css/calendar.css\'))\nresponse.files.insert(2,URL(\'static\',\'js/calendar.js\'))\nresponse.files.insert(3,URL(\'static\',\'js/web2py.js\'))\nresponse.include_meta()\nresponse.include_files()\nresponse.write(\'\\n\', escape=False)\nresponse.write(\'\\n\\n  \', escape=False)\n# using sidebars need to know what sidebar you want to use\nleft_sidebar_enabled = globals().get(\'left_sidebar_enabled\',False)\nright_sidebar_enabled = globals().get(\'right_sidebar_enabled\',False)\nmiddle_columns = {0:\'span12\',1:\'span9\',2:\'span6\'}[\n(left_sidebar_enabled and 1 or 0)+(right_sidebar_enabled and 1 or 0)]\nresponse.write(\'\\n\\n  <!-- uncomment here to load jquery-ui\\n       <link rel="stylesheet" href="http://ajax.googleapis.com/ajax/libs/jqueryui/1.8.16/themes/base/jquery-ui.css" type="text/css" media="all" />\\n       <script src="http://ajax.googleapis.com/ajax/libs/jqueryui/1.8.16/jquery-ui.min.js" type="text/javascript"></script>\\n       uncomment to load jquery-ui //-->\\n  <noscript><link href="\', escape=False)\nresponse.write(URL(\'static\', \'css/web2py_bootstrap_nojs.css\'))\nresponse.write(\'" rel="stylesheet" type="text/css" /></noscript>\\n  \', escape=False)\nresponse.write(\'\\n</head>\\n\\n<body>\\n  <!-- Navbar ================================================== -->\\n  <div class="navbar navbar-inverse navbar-fixed-top">\\n    <div class="flash">\', escape=False)\nresponse.write(response.flash or \'\')\nresponse.write(\'</div>\\n    <div class="navbar-inner">\\n      <div class="container">\\n        <!-- the next tag is necessary for bootstrap menus, do not remove -->\\n        <button type="button" class="btn btn-navbar" data-toggle="collapse" data-target=".nav-collapse">\\n          <span class="icon-bar"></span>\\n          <span class="icon-bar"></span>\\n          <span class="icon-bar"></span>\\n        </button>\\n\\t\', escape=False)\nresponse.write(response.logo or \'\')\nresponse.write(\'\\n        <ul id="navbar" class="nav pull-right">\', escape=False)\nresponse.write(\'auth\' in globals() and auth.navbar(mode="dropdown") or \'\')\nresponse.write(\'</ul>\\n        <div class="nav-collapse">\\n          \', escape=False)\nis_mobile=request.user_agent().is_mobile\nresponse.write(\'\\n          \', escape=False)\nif response.menu:\n    response.write(\'\\n          \', escape=False)\n    response.write(MENU(response.menu, _class=\'mobile-menu nav\' if is_mobile else \'nav\',mobile=is_mobile,li_class=\'dropdown\',ul_class=\'dropdown-menu\'))\n    response.write(\'\\n          \', escape=False)\n    pass\nresponse.write(\'\\n        </div><!--/.nav-collapse -->\\n      </div>\\n    </div>\\n  </div><!--/top navbar -->\\n\\n  <div class="container">\\n    <!-- Masthead ================================================== -->\\n    <header class="mastheader row" id="header">\\n        <div class="span12">\\n            <div class="page-header">\\n                <h1>\\n                    \', escape=False)\nresponse.write(response.title or request.application)\nresponse.write(\'\\n                    <small>\', escape=False)\nresponse.write(response.subtitle or \'\')\nresponse.write(\'</small>\\n                </h1>\\n            </div>\\n        </div>\\n    </header>\\n\\n    <section id="main" class="main row">\\n        \', escape=False)\nif left_sidebar_enabled:\n    response.write(\'\\n        <div class="span3 left-sidebar">\\n            \', escape=False)\n    response.write(\'\\n            <h3>Left Sidebar</h3>\\n            <p></p>\\n            \', escape=False)\n    response.write(\'\\n        </div>\\n        \', escape=False)\n    pass\nresponse.write(\'\\n\\n        <div class="\', escape=False)\nresponse.write(middle_columns)\nresponse.write(\'">\\n            \', escape=False)\nresponse.write(\'\\n            \', escape=False)\nresponse.write(\'\\n \\n<h1>Login Done</h1>\\n\', escape=False)\n(if c1=="admin" and c2==12345) :\n    response.write(\'\\n <h1> Admin </h1>\\n \', escape=False)\n    pass\nresponse.write(\'\\n\\n\', escape=False)\nresponse.write(\'\\n            \', escape=False)\nresponse.write(\'\\n        </div>\\n\\n        \', escape=False)\nif right_sidebar_enabled:\n    response.write(\'\\n        <div class="span3">\\n            \', escape=False)\n    response.write(\'\\n            <h3>Right Sidebar</h3>\\n            <p></p>\\n            \', escape=False)\n    response.write(\'\\n        </div>\\n        \', escape=False)\n    pass\nresponse.write(\'\\n    </section><!--/main-->\\n\\n    <!-- Footer ================================================== -->\\n    <div class="row">\\n        <footer class="footer span12" id="footer">\\n            <div class="footer-content">\\n                \', escape=False)\nresponse.write(\' <!-- this is default footer -->\\n                <div class="copyright pull-left">\', escape=False)\nresponse.write(T(\'Copyright\'))\nresponse.write(\' &#169; \', escape=False)\nresponse.write(request.now.year)\nresponse.write(\'</div>\\n                <div id="poweredBy" class="pull-right">\\n                    \', escape=False)\nresponse.write(T(\'Powered by\'))\nresponse.write(\'\\n                    <a href="http://www.web2py.com/">web2py</a>\\n                </div>\\n                \', escape=False)\nresponse.write(\'\\n            </div>\\n        </footer>\\n    </div>\\n\\n  </div> <!-- /container -->\\n\\n  <!-- The javascript =============================================\\n       (Placed at the end of the document so the pages load faster) -->\\n  <script src="\', escape=False)\nresponse.write(URL(\'static\',\'js/bootstrap.min.js\'))\nresponse.write(\'"></script>\\n  <script src="\', escape=False)\nresponse.write(URL(\'static\',\'js/web2py_bootstrap.js\'))\nresponse.write(\'"></script>\\n  <!--[if lt IE 7 ]>\\n      <script src="\', escape=False)\nresponse.write(URL(\'static\',\'js/dd_belatedpng.js\'))\nresponse.write(\'"></script>\\n      <script> DD_belatedPNG.fix(\\\'img, .png_bg\\\'); //fix any <img> or .png_bg background-images </script>\\n      <![endif]-->\\n  \\n  \', escape=False)\nif response.google_analytics_id:\n    response.write(\'\\n  <script src="\', escape=False)\n    response.write(URL(\'static\',\'js/analytics.js\'))\n    response.write(\'"></script>\\n  <script type="text/javascript">\\n  analytics.initialize({\\n    \\\'Google Analytics\\\':{trackingId:\\\'\', escape=False)\n    response.write(response.google_analytics_id)\n    response.write("\'} \\n  });</script>\\n  ", escape=False)\n    pass\nresponse.write(\'\\n  <script src="\', escape=False)\nresponse.write(URL(\'static\',\'js/share.js\',vars=dict(static=URL(\'static\',\'images\'))))\nresponse.write(\'"></script>\\n</body>\\n</html>\\n\\n\', escape=False)'
p7
sS'snapshot'
p8
(dp9
S'exception'
p10
(dp11
S'__getslice__'
p12
S"<method-wrapper '__getslice__' of exceptions.SyntaxError object>"
p13
sS'text'
p14
S'\'(if c1=="admin" and c2==12345) :\\n\''
p15
sS'__str__'
p16
S"<method-wrapper '__str__' of exceptions.SyntaxError object>"
p17
sS'__reduce__'
p18
S'<built-in method __reduce__ of exceptions.SyntaxError object>'
p19
sS'__dict__'
p20
S'{}'
p21
sS'__sizeof__'
p22
S'<built-in method __sizeof__ of exceptions.SyntaxError object>'
p23
sS'__init__'
p24
S"<method-wrapper '__init__' of exceptions.SyntaxError object>"
p25
sS'__setattr__'
p26
S"<method-wrapper '__setattr__' of exceptions.SyntaxError object>"
p27
sS'__reduce_ex__'
p28
S'<built-in method __reduce_ex__ of exceptions.SyntaxError object>'
p29
sS'__new__'
p30
S'<built-in method __new__ of type object>'
p31
sS'__format__'
p32
S'<built-in method __format__ of exceptions.SyntaxError object>'
p33
sS'__class__'
p34
S"<type 'exceptions.SyntaxError'>"
p35
sS'filename'
p36
S"'/home/shipra/Desktop/Semester 1.2/ITWS-2/web2py/applications/Assignment_2/views/default/index.html'"
p37
sS'lineno'
p38
S'83'
p39
sS'msg'
p40
S"'invalid syntax'"
p41
sS'__doc__'
p42
S"'Invalid syntax.'"
p43
sS'__getitem__'
p44
S"<method-wrapper '__getitem__' of exceptions.SyntaxError object>"
p45
sS'__setstate__'
p46
S'<built-in method __setstate__ of exceptions.SyntaxError object>'
p47
sS'__getattribute__'
p48
S"<method-wrapper '__getattribute__' of exceptions.SyntaxError object>"
p49
sS'print_file_and_line'
p50
S'None'
p51
sS'args'
p52
S'(\'invalid syntax\', (\'/home/shipra/Desktop/Semester 1.2/ITWS-2/web2py/applications/Assignment_2/views/default/index.html\', 83, 3, \'(if c1=="admin" and c2==12345) :\\n\'))'
p53
sS'__subclasshook__'
p54
S'<built-in method __subclasshook__ of type object>'
p55
sS'offset'
p56
S'3'
sS'__unicode__'
p57
S'<built-in method __unicode__ of exceptions.SyntaxError object>'
p58
sS'__delattr__'
p59
S"<method-wrapper '__delattr__' of exceptions.SyntaxError object>"
p60
sS'__repr__'
p61
S"<method-wrapper '__repr__' of exceptions.SyntaxError object>"
p62
sS'__hash__'
p63
S"<method-wrapper '__hash__' of exceptions.SyntaxError object>"
p64
ssS'evalue'
p65
S'invalid syntax (index.html, line 83)'
p66
sS'request'
p67
ccopy_reg
_reconstructor
p68
(cgluon.html
BEAUTIFY
p69
c__builtin__
object
p70
NtRp71
(dp72
S'attributes'
p73
(dp74
sS'components'
p75
(lp76
g68
(cgluon.html
TABLE
p77
g70
NtRp78
(dp79
g73
(dp80
S'level'
p81
I5
ssS'parent'
p82
Nsg75
(lp83
g68
(cgluon.html
TR
p84
g70
NtRp85
(dp86
g73
(dp87
sg82
g78
sg75
(lp88
g68
(cgluon.html
TD
p89
g70
NtRp90
(dp91
g73
(dp92
S'_style'
p93
S'font-weight:bold;vertical-align:top'
p94
ssg82
g85
sg75
(lp95
S'ajax'
p96
asbag68
(g89
g70
NtRp97
(dp98
g73
(dp99
S'_valign'
p100
S'top'
p101
ssg82
g85
sg75
(lp102
S':'
asbag68
(g89
g70
NtRp103
(dp104
g73
(dp105
sg82
g85
sg75
(lp106
g68
(g69
g70
NtRp107
(dp108
g73
(dp109
g81
I5
ssg82
g103
sg75
(lp110
S'False'
p111
asbasbasbag68
(g84
g70
NtRp112
(dp113
g73
(dp114
sg82
g78
sg75
(lp115
g68
(g89
g70
NtRp116
(dp117
g73
(dp118
g93
g94
ssg82
g112
sg75
(lp119
S'application'
p120
asbag68
(g89
g70
NtRp121
(dp122
g73
(dp123
g100
g101
ssg82
g112
sg75
(lp124
S':'
asbag68
(g89
g70
NtRp125
(dp126
g73
(dp127
sg82
g112
sg75
(lp128
g68
(g69
g70
NtRp129
(dp130
g73
(dp131
g81
I5
ssg82
g125
sg75
(lp132
S'Assignment_2'
p133
asbasbasbag68
(g84
g70
NtRp134
(dp135
g73
(dp136
sg82
g78
sg75
(lp137
g68
(g89
g70
NtRp138
(dp139
g73
(dp140
g93
g94
ssg82
g134
sg75
(lp141
g52
asbag68
(g89
g70
NtRp142
(dp143
g73
(dp144
g100
g101
ssg82
g134
sg75
(lp145
S':'
asbag68
(g89
g70
NtRp146
(dp147
g73
(dp148
sg82
g134
sg75
(lp149
g68
(g69
g70
NtRp150
(dp151
g73
(dp152
g81
I5
ssg82
g146
sg75
(lp153
g68
(g77
g70
NtRp154
(dp155
g73
(dp156
g81
I4
ssg82
Nsg75
(lp157
sbasbasbasbag68
(g84
g70
NtRp158
(dp159
g73
(dp160
sg82
g78
sg75
(lp161
g68
(g89
g70
NtRp162
(dp163
g73
(dp164
g93
g94
ssg82
g158
sg75
(lp165
S'body'
p166
asbag68
(g89
g70
NtRp167
(dp168
g73
(dp169
g100
g101
ssg82
g158
sg75
(lp170
S':'
asbag68
(g89
g70
NtRp171
(dp172
g73
(dp173
sg82
g158
sg75
(lp174
g68
(g69
g70
NtRp175
(dp176
g73
(dp177
g81
I5
ssg82
g171
sg75
(lp178
S'<cStringIO.StringO object at 0x7f030829c110>'
p179
asbasbasbag68
(g84
g70
NtRp180
(dp181
g73
(dp182
sg82
g78
sg75
(lp183
g68
(g89
g70
NtRp184
(dp185
g73
(dp186
g93
g94
ssg82
g180
sg75
(lp187
S'cid'
p188
asbag68
(g89
g70
NtRp189
(dp190
g73
(dp191
g100
g101
ssg82
g180
sg75
(lp192
S':'
asbag68
(g89
g70
NtRp193
(dp194
g73
(dp195
sg82
g180
sg75
(lp196
g68
(g69
g70
NtRp197
(dp198
g73
(dp199
g81
I5
ssg82
g193
sg75
(lp200
S'None'
p201
asbasbasbag68
(g84
g70
NtRp202
(dp203
g73
(dp204
sg82
g78
sg75
(lp205
g68
(g89
g70
NtRp206
(dp207
g73
(dp208
g93
g94
ssg82
g202
sg75
(lp209
S'client'
p210
asbag68
(g89
g70
NtRp211
(dp212
g73
(dp213
g100
g101
ssg82
g202
sg75
(lp214
S':'
asbag68
(g89
g70
NtRp215
(dp216
g73
(dp217
sg82
g202
sg75
(lp218
g68
(g69
g70
NtRp219
(dp220
g73
(dp221
g81
I5
ssg82
g215
sg75
(lp222
S'127.0.0.1'
p223
asbasbasbag68
(g84
g70
NtRp224
(dp225
g73
(dp226
sg82
g78
sg75
(lp227
g68
(g89
g70
NtRp228
(dp229
g73
(dp230
g93
g94
ssg82
g224
sg75
(lp231
S'controller'
p232
asbag68
(g89
g70
NtRp233
(dp234
g73
(dp235
g100
g101
ssg82
g224
sg75
(lp236
S':'
asbag68
(g89
g70
NtRp237
(dp238
g73
(dp239
sg82
g224
sg75
(lp240
g68
(g69
g70
NtRp241
(dp242
g73
(dp243
g81
I5
ssg82
g237
sg75
(lp244
S'default'
p245
asbasbasbag68
(g84
g70
NtRp246
(dp247
g73
(dp248
sg82
g78
sg75
(lp249
g68
(g89
g70
NtRp250
(dp251
g73
(dp252
g93
g94
ssg82
g246
sg75
(lp253
S'cookies'
p254
asbag68
(g89
g70
NtRp255
(dp256
g73
(dp257
g100
g101
ssg82
g246
sg75
(lp258
S':'
asbag68
(g89
g70
NtRp259
(dp260
g73
(dp261
sg82
g246
sg75
(lp262
g68
(g69
g70
NtRp263
(dp264
g73
(dp265
g81
I5
ssg82
g259
sg75
(lp266
g68
(g77
g70
NtRp267
(dp268
g73
(dp269
g81
I4
ssg82
Nsg75
(lp270
g68
(g84
g70
NtRp271
(dp272
g73
(dp273
sg82
g267
sg75
(lp274
g68
(g89
g70
NtRp275
(dp276
g73
(dp277
g93
g94
ssg82
g271
sg75
(lp278
S'mp_2093ad9ff9c5428a2228386de2f2b0e4_mixpanel'
p279
asbag68
(g89
g70
NtRp280
(dp281
g73
(dp282
g100
g101
ssg82
g271
sg75
(lp283
S':'
asbag68
(g89
g70
NtRp284
(dp285
g73
(dp286
sg82
g271
sg75
(lp287
g68
(g69
g70
NtRp288
(dp289
g73
(dp290
g81
I4
ssg82
g284
sg75
(lp291
S'%7B%22distinct_id%22%3A%20%2262ffc2d0-7b9f-0130-efb0-22000a1cbb2a%22%2C%22is_registered_user%22%3A%20false%2C%22%24initial_referrer%22%3A%20%22%24direct%22%2C%22%24initial_referring_domain%22%3A%20%22%24direct%22%7D'
p292
ag68
(g77
g70
NtRp293
(dp294
g73
(dp295
g81
I3
ssg82
Nsg75
(lp296
g68
(g84
g70
NtRp297
(dp298
g73
(dp299
sg82
g293
sg75
(lp300
g68
(g89
g70
NtRp301
(dp302
g73
(dp303
g93
g94
ssg82
g297
sg75
(lp304
S'comment'
p305
asbag68
(g89
g70
NtRp306
(dp307
g73
(dp308
g100
g101
ssg82
g297
sg75
(lp309
S':'
asbag68
(g89
g70
NtRp310
(dp311
g73
(dp312
sg82
g297
sg75
(lp313
g68
(g69
g70
NtRp314
(dp315
g73
(dp316
g81
I3
ssg82
g310
sg75
(lp317
S''
asbasbasbag68
(g84
g70
NtRp318
(dp319
g73
(dp320
sg82
g293
sg75
(lp321
g68
(g89
g70
NtRp322
(dp323
g73
(dp324
g93
g94
ssg82
g318
sg75
(lp325
S'domain'
p326
asbag68
(g89
g70
NtRp327
(dp328
g73
(dp329
g100
g101
ssg82
g318
sg75
(lp330
S':'
asbag68
(g89
g70
NtRp331
(dp332
g73
(dp333
sg82
g318
sg75
(lp334
g68
(g69
g70
NtRp335
(dp336
g73
(dp337
g81
I3
ssg82
g331
sg75
(lp338
S''
asbasbasbag68
(g84
g70
NtRp339
(dp340
g73
(dp341
sg82
g293
sg75
(lp342
g68
(g89
g70
NtRp343
(dp344
g73
(dp345
g93
g94
ssg82
g339
sg75
(lp346
S'expires'
p347
asbag68
(g89
g70
NtRp348
(dp349
g73
(dp350
g100
g101
ssg82
g339
sg75
(lp351
S':'
asbag68
(g89
g70
NtRp352
(dp353
g73
(dp354
sg82
g339
sg75
(lp355
g68
(g69
g70
NtRp356
(dp357
g73
(dp358
g81
I3
ssg82
g352
sg75
(lp359
S''
asbasbasbag68
(g84
g70
NtRp360
(dp361
g73
(dp362
sg82
g293
sg75
(lp363
g68
(g89
g70
NtRp364
(dp365
g73
(dp366
g93
g94
ssg82
g360
sg75
(lp367
S'httponly'
p368
asbag68
(g89
g70
NtRp369
(dp370
g73
(dp371
g100
g101
ssg82
g360
sg75
(lp372
S':'
asbag68
(g89
g70
NtRp373
(dp374
g73
(dp375
sg82
g360
sg75
(lp376
g68
(g69
g70
NtRp377
(dp378
g73
(dp379
g81
I3
ssg82
g373
sg75
(lp380
S''
asbasbasbag68
(g84
g70
NtRp381
(dp382
g73
(dp383
sg82
g293
sg75
(lp384
g68
(g89
g70
NtRp385
(dp386
g73
(dp387
g93
g94
ssg82
g381
sg75
(lp388
S'max-age'
p389
asbag68
(g89
g70
NtRp390
(dp391
g73
(dp392
g100
g101
ssg82
g381
sg75
(lp393
S':'
asbag68
(g89
g70
NtRp394
(dp395
g73
(dp396
sg82
g381
sg75
(lp397
g68
(g69
g70
NtRp398
(dp399
g73
(dp400
g81
I3
ssg82
g394
sg75
(lp401
S''
asbasbasbag68
(g84
g70
NtRp402
(dp403
g73
(dp404
sg82
g293
sg75
(lp405
g68
(g89
g70
NtRp406
(dp407
g73
(dp408
g93
g94
ssg82
g402
sg75
(lp409
S'path'
p410
asbag68
(g89
g70
NtRp411
(dp412
g73
(dp413
g100
g101
ssg82
g402
sg75
(lp414
S':'
asbag68
(g89
g70
NtRp415
(dp416
g73
(dp417
sg82
g402
sg75
(lp418
g68
(g69
g70
NtRp419
(dp420
g73
(dp421
g81
I3
ssg82
g415
sg75
(lp422
S''
asbasbasbag68
(g84
g70
NtRp423
(dp424
g73
(dp425
sg82
g293
sg75
(lp426
g68
(g89
g70
NtRp427
(dp428
g73
(dp429
g93
g94
ssg82
g423
sg75
(lp430
S'secure'
p431
asbag68
(g89
g70
NtRp432
(dp433
g73
(dp434
g100
g101
ssg82
g423
sg75
(lp435
S':'
asbag68
(g89
g70
NtRp436
(dp437
g73
(dp438
sg82
g423
sg75
(lp439
g68
(g69
g70
NtRp440
(dp441
g73
(dp442
g81
I3
ssg82
g436
sg75
(lp443
S''
asbasbasbag68
(g84
g70
NtRp444
(dp445
g73
(dp446
sg82
g293
sg75
(lp447
g68
(g89
g70
NtRp448
(dp449
g73
(dp450
g93
g94
ssg82
g444
sg75
(lp451
S'version'
p452
asbag68
(g89
g70
NtRp453
(dp454
g73
(dp455
g100
g101
ssg82
g444
sg75
(lp456
S':'
asbag68
(g89
g70
NtRp457
(dp458
g73
(dp459
sg82
g444
sg75
(lp460
g68
(g69
g70
NtRp461
(dp462
g73
(dp463
g81
I3
ssg82
g457
sg75
(lp464
S''
asbasbasbasbasbasbasbag68
(g84
g70
NtRp465
(dp466
g73
(dp467
sg82
g267
sg75
(lp468
g68
(g89
g70
NtRp469
(dp470
g73
(dp471
g93
g94
ssg82
g465
sg75
(lp472
S'session_id_admin'
p473
asbag68
(g89
g70
NtRp474
(dp475
g73
(dp476
g100
g101
ssg82
g465
sg75
(lp477
S':'
asbag68
(g89
g70
NtRp478
(dp479
g73
(dp480
sg82
g465
sg75
(lp481
g68
(g69
g70
NtRp482
(dp483
g73
(dp484
g81
I4
ssg82
g478
sg75
(lp485
S'127.0.0.1-7295bb48-d4d7-44d0-a917-628a1a99c2a6'
p486
ag68
(g77
g70
NtRp487
(dp488
g73
(dp489
g81
I3
ssg82
Nsg75
(lp490
g68
(g84
g70
NtRp491
(dp492
g73
(dp493
sg82
g487
sg75
(lp494
g68
(g89
g70
NtRp495
(dp496
g73
(dp497
g93
g94
ssg82
g491
sg75
(lp498
g305
asbag68
(g89
g70
NtRp499
(dp500
g73
(dp501
g100
g101
ssg82
g491
sg75
(lp502
S':'
asbag68
(g89
g70
NtRp503
(dp504
g73
(dp505
sg82
g491
sg75
(lp506
g68
(g69
g70
NtRp507
(dp508
g73
(dp509
g81
I3
ssg82
g503
sg75
(lp510
S''
asbasbasbag68
(g84
g70
NtRp511
(dp512
g73
(dp513
sg82
g487
sg75
(lp514
g68
(g89
g70
NtRp515
(dp516
g73
(dp517
g93
g94
ssg82
g511
sg75
(lp518
g326
asbag68
(g89
g70
NtRp519
(dp520
g73
(dp521
g100
g101
ssg82
g511
sg75
(lp522
S':'
asbag68
(g89
g70
NtRp523
(dp524
g73
(dp525
sg82
g511
sg75
(lp526
g68
(g69
g70
NtRp527
(dp528
g73
(dp529
g81
I3
ssg82
g523
sg75
(lp530
S''
asbasbasbag68
(g84
g70
NtRp531
(dp532
g73
(dp533
sg82
g487
sg75
(lp534
g68
(g89
g70
NtRp535
(dp536
g73
(dp537
g93
g94
ssg82
g531
sg75
(lp538
g347
asbag68
(g89
g70
NtRp539
(dp540
g73
(dp541
g100
g101
ssg82
g531
sg75
(lp542
S':'
asbag68
(g89
g70
NtRp543
(dp544
g73
(dp545
sg82
g531
sg75
(lp546
g68
(g69
g70
NtRp547
(dp548
g73
(dp549
g81
I3
ssg82
g543
sg75
(lp550
S''
asbasbasbag68
(g84
g70
NtRp551
(dp552
g73
(dp553
sg82
g487
sg75
(lp554
g68
(g89
g70
NtRp555
(dp556
g73
(dp557
g93
g94
ssg82
g551
sg75
(lp558
g368
asbag68
(g89
g70
NtRp559
(dp560
g73
(dp561
g100
g101
ssg82
g551
sg75
(lp562
S':'
asbag68
(g89
g70
NtRp563
(dp564
g73
(dp565
sg82
g551
sg75
(lp566
g68
(g69
g70
NtRp567
(dp568
g73
(dp569
g81
I3
ssg82
g563
sg75
(lp570
S''
asbasbasbag68
(g84
g70
NtRp571
(dp572
g73
(dp573
sg82
g487
sg75
(lp574
g68
(g89
g70
NtRp575
(dp576
g73
(dp577
g93
g94
ssg82
g571
sg75
(lp578
g389
asbag68
(g89
g70
NtRp579
(dp580
g73
(dp581
g100
g101
ssg82
g571
sg75
(lp582
S':'
asbag68
(g89
g70
NtRp583
(dp584
g73
(dp585
sg82
g571
sg75
(lp586
g68
(g69
g70
NtRp587
(dp588
g73
(dp589
g81
I3
ssg82
g583
sg75
(lp590
S''
asbasbasbag68
(g84
g70
NtRp591
(dp592
g73
(dp593
sg82
g487
sg75
(lp594
g68
(g89
g70
NtRp595
(dp596
g73
(dp597
g93
g94
ssg82
g591
sg75
(lp598
g410
asbag68
(g89
g70
NtRp599
(dp600
g73
(dp601
g100
g101
ssg82
g591
sg75
(lp602
S':'
asbag68
(g89
g70
NtRp603
(dp604
g73
(dp605
sg82
g591
sg75
(lp606
g68
(g69
g70
NtRp607
(dp608
g73
(dp609
g81
I3
ssg82
g603
sg75
(lp610
S''
asbasbasbag68
(g84
g70
NtRp611
(dp612
g73
(dp613
sg82
g487
sg75
(lp614
g68
(g89
g70
NtRp615
(dp616
g73
(dp617
g93
g94
ssg82
g611
sg75
(lp618
g431
asbag68
(g89
g70
NtRp619
(dp620
g73
(dp621
g100
g101
ssg82
g611
sg75
(lp622
S':'
asbag68
(g89
g70
NtRp623
(dp624
g73
(dp625
sg82
g611
sg75
(lp626
g68
(g69
g70
NtRp627
(dp628
g73
(dp629
g81
I3
ssg82
g623
sg75
(lp630
S''
asbasbasbag68
(g84
g70
NtRp631
(dp632
g73
(dp633
sg82
g487
sg75
(lp634
g68
(g89
g70
NtRp635
(dp636
g73
(dp637
g93
g94
ssg82
g631
sg75
(lp638
g452
asbag68
(g89
g70
NtRp639
(dp640
g73
(dp641
g100
g101
ssg82
g631
sg75
(lp642
S':'
asbag68
(g89
g70
NtRp643
(dp644
g73
(dp645
sg82
g631
sg75
(lp646
g68
(g69
g70
NtRp647
(dp648
g73
(dp649
g81
I3
ssg82
g643
sg75
(lp650
S''
asbasbasbasbasbasbasbag68
(g84
g70
NtRp651
(dp652
g73
(dp653
sg82
g267
sg75
(lp654
g68
(g89
g70
NtRp655
(dp656
g73
(dp657
g93
g94
ssg82
g651
sg75
(lp658
S'session_id_assignment_2'
p659
asbag68
(g89
g70
NtRp660
(dp661
g73
(dp662
g100
g101
ssg82
g651
sg75
(lp663
S':'
asbag68
(g89
g70
NtRp664
(dp665
g73
(dp666
sg82
g651
sg75
(lp667
g68
(g69
g70
NtRp668
(dp669
g73
(dp670
g81
I4
ssg82
g664
sg75
(lp671
S'127.0.0.1-e6738855-be0b-4c15-8998-0aedda606e28'
p672
ag68
(g77
g70
NtRp673
(dp674
g73
(dp675
g81
I3
ssg82
Nsg75
(lp676
g68
(g84
g70
NtRp677
(dp678
g73
(dp679
sg82
g673
sg75
(lp680
g68
(g89
g70
NtRp681
(dp682
g73
(dp683
g93
g94
ssg82
g677
sg75
(lp684
g305
asbag68
(g89
g70
NtRp685
(dp686
g73
(dp687
g100
g101
ssg82
g677
sg75
(lp688
S':'
asbag68
(g89
g70
NtRp689
(dp690
g73
(dp691
sg82
g677
sg75
(lp692
g68
(g69
g70
NtRp693
(dp694
g73
(dp695
g81
I3
ssg82
g689
sg75
(lp696
S''
asbasbasbag68
(g84
g70
NtRp697
(dp698
g73
(dp699
sg82
g673
sg75
(lp700
g68
(g89
g70
NtRp701
(dp702
g73
(dp703
g93
g94
ssg82
g697
sg75
(lp704
g326
asbag68
(g89
g70
NtRp705
(dp706
g73
(dp707
g100
g101
ssg82
g697
sg75
(lp708
S':'
asbag68
(g89
g70
NtRp709
(dp710
g73
(dp711
sg82
g697
sg75
(lp712
g68
(g69
g70
NtRp713
(dp714
g73
(dp715
g81
I3
ssg82
g709
sg75
(lp716
S''
asbasbasbag68
(g84
g70
NtRp717
(dp718
g73
(dp719
sg82
g673
sg75
(lp720
g68
(g89
g70
NtRp721
(dp722
g73
(dp723
g93
g94
ssg82
g717
sg75
(lp724
g347
asbag68
(g89
g70
NtRp725
(dp726
g73
(dp727
g100
g101
ssg82
g717
sg75
(lp728
S':'
asbag68
(g89
g70
NtRp729
(dp730
g73
(dp731
sg82
g717
sg75
(lp732
g68
(g69
g70
NtRp733
(dp734
g73
(dp735
g81
I3
ssg82
g729
sg75
(lp736
S''
asbasbasbag68
(g84
g70
NtRp737
(dp738
g73
(dp739
sg82
g673
sg75
(lp740
g68
(g89
g70
NtRp741
(dp742
g73
(dp743
g93
g94
ssg82
g737
sg75
(lp744
g368
asbag68
(g89
g70
NtRp745
(dp746
g73
(dp747
g100
g101
ssg82
g737
sg75
(lp748
S':'
asbag68
(g89
g70
NtRp749
(dp750
g73
(dp751
sg82
g737
sg75
(lp752
g68
(g69
g70
NtRp753
(dp754
g73
(dp755
g81
I3
ssg82
g749
sg75
(lp756
S''
asbasbasbag68
(g84
g70
NtRp757
(dp758
g73
(dp759
sg82
g673
sg75
(lp760
g68
(g89
g70
NtRp761
(dp762
g73
(dp763
g93
g94
ssg82
g757
sg75
(lp764
g389
asbag68
(g89
g70
NtRp765
(dp766
g73
(dp767
g100
g101
ssg82
g757
sg75
(lp768
S':'
asbag68
(g89
g70
NtRp769
(dp770
g73
(dp771
sg82
g757
sg75
(lp772
g68
(g69
g70
NtRp773
(dp774
g73
(dp775
g81
I3
ssg82
g769
sg75
(lp776
S''
asbasbasbag68
(g84
g70
NtRp777
(dp778
g73
(dp779
sg82
g673
sg75
(lp780
g68
(g89
g70
NtRp781
(dp782
g73
(dp783
g93
g94
ssg82
g777
sg75
(lp784
g410
asbag68
(g89
g70
NtRp785
(dp786
g73
(dp787
g100
g101
ssg82
g777
sg75
(lp788
S':'
asbag68
(g89
g70
NtRp789
(dp790
g73
(dp791
sg82
g777
sg75
(lp792
g68
(g69
g70
NtRp793
(dp794
g73
(dp795
g81
I3
ssg82
g789
sg75
(lp796
S''
asbasbasbag68
(g84
g70
NtRp797
(dp798
g73
(dp799
sg82
g673
sg75
(lp800
g68
(g89
g70
NtRp801
(dp802
g73
(dp803
g93
g94
ssg82
g797
sg75
(lp804
g431
asbag68
(g89
g70
NtRp805
(dp806
g73
(dp807
g100
g101
ssg82
g797
sg75
(lp808
S':'
asbag68
(g89
g70
NtRp809
(dp810
g73
(dp811
sg82
g797
sg75
(lp812
g68
(g69
g70
NtRp813
(dp814
g73
(dp815
g81
I3
ssg82
g809
sg75
(lp816
S''
asbasbasbag68
(g84
g70
NtRp817
(dp818
g73
(dp819
sg82
g673
sg75
(lp820
g68
(g89
g70
NtRp821
(dp822
g73
(dp823
g93
g94
ssg82
g817
sg75
(lp824
g452
asbag68
(g89
g70
NtRp825
(dp826
g73
(dp827
g100
g101
ssg82
g817
sg75
(lp828
S':'
asbag68
(g89
g70
NtRp829
(dp830
g73
(dp831
sg82
g817
sg75
(lp832
g68
(g69
g70
NtRp833
(dp834
g73
(dp835
g81
I3
ssg82
g829
sg75
(lp836
S''
asbasbasbasbasbasbasbag68
(g84
g70
NtRp837
(dp838
g73
(dp839
sg82
g267
sg75
(lp840
g68
(g89
g70
NtRp841
(dp842
g73
(dp843
g93
g94
ssg82
g837
sg75
(lp844
S'session_id_welcome'
p845
asbag68
(g89
g70
NtRp846
(dp847
g73
(dp848
g100
g101
ssg82
g837
sg75
(lp849
S':'
asbag68
(g89
g70
NtRp850
(dp851
g73
(dp852
sg82
g837
sg75
(lp853
g68
(g69
g70
NtRp854
(dp855
g73
(dp856
g81
I4
ssg82
g850
sg75
(lp857
S'127.0.0.1-6c9e80f1-00df-46d9-8de5-f99f30668f76'
p858
ag68
(g77
g70
NtRp859
(dp860
g73
(dp861
g81
I3
ssg82
Nsg75
(lp862
g68
(g84
g70
NtRp863
(dp864
g73
(dp865
sg82
g859
sg75
(lp866
g68
(g89
g70
NtRp867
(dp868
g73
(dp869
g93
g94
ssg82
g863
sg75
(lp870
g305
asbag68
(g89
g70
NtRp871
(dp872
g73
(dp873
g100
g101
ssg82
g863
sg75
(lp874
S':'
asbag68
(g89
g70
NtRp875
(dp876
g73
(dp877
sg82
g863
sg75
(lp878
g68
(g69
g70
NtRp879
(dp880
g73
(dp881
g81
I3
ssg82
g875
sg75
(lp882
S''
asbasbasbag68
(g84
g70
NtRp883
(dp884
g73
(dp885
sg82
g859
sg75
(lp886
g68
(g89
g70
NtRp887
(dp888
g73
(dp889
g93
g94
ssg82
g883
sg75
(lp890
g326
asbag68
(g89
g70
NtRp891
(dp892
g73
(dp893
g100
g101
ssg82
g883
sg75
(lp894
S':'
asbag68
(g89
g70
NtRp895
(dp896
g73
(dp897
sg82
g883
sg75
(lp898
g68
(g69
g70
NtRp899
(dp900
g73
(dp901
g81
I3
ssg82
g895
sg75
(lp902
S''
asbasbasbag68
(g84
g70
NtRp903
(dp904
g73
(dp905
sg82
g859
sg75
(lp906
g68
(g89
g70
NtRp907
(dp908
g73
(dp909
g93
g94
ssg82
g903
sg75
(lp910
g347
asbag68
(g89
g70
NtRp911
(dp912
g73
(dp913
g100
g101
ssg82
g903
sg75
(lp914
S':'
asbag68
(g89
g70
NtRp915
(dp916
g73
(dp917
sg82
g903
sg75
(lp918
g68
(g69
g70
NtRp919
(dp920
g73
(dp921
g81
I3
ssg82
g915
sg75
(lp922
S''
asbasbasbag68
(g84
g70
NtRp923
(dp924
g73
(dp925
sg82
g859
sg75
(lp926
g68
(g89
g70
NtRp927
(dp928
g73
(dp929
g93
g94
ssg82
g923
sg75
(lp930
g368
asbag68
(g89
g70
NtRp931
(dp932
g73
(dp933
g100
g101
ssg82
g923
sg75
(lp934
S':'
asbag68
(g89
g70
NtRp935
(dp936
g73
(dp937
sg82
g923
sg75
(lp938
g68
(g69
g70
NtRp939
(dp940
g73
(dp941
g81
I3
ssg82
g935
sg75
(lp942
S''
asbasbasbag68
(g84
g70
NtRp943
(dp944
g73
(dp945
sg82
g859
sg75
(lp946
g68
(g89
g70
NtRp947
(dp948
g73
(dp949
g93
g94
ssg82
g943
sg75
(lp950
g389
asbag68
(g89
g70
NtRp951
(dp952
g73
(dp953
g100
g101
ssg82
g943
sg75
(lp954
S':'
asbag68
(g89
g70
NtRp955
(dp956
g73
(dp957
sg82
g943
sg75
(lp958
g68
(g69
g70
NtRp959
(dp960
g73
(dp961
g81
I3
ssg82
g955
sg75
(lp962
S''
asbasbasbag68
(g84
g70
NtRp963
(dp964
g73
(dp965
sg82
g859
sg75
(lp966
g68
(g89
g70
NtRp967
(dp968
g73
(dp969
g93
g94
ssg82
g963
sg75
(lp970
g410
asbag68
(g89
g70
NtRp971
(dp972
g73
(dp973
g100
g101
ssg82
g963
sg75
(lp974
S':'
asbag68
(g89
g70
NtRp975
(dp976
g73
(dp977
sg82
g963
sg75
(lp978
g68
(g69
g70
NtRp979
(dp980
g73
(dp981
g81
I3
ssg82
g975
sg75
(lp982
S''
asbasbasbag68
(g84
g70
NtRp983
(dp984
g73
(dp985
sg82
g859
sg75
(lp986
g68
(g89
g70
NtRp987
(dp988
g73
(dp989
g93
g94
ssg82
g983
sg75
(lp990
g431
asbag68
(g89
g70
NtRp991
(dp992
g73
(dp993
g100
g101
ssg82
g983
sg75
(lp994
S':'
asbag68
(g89
g70
NtRp995
(dp996
g73
(dp997
sg82
g983
sg75
(lp998
g68
(g69
g70
NtRp999
(dp1000
g73
(dp1001
g81
I3
ssg82
g995
sg75
(lp1002
S''
asbasbasbag68
(g84
g70
NtRp1003
(dp1004
g73
(dp1005
sg82
g859
sg75
(lp1006
g68
(g89
g70
NtRp1007
(dp1008
g73
(dp1009
g93
g94
ssg82
g1003
sg75
(lp1010
g452
asbag68
(g89
g70
NtRp1011
(dp1012
g73
(dp1013
g100
g101
ssg82
g1003
sg75
(lp1014
S':'
asbag68
(g89
g70
NtRp1015
(dp1016
g73
(dp1017
sg82
g1003
sg75
(lp1018
g68
(g69
g70
NtRp1019
(dp1020
g73
(dp1021
g81
I3
ssg82
g1015
sg75
(lp1022
S''
asbasbasbasbasbasbasbasbasbasbasbag68
(g84
g70
NtRp1023
(dp1024
g73
(dp1025
sg82
g78
sg75
(lp1026
g68
(g89
g70
NtRp1027
(dp1028
g73
(dp1029
g93
g94
ssg82
g1023
sg75
(lp1030
S'env'
p1031
asbag68
(g89
g70
NtRp1032
(dp1033
g73
(dp1034
g100
g101
ssg82
g1023
sg75
(lp1035
S':'
asbag68
(g89
g70
NtRp1036
(dp1037
g73
(dp1038
sg82
g1023
sg75
(lp1039
g68
(g69
g70
NtRp1040
(dp1041
g73
(dp1042
g81
I5
ssg82
g1036
sg75
(lp1043
g68
(g77
g70
NtRp1044
(dp1045
g73
(dp1046
g81
I4
ssg82
Nsg75
(lp1047
g68
(g84
g70
NtRp1048
(dp1049
g73
(dp1050
sg82
g1044
sg75
(lp1051
g68
(g89
g70
NtRp1052
(dp1053
g73
(dp1054
g93
g94
ssg82
g1048
sg75
(lp1055
S'app_folders'
p1056
asbag68
(g89
g70
NtRp1057
(dp1058
g73
(dp1059
g100
g101
ssg82
g1048
sg75
(lp1060
S':'
asbag68
(g89
g70
NtRp1061
(dp1062
g73
(dp1063
sg82
g1048
sg75
(lp1064
g68
(g69
g70
NtRp1065
(dp1066
g73
(dp1067
g81
I4
ssg82
g1061
sg75
(lp1068
S"set(['/home/shipra/Desktop/Semester 1.2/ITWS-2/web2py/applications/Assignment_2/', '/home/shipra/Desktop/Semester 1.2/ITWS-2/web2py/applications/welcome/', '/home/shipra/Desktop/Semester 1.2/ITWS-2/web2py/applications/admin/'])"
p1069
asbasbasbag68
(g84
g70
NtRp1070
(dp1071
g73
(dp1072
sg82
g1044
sg75
(lp1073
g68
(g89
g70
NtRp1074
(dp1075
g73
(dp1076
g93
g94
ssg82
g1070
sg75
(lp1077
S'applications_parent'
p1078
asbag68
(g89
g70
NtRp1079
(dp1080
g73
(dp1081
g100
g101
ssg82
g1070
sg75
(lp1082
S':'
asbag68
(g89
g70
NtRp1083
(dp1084
g73
(dp1085
sg82
g1070
sg75
(lp1086
g68
(g69
g70
NtRp1087
(dp1088
g73
(dp1089
g81
I4
ssg82
g1083
sg75
(lp1090
S'/home/shipra/Desktop/Semester 1.2/ITWS-2/web2py'
p1091
asbasbasbag68
(g84
g70
NtRp1092
(dp1093
g73
(dp1094
sg82
g1044
sg75
(lp1095
g68
(g89
g70
NtRp1096
(dp1097
g73
(dp1098
g93
g94
ssg82
g1092
sg75
(lp1099
S'cmd_args'
p1100
asbag68
(g89
g70
NtRp1101
(dp1102
g73
(dp1103
g100
g101
ssg82
g1092
sg75
(lp1104
S':'
asbag68
(g89
g70
NtRp1105
(dp1106
g73
(dp1107
sg82
g1092
sg75
(lp1108
g68
(g69
g70
NtRp1109
(dp1110
g73
(dp1111
g81
I4
ssg82
g1105
sg75
(lp1112
g68
(g77
g70
NtRp1113
(dp1114
g73
(dp1115
g81
I3
ssg82
Nsg75
(lp1116
sbasbasbasbag68
(g84
g70
NtRp1117
(dp1118
g73
(dp1119
sg82
g1044
sg75
(lp1120
g68
(g89
g70
NtRp1121
(dp1122
g73
(dp1123
g93
g94
ssg82
g1117
sg75
(lp1124
S'cmd_options'
p1125
asbag68
(g89
g70
NtRp1126
(dp1127
g73
(dp1128
g100
g101
ssg82
g1117
sg75
(lp1129
S':'
asbag68
(g89
g70
NtRp1130
(dp1131
g73
(dp1132
sg82
g1117
sg75
(lp1133
g68
(g69
g70
NtRp1134
(dp1135
g73
(dp1136
g81
I4
ssg82
g1130
sg75
(lp1137
S"<Values at 0x3027290: {'verbose': False, 'ip': '127.0.0.1', 'with_scheduler': False, 'ips': ['10.42.0.99'], 'shutdown_timeout': 5, 'taskbar': False, 'port': 8000, 'maxthreads': None, 'softcron': False, 'server_name': 'shipra', 'bpython': False, 'nogui': False, 'pid_filename': 'httpserver.pid', 'extcron': False, 'runcron': False, 'run_system_tests': False, 'test': None, 'folder': '/home/shipra/Desktop/Semester 1.2/ITWS-2/web2py', 'config': '', 'minthreads': None, 'winservice': '', 'shell': None, 'run': '', 'log_filename': 'httpserver.log', 'debuglevel': 30, 'args': [''], 'socket_timeout': 5, 'ssl_ca_certificate': None, 'scheduler': None, 'profiler_filename': None, 'ssl_private_key': '', 'scheduler_groups': None, 'password': '<ask>', 'request_queue_size': 5, 'ssl_certificate': '', 'cronjob': False, 'numthreads': None, 'quiet': False, 'interfaces': None, 'import_models': False, 'timeout': 10, 'plain': False, 'nobanner': False}>"
p1138
asbasbasbag68
(g84
g70
NtRp1139
(dp1140
g73
(dp1141
sg82
g1044
sg75
(lp1142
g68
(g89
g70
NtRp1143
(dp1144
g73
(dp1145
g93
g94
ssg82
g1139
sg75
(lp1146
S'db_sessions'
p1147
asbag68
(g89
g70
NtRp1148
(dp1149
g73
(dp1150
g100
g101
ssg82
g1139
sg75
(lp1151
S':'
asbag68
(g89
g70
NtRp1152
(dp1153
g73
(dp1154
sg82
g1139
sg75
(lp1155
g68
(g69
g70
NtRp1156
(dp1157
g73
(dp1158
g81
I4
ssg82
g1152
sg75
(lp1159
S'set([])'
p1160
asbasbasbag68
(g84
g70
NtRp1161
(dp1162
g73
(dp1163
sg82
g1044
sg75
(lp1164
g68
(g89
g70
NtRp1165
(dp1166
g73
(dp1167
g93
g94
ssg82
g1161
sg75
(lp1168
S'debugging'
p1169
asbag68
(g89
g70
NtRp1170
(dp1171
g73
(dp1172
g100
g101
ssg82
g1161
sg75
(lp1173
S':'
asbag68
(g89
g70
NtRp1174
(dp1175
g73
(dp1176
sg82
g1161
sg75
(lp1177
g68
(g69
g70
NtRp1178
(dp1179
g73
(dp1180
g81
I4
ssg82
g1174
sg75
(lp1181
g111
asbasbasbag68
(g84
g70
NtRp1182
(dp1183
g73
(dp1184
sg82
g1044
sg75
(lp1185
g68
(g89
g70
NtRp1186
(dp1187
g73
(dp1188
g93
g94
ssg82
g1182
sg75
(lp1189
S'gluon_parent'
p1190
asbag68
(g89
g70
NtRp1191
(dp1192
g73
(dp1193
g100
g101
ssg82
g1182
sg75
(lp1194
S':'
asbag68
(g89
g70
NtRp1195
(dp1196
g73
(dp1197
sg82
g1182
sg75
(lp1198
g68
(g69
g70
NtRp1199
(dp1200
g73
(dp1201
g81
I4
ssg82
g1195
sg75
(lp1202
S'/home/shipra/Desktop/Semester 1.2/ITWS-2/web2py'
p1203
asbasbasbag68
(g84
g70
NtRp1204
(dp1205
g73
(dp1206
sg82
g1044
sg75
(lp1207
g68
(g89
g70
NtRp1208
(dp1209
g73
(dp1210
g93
g94
ssg82
g1204
sg75
(lp1211
S'http_accept'
p1212
asbag68
(g89
g70
NtRp1213
(dp1214
g73
(dp1215
g100
g101
ssg82
g1204
sg75
(lp1216
S':'
asbag68
(g89
g70
NtRp1217
(dp1218
g73
(dp1219
sg82
g1204
sg75
(lp1220
g68
(g69
g70
NtRp1221
(dp1222
g73
(dp1223
g81
I4
ssg82
g1217
sg75
(lp1224
S'text/html,application/xhtml+xml,application/xml;q=0.9,*/*;q=0.8'
p1225
asbasbasbag68
(g84
g70
NtRp1226
(dp1227
g73
(dp1228
sg82
g1044
sg75
(lp1229
g68
(g89
g70
NtRp1230
(dp1231
g73
(dp1232
g93
g94
ssg82
g1226
sg75
(lp1233
S'http_accept_encoding'
p1234
asbag68
(g89
g70
NtRp1235
(dp1236
g73
(dp1237
g100
g101
ssg82
g1226
sg75
(lp1238
S':'
asbag68
(g89
g70
NtRp1239
(dp1240
g73
(dp1241
sg82
g1226
sg75
(lp1242
g68
(g69
g70
NtRp1243
(dp1244
g73
(dp1245
g81
I4
ssg82
g1239
sg75
(lp1246
S'gzip, deflate'
p1247
asbasbasbag68
(g84
g70
NtRp1248
(dp1249
g73
(dp1250
sg82
g1044
sg75
(lp1251
g68
(g89
g70
NtRp1252
(dp1253
g73
(dp1254
g93
g94
ssg82
g1248
sg75
(lp1255
S'http_accept_language'
p1256
asbag68
(g89
g70
NtRp1257
(dp1258
g73
(dp1259
g100
g101
ssg82
g1248
sg75
(lp1260
S':'
asbag68
(g89
g70
NtRp1261
(dp1262
g73
(dp1263
sg82
g1248
sg75
(lp1264
g68
(g69
g70
NtRp1265
(dp1266
g73
(dp1267
g81
I4
ssg82
g1261
sg75
(lp1268
S'en-us,en;q=0.5'
p1269
asbasbasbag68
(g84
g70
NtRp1270
(dp1271
g73
(dp1272
sg82
g1044
sg75
(lp1273
g68
(g89
g70
NtRp1274
(dp1275
g73
(dp1276
g93
g94
ssg82
g1270
sg75
(lp1277
S'http_connection'
p1278
asbag68
(g89
g70
NtRp1279
(dp1280
g73
(dp1281
g100
g101
ssg82
g1270
sg75
(lp1282
S':'
asbag68
(g89
g70
NtRp1283
(dp1284
g73
(dp1285
sg82
g1270
sg75
(lp1286
g68
(g69
g70
NtRp1287
(dp1288
g73
(dp1289
g81
I4
ssg82
g1283
sg75
(lp1290
S'keep-alive'
p1291
asbasbasbag68
(g84
g70
NtRp1292
(dp1293
g73
(dp1294
sg82
g1044
sg75
(lp1295
g68
(g89
g70
NtRp1296
(dp1297
g73
(dp1298
g93
g94
ssg82
g1292
sg75
(lp1299
S'http_cookie'
p1300
asbag68
(g89
g70
NtRp1301
(dp1302
g73
(dp1303
g100
g101
ssg82
g1292
sg75
(lp1304
S':'
asbag68
(g89
g70
NtRp1305
(dp1306
g73
(dp1307
sg82
g1292
sg75
(lp1308
g68
(g69
g70
NtRp1309
(dp1310
g73
(dp1311
g81
I4
ssg82
g1305
sg75
(lp1312
S'__utma=96992031.1334412862.1364672878.1364672878.1364718243.2; __utmz=96992031.1364672878.1.1.utmcsr=(direct)|utmccn=(direct)|utmcmd=(none); __lc.visitor_id.1195381=S1364672235.4faffcf2d2; __ar_v4=OWHSPOGHTNEIPPPBMHVFTA%3A20130329%3A12%7CAMEDRHI4VZG4TIA2AZ565D%3A20130329%3A12%7CWAEQXC4B2NH3DDBR3TZM6I%3A20130329%3A12; mp_2093ad9ff9c5428a2228386de2f2b0e4_mixpanel=%7B%22distinct_id%22%3A%20%2262ffc2d0-7b9f-0130-efb0-22000a1cbb2a%22%2C%22is_registered_user%22%3A%20false%2C%22%24initial_referrer%22%3A%20%22%24direct%22%2C%22%24initial_referring_domain%22%3A%20%22%24direct%22%7D; session_id_welcome=127.0.0.1-6c9e80f1-00df-46d9-8de5-f99f30668f76; session_id_admin=127.0.0.1-7295bb48-d4d7-44d0-a917-628a1a99c2a6; session_id_assignment_2=127.0.0.1-e6738855-be0b-4c15-8998-0aedda606e28'
p1313
asbasbasbag68
(g84
g70
NtRp1314
(dp1315
g73
(dp1316
sg82
g1044
sg75
(lp1317
g68
(g89
g70
NtRp1318
(dp1319
g73
(dp1320
g93
g94
ssg82
g1314
sg75
(lp1321
S'http_host'
p1322
asbag68
(g89
g70
NtRp1323
(dp1324
g73
(dp1325
g100
g101
ssg82
g1314
sg75
(lp1326
S':'
asbag68
(g89
g70
NtRp1327
(dp1328
g73
(dp1329
sg82
g1314
sg75
(lp1330
g68
(g69
g70
NtRp1331
(dp1332
g73
(dp1333
g81
I4
ssg82
g1327
sg75
(lp1334
S'127.0.0.1:8000'
p1335
asbasbasbag68
(g84
g70
NtRp1336
(dp1337
g73
(dp1338
sg82
g1044
sg75
(lp1339
g68
(g89
g70
NtRp1340
(dp1341
g73
(dp1342
g93
g94
ssg82
g1336
sg75
(lp1343
S'http_referer'
p1344
asbag68
(g89
g70
NtRp1345
(dp1346
g73
(dp1347
g100
g101
ssg82
g1336
sg75
(lp1348
S':'
asbag68
(g89
g70
NtRp1349
(dp1350
g73
(dp1351
sg82
g1336
sg75
(lp1352
g68
(g69
g70
NtRp1353
(dp1354
g73
(dp1355
g81
I4
ssg82
g1349
sg75
(lp1356
S'http://127.0.0.1:8000/Assignment_2/default/user/profile'
p1357
asbasbasbag68
(g84
g70
NtRp1358
(dp1359
g73
(dp1360
sg82
g1044
sg75
(lp1361
g68
(g89
g70
NtRp1362
(dp1363
g73
(dp1364
g93
g94
ssg82
g1358
sg75
(lp1365
S'http_user_agent'
p1366
asbag68
(g89
g70
NtRp1367
(dp1368
g73
(dp1369
g100
g101
ssg82
g1358
sg75
(lp1370
S':'
asbag68
(g89
g70
NtRp1371
(dp1372
g73
(dp1373
sg82
g1358
sg75
(lp1374
g68
(g69
g70
NtRp1375
(dp1376
g73
(dp1377
g81
I4
ssg82
g1371
sg75
(lp1378
S'Mozilla/5.0 (X11; Linux x86_64; rv:12.0) Gecko/20100101 Firefox/12.0'
p1379
asbasbasbag68
(g84
g70
NtRp1380
(dp1381
g73
(dp1382
sg82
g1044
sg75
(lp1383
g68
(g89
g70
NtRp1384
(dp1385
g73
(dp1386
g93
g94
ssg82
g1380
sg75
(lp1387
S'is_jython'
p1388
asbag68
(g89
g70
NtRp1389
(dp1390
g73
(dp1391
g100
g101
ssg82
g1380
sg75
(lp1392
S':'
asbag68
(g89
g70
NtRp1393
(dp1394
g73
(dp1395
sg82
g1380
sg75
(lp1396
g68
(g69
g70
NtRp1397
(dp1398
g73
(dp1399
g81
I4
ssg82
g1393
sg75
(lp1400
g111
asbasbasbag68
(g84
g70
NtRp1401
(dp1402
g73
(dp1403
sg82
g1044
sg75
(lp1404
g68
(g89
g70
NtRp1405
(dp1406
g73
(dp1407
g93
g94
ssg82
g1401
sg75
(lp1408
S'is_pypy'
p1409
asbag68
(g89
g70
NtRp1410
(dp1411
g73
(dp1412
g100
g101
ssg82
g1401
sg75
(lp1413
S':'
asbag68
(g89
g70
NtRp1414
(dp1415
g73
(dp1416
sg82
g1401
sg75
(lp1417
g68
(g69
g70
NtRp1418
(dp1419
g73
(dp1420
g81
I4
ssg82
g1414
sg75
(lp1421
g111
asbasbasbag68
(g84
g70
NtRp1422
(dp1423
g73
(dp1424
sg82
g1044
sg75
(lp1425
g68
(g89
g70
NtRp1426
(dp1427
g73
(dp1428
g93
g94
ssg82
g1422
sg75
(lp1429
S'local_hosts'
p1430
asbag68
(g89
g70
NtRp1431
(dp1432
g73
(dp1433
g100
g101
ssg82
g1422
sg75
(lp1434
S':'
asbag68
(g89
g70
NtRp1435
(dp1436
g73
(dp1437
sg82
g1422
sg75
(lp1438
g68
(g69
g70
NtRp1439
(dp1440
g73
(dp1441
g81
I4
ssg82
g1435
sg75
(lp1442
g68
(g77
g70
NtRp1443
(dp1444
g73
(dp1445
g81
I3
ssg82
Nsg75
(lp1446
g68
(g84
g70
NtRp1447
(dp1448
g73
(dp1449
sg82
g1443
sg75
(lp1450
g68
(g89
g70
NtRp1451
(dp1452
g73
(dp1453
sg82
g1447
sg75
(lp1454
g68
(g69
g70
NtRp1455
(dp1456
g73
(dp1457
g81
I3
ssg82
g1451
sg75
(lp1458
S'::1'
p1459
asbasbasbag68
(g84
g70
NtRp1460
(dp1461
g73
(dp1462
sg82
g1443
sg75
(lp1463
g68
(g89
g70
NtRp1464
(dp1465
g73
(dp1466
sg82
g1460
sg75
(lp1467
g68
(g69
g70
NtRp1468
(dp1469
g73
(dp1470
g81
I3
ssg82
g1464
sg75
(lp1471
S'10.42.0.99'
p1472
asbasbasbag68
(g84
g70
NtRp1473
(dp1474
g73
(dp1475
sg82
g1443
sg75
(lp1476
g68
(g89
g70
NtRp1477
(dp1478
g73
(dp1479
sg82
g1473
sg75
(lp1480
g68
(g69
g70
NtRp1481
(dp1482
g73
(dp1483
g81
I3
ssg82
g1477
sg75
(lp1484
S'::ffff:127.0.0.1'
p1485
asbasbasbag68
(g84
g70
NtRp1486
(dp1487
g73
(dp1488
sg82
g1443
sg75
(lp1489
g68
(g89
g70
NtRp1490
(dp1491
g73
(dp1492
sg82
g1486
sg75
(lp1493
g68
(g69
g70
NtRp1494
(dp1495
g73
(dp1496
g81
I3
ssg82
g1490
sg75
(lp1497
S'127.0.0.1'
p1498
asbasbasbag68
(g84
g70
NtRp1499
(dp1500
g73
(dp1501
sg82
g1443
sg75
(lp1502
g68
(g89
g70
NtRp1503
(dp1504
g73
(dp1505
sg82
g1499
sg75
(lp1506
g68
(g69
g70
NtRp1507
(dp1508
g73
(dp1509
g81
I3
ssg82
g1503
sg75
(lp1510
S'shipra'
p1511
asbasbasbasbasbasbasbag68
(g84
g70
NtRp1512
(dp1513
g73
(dp1514
sg82
g1044
sg75
(lp1515
g68
(g89
g70
NtRp1516
(dp1517
g73
(dp1518
g93
g94
ssg82
g1512
sg75
(lp1519
S'path_info'
p1520
asbag68
(g89
g70
NtRp1521
(dp1522
g73
(dp1523
g100
g101
ssg82
g1512
sg75
(lp1524
S':'
asbag68
(g89
g70
NtRp1525
(dp1526
g73
(dp1527
sg82
g1512
sg75
(lp1528
g68
(g69
g70
NtRp1529
(dp1530
g73
(dp1531
g81
I4
ssg82
g1525
sg75
(lp1532
S'/Assignment_2/default/index'
p1533
asbasbasbag68
(g84
g70
NtRp1534
(dp1535
g73
(dp1536
sg82
g1044
sg75
(lp1537
g68
(g89
g70
NtRp1538
(dp1539
g73
(dp1540
g93
g94
ssg82
g1534
sg75
(lp1541
S'query_string'
p1542
asbag68
(g89
g70
NtRp1543
(dp1544
g73
(dp1545
g100
g101
ssg82
g1534
sg75
(lp1546
S':'
asbag68
(g89
g70
NtRp1547
(dp1548
g73
(dp1549
sg82
g1534
sg75
(lp1550
g68
(g69
g70
NtRp1551
(dp1552
g73
(dp1553
g81
I4
ssg82
g1547
sg75
(lp1554
S''
asbasbasbag68
(g84
g70
NtRp1555
(dp1556
g73
(dp1557
sg82
g1044
sg75
(lp1558
g68
(g89
g70
NtRp1559
(dp1560
g73
(dp1561
g93
g94
ssg82
g1555
sg75
(lp1562
S'remote_addr'
p1563
asbag68
(g89
g70
NtRp1564
(dp1565
g73
(dp1566
g100
g101
ssg82
g1555
sg75
(lp1567
S':'
asbag68
(g89
g70
NtRp1568
(dp1569
g73
(dp1570
sg82
g1555
sg75
(lp1571
g68
(g69
g70
NtRp1572
(dp1573
g73
(dp1574
g81
I4
ssg82
g1568
sg75
(lp1575
g223
asbasbasbag68
(g84
g70
NtRp1576
(dp1577
g73
(dp1578
sg82
g1044
sg75
(lp1579
g68
(g89
g70
NtRp1580
(dp1581
g73
(dp1582
g93
g94
ssg82
g1576
sg75
(lp1583
S'remote_port'
p1584
asbag68
(g89
g70
NtRp1585
(dp1586
g73
(dp1587
g100
g101
ssg82
g1576
sg75
(lp1588
S':'
asbag68
(g89
g70
NtRp1589
(dp1590
g73
(dp1591
sg82
g1576
sg75
(lp1592
g68
(g69
g70
NtRp1593
(dp1594
g73
(dp1595
g81
I4
ssg82
g1589
sg75
(lp1596
S'41914'
p1597
asbasbasbag68
(g84
g70
NtRp1598
(dp1599
g73
(dp1600
sg82
g1044
sg75
(lp1601
g68
(g89
g70
NtRp1602
(dp1603
g73
(dp1604
g93
g94
ssg82
g1598
sg75
(lp1605
S'request_method'
p1606
asbag68
(g89
g70
NtRp1607
(dp1608
g73
(dp1609
g100
g101
ssg82
g1598
sg75
(lp1610
S':'
asbag68
(g89
g70
NtRp1611
(dp1612
g73
(dp1613
sg82
g1598
sg75
(lp1614
g68
(g69
g70
NtRp1615
(dp1616
g73
(dp1617
g81
I4
ssg82
g1611
sg75
(lp1618
S'GET'
p1619
asbasbasbag68
(g84
g70
NtRp1620
(dp1621
g73
(dp1622
sg82
g1044
sg75
(lp1623
g68
(g89
g70
NtRp1624
(dp1625
g73
(dp1626
g93
g94
ssg82
g1620
sg75
(lp1627
S'request_uri'
p1628
asbag68
(g89
g70
NtRp1629
(dp1630
g73
(dp1631
g100
g101
ssg82
g1620
sg75
(lp1632
S':'
asbag68
(g89
g70
NtRp1633
(dp1634
g73
(dp1635
sg82
g1620
sg75
(lp1636
g68
(g69
g70
NtRp1637
(dp1638
g73
(dp1639
g81
I4
ssg82
g1633
sg75
(lp1640
g1533
asbasbasbag68
(g84
g70
NtRp1641
(dp1642
g73
(dp1643
sg82
g1044
sg75
(lp1644
g68
(g89
g70
NtRp1645
(dp1646
g73
(dp1647
g93
g94
ssg82
g1641
sg75
(lp1648
S'script_name'
p1649
asbag68
(g89
g70
NtRp1650
(dp1651
g73
(dp1652
g100
g101
ssg82
g1641
sg75
(lp1653
S':'
asbag68
(g89
g70
NtRp1654
(dp1655
g73
(dp1656
sg82
g1641
sg75
(lp1657
g68
(g69
g70
NtRp1658
(dp1659
g73
(dp1660
g81
I4
ssg82
g1654
sg75
(lp1661
S''
asbasbasbag68
(g84
g70
NtRp1662
(dp1663
g73
(dp1664
sg82
g1044
sg75
(lp1665
g68
(g89
g70
NtRp1666
(dp1667
g73
(dp1668
g93
g94
ssg82
g1662
sg75
(lp1669
S'server_name'
p1670
asbag68
(g89
g70
NtRp1671
(dp1672
g73
(dp1673
g100
g101
ssg82
g1662
sg75
(lp1674
S':'
asbag68
(g89
g70
NtRp1675
(dp1676
g73
(dp1677
sg82
g1662
sg75
(lp1678
g68
(g69
g70
NtRp1679
(dp1680
g73
(dp1681
g81
I4
ssg82
g1675
sg75
(lp1682
S'shipra'
p1683
asbasbasbag68
(g84
g70
NtRp1684
(dp1685
g73
(dp1686
sg82
g1044
sg75
(lp1687
g68
(g89
g70
NtRp1688
(dp1689
g73
(dp1690
g93
g94
ssg82
g1684
sg75
(lp1691
S'server_port'
p1692
asbag68
(g89
g70
NtRp1693
(dp1694
g73
(dp1695
g100
g101
ssg82
g1684
sg75
(lp1696
S':'
asbag68
(g89
g70
NtRp1697
(dp1698
g73
(dp1699
sg82
g1684
sg75
(lp1700
g68
(g69
g70
NtRp1701
(dp1702
g73
(dp1703
g81
I4
ssg82
g1697
sg75
(lp1704
S'8000'
p1705
asbasbasbag68
(g84
g70
NtRp1706
(dp1707
g73
(dp1708
sg82
g1044
sg75
(lp1709
g68
(g89
g70
NtRp1710
(dp1711
g73
(dp1712
g93
g94
ssg82
g1706
sg75
(lp1713
S'server_protocol'
p1714
asbag68
(g89
g70
NtRp1715
(dp1716
g73
(dp1717
g100
g101
ssg82
g1706
sg75
(lp1718
S':'
asbag68
(g89
g70
NtRp1719
(dp1720
g73
(dp1721
sg82
g1706
sg75
(lp1722
g68
(g69
g70
NtRp1723
(dp1724
g73
(dp1725
g81
I4
ssg82
g1719
sg75
(lp1726
S'HTTP/1.1'
p1727
asbasbasbag68
(g84
g70
NtRp1728
(dp1729
g73
(dp1730
sg82
g1044
sg75
(lp1731
g68
(g89
g70
NtRp1732
(dp1733
g73
(dp1734
g93
g94
ssg82
g1728
sg75
(lp1735
S'server_software'
p1736
asbag68
(g89
g70
NtRp1737
(dp1738
g73
(dp1739
g100
g101
ssg82
g1728
sg75
(lp1740
S':'
asbag68
(g89
g70
NtRp1741
(dp1742
g73
(dp1743
sg82
g1728
sg75
(lp1744
g68
(g69
g70
NtRp1745
(dp1746
g73
(dp1747
g81
I4
ssg82
g1741
sg75
(lp1748
S'Rocket 1.2.6'
p1749
asbasbasbag68
(g84
g70
NtRp1750
(dp1751
g73
(dp1752
sg82
g1044
sg75
(lp1753
g68
(g89
g70
NtRp1754
(dp1755
g73
(dp1756
g93
g94
ssg82
g1750
sg75
(lp1757
S'web2py_path'
p1758
asbag68
(g89
g70
NtRp1759
(dp1760
g73
(dp1761
g100
g101
ssg82
g1750
sg75
(lp1762
S':'
asbag68
(g89
g70
NtRp1763
(dp1764
g73
(dp1765
sg82
g1750
sg75
(lp1766
g68
(g69
g70
NtRp1767
(dp1768
g73
(dp1769
g81
I4
ssg82
g1763
sg75
(lp1770
g1091
asbasbasbag68
(g84
g70
NtRp1771
(dp1772
g73
(dp1773
sg82
g1044
sg75
(lp1774
g68
(g89
g70
NtRp1775
(dp1776
g73
(dp1777
g93
g94
ssg82
g1771
sg75
(lp1778
S'web2py_version'
p1779
asbag68
(g89
g70
NtRp1780
(dp1781
g73
(dp1782
g100
g101
ssg82
g1771
sg75
(lp1783
S':'
asbag68
(g89
g70
NtRp1784
(dp1785
g73
(dp1786
sg82
g1771
sg75
(lp1787
g68
(g69
g70
NtRp1788
(dp1789
g73
(dp1790
g81
I4
ssg82
g1784
sg75
(lp1791
g68
(g77
g70
NtRp1792
(dp1793
g73
(dp1794
g81
I3
ssg82
Nsg75
(lp1795
g68
(g84
g70
NtRp1796
(dp1797
g73
(dp1798
sg82
g1792
sg75
(lp1799
g68
(g89
g70
NtRp1800
(dp1801
g73
(dp1802
sg82
g1796
sg75
(lp1803
g68
(g69
g70
NtRp1804
(dp1805
g73
(dp1806
g81
I3
ssg82
g1800
sg75
(lp1807
S'2'
asbasbasbag68
(g84
g70
NtRp1808
(dp1809
g73
(dp1810
sg82
g1792
sg75
(lp1811
g68
(g89
g70
NtRp1812
(dp1813
g73
(dp1814
sg82
g1808
sg75
(lp1815
g68
(g69
g70
NtRp1816
(dp1817
g73
(dp1818
g81
I3
ssg82
g1812
sg75
(lp1819
S'3'
asbasbasbag68
(g84
g70
NtRp1820
(dp1821
g73
(dp1822
sg82
g1792
sg75
(lp1823
g68
(g89
g70
NtRp1824
(dp1825
g73
(dp1826
sg82
g1820
sg75
(lp1827
g68
(g69
g70
NtRp1828
(dp1829
g73
(dp1830
g81
I3
ssg82
g1824
sg75
(lp1831
S'2'
asbasbasbag68
(g84
g70
NtRp1832
(dp1833
g73
(dp1834
sg82
g1792
sg75
(lp1835
g68
(g89
g70
NtRp1836
(dp1837
g73
(dp1838
sg82
g1832
sg75
(lp1839
g68
(g69
g70
NtRp1840
(dp1841
g73
(dp1842
g81
I3
ssg82
g1836
sg75
(lp1843
S'datetime.datetime(2012, 12, 17, 15, 3, 30)'
p1844
asbasbasbag68
(g84
g70
NtRp1845
(dp1846
g73
(dp1847
sg82
g1792
sg75
(lp1848
g68
(g89
g70
NtRp1849
(dp1850
g73
(dp1851
sg82
g1845
sg75
(lp1852
g68
(g69
g70
NtRp1853
(dp1854
g73
(dp1855
g81
I3
ssg82
g1849
sg75
(lp1856
S'stable'
p1857
asbasbasbasbasbasbasbag68
(g84
g70
NtRp1858
(dp1859
g73
(dp1860
sg82
g1044
sg75
(lp1861
g68
(g89
g70
NtRp1862
(dp1863
g73
(dp1864
g93
g94
ssg82
g1858
sg75
(lp1865
S'wsgi_errors'
p1866
asbag68
(g89
g70
NtRp1867
(dp1868
g73
(dp1869
g100
g101
ssg82
g1858
sg75
(lp1870
S':'
asbag68
(g89
g70
NtRp1871
(dp1872
g73
(dp1873
sg82
g1858
sg75
(lp1874
g68
(g69
g70
NtRp1875
(dp1876
g73
(dp1877
g81
I4
ssg82
g1871
sg75
(lp1878
S"<open file '<stderr>', mode 'w' at 0x7f0330462270>"
p1879
asbasbasbag68
(g84
g70
NtRp1880
(dp1881
g73
(dp1882
sg82
g1044
sg75
(lp1883
g68
(g89
g70
NtRp1884
(dp1885
g73
(dp1886
g93
g94
ssg82
g1880
sg75
(lp1887
S'wsgi_file_wrapper'
p1888
asbag68
(g89
g70
NtRp1889
(dp1890
g73
(dp1891
g100
g101
ssg82
g1880
sg75
(lp1892
S':'
asbag68
(g89
g70
NtRp1893
(dp1894
g73
(dp1895
sg82
g1880
sg75
(lp1896
g68
(g69
g70
NtRp1897
(dp1898
g73
(dp1899
g81
I4
ssg82
g1893
sg75
(lp1900
S'<class wsgiref.util.FileWrapper at 0x2fb0e20>'
p1901
asbasbasbag68
(g84
g70
NtRp1902
(dp1903
g73
(dp1904
sg82
g1044
sg75
(lp1905
g68
(g89
g70
NtRp1906
(dp1907
g73
(dp1908
g93
g94
ssg82
g1902
sg75
(lp1909
S'wsgi_input'
p1910
asbag68
(g89
g70
NtRp1911
(dp1912
g73
(dp1913
g100
g101
ssg82
g1902
sg75
(lp1914
S':'
asbag68
(g89
g70
NtRp1915
(dp1916
g73
(dp1917
sg82
g1902
sg75
(lp1918
g68
(g69
g70
NtRp1919
(dp1920
g73
(dp1921
g81
I4
ssg82
g1915
sg75
(lp1922
S'<socket._fileobject object at 0x7f03082905d0>'
p1923
asbasbasbag68
(g84
g70
NtRp1924
(dp1925
g73
(dp1926
sg82
g1044
sg75
(lp1927
g68
(g89
g70
NtRp1928
(dp1929
g73
(dp1930
g93
g94
ssg82
g1924
sg75
(lp1931
S'wsgi_multiprocess'
p1932
asbag68
(g89
g70
NtRp1933
(dp1934
g73
(dp1935
g100
g101
ssg82
g1924
sg75
(lp1936
S':'
asbag68
(g89
g70
NtRp1937
(dp1938
g73
(dp1939
sg82
g1924
sg75
(lp1940
g68
(g69
g70
NtRp1941
(dp1942
g73
(dp1943
g81
I4
ssg82
g1937
sg75
(lp1944
g111
asbasbasbag68
(g84
g70
NtRp1945
(dp1946
g73
(dp1947
sg82
g1044
sg75
(lp1948
g68
(g89
g70
NtRp1949
(dp1950
g73
(dp1951
g93
g94
ssg82
g1945
sg75
(lp1952
S'wsgi_multithread'
p1953
asbag68
(g89
g70
NtRp1954
(dp1955
g73
(dp1956
g100
g101
ssg82
g1945
sg75
(lp1957
S':'
asbag68
(g89
g70
NtRp1958
(dp1959
g73
(dp1960
sg82
g1945
sg75
(lp1961
g68
(g69
g70
NtRp1962
(dp1963
g73
(dp1964
g81
I4
ssg82
g1958
sg75
(lp1965
S'True'
p1966
asbasbasbag68
(g84
g70
NtRp1967
(dp1968
g73
(dp1969
sg82
g1044
sg75
(lp1970
g68
(g89
g70
NtRp1971
(dp1972
g73
(dp1973
g93
g94
ssg82
g1967
sg75
(lp1974
S'wsgi_run_once'
p1975
asbag68
(g89
g70
NtRp1976
(dp1977
g73
(dp1978
g100
g101
ssg82
g1967
sg75
(lp1979
S':'
asbag68
(g89
g70
NtRp1980
(dp1981
g73
(dp1982
sg82
g1967
sg75
(lp1983
g68
(g69
g70
NtRp1984
(dp1985
g73
(dp1986
g81
I4
ssg82
g1980
sg75
(lp1987
g111
asbasbasbag68
(g84
g70
NtRp1988
(dp1989
g73
(dp1990
sg82
g1044
sg75
(lp1991
g68
(g89
g70
NtRp1992
(dp1993
g73
(dp1994
g93
g94
ssg82
g1988
sg75
(lp1995
S'wsgi_url_scheme'
p1996
asbag68
(g89
g70
NtRp1997
(dp1998
g73
(dp1999
g100
g101
ssg82
g1988
sg75
(lp2000
S':'
asbag68
(g89
g70
NtRp2001
(dp2002
g73
(dp2003
sg82
g1988
sg75
(lp2004
g68
(g69
g70
NtRp2005
(dp2006
g73
(dp2007
g81
I4
ssg82
g2001
sg75
(lp2008
S'http'
p2009
asbasbasbag68
(g84
g70
NtRp2010
(dp2011
g73
(dp2012
sg82
g1044
sg75
(lp2013
g68
(g89
g70
NtRp2014
(dp2015
g73
(dp2016
g93
g94
ssg82
g2010
sg75
(lp2017
S'wsgi_version'
p2018
asbag68
(g89
g70
NtRp2019
(dp2020
g73
(dp2021
g100
g101
ssg82
g2010
sg75
(lp2022
S':'
asbag68
(g89
g70
NtRp2023
(dp2024
g73
(dp2025
sg82
g2010
sg75
(lp2026
g68
(g69
g70
NtRp2027
(dp2028
g73
(dp2029
g81
I4
ssg82
g2023
sg75
(lp2030
g68
(g77
g70
NtRp2031
(dp2032
g73
(dp2033
g81
I3
ssg82
Nsg75
(lp2034
g68
(g84
g70
NtRp2035
(dp2036
g73
(dp2037
sg82
g2031
sg75
(lp2038
g68
(g89
g70
NtRp2039
(dp2040
g73
(dp2041
sg82
g2035
sg75
(lp2042
g68
(g69
g70
NtRp2043
(dp2044
g73
(dp2045
g81
I3
ssg82
g2039
sg75
(lp2046
S'1'
asbasbasbag68
(g84
g70
NtRp2047
(dp2048
g73
(dp2049
sg82
g2031
sg75
(lp2050
g68
(g89
g70
NtRp2051
(dp2052
g73
(dp2053
sg82
g2047
sg75
(lp2054
g68
(g69
g70
NtRp2055
(dp2056
g73
(dp2057
g81
I3
ssg82
g2051
sg75
(lp2058
S'0'
asbasbasbasbasbasbasbasbasbasbasbag68
(g84
g70
NtRp2059
(dp2060
g73
(dp2061
sg82
g78
sg75
(lp2062
g68
(g89
g70
NtRp2063
(dp2064
g73
(dp2065
g93
g94
ssg82
g2059
sg75
(lp2066
S'extension'
p2067
asbag68
(g89
g70
NtRp2068
(dp2069
g73
(dp2070
g100
g101
ssg82
g2059
sg75
(lp2071
S':'
asbag68
(g89
g70
NtRp2072
(dp2073
g73
(dp2074
sg82
g2059
sg75
(lp2075
g68
(g69
g70
NtRp2076
(dp2077
g73
(dp2078
g81
I5
ssg82
g2072
sg75
(lp2079
S'html'
p2080
asbasbasbag68
(g84
g70
NtRp2081
(dp2082
g73
(dp2083
sg82
g78
sg75
(lp2084
g68
(g89
g70
NtRp2085
(dp2086
g73
(dp2087
g93
g94
ssg82
g2081
sg75
(lp2088
S'folder'
p2089
asbag68
(g89
g70
NtRp2090
(dp2091
g73
(dp2092
g100
g101
ssg82
g2081
sg75
(lp2093
S':'
asbag68
(g89
g70
NtRp2094
(dp2095
g73
(dp2096
sg82
g2081
sg75
(lp2097
g68
(g69
g70
NtRp2098
(dp2099
g73
(dp2100
g81
I5
ssg82
g2094
sg75
(lp2101
S'/home/shipra/Desktop/Semester 1.2/ITWS-2/web2py/applications/Assignment_2/'
p2102
asbasbasbag68
(g84
g70
NtRp2103
(dp2104
g73
(dp2105
sg82
g78
sg75
(lp2106
g68
(g89
g70
NtRp2107
(dp2108
g73
(dp2109
g93
g94
ssg82
g2103
sg75
(lp2110
S'function'
p2111
asbag68
(g89
g70
NtRp2112
(dp2113
g73
(dp2114
g100
g101
ssg82
g2103
sg75
(lp2115
S':'
asbag68
(g89
g70
NtRp2116
(dp2117
g73
(dp2118
sg82
g2103
sg75
(lp2119
g68
(g69
g70
NtRp2120
(dp2121
g73
(dp2122
g81
I5
ssg82
g2116
sg75
(lp2123
S'index'
p2124
asbasbasbag68
(g84
g70
NtRp2125
(dp2126
g73
(dp2127
sg82
g78
sg75
(lp2128
g68
(g89
g70
NtRp2129
(dp2130
g73
(dp2131
g93
g94
ssg82
g2125
sg75
(lp2132
S'get_vars'
p2133
asbag68
(g89
g70
NtRp2134
(dp2135
g73
(dp2136
g100
g101
ssg82
g2125
sg75
(lp2137
S':'
asbag68
(g89
g70
NtRp2138
(dp2139
g73
(dp2140
sg82
g2125
sg75
(lp2141
g68
(g69
g70
NtRp2142
(dp2143
g73
(dp2144
g81
I5
ssg82
g2138
sg75
(lp2145
g68
(g77
g70
NtRp2146
(dp2147
g73
(dp2148
g81
I4
ssg82
Nsg75
(lp2149
sbasbasbasbag68
(g84
g70
NtRp2150
(dp2151
g73
(dp2152
sg82
g78
sg75
(lp2153
g68
(g89
g70
NtRp2154
(dp2155
g73
(dp2156
g93
g94
ssg82
g2150
sg75
(lp2157
S'global_settings'
p2158
asbag68
(g89
g70
NtRp2159
(dp2160
g73
(dp2161
g100
g101
ssg82
g2150
sg75
(lp2162
S':'
asbag68
(g89
g70
NtRp2163
(dp2164
g73
(dp2165
sg82
g2150
sg75
(lp2166
g68
(g69
g70
NtRp2167
(dp2168
g73
(dp2169
g81
I5
ssg82
g2163
sg75
(lp2170
g68
(g77
g70
NtRp2171
(dp2172
g73
(dp2173
g81
I4
ssg82
Nsg75
(lp2174
g68
(g84
g70
NtRp2175
(dp2176
g73
(dp2177
sg82
g2171
sg75
(lp2178
g68
(g89
g70
NtRp2179
(dp2180
g73
(dp2181
g93
g94
ssg82
g2175
sg75
(lp2182
g1056
asbag68
(g89
g70
NtRp2183
(dp2184
g73
(dp2185
g100
g101
ssg82
g2175
sg75
(lp2186
S':'
asbag68
(g89
g70
NtRp2187
(dp2188
g73
(dp2189
sg82
g2175
sg75
(lp2190
g68
(g69
g70
NtRp2191
(dp2192
g73
(dp2193
g81
I4
ssg82
g2187
sg75
(lp2194
S"set(['/home/shipra/Desktop/Semester 1.2/ITWS-2/web2py/applications/Assignment_2/', '/home/shipra/Desktop/Semester 1.2/ITWS-2/web2py/applications/welcome/', '/home/shipra/Desktop/Semester 1.2/ITWS-2/web2py/applications/admin/'])"
p2195
asbasbasbag68
(g84
g70
NtRp2196
(dp2197
g73
(dp2198
sg82
g2171
sg75
(lp2199
g68
(g89
g70
NtRp2200
(dp2201
g73
(dp2202
g93
g94
ssg82
g2196
sg75
(lp2203
g1078
asbag68
(g89
g70
NtRp2204
(dp2205
g73
(dp2206
g100
g101
ssg82
g2196
sg75
(lp2207
S':'
asbag68
(g89
g70
NtRp2208
(dp2209
g73
(dp2210
sg82
g2196
sg75
(lp2211
g68
(g69
g70
NtRp2212
(dp2213
g73
(dp2214
g81
I4
ssg82
g2208
sg75
(lp2215
g1091
asbasbasbag68
(g84
g70
NtRp2216
(dp2217
g73
(dp2218
sg82
g2171
sg75
(lp2219
g68
(g89
g70
NtRp2220
(dp2221
g73
(dp2222
g93
g94
ssg82
g2216
sg75
(lp2223
g1100
asbag68
(g89
g70
NtRp2224
(dp2225
g73
(dp2226
g100
g101
ssg82
g2216
sg75
(lp2227
S':'
asbag68
(g89
g70
NtRp2228
(dp2229
g73
(dp2230
sg82
g2216
sg75
(lp2231
g68
(g69
g70
NtRp2232
(dp2233
g73
(dp2234
g81
I4
ssg82
g2228
sg75
(lp2235
g68
(g77
g70
NtRp2236
(dp2237
g73
(dp2238
g81
I3
ssg82
Nsg75
(lp2239
sbasbasbasbag68
(g84
g70
NtRp2240
(dp2241
g73
(dp2242
sg82
g2171
sg75
(lp2243
g68
(g89
g70
NtRp2244
(dp2245
g73
(dp2246
g93
g94
ssg82
g2240
sg75
(lp2247
g1125
asbag68
(g89
g70
NtRp2248
(dp2249
g73
(dp2250
g100
g101
ssg82
g2240
sg75
(lp2251
S':'
asbag68
(g89
g70
NtRp2252
(dp2253
g73
(dp2254
sg82
g2240
sg75
(lp2255
g68
(g69
g70
NtRp2256
(dp2257
g73
(dp2258
g81
I4
ssg82
g2252
sg75
(lp2259
S"<Values at 0x3027290: {'verbose': False, 'ip': '127.0.0.1', 'with_scheduler': False, 'ips': ['10.42.0.99'], 'shutdown_timeout': 5, 'taskbar': False, 'port': 8000, 'maxthreads': None, 'softcron': False, 'server_name': 'shipra', 'bpython': False, 'nogui': False, 'pid_filename': 'httpserver.pid', 'extcron': False, 'runcron': False, 'run_system_tests': False, 'test': None, 'folder': '/home/shipra/Desktop/Semester 1.2/ITWS-2/web2py', 'config': '', 'minthreads': None, 'winservice': '', 'shell': None, 'run': '', 'log_filename': 'httpserver.log', 'debuglevel': 30, 'args': [''], 'socket_timeout': 5, 'ssl_ca_certificate': None, 'scheduler': None, 'profiler_filename': None, 'ssl_private_key': '', 'scheduler_groups': None, 'password': '<ask>', 'request_queue_size': 5, 'ssl_certificate': '', 'cronjob': False, 'numthreads': None, 'quiet': False, 'interfaces': None, 'import_models': False, 'timeout': 10, 'plain': False, 'nobanner': False}>"
p2260
asbasbasbag68
(g84
g70
NtRp2261
(dp2262
g73
(dp2263
sg82
g2171
sg75
(lp2264
g68
(g89
g70
NtRp2265
(dp2266
g73
(dp2267
g93
g94
ssg82
g2261
sg75
(lp2268
g1147
asbag68
(g89
g70
NtRp2269
(dp2270
g73
(dp2271
g100
g101
ssg82
g2261
sg75
(lp2272
S':'
asbag68
(g89
g70
NtRp2273
(dp2274
g73
(dp2275
sg82
g2261
sg75
(lp2276
g68
(g69
g70
NtRp2277
(dp2278
g73
(dp2279
g81
I4
ssg82
g2273
sg75
(lp2280
S'set([])'
p2281
asbasbasbag68
(g84
g70
NtRp2282
(dp2283
g73
(dp2284
sg82
g2171
sg75
(lp2285
g68
(g89
g70
NtRp2286
(dp2287
g73
(dp2288
g93
g94
ssg82
g2282
sg75
(lp2289
g1169
asbag68
(g89
g70
NtRp2290
(dp2291
g73
(dp2292
g100
g101
ssg82
g2282
sg75
(lp2293
S':'
asbag68
(g89
g70
NtRp2294
(dp2295
g73
(dp2296
sg82
g2282
sg75
(lp2297
g68
(g69
g70
NtRp2298
(dp2299
g73
(dp2300
g81
I4
ssg82
g2294
sg75
(lp2301
g111
asbasbasbag68
(g84
g70
NtRp2302
(dp2303
g73
(dp2304
sg82
g2171
sg75
(lp2305
g68
(g89
g70
NtRp2306
(dp2307
g73
(dp2308
g93
g94
ssg82
g2302
sg75
(lp2309
g1190
asbag68
(g89
g70
NtRp2310
(dp2311
g73
(dp2312
g100
g101
ssg82
g2302
sg75
(lp2313
S':'
asbag68
(g89
g70
NtRp2314
(dp2315
g73
(dp2316
sg82
g2302
sg75
(lp2317
g68
(g69
g70
NtRp2318
(dp2319
g73
(dp2320
g81
I4
ssg82
g2314
sg75
(lp2321
g1203
asbasbasbag68
(g84
g70
NtRp2322
(dp2323
g73
(dp2324
sg82
g2171
sg75
(lp2325
g68
(g89
g70
NtRp2326
(dp2327
g73
(dp2328
g93
g94
ssg82
g2322
sg75
(lp2329
g1388
asbag68
(g89
g70
NtRp2330
(dp2331
g73
(dp2332
g100
g101
ssg82
g2322
sg75
(lp2333
S':'
asbag68
(g89
g70
NtRp2334
(dp2335
g73
(dp2336
sg82
g2322
sg75
(lp2337
g68
(g69
g70
NtRp2338
(dp2339
g73
(dp2340
g81
I4
ssg82
g2334
sg75
(lp2341
g111
asbasbasbag68
(g84
g70
NtRp2342
(dp2343
g73
(dp2344
sg82
g2171
sg75
(lp2345
g68
(g89
g70
NtRp2346
(dp2347
g73
(dp2348
g93
g94
ssg82
g2342
sg75
(lp2349
g1409
asbag68
(g89
g70
NtRp2350
(dp2351
g73
(dp2352
g100
g101
ssg82
g2342
sg75
(lp2353
S':'
asbag68
(g89
g70
NtRp2354
(dp2355
g73
(dp2356
sg82
g2342
sg75
(lp2357
g68
(g69
g70
NtRp2358
(dp2359
g73
(dp2360
g81
I4
ssg82
g2354
sg75
(lp2361
g111
asbasbasbag68
(g84
g70
NtRp2362
(dp2363
g73
(dp2364
sg82
g2171
sg75
(lp2365
g68
(g89
g70
NtRp2366
(dp2367
g73
(dp2368
g93
g94
ssg82
g2362
sg75
(lp2369
g1430
asbag68
(g89
g70
NtRp2370
(dp2371
g73
(dp2372
g100
g101
ssg82
g2362
sg75
(lp2373
S':'
asbag68
(g89
g70
NtRp2374
(dp2375
g73
(dp2376
sg82
g2362
sg75
(lp2377
g68
(g69
g70
NtRp2378
(dp2379
g73
(dp2380
g81
I4
ssg82
g2374
sg75
(lp2381
g68
(g77
g70
NtRp2382
(dp2383
g73
(dp2384
g81
I3
ssg82
Nsg75
(lp2385
g68
(g84
g70
NtRp2386
(dp2387
g73
(dp2388
sg82
g2382
sg75
(lp2389
g68
(g89
g70
NtRp2390
(dp2391
g73
(dp2392
sg82
g2386
sg75
(lp2393
g68
(g69
g70
NtRp2394
(dp2395
g73
(dp2396
g81
I3
ssg82
g2390
sg75
(lp2397
g1459
asbasbasbag68
(g84
g70
NtRp2398
(dp2399
g73
(dp2400
sg82
g2382
sg75
(lp2401
g68
(g89
g70
NtRp2402
(dp2403
g73
(dp2404
sg82
g2398
sg75
(lp2405
g68
(g69
g70
NtRp2406
(dp2407
g73
(dp2408
g81
I3
ssg82
g2402
sg75
(lp2409
g1472
asbasbasbag68
(g84
g70
NtRp2410
(dp2411
g73
(dp2412
sg82
g2382
sg75
(lp2413
g68
(g89
g70
NtRp2414
(dp2415
g73
(dp2416
sg82
g2410
sg75
(lp2417
g68
(g69
g70
NtRp2418
(dp2419
g73
(dp2420
g81
I3
ssg82
g2414
sg75
(lp2421
g1485
asbasbasbag68
(g84
g70
NtRp2422
(dp2423
g73
(dp2424
sg82
g2382
sg75
(lp2425
g68
(g89
g70
NtRp2426
(dp2427
g73
(dp2428
sg82
g2422
sg75
(lp2429
g68
(g69
g70
NtRp2430
(dp2431
g73
(dp2432
g81
I3
ssg82
g2426
sg75
(lp2433
g1498
asbasbasbag68
(g84
g70
NtRp2434
(dp2435
g73
(dp2436
sg82
g2382
sg75
(lp2437
g68
(g89
g70
NtRp2438
(dp2439
g73
(dp2440
sg82
g2434
sg75
(lp2441
g68
(g69
g70
NtRp2442
(dp2443
g73
(dp2444
g81
I3
ssg82
g2438
sg75
(lp2445
g1511
asbasbasbasbasbasbasbag68
(g84
g70
NtRp2446
(dp2447
g73
(dp2448
sg82
g2171
sg75
(lp2449
g68
(g89
g70
NtRp2450
(dp2451
g73
(dp2452
g93
g94
ssg82
g2446
sg75
(lp2453
g1779
asbag68
(g89
g70
NtRp2454
(dp2455
g73
(dp2456
g100
g101
ssg82
g2446
sg75
(lp2457
S':'
asbag68
(g89
g70
NtRp2458
(dp2459
g73
(dp2460
sg82
g2446
sg75
(lp2461
g68
(g69
g70
NtRp2462
(dp2463
g73
(dp2464
g81
I4
ssg82
g2458
sg75
(lp2465
g68
(g77
g70
NtRp2466
(dp2467
g73
(dp2468
g81
I3
ssg82
Nsg75
(lp2469
g68
(g84
g70
NtRp2470
(dp2471
g73
(dp2472
sg82
g2466
sg75
(lp2473
g68
(g89
g70
NtRp2474
(dp2475
g73
(dp2476
sg82
g2470
sg75
(lp2477
g68
(g69
g70
NtRp2478
(dp2479
g73
(dp2480
g81
I3
ssg82
g2474
sg75
(lp2481
S'2'
asbasbasbag68
(g84
g70
NtRp2482
(dp2483
g73
(dp2484
sg82
g2466
sg75
(lp2485
g68
(g89
g70
NtRp2486
(dp2487
g73
(dp2488
sg82
g2482
sg75
(lp2489
g68
(g69
g70
NtRp2490
(dp2491
g73
(dp2492
g81
I3
ssg82
g2486
sg75
(lp2493
S'3'
asbasbasbag68
(g84
g70
NtRp2494
(dp2495
g73
(dp2496
sg82
g2466
sg75
(lp2497
g68
(g89
g70
NtRp2498
(dp2499
g73
(dp2500
sg82
g2494
sg75
(lp2501
g68
(g69
g70
NtRp2502
(dp2503
g73
(dp2504
g81
I3
ssg82
g2498
sg75
(lp2505
S'2'
asbasbasbag68
(g84
g70
NtRp2506
(dp2507
g73
(dp2508
sg82
g2466
sg75
(lp2509
g68
(g89
g70
NtRp2510
(dp2511
g73
(dp2512
sg82
g2506
sg75
(lp2513
g68
(g69
g70
NtRp2514
(dp2515
g73
(dp2516
g81
I3
ssg82
g2510
sg75
(lp2517
S'datetime.datetime(2012, 12, 17, 15, 3, 30)'
p2518
asbasbasbag68
(g84
g70
NtRp2519
(dp2520
g73
(dp2521
sg82
g2466
sg75
(lp2522
g68
(g89
g70
NtRp2523
(dp2524
g73
(dp2525
sg82
g2519
sg75
(lp2526
g68
(g69
g70
NtRp2527
(dp2528
g73
(dp2529
g81
I3
ssg82
g2523
sg75
(lp2530
g1857
asbasbasbasbasbasbasbasbasbasbasbag68
(g84
g70
NtRp2531
(dp2532
g73
(dp2533
sg82
g78
sg75
(lp2534
g68
(g89
g70
NtRp2535
(dp2536
g73
(dp2537
g93
g94
ssg82
g2531
sg75
(lp2538
S'is_https'
p2539
asbag68
(g89
g70
NtRp2540
(dp2541
g73
(dp2542
g100
g101
ssg82
g2531
sg75
(lp2543
S':'
asbag68
(g89
g70
NtRp2544
(dp2545
g73
(dp2546
sg82
g2531
sg75
(lp2547
g68
(g69
g70
NtRp2548
(dp2549
g73
(dp2550
g81
I5
ssg82
g2544
sg75
(lp2551
g111
asbasbasbag68
(g84
g70
NtRp2552
(dp2553
g73
(dp2554
sg82
g78
sg75
(lp2555
g68
(g89
g70
NtRp2556
(dp2557
g73
(dp2558
g93
g94
ssg82
g2552
sg75
(lp2559
S'is_local'
p2560
asbag68
(g89
g70
NtRp2561
(dp2562
g73
(dp2563
g100
g101
ssg82
g2552
sg75
(lp2564
S':'
asbag68
(g89
g70
NtRp2565
(dp2566
g73
(dp2567
sg82
g2552
sg75
(lp2568
g68
(g69
g70
NtRp2569
(dp2570
g73
(dp2571
g81
I5
ssg82
g2565
sg75
(lp2572
g1966
asbasbasbag68
(g84
g70
NtRp2573
(dp2574
g73
(dp2575
sg82
g78
sg75
(lp2576
g68
(g89
g70
NtRp2577
(dp2578
g73
(dp2579
g93
g94
ssg82
g2573
sg75
(lp2580
S'is_restful'
p2581
asbag68
(g89
g70
NtRp2582
(dp2583
g73
(dp2584
g100
g101
ssg82
g2573
sg75
(lp2585
S':'
asbag68
(g89
g70
NtRp2586
(dp2587
g73
(dp2588
sg82
g2573
sg75
(lp2589
g68
(g69
g70
NtRp2590
(dp2591
g73
(dp2592
g81
I5
ssg82
g2586
sg75
(lp2593
g111
asbasbasbag68
(g84
g70
NtRp2594
(dp2595
g73
(dp2596
sg82
g78
sg75
(lp2597
g68
(g89
g70
NtRp2598
(dp2599
g73
(dp2600
g93
g94
ssg82
g2594
sg75
(lp2601
S'now'
p2602
asbag68
(g89
g70
NtRp2603
(dp2604
g73
(dp2605
g100
g101
ssg82
g2594
sg75
(lp2606
S':'
asbag68
(g89
g70
NtRp2607
(dp2608
g73
(dp2609
sg82
g2594
sg75
(lp2610
g68
(g69
g70
NtRp2611
(dp2612
g73
(dp2613
g81
I5
ssg82
g2607
sg75
(lp2614
S'datetime.datetime(2013, 8, 25, 19, 52, 24, 615465)'
p2615
asbasbasbag68
(g84
g70
NtRp2616
(dp2617
g73
(dp2618
sg82
g78
sg75
(lp2619
g68
(g89
g70
NtRp2620
(dp2621
g73
(dp2622
g93
g94
ssg82
g2616
sg75
(lp2623
S'post_vars'
p2624
asbag68
(g89
g70
NtRp2625
(dp2626
g73
(dp2627
g100
g101
ssg82
g2616
sg75
(lp2628
S':'
asbag68
(g89
g70
NtRp2629
(dp2630
g73
(dp2631
sg82
g2616
sg75
(lp2632
g68
(g69
g70
NtRp2633
(dp2634
g73
(dp2635
g81
I5
ssg82
g2629
sg75
(lp2636
g68
(g77
g70
NtRp2637
(dp2638
g73
(dp2639
g81
I4
ssg82
Nsg75
(lp2640
sbasbasbasbag68
(g84
g70
NtRp2641
(dp2642
g73
(dp2643
sg82
g78
sg75
(lp2644
g68
(g89
g70
NtRp2645
(dp2646
g73
(dp2647
g93
g94
ssg82
g2641
sg75
(lp2648
S'raw_args'
p2649
asbag68
(g89
g70
NtRp2650
(dp2651
g73
(dp2652
g100
g101
ssg82
g2641
sg75
(lp2653
S':'
asbag68
(g89
g70
NtRp2654
(dp2655
g73
(dp2656
sg82
g2641
sg75
(lp2657
g68
(g69
g70
NtRp2658
(dp2659
g73
(dp2660
g81
I5
ssg82
g2654
sg75
(lp2661
S''
asbasbasbag68
(g84
g70
NtRp2662
(dp2663
g73
(dp2664
sg82
g78
sg75
(lp2665
g68
(g89
g70
NtRp2666
(dp2667
g73
(dp2668
g93
g94
ssg82
g2662
sg75
(lp2669
S'raw_extension'
p2670
asbag68
(g89
g70
NtRp2671
(dp2672
g73
(dp2673
g100
g101
ssg82
g2662
sg75
(lp2674
S':'
asbag68
(g89
g70
NtRp2675
(dp2676
g73
(dp2677
sg82
g2662
sg75
(lp2678
g68
(g69
g70
NtRp2679
(dp2680
g73
(dp2681
g81
I5
ssg82
g2675
sg75
(lp2682
S'None'
p2683
asbasbasbag68
(g84
g70
NtRp2684
(dp2685
g73
(dp2686
sg82
g78
sg75
(lp2687
g68
(g89
g70
NtRp2688
(dp2689
g73
(dp2690
g93
g94
ssg82
g2684
sg75
(lp2691
S'url'
p2692
asbag68
(g89
g70
NtRp2693
(dp2694
g73
(dp2695
g100
g101
ssg82
g2684
sg75
(lp2696
S':'
asbag68
(g89
g70
NtRp2697
(dp2698
g73
(dp2699
sg82
g2684
sg75
(lp2700
g68
(g69
g70
NtRp2701
(dp2702
g73
(dp2703
g81
I5
ssg82
g2697
sg75
(lp2704
g1533
asbasbasbag68
(g84
g70
NtRp2705
(dp2706
g73
(dp2707
sg82
g78
sg75
(lp2708
g68
(g89
g70
NtRp2709
(dp2710
g73
(dp2711
g93
g94
ssg82
g2705
sg75
(lp2712
S'utcnow'
p2713
asbag68
(g89
g70
NtRp2714
(dp2715
g73
(dp2716
g100
g101
ssg82
g2705
sg75
(lp2717
S':'
asbag68
(g89
g70
NtRp2718
(dp2719
g73
(dp2720
sg82
g2705
sg75
(lp2721
g68
(g69
g70
NtRp2722
(dp2723
g73
(dp2724
g81
I5
ssg82
g2718
sg75
(lp2725
S'datetime.datetime(2013, 8, 25, 14, 22, 24, 615489)'
p2726
asbasbasbag68
(g84
g70
NtRp2727
(dp2728
g73
(dp2729
sg82
g78
sg75
(lp2730
g68
(g89
g70
NtRp2731
(dp2732
g73
(dp2733
g93
g94
ssg82
g2727
sg75
(lp2734
S'uuid'
p2735
asbag68
(g89
g70
NtRp2736
(dp2737
g73
(dp2738
g100
g101
ssg82
g2727
sg75
(lp2739
S':'
asbag68
(g89
g70
NtRp2740
(dp2741
g73
(dp2742
sg82
g2727
sg75
(lp2743
g68
(g69
g70
NtRp2744
(dp2745
g73
(dp2746
g81
I5
ssg82
g2740
sg75
(lp2747
S'Assignment_2/127.0.0.1.2013-08-25.19-52-24.dbc6ae7e-9ed0-4859-935d-889fb155a891'
p2748
asbasbasbag68
(g84
g70
NtRp2749
(dp2750
g73
(dp2751
sg82
g78
sg75
(lp2752
g68
(g89
g70
NtRp2753
(dp2754
g73
(dp2755
g93
g94
ssg82
g2749
sg75
(lp2756
S'vars'
p2757
asbag68
(g89
g70
NtRp2758
(dp2759
g73
(dp2760
g100
g101
ssg82
g2749
sg75
(lp2761
S':'
asbag68
(g89
g70
NtRp2762
(dp2763
g73
(dp2764
sg82
g2749
sg75
(lp2765
g68
(g69
g70
NtRp2766
(dp2767
g73
(dp2768
g81
I5
ssg82
g2762
sg75
(lp2769
g68
(g77
g70
NtRp2770
(dp2771
g73
(dp2772
g81
I4
ssg82
Nsg75
(lp2773
sbasbasbasbag68
(g84
g70
NtRp2774
(dp2775
g73
(dp2776
sg82
g78
sg75
(lp2777
g68
(g89
g70
NtRp2778
(dp2779
g73
(dp2780
g93
g94
ssg82
g2774
sg75
(lp2781
S'wsgi'
p2782
asbag68
(g89
g70
NtRp2783
(dp2784
g73
(dp2785
g100
g101
ssg82
g2774
sg75
(lp2786
S':'
asbag68
(g89
g70
NtRp2787
(dp2788
g73
(dp2789
sg82
g2774
sg75
(lp2790
g68
(g69
g70
NtRp2791
(dp2792
g73
(dp2793
g81
I5
ssg82
g2787
sg75
(lp2794
g68
(g77
g70
NtRp2795
(dp2796
g73
(dp2797
g81
I4
ssg82
Nsg75
(lp2798
g68
(g84
g70
NtRp2799
(dp2800
g73
(dp2801
sg82
g2795
sg75
(lp2802
g68
(g89
g70
NtRp2803
(dp2804
g73
(dp2805
g93
g94
ssg82
g2799
sg75
(lp2806
S'environ'
p2807
asbag68
(g89
g70
NtRp2808
(dp2809
g73
(dp2810
g100
g101
ssg82
g2799
sg75
(lp2811
S':'
asbag68
(g89
g70
NtRp2812
(dp2813
g73
(dp2814
sg82
g2799
sg75
(lp2815
g68
(g69
g70
NtRp2816
(dp2817
g73
(dp2818
g81
I4
ssg82
g2812
sg75
(lp2819
g68
(g77
g70
NtRp2820
(dp2821
g73
(dp2822
g81
I3
ssg82
Nsg75
(lp2823
g68
(g84
g70
NtRp2824
(dp2825
g73
(dp2826
sg82
g2820
sg75
(lp2827
g68
(g89
g70
NtRp2828
(dp2829
g73
(dp2830
g93
g94
ssg82
g2824
sg75
(lp2831
S'HTTP_ACCEPT'
p2832
asbag68
(g89
g70
NtRp2833
(dp2834
g73
(dp2835
g100
g101
ssg82
g2824
sg75
(lp2836
S':'
asbag68
(g89
g70
NtRp2837
(dp2838
g73
(dp2839
sg82
g2824
sg75
(lp2840
g68
(g69
g70
NtRp2841
(dp2842
g73
(dp2843
g81
I3
ssg82
g2837
sg75
(lp2844
g1225
asbasbasbag68
(g84
g70
NtRp2845
(dp2846
g73
(dp2847
sg82
g2820
sg75
(lp2848
g68
(g89
g70
NtRp2849
(dp2850
g73
(dp2851
g93
g94
ssg82
g2845
sg75
(lp2852
S'HTTP_ACCEPT_ENCODING'
p2853
asbag68
(g89
g70
NtRp2854
(dp2855
g73
(dp2856
g100
g101
ssg82
g2845
sg75
(lp2857
S':'
asbag68
(g89
g70
NtRp2858
(dp2859
g73
(dp2860
sg82
g2845
sg75
(lp2861
g68
(g69
g70
NtRp2862
(dp2863
g73
(dp2864
g81
I3
ssg82
g2858
sg75
(lp2865
g1247
asbasbasbag68
(g84
g70
NtRp2866
(dp2867
g73
(dp2868
sg82
g2820
sg75
(lp2869
g68
(g89
g70
NtRp2870
(dp2871
g73
(dp2872
g93
g94
ssg82
g2866
sg75
(lp2873
S'HTTP_ACCEPT_LANGUAGE'
p2874
asbag68
(g89
g70
NtRp2875
(dp2876
g73
(dp2877
g100
g101
ssg82
g2866
sg75
(lp2878
S':'
asbag68
(g89
g70
NtRp2879
(dp2880
g73
(dp2881
sg82
g2866
sg75
(lp2882
g68
(g69
g70
NtRp2883
(dp2884
g73
(dp2885
g81
I3
ssg82
g2879
sg75
(lp2886
g1269
asbasbasbag68
(g84
g70
NtRp2887
(dp2888
g73
(dp2889
sg82
g2820
sg75
(lp2890
g68
(g89
g70
NtRp2891
(dp2892
g73
(dp2893
g93
g94
ssg82
g2887
sg75
(lp2894
S'HTTP_CONNECTION'
p2895
asbag68
(g89
g70
NtRp2896
(dp2897
g73
(dp2898
g100
g101
ssg82
g2887
sg75
(lp2899
S':'
asbag68
(g89
g70
NtRp2900
(dp2901
g73
(dp2902
sg82
g2887
sg75
(lp2903
g68
(g69
g70
NtRp2904
(dp2905
g73
(dp2906
g81
I3
ssg82
g2900
sg75
(lp2907
g1291
asbasbasbag68
(g84
g70
NtRp2908
(dp2909
g73
(dp2910
sg82
g2820
sg75
(lp2911
g68
(g89
g70
NtRp2912
(dp2913
g73
(dp2914
g93
g94
ssg82
g2908
sg75
(lp2915
S'HTTP_COOKIE'
p2916
asbag68
(g89
g70
NtRp2917
(dp2918
g73
(dp2919
g100
g101
ssg82
g2908
sg75
(lp2920
S':'
asbag68
(g89
g70
NtRp2921
(dp2922
g73
(dp2923
sg82
g2908
sg75
(lp2924
g68
(g69
g70
NtRp2925
(dp2926
g73
(dp2927
g81
I3
ssg82
g2921
sg75
(lp2928
g1313
asbasbasbag68
(g84
g70
NtRp2929
(dp2930
g73
(dp2931
sg82
g2820
sg75
(lp2932
g68
(g89
g70
NtRp2933
(dp2934
g73
(dp2935
g93
g94
ssg82
g2929
sg75
(lp2936
S'HTTP_HOST'
p2937
asbag68
(g89
g70
NtRp2938
(dp2939
g73
(dp2940
g100
g101
ssg82
g2929
sg75
(lp2941
S':'
asbag68
(g89
g70
NtRp2942
(dp2943
g73
(dp2944
sg82
g2929
sg75
(lp2945
g68
(g69
g70
NtRp2946
(dp2947
g73
(dp2948
g81
I3
ssg82
g2942
sg75
(lp2949
g1335
asbasbasbag68
(g84
g70
NtRp2950
(dp2951
g73
(dp2952
sg82
g2820
sg75
(lp2953
g68
(g89
g70
NtRp2954
(dp2955
g73
(dp2956
g93
g94
ssg82
g2950
sg75
(lp2957
S'HTTP_REFERER'
p2958
asbag68
(g89
g70
NtRp2959
(dp2960
g73
(dp2961
g100
g101
ssg82
g2950
sg75
(lp2962
S':'
asbag68
(g89
g70
NtRp2963
(dp2964
g73
(dp2965
sg82
g2950
sg75
(lp2966
g68
(g69
g70
NtRp2967
(dp2968
g73
(dp2969
g81
I3
ssg82
g2963
sg75
(lp2970
g1357
asbasbasbag68
(g84
g70
NtRp2971
(dp2972
g73
(dp2973
sg82
g2820
sg75
(lp2974
g68
(g89
g70
NtRp2975
(dp2976
g73
(dp2977
g93
g94
ssg82
g2971
sg75
(lp2978
S'HTTP_USER_AGENT'
p2979
asbag68
(g89
g70
NtRp2980
(dp2981
g73
(dp2982
g100
g101
ssg82
g2971
sg75
(lp2983
S':'
asbag68
(g89
g70
NtRp2984
(dp2985
g73
(dp2986
sg82
g2971
sg75
(lp2987
g68
(g69
g70
NtRp2988
(dp2989
g73
(dp2990
g81
I3
ssg82
g2984
sg75
(lp2991
g1379
asbasbasbag68
(g84
g70
NtRp2992
(dp2993
g73
(dp2994
sg82
g2820
sg75
(lp2995
g68
(g89
g70
NtRp2996
(dp2997
g73
(dp2998
g93
g94
ssg82
g2992
sg75
(lp2999
S'PATH_INFO'
p3000
asbag68
(g89
g70
NtRp3001
(dp3002
g73
(dp3003
g100
g101
ssg82
g2992
sg75
(lp3004
S':'
asbag68
(g89
g70
NtRp3005
(dp3006
g73
(dp3007
sg82
g2992
sg75
(lp3008
g68
(g69
g70
NtRp3009
(dp3010
g73
(dp3011
g81
I3
ssg82
g3005
sg75
(lp3012
g1533
asbasbasbag68
(g84
g70
NtRp3013
(dp3014
g73
(dp3015
sg82
g2820
sg75
(lp3016
g68
(g89
g70
NtRp3017
(dp3018
g73
(dp3019
g93
g94
ssg82
g3013
sg75
(lp3020
S'QUERY_STRING'
p3021
asbag68
(g89
g70
NtRp3022
(dp3023
g73
(dp3024
g100
g101
ssg82
g3013
sg75
(lp3025
S':'
asbag68
(g89
g70
NtRp3026
(dp3027
g73
(dp3028
sg82
g3013
sg75
(lp3029
g68
(g69
g70
NtRp3030
(dp3031
g73
(dp3032
g81
I3
ssg82
g3026
sg75
(lp3033
S''
asbasbasbag68
(g84
g70
NtRp3034
(dp3035
g73
(dp3036
sg82
g2820
sg75
(lp3037
g68
(g89
g70
NtRp3038
(dp3039
g73
(dp3040
g93
g94
ssg82
g3034
sg75
(lp3041
S'REMOTE_ADDR'
p3042
asbag68
(g89
g70
NtRp3043
(dp3044
g73
(dp3045
g100
g101
ssg82
g3034
sg75
(lp3046
S':'
asbag68
(g89
g70
NtRp3047
(dp3048
g73
(dp3049
sg82
g3034
sg75
(lp3050
g68
(g69
g70
NtRp3051
(dp3052
g73
(dp3053
g81
I3
ssg82
g3047
sg75
(lp3054
g223
asbasbasbag68
(g84
g70
NtRp3055
(dp3056
g73
(dp3057
sg82
g2820
sg75
(lp3058
g68
(g89
g70
NtRp3059
(dp3060
g73
(dp3061
g93
g94
ssg82
g3055
sg75
(lp3062
S'REMOTE_PORT'
p3063
asbag68
(g89
g70
NtRp3064
(dp3065
g73
(dp3066
g100
g101
ssg82
g3055
sg75
(lp3067
S':'
asbag68
(g89
g70
NtRp3068
(dp3069
g73
(dp3070
sg82
g3055
sg75
(lp3071
g68
(g69
g70
NtRp3072
(dp3073
g73
(dp3074
g81
I3
ssg82
g3068
sg75
(lp3075
g1597
asbasbasbag68
(g84
g70
NtRp3076
(dp3077
g73
(dp3078
sg82
g2820
sg75
(lp3079
g68
(g89
g70
NtRp3080
(dp3081
g73
(dp3082
g93
g94
ssg82
g3076
sg75
(lp3083
S'REQUEST_METHOD'
p3084
asbag68
(g89
g70
NtRp3085
(dp3086
g73
(dp3087
g100
g101
ssg82
g3076
sg75
(lp3088
S':'
asbag68
(g89
g70
NtRp3089
(dp3090
g73
(dp3091
sg82
g3076
sg75
(lp3092
g68
(g69
g70
NtRp3093
(dp3094
g73
(dp3095
g81
I3
ssg82
g3089
sg75
(lp3096
g1619
asbasbasbag68
(g84
g70
NtRp3097
(dp3098
g73
(dp3099
sg82
g2820
sg75
(lp3100
g68
(g89
g70
NtRp3101
(dp3102
g73
(dp3103
g93
g94
ssg82
g3097
sg75
(lp3104
S'REQUEST_URI'
p3105
asbag68
(g89
g70
NtRp3106
(dp3107
g73
(dp3108
g100
g101
ssg82
g3097
sg75
(lp3109
S':'
asbag68
(g89
g70
NtRp3110
(dp3111
g73
(dp3112
sg82
g3097
sg75
(lp3113
g68
(g69
g70
NtRp3114
(dp3115
g73
(dp3116
g81
I3
ssg82
g3110
sg75
(lp3117
g1533
asbasbasbag68
(g84
g70
NtRp3118
(dp3119
g73
(dp3120
sg82
g2820
sg75
(lp3121
g68
(g89
g70
NtRp3122
(dp3123
g73
(dp3124
g93
g94
ssg82
g3118
sg75
(lp3125
S'SCRIPT_NAME'
p3126
asbag68
(g89
g70
NtRp3127
(dp3128
g73
(dp3129
g100
g101
ssg82
g3118
sg75
(lp3130
S':'
asbag68
(g89
g70
NtRp3131
(dp3132
g73
(dp3133
sg82
g3118
sg75
(lp3134
g68
(g69
g70
NtRp3135
(dp3136
g73
(dp3137
g81
I3
ssg82
g3131
sg75
(lp3138
S''
asbasbasbag68
(g84
g70
NtRp3139
(dp3140
g73
(dp3141
sg82
g2820
sg75
(lp3142
g68
(g89
g70
NtRp3143
(dp3144
g73
(dp3145
g93
g94
ssg82
g3139
sg75
(lp3146
S'SERVER_NAME'
p3147
asbag68
(g89
g70
NtRp3148
(dp3149
g73
(dp3150
g100
g101
ssg82
g3139
sg75
(lp3151
S':'
asbag68
(g89
g70
NtRp3152
(dp3153
g73
(dp3154
sg82
g3139
sg75
(lp3155
g68
(g69
g70
NtRp3156
(dp3157
g73
(dp3158
g81
I3
ssg82
g3152
sg75
(lp3159
g1683
asbasbasbag68
(g84
g70
NtRp3160
(dp3161
g73
(dp3162
sg82
g2820
sg75
(lp3163
g68
(g89
g70
NtRp3164
(dp3165
g73
(dp3166
g93
g94
ssg82
g3160
sg75
(lp3167
S'SERVER_PORT'
p3168
asbag68
(g89
g70
NtRp3169
(dp3170
g73
(dp3171
g100
g101
ssg82
g3160
sg75
(lp3172
S':'
asbag68
(g89
g70
NtRp3173
(dp3174
g73
(dp3175
sg82
g3160
sg75
(lp3176
g68
(g69
g70
NtRp3177
(dp3178
g73
(dp3179
g81
I3
ssg82
g3173
sg75
(lp3180
g1705
asbasbasbag68
(g84
g70
NtRp3181
(dp3182
g73
(dp3183
sg82
g2820
sg75
(lp3184
g68
(g89
g70
NtRp3185
(dp3186
g73
(dp3187
g93
g94
ssg82
g3181
sg75
(lp3188
S'SERVER_PROTOCOL'
p3189
asbag68
(g89
g70
NtRp3190
(dp3191
g73
(dp3192
g100
g101
ssg82
g3181
sg75
(lp3193
S':'
asbag68
(g89
g70
NtRp3194
(dp3195
g73
(dp3196
sg82
g3181
sg75
(lp3197
g68
(g69
g70
NtRp3198
(dp3199
g73
(dp3200
g81
I3
ssg82
g3194
sg75
(lp3201
g1727
asbasbasbag68
(g84
g70
NtRp3202
(dp3203
g73
(dp3204
sg82
g2820
sg75
(lp3205
g68
(g89
g70
NtRp3206
(dp3207
g73
(dp3208
g93
g94
ssg82
g3202
sg75
(lp3209
S'SERVER_SOFTWARE'
p3210
asbag68
(g89
g70
NtRp3211
(dp3212
g73
(dp3213
g100
g101
ssg82
g3202
sg75
(lp3214
S':'
asbag68
(g89
g70
NtRp3215
(dp3216
g73
(dp3217
sg82
g3202
sg75
(lp3218
g68
(g69
g70
NtRp3219
(dp3220
g73
(dp3221
g81
I3
ssg82
g3215
sg75
(lp3222
g1749
asbasbasbag68
(g84
g70
NtRp3223
(dp3224
g73
(dp3225
sg82
g2820
sg75
(lp3226
g68
(g89
g70
NtRp3227
(dp3228
g73
(dp3229
g93
g94
ssg82
g3223
sg75
(lp3230
S'wsgi.errors'
p3231
asbag68
(g89
g70
NtRp3232
(dp3233
g73
(dp3234
g100
g101
ssg82
g3223
sg75
(lp3235
S':'
asbag68
(g89
g70
NtRp3236
(dp3237
g73
(dp3238
sg82
g3223
sg75
(lp3239
g68
(g69
g70
NtRp3240
(dp3241
g73
(dp3242
g81
I3
ssg82
g3236
sg75
(lp3243
S"<open file '<stderr>', mode 'w' at 0x7f0330462270>"
p3244
asbasbasbag68
(g84
g70
NtRp3245
(dp3246
g73
(dp3247
sg82
g2820
sg75
(lp3248
g68
(g89
g70
NtRp3249
(dp3250
g73
(dp3251
g93
g94
ssg82
g3245
sg75
(lp3252
S'wsgi.file_wrapper'
p3253
asbag68
(g89
g70
NtRp3254
(dp3255
g73
(dp3256
g100
g101
ssg82
g3245
sg75
(lp3257
S':'
asbag68
(g89
g70
NtRp3258
(dp3259
g73
(dp3260
sg82
g3245
sg75
(lp3261
g68
(g69
g70
NtRp3262
(dp3263
g73
(dp3264
g81
I3
ssg82
g3258
sg75
(lp3265
S'<class wsgiref.util.FileWrapper at 0x2fb0e20>'
p3266
asbasbasbag68
(g84
g70
NtRp3267
(dp3268
g73
(dp3269
sg82
g2820
sg75
(lp3270
g68
(g89
g70
NtRp3271
(dp3272
g73
(dp3273
g93
g94
ssg82
g3267
sg75
(lp3274
S'wsgi.input'
p3275
asbag68
(g89
g70
NtRp3276
(dp3277
g73
(dp3278
g100
g101
ssg82
g3267
sg75
(lp3279
S':'
asbag68
(g89
g70
NtRp3280
(dp3281
g73
(dp3282
sg82
g3267
sg75
(lp3283
g68
(g69
g70
NtRp3284
(dp3285
g73
(dp3286
g81
I3
ssg82
g3280
sg75
(lp3287
S'<cStringIO.StringO object at 0x7f030829c110>'
p3288
asbasbasbag68
(g84
g70
NtRp3289
(dp3290
g73
(dp3291
sg82
g2820
sg75
(lp3292
g68
(g89
g70
NtRp3293
(dp3294
g73
(dp3295
g93
g94
ssg82
g3289
sg75
(lp3296
S'wsgi.multiprocess'
p3297
asbag68
(g89
g70
NtRp3298
(dp3299
g73
(dp3300
g100
g101
ssg82
g3289
sg75
(lp3301
S':'
asbag68
(g89
g70
NtRp3302
(dp3303
g73
(dp3304
sg82
g3289
sg75
(lp3305
g68
(g69
g70
NtRp3306
(dp3307
g73
(dp3308
g81
I3
ssg82
g3302
sg75
(lp3309
g111
asbasbasbag68
(g84
g70
NtRp3310
(dp3311
g73
(dp3312
sg82
g2820
sg75
(lp3313
g68
(g89
g70
NtRp3314
(dp3315
g73
(dp3316
g93
g94
ssg82
g3310
sg75
(lp3317
S'wsgi.multithread'
p3318
asbag68
(g89
g70
NtRp3319
(dp3320
g73
(dp3321
g100
g101
ssg82
g3310
sg75
(lp3322
S':'
asbag68
(g89
g70
NtRp3323
(dp3324
g73
(dp3325
sg82
g3310
sg75
(lp3326
g68
(g69
g70
NtRp3327
(dp3328
g73
(dp3329
g81
I3
ssg82
g3323
sg75
(lp3330
g1966
asbasbasbag68
(g84
g70
NtRp3331
(dp3332
g73
(dp3333
sg82
g2820
sg75
(lp3334
g68
(g89
g70
NtRp3335
(dp3336
g73
(dp3337
g93
g94
ssg82
g3331
sg75
(lp3338
S'wsgi.run_once'
p3339
asbag68
(g89
g70
NtRp3340
(dp3341
g73
(dp3342
g100
g101
ssg82
g3331
sg75
(lp3343
S':'
asbag68
(g89
g70
NtRp3344
(dp3345
g73
(dp3346
sg82
g3331
sg75
(lp3347
g68
(g69
g70
NtRp3348
(dp3349
g73
(dp3350
g81
I3
ssg82
g3344
sg75
(lp3351
g111
asbasbasbag68
(g84
g70
NtRp3352
(dp3353
g73
(dp3354
sg82
g2820
sg75
(lp3355
g68
(g89
g70
NtRp3356
(dp3357
g73
(dp3358
g93
g94
ssg82
g3352
sg75
(lp3359
S'wsgi.url_scheme'
p3360
asbag68
(g89
g70
NtRp3361
(dp3362
g73
(dp3363
g100
g101
ssg82
g3352
sg75
(lp3364
S':'
asbag68
(g89
g70
NtRp3365
(dp3366
g73
(dp3367
sg82
g3352
sg75
(lp3368
g68
(g69
g70
NtRp3369
(dp3370
g73
(dp3371
g81
I3
ssg82
g3365
sg75
(lp3372
g2009
asbasbasbag68
(g84
g70
NtRp3373
(dp3374
g73
(dp3375
sg82
g2820
sg75
(lp3376
g68
(g89
g70
NtRp3377
(dp3378
g73
(dp3379
g93
g94
ssg82
g3373
sg75
(lp3380
S'wsgi.version'
p3381
asbag68
(g89
g70
NtRp3382
(dp3383
g73
(dp3384
g100
g101
ssg82
g3373
sg75
(lp3385
S':'
asbag68
(g89
g70
NtRp3386
(dp3387
g73
(dp3388
sg82
g3373
sg75
(lp3389
g68
(g69
g70
NtRp3390
(dp3391
g73
(dp3392
g81
I3
ssg82
g3386
sg75
(lp3393
S'1'
asbasbasbasbasbasbasbasbasbasbasbasbasbsS'frames'
p3394
(lp3395
(dp3396
S'file'
p3397
S'/home/shipra/Desktop/Semester 1.2/ITWS-2/web2py/gluon/restricted.py'
p3398
sS'dump'
p3399
(dp3400
S'code'
p3401
S'\'left_sidebar_enabled,right_sidebar_enabled=False..."></script>\\\\n</body>\\\\n</html>\\\\n\\\\n\\\', escape=False)\''
p3402
sS'layer'
p3403
S"'/home/shipra/Desktop/Semester 1.2/ITWS-2/web2py/applications/Assignment_2/views/default/index.html'"
p3404
sS'global compile2'
p3405
S'<function compile2>'
p3406
sS'ccode'
p3407
S'undefined'
p3408
ssS'lnum'
p3409
I211
sS'lines'
p3410
(dp3411
I206
S"    environment['__name__'] = '__restricted__'"
p3412
sI207
S'    try:'
p3413
sI208
S'        if isinstance(code, types.CodeType):'
p3414
sI209
S'            ccode = code'
p3415
sI210
S'        else:'
p3416
sI211
S'            ccode = compile2(code, layer)'
p3417
sI212
S'        exec ccode in environment'
p3418
sI213
S'    except HTTP:'
p3419
sI214
S'        raise'
p3420
sI215
S'    except RestrictedError:'
p3421
ssS'call'
p3422
S'(code=\'left_sidebar_enabled,right_sidebar_enabled=False..."></script>\\\\n</body>\\\\n</html>\\\\n\\\\n\\\', escape=False)\', environment={\'A\': <class \'gluon.html.A\'>, \'Auth\': <class \'gluon.tools.Auth\'>, \'B\': <class \'gluon.html.B\'>, \'BEAUTIFY\': <class \'gluon.html.BEAUTIFY\'>, \'BODY\': <class \'gluon.html.BODY\'>, \'BR\': <class \'gluon.html.BR\'>, \'BUTTON\': <class \'gluon.html.BUTTON\'>, \'CAT\': <class \'gluon.html.CAT\'>, \'CENTER\': <class \'gluon.html.CENTER\'>, \'CLEANUP\': <class \'gluon.validators.CLEANUP\'>, ...}, layer=\'/home/shipra/Desktop/Semester 1.2/ITWS-2/web2py/applications/Assignment_2/views/default/index.html\')'
p3423
sS'func'
p3424
S'restricted'
p3425
sa(dp3426
g3397
S'/home/shipra/Desktop/Semester 1.2/ITWS-2/web2py/gluon/restricted.py'
p3427
sg3399
(dp3428
S'builtincompile'
p3429
S'<built-in function compile>'
p3430
sS'code'
p3431
S'\'left_sidebar_enabled,right_sidebar_enabled=False..."></script>\\\\n</body>\\\\n</html>\\\\n\\\\n\\\', escape=False)\''
p3432
sS'code.rstrip'
p3433
S'<built-in method rstrip of str object>'
p3434
sS').replace'
p3435
g3408
sS'layer'
p3436
S"'/home/shipra/Desktop/Semester 1.2/ITWS-2/web2py/applications/Assignment_2/views/default/index.html'"
p3437
ssg3409
I194
sg3410
(dp3438
I192
S"    The +'\\n' is necessary else compile fails when code ends in a comment."
p3439
sI193
S'    """'
p3440
sI194
S"    return compile(code.rstrip().replace('\\r\\n', '\\n') + '\\n', layer, 'exec')"
p3441
sI195
S''
sI196
S''
sI197
S"def restricted(code, environment=None, layer='Unknown'):"
p3442
sI198
S'    """'
p3443
sI189
S''
sI190
S'def compile2(code, layer):'
p3444
sI191
S'    """'
p3445
ssg3422
S'(code=\'left_sidebar_enabled,right_sidebar_enabled=False..."></script>\\\\n</body>\\\\n</html>\\\\n\\\\n\\\', escape=False)\', layer=\'/home/shipra/Desktop/Semester 1.2/ITWS-2/web2py/applications/Assignment_2/views/default/index.html\')'
p3446
sg3424
S'compile2'
p3447
sasS'pyver'
p3448
S'Python 2.7.3: /usr/bin/python'
p3449
sS'session'
p3450
g68
(g69
g70
NtRp3451
(dp3452
g73
(dp3453
sg75
(lp3454
g68
(g77
g70
NtRp3455
(dp3456
g73
(dp3457
g81
I5
ssg82
Nsg75
(lp3458
g68
(g84
g70
NtRp3459
(dp3460
g73
(dp3461
sg82
g3455
sg75
(lp3462
g68
(g89
g70
NtRp3463
(dp3464
g73
(dp3465
g93
g94
ssg82
g3459
sg75
(lp3466
S'auth'
p3467
asbag68
(g89
g70
NtRp3468
(dp3469
g73
(dp3470
g100
g101
ssg82
g3459
sg75
(lp3471
S':'
asbag68
(g89
g70
NtRp3472
(dp3473
g73
(dp3474
sg82
g3459
sg75
(lp3475
g68
(g69
g70
NtRp3476
(dp3477
g73
(dp3478
g81
I5
ssg82
g3472
sg75
(lp3479
g68
(g77
g70
NtRp3480
(dp3481
g73
(dp3482
g81
I4
ssg82
Nsg75
(lp3483
g68
(g84
g70
NtRp3484
(dp3485
g73
(dp3486
sg82
g3480
sg75
(lp3487
g68
(g89
g70
NtRp3488
(dp3489
g73
(dp3490
g93
g94
ssg82
g3484
sg75
(lp3491
S'expiration'
p3492
asbag68
(g89
g70
NtRp3493
(dp3494
g73
(dp3495
g100
g101
ssg82
g3484
sg75
(lp3496
S':'
asbag68
(g89
g70
NtRp3497
(dp3498
g73
(dp3499
sg82
g3484
sg75
(lp3500
g68
(g69
g70
NtRp3501
(dp3502
g73
(dp3503
g81
I4
ssg82
g3497
sg75
(lp3504
S'3600'
p3505
asbasbasbag68
(g84
g70
NtRp3506
(dp3507
g73
(dp3508
sg82
g3480
sg75
(lp3509
g68
(g89
g70
NtRp3510
(dp3511
g73
(dp3512
g93
g94
ssg82
g3506
sg75
(lp3513
S'hmac_key'
p3514
asbag68
(g89
g70
NtRp3515
(dp3516
g73
(dp3517
g100
g101
ssg82
g3506
sg75
(lp3518
S':'
asbag68
(g89
g70
NtRp3519
(dp3520
g73
(dp3521
sg82
g3506
sg75
(lp3522
g68
(g69
g70
NtRp3523
(dp3524
g73
(dp3525
g81
I4
ssg82
g3519
sg75
(lp3526
S'cf6de223-d979-4d7d-ad95-8205b569a64b'
p3527
asbasbasbag68
(g84
g70
NtRp3528
(dp3529
g73
(dp3530
sg82
g3480
sg75
(lp3531
g68
(g89
g70
NtRp3532
(dp3533
g73
(dp3534
g93
g94
ssg82
g3528
sg75
(lp3535
S'last_visit'
p3536
asbag68
(g89
g70
NtRp3537
(dp3538
g73
(dp3539
g100
g101
ssg82
g3528
sg75
(lp3540
S':'
asbag68
(g89
g70
NtRp3541
(dp3542
g73
(dp3543
sg82
g3528
sg75
(lp3544
g68
(g69
g70
NtRp3545
(dp3546
g73
(dp3547
g81
I4
ssg82
g3541
sg75
(lp3548
S'datetime.datetime(2013, 8, 25, 19, 49, 10, 975300)'
p3549
asbasbasbag68
(g84
g70
NtRp3550
(dp3551
g73
(dp3552
sg82
g3480
sg75
(lp3553
g68
(g89
g70
NtRp3554
(dp3555
g73
(dp3556
g93
g94
ssg82
g3550
sg75
(lp3557
S'remember'
p3558
asbag68
(g89
g70
NtRp3559
(dp3560
g73
(dp3561
g100
g101
ssg82
g3550
sg75
(lp3562
S':'
asbag68
(g89
g70
NtRp3563
(dp3564
g73
(dp3565
sg82
g3550
sg75
(lp3566
g68
(g69
g70
NtRp3567
(dp3568
g73
(dp3569
g81
I4
ssg82
g3563
sg75
(lp3570
g111
asbasbasbag68
(g84
g70
NtRp3571
(dp3572
g73
(dp3573
sg82
g3480
sg75
(lp3574
g68
(g89
g70
NtRp3575
(dp3576
g73
(dp3577
g93
g94
ssg82
g3571
sg75
(lp3578
S'user'
p3579
asbag68
(g89
g70
NtRp3580
(dp3581
g73
(dp3582
g100
g101
ssg82
g3571
sg75
(lp3583
S':'
asbag68
(g89
g70
NtRp3584
(dp3585
g73
(dp3586
sg82
g3571
sg75
(lp3587
g68
(g69
g70
NtRp3588
(dp3589
g73
(dp3590
g81
I4
ssg82
g3584
sg75
(lp3591
g68
(g77
g70
NtRp3592
(dp3593
g73
(dp3594
g81
I3
ssg82
Nsg75
(lp3595
g68
(g84
g70
NtRp3596
(dp3597
g73
(dp3598
sg82
g3592
sg75
(lp3599
g68
(g89
g70
NtRp3600
(dp3601
g73
(dp3602
g93
g94
ssg82
g3596
sg75
(lp3603
S'email'
p3604
asbag68
(g89
g70
NtRp3605
(dp3606
g73
(dp3607
g100
g101
ssg82
g3596
sg75
(lp3608
S':'
asbag68
(g89
g70
NtRp3609
(dp3610
g73
(dp3611
sg82
g3596
sg75
(lp3612
g68
(g69
g70
NtRp3613
(dp3614
g73
(dp3615
g81
I3
ssg82
g3609
sg75
(lp3616
S'urvashi.senha@gmail.com'
p3617
asbasbasbag68
(g84
g70
NtRp3618
(dp3619
g73
(dp3620
sg82
g3592
sg75
(lp3621
g68
(g89
g70
NtRp3622
(dp3623
g73
(dp3624
g93
g94
ssg82
g3618
sg75
(lp3625
S'first_name'
p3626
asbag68
(g89
g70
NtRp3627
(dp3628
g73
(dp3629
g100
g101
ssg82
g3618
sg75
(lp3630
S':'
asbag68
(g89
g70
NtRp3631
(dp3632
g73
(dp3633
sg82
g3618
sg75
(lp3634
g68
(g69
g70
NtRp3635
(dp3636
g73
(dp3637
g81
I3
ssg82
g3631
sg75
(lp3638
S'Urvashi'
p3639
asbasbasbag68
(g84
g70
NtRp3640
(dp3641
g73
(dp3642
sg82
g3592
sg75
(lp3643
g68
(g89
g70
NtRp3644
(dp3645
g73
(dp3646
g93
g94
ssg82
g3640
sg75
(lp3647
S'id'
p3648
asbag68
(g89
g70
NtRp3649
(dp3650
g73
(dp3651
g100
g101
ssg82
g3640
sg75
(lp3652
S':'
asbag68
(g89
g70
NtRp3653
(dp3654
g73
(dp3655
sg82
g3640
sg75
(lp3656
g68
(g69
g70
NtRp3657
(dp3658
g73
(dp3659
g81
I3
ssg82
g3653
sg75
(lp3660
S'2'
asbasbasbag68
(g84
g70
NtRp3661
(dp3662
g73
(dp3663
sg82
g3592
sg75
(lp3664
g68
(g89
g70
NtRp3665
(dp3666
g73
(dp3667
g93
g94
ssg82
g3661
sg75
(lp3668
S'last_name'
p3669
asbag68
(g89
g70
NtRp3670
(dp3671
g73
(dp3672
g100
g101
ssg82
g3661
sg75
(lp3673
S':'
asbag68
(g89
g70
NtRp3674
(dp3675
g73
(dp3676
sg82
g3661
sg75
(lp3677
g68
(g69
g70
NtRp3678
(dp3679
g73
(dp3680
g81
I3
ssg82
g3674
sg75
(lp3681
S'Senha'
p3682
asbasbasbag68
(g84
g70
NtRp3683
(dp3684
g73
(dp3685
sg82
g3592
sg75
(lp3686
g68
(g89
g70
NtRp3687
(dp3688
g73
(dp3689
g93
g94
ssg82
g3683
sg75
(lp3690
S'registration_id'
p3691
asbag68
(g89
g70
NtRp3692
(dp3693
g73
(dp3694
g100
g101
ssg82
g3683
sg75
(lp3695
S':'
asbag68
(g89
g70
NtRp3696
(dp3697
g73
(dp3698
sg82
g3683
sg75
(lp3699
g68
(g69
g70
NtRp3700
(dp3701
g73
(dp3702
g81
I3
ssg82
g3696
sg75
(lp3703
S''
asbasbasbag68
(g84
g70
NtRp3704
(dp3705
g73
(dp3706
sg82
g3592
sg75
(lp3707
g68
(g89
g70
NtRp3708
(dp3709
g73
(dp3710
g93
g94
ssg82
g3704
sg75
(lp3711
S'registration_key'
p3712
asbag68
(g89
g70
NtRp3713
(dp3714
g73
(dp3715
g100
g101
ssg82
g3704
sg75
(lp3716
S':'
asbag68
(g89
g70
NtRp3717
(dp3718
g73
(dp3719
sg82
g3704
sg75
(lp3720
g68
(g69
g70
NtRp3721
(dp3722
g73
(dp3723
g81
I3
ssg82
g3717
sg75
(lp3724
S''
asbasbasbag68
(g84
g70
NtRp3725
(dp3726
g73
(dp3727
sg82
g3592
sg75
(lp3728
g68
(g89
g70
NtRp3729
(dp3730
g73
(dp3731
g93
g94
ssg82
g3725
sg75
(lp3732
S'reset_password_key'
p3733
asbag68
(g89
g70
NtRp3734
(dp3735
g73
(dp3736
g100
g101
ssg82
g3725
sg75
(lp3737
S':'
asbag68
(g89
g70
NtRp3738
(dp3739
g73
(dp3740
sg82
g3725
sg75
(lp3741
g68
(g69
g70
NtRp3742
(dp3743
g73
(dp3744
g81
I3
ssg82
g3738
sg75
(lp3745
S''
asbasbasbag68
(g84
g70
NtRp3746
(dp3747
g73
(dp3748
sg82
g3592
sg75
(lp3749
g68
(g89
g70
NtRp3750
(dp3751
g73
(dp3752
g93
g94
ssg82
g3746
sg75
(lp3753
S'username'
p3754
asbag68
(g89
g70
NtRp3755
(dp3756
g73
(dp3757
g100
g101
ssg82
g3746
sg75
(lp3758
S':'
asbag68
(g89
g70
NtRp3759
(dp3760
g73
(dp3761
sg82
g3746
sg75
(lp3762
g68
(g69
g70
NtRp3763
(dp3764
g73
(dp3765
g81
I3
ssg82
g3759
sg75
(lp3766
S'vaashi'
p3767
asbasbasbasbasbasbasbag68
(g84
g70
NtRp3768
(dp3769
g73
(dp3770
sg82
g3480
sg75
(lp3771
g68
(g89
g70
NtRp3772
(dp3773
g73
(dp3774
g93
g94
ssg82
g3768
sg75
(lp3775
S'user_groups'
p3776
asbag68
(g89
g70
NtRp3777
(dp3778
g73
(dp3779
g100
g101
ssg82
g3768
sg75
(lp3780
S':'
asbag68
(g89
g70
NtRp3781
(dp3782
g73
(dp3783
sg82
g3768
sg75
(lp3784
g68
(g69
g70
NtRp3785
(dp3786
g73
(dp3787
g81
I4
ssg82
g3781
sg75
(lp3788
g68
(g77
g70
NtRp3789
(dp3790
g73
(dp3791
g81
I3
ssg82
Nsg75
(lp3792
g68
(g84
g70
NtRp3793
(dp3794
g73
(dp3795
sg82
g3789
sg75
(lp3796
g68
(g89
g70
NtRp3797
(dp3798
g73
(dp3799
g93
g94
ssg82
g3793
sg75
(lp3800
S'1'
asbag68
(g89
g70
NtRp3801
(dp3802
g73
(dp3803
g100
g101
ssg82
g3793
sg75
(lp3804
S':'
asbag68
(g89
g70
NtRp3805
(dp3806
g73
(dp3807
sg82
g3793
sg75
(lp3808
g68
(g69
g70
NtRp3809
(dp3810
g73
(dp3811
g81
I3
ssg82
g3805
sg75
(lp3812
S'user_2'
p3813
asbasbasbasbasbasbasbasbasbasbasbag68
(g84
g70
NtRp3814
(dp3815
g73
(dp3816
sg82
g3455
sg75
(lp3817
g68
(g89
g70
NtRp3818
(dp3819
g73
(dp3820
g93
g94
ssg82
g3814
sg75
(lp3821
S'flash'
p3822
asbag68
(g89
g70
NtRp3823
(dp3824
g73
(dp3825
g100
g101
ssg82
g3814
sg75
(lp3826
S':'
asbag68
(g89
g70
NtRp3827
(dp3828
g73
(dp3829
sg82
g3814
sg75
(lp3830
g68
(g69
g70
NtRp3831
(dp3832
g73
(dp3833
g81
I5
ssg82
g3827
sg75
(lp3834
S'None'
p3835
asbasbasbag68
(g84
g70
NtRp3836
(dp3837
g73
(dp3838
sg82
g3455
sg75
(lp3839
g68
(g89
g70
NtRp3840
(dp3841
g73
(dp3842
g93
g94
ssg82
g3836
sg75
(lp3843
S'last_orderby'
p3844
asbag68
(g89
g70
NtRp3845
(dp3846
g73
(dp3847
g100
g101
ssg82
g3836
sg75
(lp3848
S':'
asbag68
(g89
g70
NtRp3849
(dp3850
g73
(dp3851
sg82
g3836
sg75
(lp3852
g68
(g69
g70
NtRp3853
(dp3854
g73
(dp3855
g81
I5
ssg82
g3849
sg75
(lp3856
S'None'
p3857
asbasbasbag68
(g84
g70
NtRp3858
(dp3859
g73
(dp3860
sg82
g3455
sg75
(lp3861
g68
(g89
g70
NtRp3862
(dp3863
g73
(dp3864
g93
g94
ssg82
g3858
sg75
(lp3865
S'last_query'
p3866
asbag68
(g89
g70
NtRp3867
(dp3868
g73
(dp3869
g100
g101
ssg82
g3858
sg75
(lp3870
S':'
asbag68
(g89
g70
NtRp3871
(dp3872
g73
(dp3873
sg82
g3858
sg75
(lp3874
g68
(g69
g70
NtRp3875
(dp3876
g73
(dp3877
g81
I5
ssg82
g3871
sg75
(lp3878
S'db.auth_user.id>0'
p3879
asbasbasbasbasbsS'etype'
p3880
S"<type 'exceptions.SyntaxError'>"
p3881
sS'date'
p3882
S'Sun Aug 25 19:52:24 2013'
p3883
sS'response'
p3884
g68
(g69
g70
NtRp3885
(dp3886
g73
(dp3887
sg75
(lp3888
g68
(g77
g70
NtRp3889
(dp3890
g73
(dp3891
g81
I5
ssg82
Nsg75
(lp3892
g68
(g84
g70
NtRp3893
(dp3894
g73
(dp3895
sg82
g3889
sg75
(lp3896
g68
(g89
g70
NtRp3897
(dp3898
g73
(dp3899
g93
g94
ssg82
g3893
sg75
(lp3900
g166
asbag68
(g89
g70
NtRp3901
(dp3902
g73
(dp3903
g100
g101
ssg82
g3893
sg75
(lp3904
S':'
asbag68
(g89
g70
NtRp3905
(dp3906
g73
(dp3907
sg82
g3893
sg75
(lp3908
g68
(g69
g70
NtRp3909
(dp3910
g73
(dp3911
g81
I5
ssg82
g3905
sg75
(lp3912
S'<cStringIO.StringO object at 0x7f030829c4c8>'
p3913
asbasbasbag68
(g84
g70
NtRp3914
(dp3915
g73
(dp3916
sg82
g3889
sg75
(lp3917
g68
(g89
g70
NtRp3918
(dp3919
g73
(dp3920
g93
g94
ssg82
g3914
sg75
(lp3921
g254
asbag68
(g89
g70
NtRp3922
(dp3923
g73
(dp3924
g100
g101
ssg82
g3914
sg75
(lp3925
S':'
asbag68
(g89
g70
NtRp3926
(dp3927
g73
(dp3928
sg82
g3914
sg75
(lp3929
g68
(g69
g70
NtRp3930
(dp3931
g73
(dp3932
g81
I5
ssg82
g3926
sg75
(lp3933
g68
(g77
g70
NtRp3934
(dp3935
g73
(dp3936
g81
I4
ssg82
Nsg75
(lp3937
g68
(g84
g70
NtRp3938
(dp3939
g73
(dp3940
sg82
g3934
sg75
(lp3941
g68
(g89
g70
NtRp3942
(dp3943
g73
(dp3944
g93
g94
ssg82
g3938
sg75
(lp3945
S'session_id_assignment_2'
p3946
asbag68
(g89
g70
NtRp3947
(dp3948
g73
(dp3949
g100
g101
ssg82
g3938
sg75
(lp3950
S':'
asbag68
(g89
g70
NtRp3951
(dp3952
g73
(dp3953
sg82
g3938
sg75
(lp3954
g68
(g69
g70
NtRp3955
(dp3956
g73
(dp3957
g81
I4
ssg82
g3951
sg75
(lp3958
g672
ag68
(g77
g70
NtRp3959
(dp3960
g73
(dp3961
g81
I3
ssg82
Nsg75
(lp3962
g68
(g84
g70
NtRp3963
(dp3964
g73
(dp3965
sg82
g3959
sg75
(lp3966
g68
(g89
g70
NtRp3967
(dp3968
g73
(dp3969
g93
g94
ssg82
g3963
sg75
(lp3970
g305
asbag68
(g89
g70
NtRp3971
(dp3972
g73
(dp3973
g100
g101
ssg82
g3963
sg75
(lp3974
S':'
asbag68
(g89
g70
NtRp3975
(dp3976
g73
(dp3977
sg82
g3963
sg75
(lp3978
g68
(g69
g70
NtRp3979
(dp3980
g73
(dp3981
g81
I3
ssg82
g3975
sg75
(lp3982
S''
asbasbasbag68
(g84
g70
NtRp3983
(dp3984
g73
(dp3985
sg82
g3959
sg75
(lp3986
g68
(g89
g70
NtRp3987
(dp3988
g73
(dp3989
g93
g94
ssg82
g3983
sg75
(lp3990
g326
asbag68
(g89
g70
NtRp3991
(dp3992
g73
(dp3993
g100
g101
ssg82
g3983
sg75
(lp3994
S':'
asbag68
(g89
g70
NtRp3995
(dp3996
g73
(dp3997
sg82
g3983
sg75
(lp3998
g68
(g69
g70
NtRp3999
(dp4000
g73
(dp4001
g81
I3
ssg82
g3995
sg75
(lp4002
S''
asbasbasbag68
(g84
g70
NtRp4003
(dp4004
g73
(dp4005
sg82
g3959
sg75
(lp4006
g68
(g89
g70
NtRp4007
(dp4008
g73
(dp4009
g93
g94
ssg82
g4003
sg75
(lp4010
g347
asbag68
(g89
g70
NtRp4011
(dp4012
g73
(dp4013
g100
g101
ssg82
g4003
sg75
(lp4014
S':'
asbag68
(g89
g70
NtRp4015
(dp4016
g73
(dp4017
sg82
g4003
sg75
(lp4018
g68
(g69
g70
NtRp4019
(dp4020
g73
(dp4021
g81
I3
ssg82
g4015
sg75
(lp4022
S''
asbasbasbag68
(g84
g70
NtRp4023
(dp4024
g73
(dp4025
sg82
g3959
sg75
(lp4026
g68
(g89
g70
NtRp4027
(dp4028
g73
(dp4029
g93
g94
ssg82
g4023
sg75
(lp4030
g368
asbag68
(g89
g70
NtRp4031
(dp4032
g73
(dp4033
g100
g101
ssg82
g4023
sg75
(lp4034
S':'
asbag68
(g89
g70
NtRp4035
(dp4036
g73
(dp4037
sg82
g4023
sg75
(lp4038
g68
(g69
g70
NtRp4039
(dp4040
g73
(dp4041
g81
I3
ssg82
g4035
sg75
(lp4042
S''
asbasbasbag68
(g84
g70
NtRp4043
(dp4044
g73
(dp4045
sg82
g3959
sg75
(lp4046
g68
(g89
g70
NtRp4047
(dp4048
g73
(dp4049
g93
g94
ssg82
g4043
sg75
(lp4050
g389
asbag68
(g89
g70
NtRp4051
(dp4052
g73
(dp4053
g100
g101
ssg82
g4043
sg75
(lp4054
S':'
asbag68
(g89
g70
NtRp4055
(dp4056
g73
(dp4057
sg82
g4043
sg75
(lp4058
g68
(g69
g70
NtRp4059
(dp4060
g73
(dp4061
g81
I3
ssg82
g4055
sg75
(lp4062
S''
asbasbasbag68
(g84
g70
NtRp4063
(dp4064
g73
(dp4065
sg82
g3959
sg75
(lp4066
g68
(g89
g70
NtRp4067
(dp4068
g73
(dp4069
g93
g94
ssg82
g4063
sg75
(lp4070
g410
asbag68
(g89
g70
NtRp4071
(dp4072
g73
(dp4073
g100
g101
ssg82
g4063
sg75
(lp4074
S':'
asbag68
(g89
g70
NtRp4075
(dp4076
g73
(dp4077
sg82
g4063
sg75
(lp4078
g68
(g69
g70
NtRp4079
(dp4080
g73
(dp4081
g81
I3
ssg82
g4075
sg75
(lp4082
S'/'
asbasbasbag68
(g84
g70
NtRp4083
(dp4084
g73
(dp4085
sg82
g3959
sg75
(lp4086
g68
(g89
g70
NtRp4087
(dp4088
g73
(dp4089
g93
g94
ssg82
g4083
sg75
(lp4090
g431
asbag68
(g89
g70
NtRp4091
(dp4092
g73
(dp4093
g100
g101
ssg82
g4083
sg75
(lp4094
S':'
asbag68
(g89
g70
NtRp4095
(dp4096
g73
(dp4097
sg82
g4083
sg75
(lp4098
g68
(g69
g70
NtRp4099
(dp4100
g73
(dp4101
g81
I3
ssg82
g4095
sg75
(lp4102
S''
asbasbasbag68
(g84
g70
NtRp4103
(dp4104
g73
(dp4105
sg82
g3959
sg75
(lp4106
g68
(g89
g70
NtRp4107
(dp4108
g73
(dp4109
g93
g94
ssg82
g4103
sg75
(lp4110
g452
asbag68
(g89
g70
NtRp4111
(dp4112
g73
(dp4113
g100
g101
ssg82
g4103
sg75
(lp4114
S':'
asbag68
(g89
g70
NtRp4115
(dp4116
g73
(dp4117
sg82
g4103
sg75
(lp4118
g68
(g69
g70
NtRp4119
(dp4120
g73
(dp4121
g81
I3
ssg82
g4115
sg75
(lp4122
S''
asbasbasbasbasbasbasbasbasbasbasbag68
(g84
g70
NtRp4123
(dp4124
g73
(dp4125
sg82
g3889
sg75
(lp4126
g68
(g89
g70
NtRp4127
(dp4128
g73
(dp4129
g93
g94
ssg82
g4123
sg75
(lp4130
S'delimiters'
p4131
asbag68
(g89
g70
NtRp4132
(dp4133
g73
(dp4134
g100
g101
ssg82
g4123
sg75
(lp4135
S':'
asbag68
(g89
g70
NtRp4136
(dp4137
g73
(dp4138
sg82
g4123
sg75
(lp4139
g68
(g69
g70
NtRp4140
(dp4141
g73
(dp4142
g81
I5
ssg82
g4136
sg75
(lp4143
g68
(g77
g70
NtRp4144
(dp4145
g73
(dp4146
g81
I4
ssg82
Nsg75
(lp4147
g68
(g84
g70
NtRp4148
(dp4149
g73
(dp4150
sg82
g4144
sg75
(lp4151
g68
(g89
g70
NtRp4152
(dp4153
g73
(dp4154
sg82
g4148
sg75
(lp4155
g68
(g69
g70
NtRp4156
(dp4157
g73
(dp4158
g81
I4
ssg82
g4152
sg75
(lp4159
S'{{'
p4160
asbasbasbag68
(g84
g70
NtRp4161
(dp4162
g73
(dp4163
sg82
g4144
sg75
(lp4164
g68
(g89
g70
NtRp4165
(dp4166
g73
(dp4167
sg82
g4161
sg75
(lp4168
g68
(g69
g70
NtRp4169
(dp4170
g73
(dp4171
g81
I4
ssg82
g4165
sg75
(lp4172
S'}}'
p4173
asbasbasbasbasbasbasbag68
(g84
g70
NtRp4174
(dp4175
g73
(dp4176
sg82
g3889
sg75
(lp4177
g68
(g89
g70
NtRp4178
(dp4179
g73
(dp4180
g93
g94
ssg82
g4174
sg75
(lp4181
S'files'
p4182
asbag68
(g89
g70
NtRp4183
(dp4184
g73
(dp4185
g100
g101
ssg82
g4174
sg75
(lp4186
S':'
asbag68
(g89
g70
NtRp4187
(dp4188
g73
(dp4189
sg82
g4174
sg75
(lp4190
g68
(g69
g70
NtRp4191
(dp4192
g73
(dp4193
g81
I5
ssg82
g4187
sg75
(lp4194
g68
(g77
g70
NtRp4195
(dp4196
g73
(dp4197
g81
I4
ssg82
Nsg75
(lp4198
sbasbasbasbag68
(g84
g70
NtRp4199
(dp4200
g73
(dp4201
sg82
g3889
sg75
(lp4202
g68
(g89
g70
NtRp4203
(dp4204
g73
(dp4205
g93
g94
ssg82
g4199
sg75
(lp4206
S'flash'
p4207
asbag68
(g89
g70
NtRp4208
(dp4209
g73
(dp4210
g100
g101
ssg82
g4199
sg75
(lp4211
S':'
asbag68
(g89
g70
NtRp4212
(dp4213
g73
(dp4214
sg82
g4199
sg75
(lp4215
g68
(g69
g70
NtRp4216
(dp4217
g73
(dp4218
g81
I5
ssg82
g4212
sg75
(lp4219
cgluon.languages
lazyT_unpickle
p4220
(S's\x12\x00\x00\x00Welcome to web2py!'
tRp4221
asbasbasbag68
(g84
g70
NtRp4222
(dp4223
g73
(dp4224
sg82
g3889
sg75
(lp4225
g68
(g89
g70
NtRp4226
(dp4227
g73
(dp4228
g93
g94
ssg82
g4222
sg75
(lp4229
S'generic_patterns'
p4230
asbag68
(g89
g70
NtRp4231
(dp4232
g73
(dp4233
g100
g101
ssg82
g4222
sg75
(lp4234
S':'
asbag68
(g89
g70
NtRp4235
(dp4236
g73
(dp4237
sg82
g4222
sg75
(lp4238
g68
(g69
g70
NtRp4239
(dp4240
g73
(dp4241
g81
I5
ssg82
g4235
sg75
(lp4242
g68
(g77
g70
NtRp4243
(dp4244
g73
(dp4245
g81
I4
ssg82
Nsg75
(lp4246
g68
(g84
g70
NtRp4247
(dp4248
g73
(dp4249
sg82
g4243
sg75
(lp4250
g68
(g89
g70
NtRp4251
(dp4252
g73
(dp4253
sg82
g4247
sg75
(lp4254
g68
(g69
g70
NtRp4255
(dp4256
g73
(dp4257
g81
I4
ssg82
g4251
sg75
(lp4258
S'*'
asbasbasbasbasbasbasbag68
(g84
g70
NtRp4259
(dp4260
g73
(dp4261
sg82
g3889
sg75
(lp4262
g68
(g89
g70
NtRp4263
(dp4264
g73
(dp4265
g93
g94
ssg82
g4259
sg75
(lp4266
S'google_analytics_id'
p4267
asbag68
(g89
g70
NtRp4268
(dp4269
g73
(dp4270
g100
g101
ssg82
g4259
sg75
(lp4271
S':'
asbag68
(g89
g70
NtRp4272
(dp4273
g73
(dp4274
sg82
g4259
sg75
(lp4275
g68
(g69
g70
NtRp4276
(dp4277
g73
(dp4278
g81
I5
ssg82
g4272
sg75
(lp4279
S'None'
p4280
asbasbasbag68
(g84
g70
NtRp4281
(dp4282
g73
(dp4283
sg82
g3889
sg75
(lp4284
g68
(g89
g70
NtRp4285
(dp4286
g73
(dp4287
g93
g94
ssg82
g4281
sg75
(lp4288
S'headers'
p4289
asbag68
(g89
g70
NtRp4290
(dp4291
g73
(dp4292
g100
g101
ssg82
g4281
sg75
(lp4293
S':'
asbag68
(g89
g70
NtRp4294
(dp4295
g73
(dp4296
sg82
g4281
sg75
(lp4297
g68
(g69
g70
NtRp4298
(dp4299
g73
(dp4300
g81
I5
ssg82
g4294
sg75
(lp4301
g68
(g77
g70
NtRp4302
(dp4303
g73
(dp4304
g81
I4
ssg82
Nsg75
(lp4305
g68
(g84
g70
NtRp4306
(dp4307
g73
(dp4308
sg82
g4302
sg75
(lp4309
g68
(g89
g70
NtRp4310
(dp4311
g73
(dp4312
g93
g94
ssg82
g4306
sg75
(lp4313
S'X-Powered-By'
p4314
asbag68
(g89
g70
NtRp4315
(dp4316
g73
(dp4317
g100
g101
ssg82
g4306
sg75
(lp4318
S':'
asbag68
(g89
g70
NtRp4319
(dp4320
g73
(dp4321
sg82
g4306
sg75
(lp4322
g68
(g69
g70
NtRp4323
(dp4324
g73
(dp4325
g81
I4
ssg82
g4319
sg75
(lp4326
S'web2py'
p4327
asbasbasbasbasbasbasbag68
(g84
g70
NtRp4328
(dp4329
g73
(dp4330
sg82
g3889
sg75
(lp4331
g68
(g89
g70
NtRp4332
(dp4333
g73
(dp4334
g93
g94
ssg82
g4328
sg75
(lp4335
S'logo'
p4336
asbag68
(g89
g70
NtRp4337
(dp4338
g73
(dp4339
g100
g101
ssg82
g4328
sg75
(lp4340
S':'
asbag68
(g89
g70
NtRp4341
(dp4342
g73
(dp4343
sg82
g4328
sg75
(lp4344
g68
(g69
g70
NtRp4345
(dp4346
g73
(dp4347
g81
I5
ssg82
g4341
sg75
(lp4348
g68
(cgluon.html
A
p4349
g70
NtRp4350
(dp4351
g73
(dp4352
S'_class'
p4353
S'brand'
p4354
sS'_href'
p4355
S'http://www.web2py.com/'
p4356
ssg82
Nsg75
(lp4357
g68
(cgluon.html
B
p4358
g70
NtRp4359
(dp4360
g73
(dp4361
sg82
g4350
sg75
(lp4362
S'web'
p4363
ag68
(cgluon.html
SPAN
p4364
g70
NtRp4365
(dp4366
g73
(dp4367
sg82
g4359
sg75
(lp4368
I2
asbaS'py'
p4369
asbacgluon.html
XML_unpickle
p4370
(S's\r\x00\x00\x00&trade;&nbsp;'
tRp4371
asbasbasbasbag68
(g84
g70
NtRp4372
(dp4373
g73
(dp4374
sg82
g3889
sg75
(lp4375
g68
(g89
g70
NtRp4376
(dp4377
g73
(dp4378
g93
g94
ssg82
g4372
sg75
(lp4379
S'menu'
p4380
asbag68
(g89
g70
NtRp4381
(dp4382
g73
(dp4383
g100
g101
ssg82
g4372
sg75
(lp4384
S':'
asbag68
(g89
g70
NtRp4385
(dp4386
g73
(dp4387
sg82
g4372
sg75
(lp4388
g68
(g69
g70
NtRp4389
(dp4390
g73
(dp4391
g81
I5
ssg82
g4385
sg75
(lp4392
g68
(g77
g70
NtRp4393
(dp4394
g73
(dp4395
g81
I4
ssg82
Nsg75
(lp4396
g68
(g84
g70
NtRp4397
(dp4398
g73
(dp4399
sg82
g4393
sg75
(lp4400
g68
(g89
g70
NtRp4401
(dp4402
g73
(dp4403
sg82
g4397
sg75
(lp4404
g68
(g69
g70
NtRp4405
(dp4406
g73
(dp4407
g81
I4
ssg82
g4401
sg75
(lp4408
g68
(g77
g70
NtRp4409
(dp4410
g73
(dp4411
g81
I3
ssg82
Nsg75
(lp4412
g68
(g84
g70
NtRp4413
(dp4414
g73
(dp4415
sg82
g4409
sg75
(lp4416
g68
(g89
g70
NtRp4417
(dp4418
g73
(dp4419
sg82
g4413
sg75
(lp4420
g68
(g69
g70
NtRp4421
(dp4422
g73
(dp4423
g81
I3
ssg82
g4417
sg75
(lp4424
g4220
(S's\x04\x00\x00\x00Home'
tRp4425
asbasbasbag68
(g84
g70
NtRp4426
(dp4427
g73
(dp4428
sg82
g4409
sg75
(lp4429
g68
(g89
g70
NtRp4430
(dp4431
g73
(dp4432
sg82
g4426
sg75
(lp4433
g68
(g69
g70
NtRp4434
(dp4435
g73
(dp4436
g81
I3
ssg82
g4430
sg75
(lp4437
g111
asbasbasbag68
(g84
g70
NtRp4438
(dp4439
g73
(dp4440
sg82
g4409
sg75
(lp4441
g68
(g89
g70
NtRp4442
(dp4443
g73
(dp4444
sg82
g4438
sg75
(lp4445
g68
(g69
g70
NtRp4446
(dp4447
g73
(dp4448
g81
I3
ssg82
g4442
sg75
(lp4449
S'/Assignment_2/default/index'
p4450
asbasbasbag68
(g84
g70
NtRp4451
(dp4452
g73
(dp4453
sg82
g4409
sg75
(lp4454
g68
(g89
g70
NtRp4455
(dp4456
g73
(dp4457
sg82
g4451
sg75
(lp4458
g68
(g69
g70
NtRp4459
(dp4460
g73
(dp4461
g81
I3
ssg82
g4455
sg75
(lp4462
g68
(g77
g70
NtRp4463
(dp4464
g73
(dp4465
g81
I2
ssg82
Nsg75
(lp4466
sbasbasbasbasbasbasbasbag68
(g84
g70
NtRp4467
(dp4468
g73
(dp4469
sg82
g4393
sg75
(lp4470
g68
(g89
g70
NtRp4471
(dp4472
g73
(dp4473
sg82
g4467
sg75
(lp4474
g68
(g69
g70
NtRp4475
(dp4476
g73
(dp4477
g81
I4
ssg82
g4471
sg75
(lp4478
g68
(g77
g70
NtRp4479
(dp4480
g73
(dp4481
g81
I3
ssg82
Nsg75
(lp4482
g68
(g84
g70
NtRp4483
(dp4484
g73
(dp4485
sg82
g4479
sg75
(lp4486
g68
(g89
g70
NtRp4487
(dp4488
g73
(dp4489
sg82
g4483
sg75
(lp4490
g68
(g69
g70
NtRp4491
(dp4492
g73
(dp4493
g81
I3
ssg82
g4487
sg75
(lp4494
g68
(g4364
g70
NtRp4495
(dp4496
g73
(dp4497
g4353
S'highlighted'
p4498
ssg82
Nsg75
(lp4499
g4327
asbasbasbasbag68
(g84
g70
NtRp4500
(dp4501
g73
(dp4502
sg82
g4479
sg75
(lp4503
g68
(g89
g70
NtRp4504
(dp4505
g73
(dp4506
sg82
g4500
sg75
(lp4507
g68
(g69
g70
NtRp4508
(dp4509
g73
(dp4510
g81
I3
ssg82
g4504
sg75
(lp4511
g111
asbasbasbag68
(g84
g70
NtRp4512
(dp4513
g73
(dp4514
sg82
g4479
sg75
(lp4515
g68
(g89
g70
NtRp4516
(dp4517
g73
(dp4518
sg82
g4512
sg75
(lp4519
g68
(g69
g70
NtRp4520
(dp4521
g73
(dp4522
g81
I3
ssg82
g4516
sg75
(lp4523
S'http://web2py.com'
p4524
asbasbasbag68
(g84
g70
NtRp4525
(dp4526
g73
(dp4527
sg82
g4479
sg75
(lp4528
g68
(g89
g70
NtRp4529
(dp4530
g73
(dp4531
sg82
g4525
sg75
(lp4532
g68
(g69
g70
NtRp4533
(dp4534
g73
(dp4535
g81
I3
ssg82
g4529
sg75
(lp4536
g68
(g77
g70
NtRp4537
(dp4538
g73
(dp4539
g81
I2
ssg82
Nsg75
(lp4540
g68
(g84
g70
NtRp4541
(dp4542
g73
(dp4543
sg82
g4537
sg75
(lp4544
g68
(g89
g70
NtRp4545
(dp4546
g73
(dp4547
sg82
g4541
sg75
(lp4548
g68
(g69
g70
NtRp4549
(dp4550
g73
(dp4551
g81
I2
ssg82
g4545
sg75
(lp4552
g68
(g77
g70
NtRp4553
(dp4554
g73
(dp4555
g81
I1
ssg82
Nsg75
(lp4556
g68
(g84
g70
NtRp4557
(dp4558
g73
(dp4559
sg82
g4553
sg75
(lp4560
g68
(g89
g70
NtRp4561
(dp4562
g73
(dp4563
sg82
g4557
sg75
(lp4564
g68
(g69
g70
NtRp4565
(dp4566
g73
(dp4567
g81
I1
ssg82
g4561
sg75
(lp4568
g4220
(S's\x08\x00\x00\x00My Sites'
tRp4569
asbasbasbag68
(g84
g70
NtRp4570
(dp4571
g73
(dp4572
sg82
g4553
sg75
(lp4573
g68
(g89
g70
NtRp4574
(dp4575
g73
(dp4576
sg82
g4570
sg75
(lp4577
g68
(g69
g70
NtRp4578
(dp4579
g73
(dp4580
g81
I1
ssg82
g4574
sg75
(lp4581
I00
asbasbasbag68
(g84
g70
NtRp4582
(dp4583
g73
(dp4584
sg82
g4553
sg75
(lp4585
g68
(g89
g70
NtRp4586
(dp4587
g73
(dp4588
sg82
g4582
sg75
(lp4589
g68
(g69
g70
NtRp4590
(dp4591
g73
(dp4592
g81
I1
ssg82
g4586
sg75
(lp4593
S'/admin/default/site'
p4594
asbasbasbasbasbasbasbag68
(g84
g70
NtRp4595
(dp4596
g73
(dp4597
sg82
g4537
sg75
(lp4598
g68
(g89
g70
NtRp4599
(dp4600
g73
(dp4601
sg82
g4595
sg75
(lp4602
g68
(g69
g70
NtRp4603
(dp4604
g73
(dp4605
g81
I2
ssg82
g4599
sg75
(lp4606
g68
(g77
g70
NtRp4607
(dp4608
g73
(dp4609
g81
I1
ssg82
Nsg75
(lp4610
g68
(g84
g70
NtRp4611
(dp4612
g73
(dp4613
sg82
g4607
sg75
(lp4614
g68
(g89
g70
NtRp4615
(dp4616
g73
(dp4617
sg82
g4611
sg75
(lp4618
g68
(g69
g70
NtRp4619
(dp4620
g73
(dp4621
g81
I1
ssg82
g4615
sg75
(lp4622
g4220
(S's\x08\x00\x00\x00This App'
tRp4623
asbasbasbag68
(g84
g70
NtRp4624
(dp4625
g73
(dp4626
sg82
g4607
sg75
(lp4627
g68
(g89
g70
NtRp4628
(dp4629
g73
(dp4630
sg82
g4624
sg75
(lp4631
g68
(g69
g70
NtRp4632
(dp4633
g73
(dp4634
g81
I1
ssg82
g4628
sg75
(lp4635
I00
asbasbasbag68
(g84
g70
NtRp4636
(dp4637
g73
(dp4638
sg82
g4607
sg75
(lp4639
g68
(g89
g70
NtRp4640
(dp4641
g73
(dp4642
sg82
g4636
sg75
(lp4643
g68
(g69
g70
NtRp4644
(dp4645
g73
(dp4646
g81
I1
ssg82
g4640
sg75
(lp4647
S'/admin/default/design/Assignment_2'
p4648
asbasbasbag68
(g84
g70
NtRp4649
(dp4650
g73
(dp4651
sg82
g4607
sg75
(lp4652
g68
(g89
g70
NtRp4653
(dp4654
g73
(dp4655
sg82
g4649
sg75
(lp4656
g68
(g69
g70
NtRp4657
(dp4658
g73
(dp4659
g81
I1
ssg82
g4653
sg75
(lp4660
(lp4661
(g4220
(S's\n\x00\x00\x00Controller'
tRp4662
I00
S'/admin/default/edit/Assignment_2/controllers/default.py'
tp4663
a(g4220
(S's\x04\x00\x00\x00View'
tRp4664
I00
S'/admin/default/edit/Assignment_2/views/default/index.html'
tp4665
a(g4220
(S's\x06\x00\x00\x00Layout'
tRp4666
I00
S'/admin/default/edit/Assignment_2/views/layout.html'
tp4667
a(g4220
(S's\n\x00\x00\x00Stylesheet'
tRp4668
I00
S'/admin/default/edit/Assignment_2/static/css/web2py.css'
tp4669
a(g4220
(S's\x08\x00\x00\x00DB Model'
tRp4670
I00
S'/admin/default/edit/Assignment_2/models/db.py'
tp4671
a(g4220
(S's\n\x00\x00\x00Menu Model'
tRp4672
I00
S'/admin/default/edit/Assignment_2/models/menu.py'
tp4673
a(g4220
(S's\x08\x00\x00\x00Database'
tRp4674
I00
S'/Assignment_2/appadmin/index'
tp4675
a(g4220
(S's\x06\x00\x00\x00Errors'
tRp4676
I00
S'/admin/default/errors/Assignment_2'
tp4677
a(g4220
(S's\x05\x00\x00\x00About'
tRp4678
I00
S'/admin/default/about/Assignment_2'
tp4679
aasbasbasbasbasbasbasbag68
(g84
g70
NtRp4680
(dp4681
g73
(dp4682
sg82
g4537
sg75
(lp4683
g68
(g89
g70
NtRp4684
(dp4685
g73
(dp4686
sg82
g4680
sg75
(lp4687
g68
(g69
g70
NtRp4688
(dp4689
g73
(dp4690
g81
I2
ssg82
g4684
sg75
(lp4691
g68
(g77
g70
NtRp4692
(dp4693
g73
(dp4694
g81
I1
ssg82
Nsg75
(lp4695
g68
(g84
g70
NtRp4696
(dp4697
g73
(dp4698
sg82
g4692
sg75
(lp4699
g68
(g89
g70
NtRp4700
(dp4701
g73
(dp4702
sg82
g4696
sg75
(lp4703
g68
(g69
g70
NtRp4704
(dp4705
g73
(dp4706
g81
I1
ssg82
g4700
sg75
(lp4707
S'web2py.com'
p4708
asbasbasbag68
(g84
g70
NtRp4709
(dp4710
g73
(dp4711
sg82
g4692
sg75
(lp4712
g68
(g89
g70
NtRp4713
(dp4714
g73
(dp4715
sg82
g4709
sg75
(lp4716
g68
(g69
g70
NtRp4717
(dp4718
g73
(dp4719
g81
I1
ssg82
g4713
sg75
(lp4720
I00
asbasbasbag68
(g84
g70
NtRp4721
(dp4722
g73
(dp4723
sg82
g4692
sg75
(lp4724
g68
(g89
g70
NtRp4725
(dp4726
g73
(dp4727
sg82
g4721
sg75
(lp4728
g68
(g69
g70
NtRp4729
(dp4730
g73
(dp4731
g81
I1
ssg82
g4725
sg75
(lp4732
S'http://www.web2py.com'
p4733
asbasbasbag68
(g84
g70
NtRp4734
(dp4735
g73
(dp4736
sg82
g4692
sg75
(lp4737
g68
(g89
g70
NtRp4738
(dp4739
g73
(dp4740
sg82
g4734
sg75
(lp4741
g68
(g69
g70
NtRp4742
(dp4743
g73
(dp4744
g81
I1
ssg82
g4738
sg75
(lp4745
(lp4746
(g4220
(S's\x08\x00\x00\x00Download'
tRp4747
I00
S'http://www.web2py.com/examples/default/download'
p4748
tp4749
a(g4220
(S's\x07\x00\x00\x00Support'
tRp4750
I00
S'http://www.web2py.com/examples/default/support'
p4751
tp4752
a(g4220
(S's\x04\x00\x00\x00Demo'
tRp4753
I00
S'http://web2py.com/demo_admin'
p4754
tp4755
a(g4220
(S's\x0e\x00\x00\x00Quick Examples'
tRp4756
I00
S'http://web2py.com/examples/default/examples'
p4757
tp4758
a(g4220
(S's\x03\x00\x00\x00FAQ'
tRp4759
I00
S'http://web2py.com/AlterEgo'
p4760
tp4761
a(g4220
(S's\x06\x00\x00\x00Videos'
tRp4762
I00
S'http://www.web2py.com/examples/default/videos/'
p4763
tp4764
a(g4220
(S's\x11\x00\x00\x00Free Applications'
tRp4765
I00
S'http://web2py.com/appliances'
p4766
tp4767
a(g4220
(S's\x07\x00\x00\x00Plugins'
tRp4768
I00
S'http://web2py.com/plugins'
p4769
tp4770
a(g4220
(S's\x07\x00\x00\x00Layouts'
tRp4771
I00
S'http://web2py.com/layouts'
p4772
tp4773
a(g4220
(S's\x07\x00\x00\x00Recipes'
tRp4774
I00
S'http://web2pyslices.com/'
p4775
tp4776
a(g4220
(S's\x08\x00\x00\x00Semantic'
tRp4777
I00
S'http://web2py.com/semantic'
p4778
tp4779
aasbasbasbasbasbasbasbag68
(g84
g70
NtRp4780
(dp4781
g73
(dp4782
sg82
g4537
sg75
(lp4783
g68
(g89
g70
NtRp4784
(dp4785
g73
(dp4786
sg82
g4780
sg75
(lp4787
g68
(g69
g70
NtRp4788
(dp4789
g73
(dp4790
g81
I2
ssg82
g4784
sg75
(lp4791
g68
(g77
g70
NtRp4792
(dp4793
g73
(dp4794
g81
I1
ssg82
Nsg75
(lp4795
g68
(g84
g70
NtRp4796
(dp4797
g73
(dp4798
sg82
g4792
sg75
(lp4799
g68
(g89
g70
NtRp4800
(dp4801
g73
(dp4802
sg82
g4796
sg75
(lp4803
g68
(g69
g70
NtRp4804
(dp4805
g73
(dp4806
g81
I1
ssg82
g4800
sg75
(lp4807
g4220
(S's\r\x00\x00\x00Documentation'
tRp4808
asbasbasbag68
(g84
g70
NtRp4809
(dp4810
g73
(dp4811
sg82
g4792
sg75
(lp4812
g68
(g89
g70
NtRp4813
(dp4814
g73
(dp4815
sg82
g4809
sg75
(lp4816
g68
(g69
g70
NtRp4817
(dp4818
g73
(dp4819
g81
I1
ssg82
g4813
sg75
(lp4820
I00
asbasbasbag68
(g84
g70
NtRp4821
(dp4822
g73
(dp4823
sg82
g4792
sg75
(lp4824
g68
(g89
g70
NtRp4825
(dp4826
g73
(dp4827
sg82
g4821
sg75
(lp4828
g68
(g69
g70
NtRp4829
(dp4830
g73
(dp4831
g81
I1
ssg82
g4825
sg75
(lp4832
S'http://www.web2py.com/book'
p4833
asbasbasbag68
(g84
g70
NtRp4834
(dp4835
g73
(dp4836
sg82
g4792
sg75
(lp4837
g68
(g89
g70
NtRp4838
(dp4839
g73
(dp4840
sg82
g4834
sg75
(lp4841
g68
(g69
g70
NtRp4842
(dp4843
g73
(dp4844
g81
I1
ssg82
g4838
sg75
(lp4845
(lp4846
(g4220
(S's\x07\x00\x00\x00Preface'
tRp4847
I00
S'http://www.web2py.com/book/default/chapter/00'
p4848
tp4849
a(g4220
(S's\x0c\x00\x00\x00Introduction'
tRp4850
I00
S'http://www.web2py.com/book/default/chapter/01'
p4851
tp4852
a(g4220
(S's\x06\x00\x00\x00Python'
tRp4853
I00
S'http://www.web2py.com/book/default/chapter/02'
p4854
tp4855
a(g4220
(S's\x08\x00\x00\x00Overview'
tRp4856
I00
S'http://www.web2py.com/book/default/chapter/03'
p4857
tp4858
a(g4220
(S's\x08\x00\x00\x00The Core'
tRp4859
I00
S'http://www.web2py.com/book/default/chapter/04'
p4860
tp4861
a(g4220
(S's\t\x00\x00\x00The Views'
tRp4862
I00
S'http://www.web2py.com/book/default/chapter/05'
p4863
tp4864
a(g4220
(S's\x08\x00\x00\x00Database'
tRp4865
I00
S'http://www.web2py.com/book/default/chapter/06'
p4866
tp4867
a(g4220
(S's\x14\x00\x00\x00Forms and Validators'
tRp4868
I00
S'http://www.web2py.com/book/default/chapter/07'
p4869
tp4870
a(g4220
(S's\r\x00\x00\x00Email and SMS'
tRp4871
I00
S'http://www.web2py.com/book/default/chapter/08'
p4872
tp4873
a(g4220
(S's\x0e\x00\x00\x00Access Control'
tRp4874
I00
S'http://www.web2py.com/book/default/chapter/09'
p4875
tp4876
a(g4220
(S's\x08\x00\x00\x00Services'
tRp4877
I00
S'http://www.web2py.com/book/default/chapter/10'
p4878
tp4879
a(g4220
(S's\x0c\x00\x00\x00Ajax Recipes'
tRp4880
I00
S'http://www.web2py.com/book/default/chapter/11'
p4881
tp4882
a(g4220
(S's\x16\x00\x00\x00Components and Plugins'
tRp4883
I00
S'http://www.web2py.com/book/default/chapter/12'
p4884
tp4885
a(g4220
(S's\x12\x00\x00\x00Deployment Recipes'
tRp4886
I00
S'http://www.web2py.com/book/default/chapter/13'
p4887
tp4888
a(g4220
(S's\r\x00\x00\x00Other Recipes'
tRp4889
I00
S'http://www.web2py.com/book/default/chapter/14'
p4890
tp4891
a(g4220
(S's\r\x00\x00\x00Buy this book'
tRp4892
I00
S'http://stores.lulu.com/web2py'
p4893
tp4894
aasbasbasbasbasbasbasbag68
(g84
g70
NtRp4895
(dp4896
g73
(dp4897
sg82
g4537
sg75
(lp4898
g68
(g89
g70
NtRp4899
(dp4900
g73
(dp4901
sg82
g4895
sg75
(lp4902
g68
(g69
g70
NtRp4903
(dp4904
g73
(dp4905
g81
I2
ssg82
g4899
sg75
(lp4906
g68
(g77
g70
NtRp4907
(dp4908
g73
(dp4909
g81
I1
ssg82
Nsg75
(lp4910
g68
(g84
g70
NtRp4911
(dp4912
g73
(dp4913
sg82
g4907
sg75
(lp4914
g68
(g89
g70
NtRp4915
(dp4916
g73
(dp4917
sg82
g4911
sg75
(lp4918
g68
(g69
g70
NtRp4919
(dp4920
g73
(dp4921
g81
I1
ssg82
g4915
sg75
(lp4922
g4220
(S's\t\x00\x00\x00Community'
tRp4923
asbasbasbag68
(g84
g70
NtRp4924
(dp4925
g73
(dp4926
sg82
g4907
sg75
(lp4927
g68
(g89
g70
NtRp4928
(dp4929
g73
(dp4930
sg82
g4924
sg75
(lp4931
g68
(g69
g70
NtRp4932
(dp4933
g73
(dp4934
g81
I1
ssg82
g4928
sg75
(lp4935
I00
asbasbasbag68
(g84
g70
NtRp4936
(dp4937
g73
(dp4938
sg82
g4907
sg75
(lp4939
g68
(g89
g70
NtRp4940
(dp4941
g73
(dp4942
sg82
g4936
sg75
(lp4943
g68
(g69
g70
NtRp4944
(dp4945
g73
(dp4946
g81
I1
ssg82
g4940
sg75
(lp4947
Nasbasbasbag68
(g84
g70
NtRp4948
(dp4949
g73
(dp4950
sg82
g4907
sg75
(lp4951
g68
(g89
g70
NtRp4952
(dp4953
g73
(dp4954
sg82
g4948
sg75
(lp4955
g68
(g69
g70
NtRp4956
(dp4957
g73
(dp4958
g81
I1
ssg82
g4952
sg75
(lp4959
(lp4960
(g4220
(S's\x06\x00\x00\x00Groups'
tRp4961
I00
S'http://www.web2py.com/examples/default/usergroups'
p4962
tp4963
a(g4220
(S's\x07\x00\x00\x00Twitter'
tRp4964
I00
S'http://twitter.com/web2py'
p4965
tp4966
a(g4220
(S's\t\x00\x00\x00Live Chat'
tRp4967
I00
S'http://webchat.freenode.net/?channels=web2py'
p4968
tp4969
aasbasbasbasbasbasbasbag68
(g84
g70
NtRp4970
(dp4971
g73
(dp4972
sg82
g4537
sg75
(lp4973
g68
(g89
g70
NtRp4974
(dp4975
g73
(dp4976
sg82
g4970
sg75
(lp4977
g68
(g69
g70
NtRp4978
(dp4979
g73
(dp4980
g81
I2
ssg82
g4974
sg75
(lp4981
g68
(g77
g70
NtRp4982
(dp4983
g73
(dp4984
g81
I1
ssg82
Nsg75
(lp4985
g68
(g84
g70
NtRp4986
(dp4987
g73
(dp4988
sg82
g4982
sg75
(lp4989
g68
(g89
g70
NtRp4990
(dp4991
g73
(dp4992
sg82
g4986
sg75
(lp4993
g68
(g69
g70
NtRp4994
(dp4995
g73
(dp4996
g81
I1
ssg82
g4990
sg75
(lp4997
g4220
(S's\x07\x00\x00\x00Plugins'
tRp4998
asbasbasbag68
(g84
g70
NtRp4999
(dp5000
g73
(dp5001
sg82
g4982
sg75
(lp5002
g68
(g89
g70
NtRp5003
(dp5004
g73
(dp5005
sg82
g4999
sg75
(lp5006
g68
(g69
g70
NtRp5007
(dp5008
g73
(dp5009
g81
I1
ssg82
g5003
sg75
(lp5010
I00
asbasbasbag68
(g84
g70
NtRp5011
(dp5012
g73
(dp5013
sg82
g4982
sg75
(lp5014
g68
(g89
g70
NtRp5015
(dp5016
g73
(dp5017
sg82
g5011
sg75
(lp5018
g68
(g69
g70
NtRp5019
(dp5020
g73
(dp5021
g81
I1
ssg82
g5015
sg75
(lp5022
Nasbasbasbag68
(g84
g70
NtRp5023
(dp5024
g73
(dp5025
sg82
g4982
sg75
(lp5026
g68
(g89
g70
NtRp5027
(dp5028
g73
(dp5029
sg82
g5023
sg75
(lp5030
g68
(g69
g70
NtRp5031
(dp5032
g73
(dp5033
g81
I1
ssg82
g5027
sg75
(lp5034
(lp5035
(S'plugin_wiki'
p5036
I00
S'http://web2py.com/examples/default/download'
p5037
tp5038
a(g4220
(S's\r\x00\x00\x00Other Plugins'
tRp5039
I00
g4769
tp5040
a(g4220
(S's\x0e\x00\x00\x00Layout Plugins'
tRp5041
I00
g4772
tp5042
aasbasbasbasbasbasbasbasbasbasbasbasbasbasbasbasbasbasbasbag68
(g84
g70
NtRp5043
(dp5044
g73
(dp5045
sg82
g3889
sg75
(lp5046
g68
(g89
g70
NtRp5047
(dp5048
g73
(dp5049
g93
g94
ssg82
g5043
sg75
(lp5050
S'meta'
p5051
asbag68
(g89
g70
NtRp5052
(dp5053
g73
(dp5054
g100
g101
ssg82
g5043
sg75
(lp5055
S':'
asbag68
(g89
g70
NtRp5056
(dp5057
g73
(dp5058
sg82
g5043
sg75
(lp5059
g68
(g69
g70
NtRp5060
(dp5061
g73
(dp5062
g81
I5
ssg82
g5056
sg75
(lp5063
g68
(g77
g70
NtRp5064
(dp5065
g73
(dp5066
g81
I4
ssg82
Nsg75
(lp5067
g68
(g84
g70
NtRp5068
(dp5069
g73
(dp5070
sg82
g5064
sg75
(lp5071
g68
(g89
g70
NtRp5072
(dp5073
g73
(dp5074
g93
g94
ssg82
g5068
sg75
(lp5075
S'author'
p5076
asbag68
(g89
g70
NtRp5077
(dp5078
g73
(dp5079
g100
g101
ssg82
g5068
sg75
(lp5080
S':'
asbag68
(g89
g70
NtRp5081
(dp5082
g73
(dp5083
sg82
g5068
sg75
(lp5084
g68
(g69
g70
NtRp5085
(dp5086
g73
(dp5087
g81
I4
ssg82
g5081
sg75
(lp5088
S'Your Name <you@example.com>'
p5089
asbasbasbag68
(g84
g70
NtRp5090
(dp5091
g73
(dp5092
sg82
g5064
sg75
(lp5093
g68
(g89
g70
NtRp5094
(dp5095
g73
(dp5096
g93
g94
ssg82
g5090
sg75
(lp5097
S'description'
p5098
asbag68
(g89
g70
NtRp5099
(dp5100
g73
(dp5101
g100
g101
ssg82
g5090
sg75
(lp5102
S':'
asbag68
(g89
g70
NtRp5103
(dp5104
g73
(dp5105
sg82
g5090
sg75
(lp5106
g68
(g69
g70
NtRp5107
(dp5108
g73
(dp5109
g81
I4
ssg82
g5103
sg75
(lp5110
S'a cool new app'
p5111
asbasbasbag68
(g84
g70
NtRp5112
(dp5113
g73
(dp5114
sg82
g5064
sg75
(lp5115
g68
(g89
g70
NtRp5116
(dp5117
g73
(dp5118
g93
g94
ssg82
g5112
sg75
(lp5119
S'generator'
p5120
asbag68
(g89
g70
NtRp5121
(dp5122
g73
(dp5123
g100
g101
ssg82
g5112
sg75
(lp5124
S':'
asbag68
(g89
g70
NtRp5125
(dp5126
g73
(dp5127
sg82
g5112
sg75
(lp5128
g68
(g69
g70
NtRp5129
(dp5130
g73
(dp5131
g81
I4
ssg82
g5125
sg75
(lp5132
S'Web2py Web Framework'
p5133
asbasbasbag68
(g84
g70
NtRp5134
(dp5135
g73
(dp5136
sg82
g5064
sg75
(lp5137
g68
(g89
g70
NtRp5138
(dp5139
g73
(dp5140
g93
g94
ssg82
g5134
sg75
(lp5141
S'keywords'
p5142
asbag68
(g89
g70
NtRp5143
(dp5144
g73
(dp5145
g100
g101
ssg82
g5134
sg75
(lp5146
S':'
asbag68
(g89
g70
NtRp5147
(dp5148
g73
(dp5149
sg82
g5134
sg75
(lp5150
g68
(g69
g70
NtRp5151
(dp5152
g73
(dp5153
g81
I4
ssg82
g5147
sg75
(lp5154
S'web2py, python, framework'
p5155
asbasbasbasbasbasbasbag68
(g84
g70
NtRp5156
(dp5157
g73
(dp5158
sg82
g3889
sg75
(lp5159
g68
(g89
g70
NtRp5160
(dp5161
g73
(dp5162
g93
g94
ssg82
g5156
sg75
(lp5163
S'models_to_run'
p5164
asbag68
(g89
g70
NtRp5165
(dp5166
g73
(dp5167
g100
g101
ssg82
g5156
sg75
(lp5168
S':'
asbag68
(g89
g70
NtRp5169
(dp5170
g73
(dp5171
sg82
g5156
sg75
(lp5172
g68
(g69
g70
NtRp5173
(dp5174
g73
(dp5175
g81
I5
ssg82
g5169
sg75
(lp5176
g68
(g77
g70
NtRp5177
(dp5178
g73
(dp5179
g81
I4
ssg82
Nsg75
(lp5180
g68
(g84
g70
NtRp5181
(dp5182
g73
(dp5183
sg82
g5177
sg75
(lp5184
g68
(g89
g70
NtRp5185
(dp5186
g73
(dp5187
sg82
g5181
sg75
(lp5188
g68
(g69
g70
NtRp5189
(dp5190
g73
(dp5191
g81
I4
ssg82
g5185
sg75
(lp5192
S'^\\w+\\.py$'
p5193
asbasbasbag68
(g84
g70
NtRp5194
(dp5195
g73
(dp5196
sg82
g5177
sg75
(lp5197
g68
(g89
g70
NtRp5198
(dp5199
g73
(dp5200
sg82
g5194
sg75
(lp5201
g68
(g69
g70
NtRp5202
(dp5203
g73
(dp5204
g81
I4
ssg82
g5198
sg75
(lp5205
S'^default/\\w+\\.py$'
p5206
asbasbasbag68
(g84
g70
NtRp5207
(dp5208
g73
(dp5209
sg82
g5177
sg75
(lp5210
g68
(g89
g70
NtRp5211
(dp5212
g73
(dp5213
sg82
g5207
sg75
(lp5214
g68
(g69
g70
NtRp5215
(dp5216
g73
(dp5217
g81
I4
ssg82
g5211
sg75
(lp5218
S'^default/index/\\w+\\.py$'
p5219
asbasbasbasbasbasbasbag68
(g84
g70
NtRp5220
(dp5221
g73
(dp5222
sg82
g3889
sg75
(lp5223
g68
(g89
g70
NtRp5224
(dp5225
g73
(dp5226
g93
g94
ssg82
g5220
sg75
(lp5227
S'postprocessing'
p5228
asbag68
(g89
g70
NtRp5229
(dp5230
g73
(dp5231
g100
g101
ssg82
g5220
sg75
(lp5232
S':'
asbag68
(g89
g70
NtRp5233
(dp5234
g73
(dp5235
sg82
g5220
sg75
(lp5236
g68
(g69
g70
NtRp5237
(dp5238
g73
(dp5239
g81
I5
ssg82
g5233
sg75
(lp5240
g68
(g77
g70
NtRp5241
(dp5242
g73
(dp5243
g81
I4
ssg82
Nsg75
(lp5244
sbasbasbasbag68
(g84
g70
NtRp5245
(dp5246
g73
(dp5247
sg82
g3889
sg75
(lp5248
g68
(g89
g70
NtRp5249
(dp5250
g73
(dp5251
g93
g94
ssg82
g5245
sg75
(lp5252
S'session_cookie_expires'
p5253
asbag68
(g89
g70
NtRp5254
(dp5255
g73
(dp5256
g100
g101
ssg82
g5245
sg75
(lp5257
S':'
asbag68
(g89
g70
NtRp5258
(dp5259
g73
(dp5260
sg82
g5245
sg75
(lp5261
g68
(g69
g70
NtRp5262
(dp5263
g73
(dp5264
g81
I5
ssg82
g5258
sg75
(lp5265
S'None'
p5266
asbasbasbag68
(g84
g70
NtRp5267
(dp5268
g73
(dp5269
sg82
g3889
sg75
(lp5270
g68
(g89
g70
NtRp5271
(dp5272
g73
(dp5273
g93
g94
ssg82
g5267
sg75
(lp5274
S'session_data_name'
p5275
asbag68
(g89
g70
NtRp5276
(dp5277
g73
(dp5278
g100
g101
ssg82
g5267
sg75
(lp5279
S':'
asbag68
(g89
g70
NtRp5280
(dp5281
g73
(dp5282
sg82
g5267
sg75
(lp5283
g68
(g69
g70
NtRp5284
(dp5285
g73
(dp5286
g81
I5
ssg82
g5280
sg75
(lp5287
S'session_data_assignment_2'
p5288
asbasbasbag68
(g84
g70
NtRp5289
(dp5290
g73
(dp5291
sg82
g3889
sg75
(lp5292
g68
(g89
g70
NtRp5293
(dp5294
g73
(dp5295
g93
g94
ssg82
g5289
sg75
(lp5296
S'session_file'
p5297
asbag68
(g89
g70
NtRp5298
(dp5299
g73
(dp5300
g100
g101
ssg82
g5289
sg75
(lp5301
S':'
asbag68
(g89
g70
NtRp5302
(dp5303
g73
(dp5304
sg82
g5289
sg75
(lp5305
g68
(g69
g70
NtRp5306
(dp5307
g73
(dp5308
g81
I5
ssg82
g5302
sg75
(lp5309
S"<open file '/home/shipra/Desktop/Semester 1.2/ITWS-2/web2py/applications/Assignment_2/sessions/127.0.0.1-e6738855-be0b-4c15-8998-0aedda606e28', mode 'rb+' at 0x7f0308321c00>"
p5310
asbasbasbag68
(g84
g70
NtRp5311
(dp5312
g73
(dp5313
sg82
g3889
sg75
(lp5314
g68
(g89
g70
NtRp5315
(dp5316
g73
(dp5317
g93
g94
ssg82
g5311
sg75
(lp5318
S'session_filename'
p5319
asbag68
(g89
g70
NtRp5320
(dp5321
g73
(dp5322
g100
g101
ssg82
g5311
sg75
(lp5323
S':'
asbag68
(g89
g70
NtRp5324
(dp5325
g73
(dp5326
sg82
g5311
sg75
(lp5327
g68
(g69
g70
NtRp5328
(dp5329
g73
(dp5330
g81
I5
ssg82
g5324
sg75
(lp5331
S'/home/shipra/Desktop/Semester 1.2/ITWS-2/web2py/applications/Assignment_2/sessions/127.0.0.1-e6738855-be0b-4c15-8998-0aedda606e28'
p5332
asbasbasbag68
(g84
g70
NtRp5333
(dp5334
g73
(dp5335
sg82
g3889
sg75
(lp5336
g68
(g89
g70
NtRp5337
(dp5338
g73
(dp5339
g93
g94
ssg82
g5333
sg75
(lp5340
S'session_id'
p5341
asbag68
(g89
g70
NtRp5342
(dp5343
g73
(dp5344
g100
g101
ssg82
g5333
sg75
(lp5345
S':'
asbag68
(g89
g70
NtRp5346
(dp5347
g73
(dp5348
sg82
g5333
sg75
(lp5349
g68
(g69
g70
NtRp5350
(dp5351
g73
(dp5352
g81
I5
ssg82
g5346
sg75
(lp5353
g672
asbasbasbag68
(g84
g70
NtRp5354
(dp5355
g73
(dp5356
sg82
g3889
sg75
(lp5357
g68
(g89
g70
NtRp5358
(dp5359
g73
(dp5360
g93
g94
ssg82
g5354
sg75
(lp5361
S'session_id_name'
p5362
asbag68
(g89
g70
NtRp5363
(dp5364
g73
(dp5365
g100
g101
ssg82
g5354
sg75
(lp5366
S':'
asbag68
(g89
g70
NtRp5367
(dp5368
g73
(dp5369
sg82
g5354
sg75
(lp5370
g68
(g69
g70
NtRp5371
(dp5372
g73
(dp5373
g81
I5
ssg82
g5367
sg75
(lp5374
g3946
asbasbasbag68
(g84
g70
NtRp5375
(dp5376
g73
(dp5377
sg82
g3889
sg75
(lp5378
g68
(g89
g70
NtRp5379
(dp5380
g73
(dp5381
g93
g94
ssg82
g5375
sg75
(lp5382
S'session_locked'
p5383
asbag68
(g89
g70
NtRp5384
(dp5385
g73
(dp5386
g100
g101
ssg82
g5375
sg75
(lp5387
S':'
asbag68
(g89
g70
NtRp5388
(dp5389
g73
(dp5390
sg82
g5375
sg75
(lp5391
g68
(g69
g70
NtRp5392
(dp5393
g73
(dp5394
g81
I5
ssg82
g5388
sg75
(lp5395
g1966
asbasbasbag68
(g84
g70
NtRp5396
(dp5397
g73
(dp5398
sg82
g3889
sg75
(lp5399
g68
(g89
g70
NtRp5400
(dp5401
g73
(dp5402
g93
g94
ssg82
g5396
sg75
(lp5403
S'session_new'
p5404
asbag68
(g89
g70
NtRp5405
(dp5406
g73
(dp5407
g100
g101
ssg82
g5396
sg75
(lp5408
S':'
asbag68
(g89
g70
NtRp5409
(dp5410
g73
(dp5411
sg82
g5396
sg75
(lp5412
g68
(g69
g70
NtRp5413
(dp5414
g73
(dp5415
g81
I5
ssg82
g5409
sg75
(lp5416
g111
asbasbasbag68
(g84
g70
NtRp5417
(dp5418
g73
(dp5419
sg82
g3889
sg75
(lp5420
g68
(g89
g70
NtRp5421
(dp5422
g73
(dp5423
g93
g94
ssg82
g5417
sg75
(lp5424
S'session_storage_type'
p5425
asbag68
(g89
g70
NtRp5426
(dp5427
g73
(dp5428
g100
g101
ssg82
g5417
sg75
(lp5429
S':'
asbag68
(g89
g70
NtRp5430
(dp5431
g73
(dp5432
sg82
g5417
sg75
(lp5433
g68
(g69
g70
NtRp5434
(dp5435
g73
(dp5436
g81
I5
ssg82
g5430
sg75
(lp5437
g3397
asbasbasbag68
(g84
g70
NtRp5438
(dp5439
g73
(dp5440
sg82
g3889
sg75
(lp5441
g68
(g89
g70
NtRp5442
(dp5443
g73
(dp5444
g93
g94
ssg82
g5438
sg75
(lp5445
S'status'
p5446
asbag68
(g89
g70
NtRp5447
(dp5448
g73
(dp5449
g100
g101
ssg82
g5438
sg75
(lp5450
S':'
asbag68
(g89
g70
NtRp5451
(dp5452
g73
(dp5453
sg82
g5438
sg75
(lp5454
g68
(g69
g70
NtRp5455
(dp5456
g73
(dp5457
g81
I5
ssg82
g5451
sg75
(lp5458
S'200'
p5459
asbasbasbag68
(g84
g70
NtRp5460
(dp5461
g73
(dp5462
sg82
g3889
sg75
(lp5463
g68
(g89
g70
NtRp5464
(dp5465
g73
(dp5466
g93
g94
ssg82
g5460
sg75
(lp5467
S'subtitle'
p5468
asbag68
(g89
g70
NtRp5469
(dp5470
g73
(dp5471
g100
g101
ssg82
g5460
sg75
(lp5472
S':'
asbag68
(g89
g70
NtRp5473
(dp5474
g73
(dp5475
sg82
g5460
sg75
(lp5476
g68
(g69
g70
NtRp5477
(dp5478
g73
(dp5479
g81
I5
ssg82
g5473
sg75
(lp5480
g4220
(S's\r\x00\x00\x00customize me!'
tRp5481
asbasbasbag68
(g84
g70
NtRp5482
(dp5483
g73
(dp5484
sg82
g3889
sg75
(lp5485
g68
(g89
g70
NtRp5486
(dp5487
g73
(dp5488
g93
g94
ssg82
g5482
sg75
(lp5489
S'title'
p5490
asbag68
(g89
g70
NtRp5491
(dp5492
g73
(dp5493
g100
g101
ssg82
g5482
sg75
(lp5494
S':'
asbag68
(g89
g70
NtRp5495
(dp5496
g73
(dp5497
sg82
g5482
sg75
(lp5498
g68
(g69
g70
NtRp5499
(dp5500
g73
(dp5501
g81
I5
ssg82
g5495
sg75
(lp5502
S'Assignment 2'
p5503
asbasbasbag68
(g84
g70
NtRp5504
(dp5505
g73
(dp5506
sg82
g3889
sg75
(lp5507
g68
(g89
g70
NtRp5508
(dp5509
g73
(dp5510
g93
g94
ssg82
g5504
sg75
(lp5511
S'view'
p5512
asbag68
(g89
g70
NtRp5513
(dp5514
g73
(dp5515
g100
g101
ssg82
g5504
sg75
(lp5516
S':'
asbag68
(g89
g70
NtRp5517
(dp5518
g73
(dp5519
sg82
g5504
sg75
(lp5520
g68
(g69
g70
NtRp5521
(dp5522
g73
(dp5523
g81
I5
ssg82
g5517
sg75
(lp5524
S'default/index.html'
p5525
asbasbasbasbasbsS'locals'
p5526
(dp5527
g4
S"'/home/shipra/Desktop/Semester 1.2/ITWS-2/web2py/applications/Assignment_2/views/default/index.html'"
p5528
sg6
S'\'left_sidebar_enabled,right_sidebar_enabled=False..."></script>\\\\n</body>\\\\n</html>\\\\n\\\\n\\\', escape=False)\''
p5529
sssS'traceback'
p5530
S'Traceback (most recent call last):\n  File "/home/shipra/Desktop/Semester 1.2/ITWS-2/web2py/gluon/restricted.py", line 211, in restricted\n    ccode = compile2(code, layer)\n  File "/home/shipra/Desktop/Semester 1.2/ITWS-2/web2py/gluon/restricted.py", line 194, in compile2\n    return compile(code.rstrip().replace(\'\\r\\n\', \'\\n\') + \'\\n\', layer, \'exec\')\n  File "/home/shipra/Desktop/Semester 1.2/ITWS-2/web2py/applications/Assignment_2/views/default/index.html", line 83\n    (if c1=="admin" and c2==12345) :\n      ^\nSyntaxError: invalid syntax\n'
p5531
s.