(dp1
S'output'
p2
S"<type 'exceptions.IndentationError'> unindent does not match any outer indentation level (default.py, line 27)"
p3
sS'layer'
p4
S'/home/shipra/Desktop/Semester 1.2/ITWS-2/web2py/applications/Assignment_2/controllers/default.py'
p5
sS'code'
p6
S'# -*- coding: utf-8 -*-\n# this file is released under public domain and you can use without limitations\n\n#########################################################################\n## This is a samples controller\n## - index is the default action of any application\n## - user is required for authentication and authorization\n## - download is for downloading files uploaded in the db (does streaming)\n## - call exposes all registered services (none by default)\n#########################################################################\n\n@auth.requires_login()\ndef index():\n    """\n    example action using the internationalization operator T and flash\n    rendered by views/default/index.html or views/generic.html\n\n    if you need a simple wiki simple replace the two lines below with:\n    return auth.wiki()\n    """\n    \'auth\' in globals()\n    if auth.user:\n    \tc1=auth.user_id\n    \tresponse.flash=T("Welcome to web2py!")\n    \tif(c1==3):\n\t    redirect(URL(\'admin\'))\n   \t else:\n\t    redirect(URL(\'client\'))\n    return locals()\n\ndef admin():\n\treturn locals()\ndef user():\n    """\n    exposes:\n    http://..../[app]/default/user/login\n    http://..../[app]/default/user/logout\n    http://..../[app]/default/user/register\n    http://..../[app]/default/user/profile\n    http://..../[app]/default/user/retrieve_password\n    http://..../[app]/default/user/change_password\n    use @auth.requires_login()\n        @auth.requires_membership(\'group name\')\n        @auth.requires_permission(\'read\',\'table name\',record_id)\n    to decorate functions that need access control\n    """\n    return dict(form=auth())\ndef client():\n\treturn locals()\n\ndef download():\n    """\n    allows downloading of uploaded files\n    http://..../[app]/default/download/[filename]\n    """\n    return response.download(request, db)\n\n\ndef call():\n    """\n    exposes services. for example:\n    http://..../[app]/default/call/jsonrpc\n    decorate with @services.jsonrpc the functions to expose\n    supports xml, json, xmlrpc, jsonrpc, amfrpc, rss, csv\n    """\n    return service()\n\n\n@auth.requires_signature()\ndef data():\n    """\n    http://..../[app]/default/data/tables\n    http://..../[app]/default/data/create/[table]\n    http://..../[app]/default/data/read/[table]/[id]\n    http://..../[app]/default/data/update/[table]/[id]\n    http://..../[app]/default/data/delete/[table]/[id]\n    http://..../[app]/default/data/select/[table]\n    http://..../[app]/default/data/search/[table]\n    but URLs must be signed, i.e. linked with\n      A(\'table\',_href=URL(\'data/tables\',user_signature=True))\n    or with the signed load operator\n      LOAD(\'default\',\'data.load\',args=\'tables\',ajax=True,user_signature=True)\n    """\n    return dict(form=crud())\n\nresponse._vars=response._caller(user)\n'
p7
sS'snapshot'
p8
(dp9
S'exception'
p10
(dp11
S'__getslice__'
p12
S"<method-wrapper '__getslice__' of exceptions.IndentationError object>"
p13
sS'text'
p14
S"'   \\t else:\\n'"
p15
sS'__str__'
p16
S"<method-wrapper '__str__' of exceptions.IndentationError object>"
p17
sS'__reduce__'
p18
S'<built-in method __reduce__ of exceptions.IndentationError object>'
p19
sS'__dict__'
p20
S'{}'
p21
sS'__sizeof__'
p22
S'<built-in method __sizeof__ of exceptions.IndentationError object>'
p23
sS'__init__'
p24
S"<method-wrapper '__init__' of exceptions.IndentationError object>"
p25
sS'__setattr__'
p26
S"<method-wrapper '__setattr__' of exceptions.IndentationError object>"
p27
sS'__reduce_ex__'
p28
S'<built-in method __reduce_ex__ of exceptions.IndentationError object>'
p29
sS'__new__'
p30
S'<built-in method __new__ of type object>'
p31
sS'__format__'
p32
S'<built-in method __format__ of exceptions.IndentationError object>'
p33
sS'__class__'
p34
S"<type 'exceptions.IndentationError'>"
p35
sS'filename'
p36
S"'/home/shipra/Desktop/Semester 1.2/ITWS-2/web2py/applications/Assignment_2/controllers/default.py'"
p37
sS'lineno'
p38
S'27'
p39
sS'msg'
p40
S"'unindent does not match any outer indentation level'"
p41
sS'__doc__'
p42
S"'Improper indentation.'"
p43
sS'__getitem__'
p44
S"<method-wrapper '__getitem__' of exceptions.IndentationError object>"
p45
sS'__setstate__'
p46
S'<built-in method __setstate__ of exceptions.IndentationError object>'
p47
sS'__getattribute__'
p48
S"<method-wrapper '__getattribute__' of exceptions.IndentationError object>"
p49
sS'print_file_and_line'
p50
S'None'
p51
sS'args'
p52
S"('unindent does not match any outer indentation level', ('/home/shipra/Desktop/Semester 1.2/ITWS-2/web2py/applications/Assignment_2/controllers/default.py', 27, 11, '   \\t else:\\n'))"
p53
sS'__subclasshook__'
p54
S'<built-in method __subclasshook__ of type object>'
p55
sS'offset'
p56
S'11'
p57
sS'__unicode__'
p58
S'<built-in method __unicode__ of exceptions.IndentationError object>'
p59
sS'__delattr__'
p60
S"<method-wrapper '__delattr__' of exceptions.IndentationError object>"
p61
sS'__repr__'
p62
S"<method-wrapper '__repr__' of exceptions.IndentationError object>"
p63
sS'__hash__'
p64
S"<method-wrapper '__hash__' of exceptions.IndentationError object>"
p65
ssS'evalue'
p66
S'unindent does not match any outer indentation level (default.py, line 27)'
p67
sS'request'
p68
ccopy_reg
_reconstructor
p69
(cgluon.html
BEAUTIFY
p70
c__builtin__
object
p71
NtRp72
(dp73
S'attributes'
p74
(dp75
sS'components'
p76
(lp77
g69
(cgluon.html
TABLE
p78
g71
NtRp79
(dp80
g74
(dp81
S'level'
p82
I5
ssS'parent'
p83
Nsg76
(lp84
g69
(cgluon.html
TR
p85
g71
NtRp86
(dp87
g74
(dp88
sg83
g79
sg76
(lp89
g69
(cgluon.html
TD
p90
g71
NtRp91
(dp92
g74
(dp93
S'_style'
p94
S'font-weight:bold;vertical-align:top'
p95
ssg83
g86
sg76
(lp96
S'ajax'
p97
asbag69
(g90
g71
NtRp98
(dp99
g74
(dp100
S'_valign'
p101
S'top'
p102
ssg83
g86
sg76
(lp103
S':'
asbag69
(g90
g71
NtRp104
(dp105
g74
(dp106
sg83
g86
sg76
(lp107
g69
(g70
g71
NtRp108
(dp109
g74
(dp110
g82
I5
ssg83
g104
sg76
(lp111
S'False'
p112
asbasbasbag69
(g85
g71
NtRp113
(dp114
g74
(dp115
sg83
g79
sg76
(lp116
g69
(g90
g71
NtRp117
(dp118
g74
(dp119
g94
g95
ssg83
g113
sg76
(lp120
S'application'
p121
asbag69
(g90
g71
NtRp122
(dp123
g74
(dp124
g101
g102
ssg83
g113
sg76
(lp125
S':'
asbag69
(g90
g71
NtRp126
(dp127
g74
(dp128
sg83
g113
sg76
(lp129
g69
(g70
g71
NtRp130
(dp131
g74
(dp132
g82
I5
ssg83
g126
sg76
(lp133
S'Assignment_2'
p134
asbasbasbag69
(g85
g71
NtRp135
(dp136
g74
(dp137
sg83
g79
sg76
(lp138
g69
(g90
g71
NtRp139
(dp140
g74
(dp141
g94
g95
ssg83
g135
sg76
(lp142
g52
asbag69
(g90
g71
NtRp143
(dp144
g74
(dp145
g101
g102
ssg83
g135
sg76
(lp146
S':'
asbag69
(g90
g71
NtRp147
(dp148
g74
(dp149
sg83
g135
sg76
(lp150
g69
(g70
g71
NtRp151
(dp152
g74
(dp153
g82
I5
ssg83
g147
sg76
(lp154
g69
(g78
g71
NtRp155
(dp156
g74
(dp157
g82
I4
ssg83
Nsg76
(lp158
g69
(g85
g71
NtRp159
(dp160
g74
(dp161
sg83
g155
sg76
(lp162
g69
(g90
g71
NtRp163
(dp164
g74
(dp165
sg83
g159
sg76
(lp166
g69
(g70
g71
NtRp167
(dp168
g74
(dp169
g82
I4
ssg83
g163
sg76
(lp170
S'login'
p171
asbasbasbasbasbasbasbag69
(g85
g71
NtRp172
(dp173
g74
(dp174
sg83
g79
sg76
(lp175
g69
(g90
g71
NtRp176
(dp177
g74
(dp178
g94
g95
ssg83
g172
sg76
(lp179
S'body'
p180
asbag69
(g90
g71
NtRp181
(dp182
g74
(dp183
g101
g102
ssg83
g172
sg76
(lp184
S':'
asbag69
(g90
g71
NtRp185
(dp186
g74
(dp187
sg83
g172
sg76
(lp188
g69
(g70
g71
NtRp189
(dp190
g74
(dp191
g82
I5
ssg83
g185
sg76
(lp192
S'<cStringIO.StringO object at 0x1d61378>'
p193
asbasbasbag69
(g85
g71
NtRp194
(dp195
g74
(dp196
sg83
g79
sg76
(lp197
g69
(g90
g71
NtRp198
(dp199
g74
(dp200
g94
g95
ssg83
g194
sg76
(lp201
S'cid'
p202
asbag69
(g90
g71
NtRp203
(dp204
g74
(dp205
g101
g102
ssg83
g194
sg76
(lp206
S':'
asbag69
(g90
g71
NtRp207
(dp208
g74
(dp209
sg83
g194
sg76
(lp210
g69
(g70
g71
NtRp211
(dp212
g74
(dp213
g82
I5
ssg83
g207
sg76
(lp214
S'None'
p215
asbasbasbag69
(g85
g71
NtRp216
(dp217
g74
(dp218
sg83
g79
sg76
(lp219
g69
(g90
g71
NtRp220
(dp221
g74
(dp222
g94
g95
ssg83
g216
sg76
(lp223
S'client'
p224
asbag69
(g90
g71
NtRp225
(dp226
g74
(dp227
g101
g102
ssg83
g216
sg76
(lp228
S':'
asbag69
(g90
g71
NtRp229
(dp230
g74
(dp231
sg83
g216
sg76
(lp232
g69
(g70
g71
NtRp233
(dp234
g74
(dp235
g82
I5
ssg83
g229
sg76
(lp236
S'127.0.0.1'
p237
asbasbasbag69
(g85
g71
NtRp238
(dp239
g74
(dp240
sg83
g79
sg76
(lp241
g69
(g90
g71
NtRp242
(dp243
g74
(dp244
g94
g95
ssg83
g238
sg76
(lp245
S'controller'
p246
asbag69
(g90
g71
NtRp247
(dp248
g74
(dp249
g101
g102
ssg83
g238
sg76
(lp250
S':'
asbag69
(g90
g71
NtRp251
(dp252
g74
(dp253
sg83
g238
sg76
(lp254
g69
(g70
g71
NtRp255
(dp256
g74
(dp257
g82
I5
ssg83
g251
sg76
(lp258
S'default'
p259
asbasbasbag69
(g85
g71
NtRp260
(dp261
g74
(dp262
sg83
g79
sg76
(lp263
g69
(g90
g71
NtRp264
(dp265
g74
(dp266
g94
g95
ssg83
g260
sg76
(lp267
S'cookies'
p268
asbag69
(g90
g71
NtRp269
(dp270
g74
(dp271
g101
g102
ssg83
g260
sg76
(lp272
S':'
asbag69
(g90
g71
NtRp273
(dp274
g74
(dp275
sg83
g260
sg76
(lp276
g69
(g70
g71
NtRp277
(dp278
g74
(dp279
g82
I5
ssg83
g273
sg76
(lp280
g69
(g78
g71
NtRp281
(dp282
g74
(dp283
g82
I4
ssg83
Nsg76
(lp284
g69
(g85
g71
NtRp285
(dp286
g74
(dp287
sg83
g281
sg76
(lp288
g69
(g90
g71
NtRp289
(dp290
g74
(dp291
g94
g95
ssg83
g285
sg76
(lp292
S'mp_2093ad9ff9c5428a2228386de2f2b0e4_mixpanel'
p293
asbag69
(g90
g71
NtRp294
(dp295
g74
(dp296
g101
g102
ssg83
g285
sg76
(lp297
S':'
asbag69
(g90
g71
NtRp298
(dp299
g74
(dp300
sg83
g285
sg76
(lp301
g69
(g70
g71
NtRp302
(dp303
g74
(dp304
g82
I4
ssg83
g298
sg76
(lp305
S'%7B%22distinct_id%22%3A%20%2262ffc2d0-7b9f-0130-efb0-22000a1cbb2a%22%2C%22is_registered_user%22%3A%20false%2C%22%24initial_referrer%22%3A%20%22%24direct%22%2C%22%24initial_referring_domain%22%3A%20%22%24direct%22%7D'
p306
ag69
(g78
g71
NtRp307
(dp308
g74
(dp309
g82
I3
ssg83
Nsg76
(lp310
g69
(g85
g71
NtRp311
(dp312
g74
(dp313
sg83
g307
sg76
(lp314
g69
(g90
g71
NtRp315
(dp316
g74
(dp317
g94
g95
ssg83
g311
sg76
(lp318
S'comment'
p319
asbag69
(g90
g71
NtRp320
(dp321
g74
(dp322
g101
g102
ssg83
g311
sg76
(lp323
S':'
asbag69
(g90
g71
NtRp324
(dp325
g74
(dp326
sg83
g311
sg76
(lp327
g69
(g70
g71
NtRp328
(dp329
g74
(dp330
g82
I3
ssg83
g324
sg76
(lp331
S''
asbasbasbag69
(g85
g71
NtRp332
(dp333
g74
(dp334
sg83
g307
sg76
(lp335
g69
(g90
g71
NtRp336
(dp337
g74
(dp338
g94
g95
ssg83
g332
sg76
(lp339
S'domain'
p340
asbag69
(g90
g71
NtRp341
(dp342
g74
(dp343
g101
g102
ssg83
g332
sg76
(lp344
S':'
asbag69
(g90
g71
NtRp345
(dp346
g74
(dp347
sg83
g332
sg76
(lp348
g69
(g70
g71
NtRp349
(dp350
g74
(dp351
g82
I3
ssg83
g345
sg76
(lp352
S''
asbasbasbag69
(g85
g71
NtRp353
(dp354
g74
(dp355
sg83
g307
sg76
(lp356
g69
(g90
g71
NtRp357
(dp358
g74
(dp359
g94
g95
ssg83
g353
sg76
(lp360
S'expires'
p361
asbag69
(g90
g71
NtRp362
(dp363
g74
(dp364
g101
g102
ssg83
g353
sg76
(lp365
S':'
asbag69
(g90
g71
NtRp366
(dp367
g74
(dp368
sg83
g353
sg76
(lp369
g69
(g70
g71
NtRp370
(dp371
g74
(dp372
g82
I3
ssg83
g366
sg76
(lp373
S''
asbasbasbag69
(g85
g71
NtRp374
(dp375
g74
(dp376
sg83
g307
sg76
(lp377
g69
(g90
g71
NtRp378
(dp379
g74
(dp380
g94
g95
ssg83
g374
sg76
(lp381
S'httponly'
p382
asbag69
(g90
g71
NtRp383
(dp384
g74
(dp385
g101
g102
ssg83
g374
sg76
(lp386
S':'
asbag69
(g90
g71
NtRp387
(dp388
g74
(dp389
sg83
g374
sg76
(lp390
g69
(g70
g71
NtRp391
(dp392
g74
(dp393
g82
I3
ssg83
g387
sg76
(lp394
S''
asbasbasbag69
(g85
g71
NtRp395
(dp396
g74
(dp397
sg83
g307
sg76
(lp398
g69
(g90
g71
NtRp399
(dp400
g74
(dp401
g94
g95
ssg83
g395
sg76
(lp402
S'max-age'
p403
asbag69
(g90
g71
NtRp404
(dp405
g74
(dp406
g101
g102
ssg83
g395
sg76
(lp407
S':'
asbag69
(g90
g71
NtRp408
(dp409
g74
(dp410
sg83
g395
sg76
(lp411
g69
(g70
g71
NtRp412
(dp413
g74
(dp414
g82
I3
ssg83
g408
sg76
(lp415
S''
asbasbasbag69
(g85
g71
NtRp416
(dp417
g74
(dp418
sg83
g307
sg76
(lp419
g69
(g90
g71
NtRp420
(dp421
g74
(dp422
g94
g95
ssg83
g416
sg76
(lp423
S'path'
p424
asbag69
(g90
g71
NtRp425
(dp426
g74
(dp427
g101
g102
ssg83
g416
sg76
(lp428
S':'
asbag69
(g90
g71
NtRp429
(dp430
g74
(dp431
sg83
g416
sg76
(lp432
g69
(g70
g71
NtRp433
(dp434
g74
(dp435
g82
I3
ssg83
g429
sg76
(lp436
S''
asbasbasbag69
(g85
g71
NtRp437
(dp438
g74
(dp439
sg83
g307
sg76
(lp440
g69
(g90
g71
NtRp441
(dp442
g74
(dp443
g94
g95
ssg83
g437
sg76
(lp444
S'secure'
p445
asbag69
(g90
g71
NtRp446
(dp447
g74
(dp448
g101
g102
ssg83
g437
sg76
(lp449
S':'
asbag69
(g90
g71
NtRp450
(dp451
g74
(dp452
sg83
g437
sg76
(lp453
g69
(g70
g71
NtRp454
(dp455
g74
(dp456
g82
I3
ssg83
g450
sg76
(lp457
S''
asbasbasbag69
(g85
g71
NtRp458
(dp459
g74
(dp460
sg83
g307
sg76
(lp461
g69
(g90
g71
NtRp462
(dp463
g74
(dp464
g94
g95
ssg83
g458
sg76
(lp465
S'version'
p466
asbag69
(g90
g71
NtRp467
(dp468
g74
(dp469
g101
g102
ssg83
g458
sg76
(lp470
S':'
asbag69
(g90
g71
NtRp471
(dp472
g74
(dp473
sg83
g458
sg76
(lp474
g69
(g70
g71
NtRp475
(dp476
g74
(dp477
g82
I3
ssg83
g471
sg76
(lp478
S''
asbasbasbasbasbasbasbag69
(g85
g71
NtRp479
(dp480
g74
(dp481
sg83
g281
sg76
(lp482
g69
(g90
g71
NtRp483
(dp484
g74
(dp485
g94
g95
ssg83
g479
sg76
(lp486
S'session_id_admin'
p487
asbag69
(g90
g71
NtRp488
(dp489
g74
(dp490
g101
g102
ssg83
g479
sg76
(lp491
S':'
asbag69
(g90
g71
NtRp492
(dp493
g74
(dp494
sg83
g479
sg76
(lp495
g69
(g70
g71
NtRp496
(dp497
g74
(dp498
g82
I4
ssg83
g492
sg76
(lp499
S'127.0.0.1-dc460202-62d9-43ac-881c-17f356e5f59c'
p500
ag69
(g78
g71
NtRp501
(dp502
g74
(dp503
g82
I3
ssg83
Nsg76
(lp504
g69
(g85
g71
NtRp505
(dp506
g74
(dp507
sg83
g501
sg76
(lp508
g69
(g90
g71
NtRp509
(dp510
g74
(dp511
g94
g95
ssg83
g505
sg76
(lp512
g319
asbag69
(g90
g71
NtRp513
(dp514
g74
(dp515
g101
g102
ssg83
g505
sg76
(lp516
S':'
asbag69
(g90
g71
NtRp517
(dp518
g74
(dp519
sg83
g505
sg76
(lp520
g69
(g70
g71
NtRp521
(dp522
g74
(dp523
g82
I3
ssg83
g517
sg76
(lp524
S''
asbasbasbag69
(g85
g71
NtRp525
(dp526
g74
(dp527
sg83
g501
sg76
(lp528
g69
(g90
g71
NtRp529
(dp530
g74
(dp531
g94
g95
ssg83
g525
sg76
(lp532
g340
asbag69
(g90
g71
NtRp533
(dp534
g74
(dp535
g101
g102
ssg83
g525
sg76
(lp536
S':'
asbag69
(g90
g71
NtRp537
(dp538
g74
(dp539
sg83
g525
sg76
(lp540
g69
(g70
g71
NtRp541
(dp542
g74
(dp543
g82
I3
ssg83
g537
sg76
(lp544
S''
asbasbasbag69
(g85
g71
NtRp545
(dp546
g74
(dp547
sg83
g501
sg76
(lp548
g69
(g90
g71
NtRp549
(dp550
g74
(dp551
g94
g95
ssg83
g545
sg76
(lp552
g361
asbag69
(g90
g71
NtRp553
(dp554
g74
(dp555
g101
g102
ssg83
g545
sg76
(lp556
S':'
asbag69
(g90
g71
NtRp557
(dp558
g74
(dp559
sg83
g545
sg76
(lp560
g69
(g70
g71
NtRp561
(dp562
g74
(dp563
g82
I3
ssg83
g557
sg76
(lp564
S''
asbasbasbag69
(g85
g71
NtRp565
(dp566
g74
(dp567
sg83
g501
sg76
(lp568
g69
(g90
g71
NtRp569
(dp570
g74
(dp571
g94
g95
ssg83
g565
sg76
(lp572
g382
asbag69
(g90
g71
NtRp573
(dp574
g74
(dp575
g101
g102
ssg83
g565
sg76
(lp576
S':'
asbag69
(g90
g71
NtRp577
(dp578
g74
(dp579
sg83
g565
sg76
(lp580
g69
(g70
g71
NtRp581
(dp582
g74
(dp583
g82
I3
ssg83
g577
sg76
(lp584
S''
asbasbasbag69
(g85
g71
NtRp585
(dp586
g74
(dp587
sg83
g501
sg76
(lp588
g69
(g90
g71
NtRp589
(dp590
g74
(dp591
g94
g95
ssg83
g585
sg76
(lp592
g403
asbag69
(g90
g71
NtRp593
(dp594
g74
(dp595
g101
g102
ssg83
g585
sg76
(lp596
S':'
asbag69
(g90
g71
NtRp597
(dp598
g74
(dp599
sg83
g585
sg76
(lp600
g69
(g70
g71
NtRp601
(dp602
g74
(dp603
g82
I3
ssg83
g597
sg76
(lp604
S''
asbasbasbag69
(g85
g71
NtRp605
(dp606
g74
(dp607
sg83
g501
sg76
(lp608
g69
(g90
g71
NtRp609
(dp610
g74
(dp611
g94
g95
ssg83
g605
sg76
(lp612
g424
asbag69
(g90
g71
NtRp613
(dp614
g74
(dp615
g101
g102
ssg83
g605
sg76
(lp616
S':'
asbag69
(g90
g71
NtRp617
(dp618
g74
(dp619
sg83
g605
sg76
(lp620
g69
(g70
g71
NtRp621
(dp622
g74
(dp623
g82
I3
ssg83
g617
sg76
(lp624
S''
asbasbasbag69
(g85
g71
NtRp625
(dp626
g74
(dp627
sg83
g501
sg76
(lp628
g69
(g90
g71
NtRp629
(dp630
g74
(dp631
g94
g95
ssg83
g625
sg76
(lp632
g445
asbag69
(g90
g71
NtRp633
(dp634
g74
(dp635
g101
g102
ssg83
g625
sg76
(lp636
S':'
asbag69
(g90
g71
NtRp637
(dp638
g74
(dp639
sg83
g625
sg76
(lp640
g69
(g70
g71
NtRp641
(dp642
g74
(dp643
g82
I3
ssg83
g637
sg76
(lp644
S''
asbasbasbag69
(g85
g71
NtRp645
(dp646
g74
(dp647
sg83
g501
sg76
(lp648
g69
(g90
g71
NtRp649
(dp650
g74
(dp651
g94
g95
ssg83
g645
sg76
(lp652
g466
asbag69
(g90
g71
NtRp653
(dp654
g74
(dp655
g101
g102
ssg83
g645
sg76
(lp656
S':'
asbag69
(g90
g71
NtRp657
(dp658
g74
(dp659
sg83
g645
sg76
(lp660
g69
(g70
g71
NtRp661
(dp662
g74
(dp663
g82
I3
ssg83
g657
sg76
(lp664
S''
asbasbasbasbasbasbasbag69
(g85
g71
NtRp665
(dp666
g74
(dp667
sg83
g281
sg76
(lp668
g69
(g90
g71
NtRp669
(dp670
g74
(dp671
g94
g95
ssg83
g665
sg76
(lp672
S'session_id_assignment_2'
p673
asbag69
(g90
g71
NtRp674
(dp675
g74
(dp676
g101
g102
ssg83
g665
sg76
(lp677
S':'
asbag69
(g90
g71
NtRp678
(dp679
g74
(dp680
sg83
g665
sg76
(lp681
g69
(g70
g71
NtRp682
(dp683
g74
(dp684
g82
I4
ssg83
g678
sg76
(lp685
S'127.0.0.1-a1ea54ad-1f50-4df2-bed9-5564e0abdc15'
p686
ag69
(g78
g71
NtRp687
(dp688
g74
(dp689
g82
I3
ssg83
Nsg76
(lp690
g69
(g85
g71
NtRp691
(dp692
g74
(dp693
sg83
g687
sg76
(lp694
g69
(g90
g71
NtRp695
(dp696
g74
(dp697
g94
g95
ssg83
g691
sg76
(lp698
g319
asbag69
(g90
g71
NtRp699
(dp700
g74
(dp701
g101
g102
ssg83
g691
sg76
(lp702
S':'
asbag69
(g90
g71
NtRp703
(dp704
g74
(dp705
sg83
g691
sg76
(lp706
g69
(g70
g71
NtRp707
(dp708
g74
(dp709
g82
I3
ssg83
g703
sg76
(lp710
S''
asbasbasbag69
(g85
g71
NtRp711
(dp712
g74
(dp713
sg83
g687
sg76
(lp714
g69
(g90
g71
NtRp715
(dp716
g74
(dp717
g94
g95
ssg83
g711
sg76
(lp718
g340
asbag69
(g90
g71
NtRp719
(dp720
g74
(dp721
g101
g102
ssg83
g711
sg76
(lp722
S':'
asbag69
(g90
g71
NtRp723
(dp724
g74
(dp725
sg83
g711
sg76
(lp726
g69
(g70
g71
NtRp727
(dp728
g74
(dp729
g82
I3
ssg83
g723
sg76
(lp730
S''
asbasbasbag69
(g85
g71
NtRp731
(dp732
g74
(dp733
sg83
g687
sg76
(lp734
g69
(g90
g71
NtRp735
(dp736
g74
(dp737
g94
g95
ssg83
g731
sg76
(lp738
g361
asbag69
(g90
g71
NtRp739
(dp740
g74
(dp741
g101
g102
ssg83
g731
sg76
(lp742
S':'
asbag69
(g90
g71
NtRp743
(dp744
g74
(dp745
sg83
g731
sg76
(lp746
g69
(g70
g71
NtRp747
(dp748
g74
(dp749
g82
I3
ssg83
g743
sg76
(lp750
S''
asbasbasbag69
(g85
g71
NtRp751
(dp752
g74
(dp753
sg83
g687
sg76
(lp754
g69
(g90
g71
NtRp755
(dp756
g74
(dp757
g94
g95
ssg83
g751
sg76
(lp758
g382
asbag69
(g90
g71
NtRp759
(dp760
g74
(dp761
g101
g102
ssg83
g751
sg76
(lp762
S':'
asbag69
(g90
g71
NtRp763
(dp764
g74
(dp765
sg83
g751
sg76
(lp766
g69
(g70
g71
NtRp767
(dp768
g74
(dp769
g82
I3
ssg83
g763
sg76
(lp770
S''
asbasbasbag69
(g85
g71
NtRp771
(dp772
g74
(dp773
sg83
g687
sg76
(lp774
g69
(g90
g71
NtRp775
(dp776
g74
(dp777
g94
g95
ssg83
g771
sg76
(lp778
g403
asbag69
(g90
g71
NtRp779
(dp780
g74
(dp781
g101
g102
ssg83
g771
sg76
(lp782
S':'
asbag69
(g90
g71
NtRp783
(dp784
g74
(dp785
sg83
g771
sg76
(lp786
g69
(g70
g71
NtRp787
(dp788
g74
(dp789
g82
I3
ssg83
g783
sg76
(lp790
S''
asbasbasbag69
(g85
g71
NtRp791
(dp792
g74
(dp793
sg83
g687
sg76
(lp794
g69
(g90
g71
NtRp795
(dp796
g74
(dp797
g94
g95
ssg83
g791
sg76
(lp798
g424
asbag69
(g90
g71
NtRp799
(dp800
g74
(dp801
g101
g102
ssg83
g791
sg76
(lp802
S':'
asbag69
(g90
g71
NtRp803
(dp804
g74
(dp805
sg83
g791
sg76
(lp806
g69
(g70
g71
NtRp807
(dp808
g74
(dp809
g82
I3
ssg83
g803
sg76
(lp810
S''
asbasbasbag69
(g85
g71
NtRp811
(dp812
g74
(dp813
sg83
g687
sg76
(lp814
g69
(g90
g71
NtRp815
(dp816
g74
(dp817
g94
g95
ssg83
g811
sg76
(lp818
g445
asbag69
(g90
g71
NtRp819
(dp820
g74
(dp821
g101
g102
ssg83
g811
sg76
(lp822
S':'
asbag69
(g90
g71
NtRp823
(dp824
g74
(dp825
sg83
g811
sg76
(lp826
g69
(g70
g71
NtRp827
(dp828
g74
(dp829
g82
I3
ssg83
g823
sg76
(lp830
S''
asbasbasbag69
(g85
g71
NtRp831
(dp832
g74
(dp833
sg83
g687
sg76
(lp834
g69
(g90
g71
NtRp835
(dp836
g74
(dp837
g94
g95
ssg83
g831
sg76
(lp838
g466
asbag69
(g90
g71
NtRp839
(dp840
g74
(dp841
g101
g102
ssg83
g831
sg76
(lp842
S':'
asbag69
(g90
g71
NtRp843
(dp844
g74
(dp845
sg83
g831
sg76
(lp846
g69
(g70
g71
NtRp847
(dp848
g74
(dp849
g82
I3
ssg83
g843
sg76
(lp850
S''
asbasbasbasbasbasbasbag69
(g85
g71
NtRp851
(dp852
g74
(dp853
sg83
g281
sg76
(lp854
g69
(g90
g71
NtRp855
(dp856
g74
(dp857
g94
g95
ssg83
g851
sg76
(lp858
S'session_id_welcome'
p859
asbag69
(g90
g71
NtRp860
(dp861
g74
(dp862
g101
g102
ssg83
g851
sg76
(lp863
S':'
asbag69
(g90
g71
NtRp864
(dp865
g74
(dp866
sg83
g851
sg76
(lp867
g69
(g70
g71
NtRp868
(dp869
g74
(dp870
g82
I4
ssg83
g864
sg76
(lp871
S'127.0.0.1-a1dcee7c-e184-4b24-994e-b9d344891f24'
p872
ag69
(g78
g71
NtRp873
(dp874
g74
(dp875
g82
I3
ssg83
Nsg76
(lp876
g69
(g85
g71
NtRp877
(dp878
g74
(dp879
sg83
g873
sg76
(lp880
g69
(g90
g71
NtRp881
(dp882
g74
(dp883
g94
g95
ssg83
g877
sg76
(lp884
g319
asbag69
(g90
g71
NtRp885
(dp886
g74
(dp887
g101
g102
ssg83
g877
sg76
(lp888
S':'
asbag69
(g90
g71
NtRp889
(dp890
g74
(dp891
sg83
g877
sg76
(lp892
g69
(g70
g71
NtRp893
(dp894
g74
(dp895
g82
I3
ssg83
g889
sg76
(lp896
S''
asbasbasbag69
(g85
g71
NtRp897
(dp898
g74
(dp899
sg83
g873
sg76
(lp900
g69
(g90
g71
NtRp901
(dp902
g74
(dp903
g94
g95
ssg83
g897
sg76
(lp904
g340
asbag69
(g90
g71
NtRp905
(dp906
g74
(dp907
g101
g102
ssg83
g897
sg76
(lp908
S':'
asbag69
(g90
g71
NtRp909
(dp910
g74
(dp911
sg83
g897
sg76
(lp912
g69
(g70
g71
NtRp913
(dp914
g74
(dp915
g82
I3
ssg83
g909
sg76
(lp916
S''
asbasbasbag69
(g85
g71
NtRp917
(dp918
g74
(dp919
sg83
g873
sg76
(lp920
g69
(g90
g71
NtRp921
(dp922
g74
(dp923
g94
g95
ssg83
g917
sg76
(lp924
g361
asbag69
(g90
g71
NtRp925
(dp926
g74
(dp927
g101
g102
ssg83
g917
sg76
(lp928
S':'
asbag69
(g90
g71
NtRp929
(dp930
g74
(dp931
sg83
g917
sg76
(lp932
g69
(g70
g71
NtRp933
(dp934
g74
(dp935
g82
I3
ssg83
g929
sg76
(lp936
S''
asbasbasbag69
(g85
g71
NtRp937
(dp938
g74
(dp939
sg83
g873
sg76
(lp940
g69
(g90
g71
NtRp941
(dp942
g74
(dp943
g94
g95
ssg83
g937
sg76
(lp944
g382
asbag69
(g90
g71
NtRp945
(dp946
g74
(dp947
g101
g102
ssg83
g937
sg76
(lp948
S':'
asbag69
(g90
g71
NtRp949
(dp950
g74
(dp951
sg83
g937
sg76
(lp952
g69
(g70
g71
NtRp953
(dp954
g74
(dp955
g82
I3
ssg83
g949
sg76
(lp956
S''
asbasbasbag69
(g85
g71
NtRp957
(dp958
g74
(dp959
sg83
g873
sg76
(lp960
g69
(g90
g71
NtRp961
(dp962
g74
(dp963
g94
g95
ssg83
g957
sg76
(lp964
g403
asbag69
(g90
g71
NtRp965
(dp966
g74
(dp967
g101
g102
ssg83
g957
sg76
(lp968
S':'
asbag69
(g90
g71
NtRp969
(dp970
g74
(dp971
sg83
g957
sg76
(lp972
g69
(g70
g71
NtRp973
(dp974
g74
(dp975
g82
I3
ssg83
g969
sg76
(lp976
S''
asbasbasbag69
(g85
g71
NtRp977
(dp978
g74
(dp979
sg83
g873
sg76
(lp980
g69
(g90
g71
NtRp981
(dp982
g74
(dp983
g94
g95
ssg83
g977
sg76
(lp984
g424
asbag69
(g90
g71
NtRp985
(dp986
g74
(dp987
g101
g102
ssg83
g977
sg76
(lp988
S':'
asbag69
(g90
g71
NtRp989
(dp990
g74
(dp991
sg83
g977
sg76
(lp992
g69
(g70
g71
NtRp993
(dp994
g74
(dp995
g82
I3
ssg83
g989
sg76
(lp996
S''
asbasbasbag69
(g85
g71
NtRp997
(dp998
g74
(dp999
sg83
g873
sg76
(lp1000
g69
(g90
g71
NtRp1001
(dp1002
g74
(dp1003
g94
g95
ssg83
g997
sg76
(lp1004
g445
asbag69
(g90
g71
NtRp1005
(dp1006
g74
(dp1007
g101
g102
ssg83
g997
sg76
(lp1008
S':'
asbag69
(g90
g71
NtRp1009
(dp1010
g74
(dp1011
sg83
g997
sg76
(lp1012
g69
(g70
g71
NtRp1013
(dp1014
g74
(dp1015
g82
I3
ssg83
g1009
sg76
(lp1016
S''
asbasbasbag69
(g85
g71
NtRp1017
(dp1018
g74
(dp1019
sg83
g873
sg76
(lp1020
g69
(g90
g71
NtRp1021
(dp1022
g74
(dp1023
g94
g95
ssg83
g1017
sg76
(lp1024
g466
asbag69
(g90
g71
NtRp1025
(dp1026
g74
(dp1027
g101
g102
ssg83
g1017
sg76
(lp1028
S':'
asbag69
(g90
g71
NtRp1029
(dp1030
g74
(dp1031
sg83
g1017
sg76
(lp1032
g69
(g70
g71
NtRp1033
(dp1034
g74
(dp1035
g82
I3
ssg83
g1029
sg76
(lp1036
S''
asbasbasbasbasbasbasbasbasbasbasbag69
(g85
g71
NtRp1037
(dp1038
g74
(dp1039
sg83
g79
sg76
(lp1040
g69
(g90
g71
NtRp1041
(dp1042
g74
(dp1043
g94
g95
ssg83
g1037
sg76
(lp1044
S'env'
p1045
asbag69
(g90
g71
NtRp1046
(dp1047
g74
(dp1048
g101
g102
ssg83
g1037
sg76
(lp1049
S':'
asbag69
(g90
g71
NtRp1050
(dp1051
g74
(dp1052
sg83
g1037
sg76
(lp1053
g69
(g70
g71
NtRp1054
(dp1055
g74
(dp1056
g82
I5
ssg83
g1050
sg76
(lp1057
g69
(g78
g71
NtRp1058
(dp1059
g74
(dp1060
g82
I4
ssg83
Nsg76
(lp1061
g69
(g85
g71
NtRp1062
(dp1063
g74
(dp1064
sg83
g1058
sg76
(lp1065
g69
(g90
g71
NtRp1066
(dp1067
g74
(dp1068
g94
g95
ssg83
g1062
sg76
(lp1069
S'app_folders'
p1070
asbag69
(g90
g71
NtRp1071
(dp1072
g74
(dp1073
g101
g102
ssg83
g1062
sg76
(lp1074
S':'
asbag69
(g90
g71
NtRp1075
(dp1076
g74
(dp1077
sg83
g1062
sg76
(lp1078
g69
(g70
g71
NtRp1079
(dp1080
g74
(dp1081
g82
I4
ssg83
g1075
sg76
(lp1082
S"set(['/home/shipra/Desktop/Semester 1.2/ITWS-2/web2py/applications/Assignment_2/', '/home/shipra/Desktop/Semester 1.2/ITWS-2/web2py/applications/welcome/', '/home/shipra/Desktop/Semester 1.2/ITWS-2/web2py/applications/admin/'])"
p1083
asbasbasbag69
(g85
g71
NtRp1084
(dp1085
g74
(dp1086
sg83
g1058
sg76
(lp1087
g69
(g90
g71
NtRp1088
(dp1089
g74
(dp1090
g94
g95
ssg83
g1084
sg76
(lp1091
S'applications_parent'
p1092
asbag69
(g90
g71
NtRp1093
(dp1094
g74
(dp1095
g101
g102
ssg83
g1084
sg76
(lp1096
S':'
asbag69
(g90
g71
NtRp1097
(dp1098
g74
(dp1099
sg83
g1084
sg76
(lp1100
g69
(g70
g71
NtRp1101
(dp1102
g74
(dp1103
g82
I4
ssg83
g1097
sg76
(lp1104
S'/home/shipra/Desktop/Semester 1.2/ITWS-2/web2py'
p1105
asbasbasbag69
(g85
g71
NtRp1106
(dp1107
g74
(dp1108
sg83
g1058
sg76
(lp1109
g69
(g90
g71
NtRp1110
(dp1111
g74
(dp1112
g94
g95
ssg83
g1106
sg76
(lp1113
S'cmd_args'
p1114
asbag69
(g90
g71
NtRp1115
(dp1116
g74
(dp1117
g101
g102
ssg83
g1106
sg76
(lp1118
S':'
asbag69
(g90
g71
NtRp1119
(dp1120
g74
(dp1121
sg83
g1106
sg76
(lp1122
g69
(g70
g71
NtRp1123
(dp1124
g74
(dp1125
g82
I4
ssg83
g1119
sg76
(lp1126
g69
(g78
g71
NtRp1127
(dp1128
g74
(dp1129
g82
I3
ssg83
Nsg76
(lp1130
sbasbasbasbag69
(g85
g71
NtRp1131
(dp1132
g74
(dp1133
sg83
g1058
sg76
(lp1134
g69
(g90
g71
NtRp1135
(dp1136
g74
(dp1137
g94
g95
ssg83
g1131
sg76
(lp1138
S'cmd_options'
p1139
asbag69
(g90
g71
NtRp1140
(dp1141
g74
(dp1142
g101
g102
ssg83
g1131
sg76
(lp1143
S':'
asbag69
(g90
g71
NtRp1144
(dp1145
g74
(dp1146
sg83
g1131
sg76
(lp1147
g69
(g70
g71
NtRp1148
(dp1149
g74
(dp1150
g82
I4
ssg83
g1144
sg76
(lp1151
S"<Values at 0x1a09290: {'verbose': False, 'ip': '127.0.0.1', 'with_scheduler': False, 'ips': ['10.1.129.70', '192.168.122.1', 'fe80::e611:5bff:fe38:8d0d%p5p1'], 'shutdown_timeout': 5, 'taskbar': False, 'port': 8000, 'maxthreads': None, 'softcron': False, 'server_name': 'shipra', 'bpython': False, 'nogui': False, 'pid_filename': 'httpserver.pid', 'extcron': False, 'runcron': False, 'run_system_tests': False, 'test': None, 'folder': '/home/shipra/Desktop/Semester 1.2/ITWS-2/web2py', 'config': '', 'minthreads': None, 'winservice': '', 'shell': None, 'run': '', 'log_filename': 'httpserver.log', 'debuglevel': 30, 'args': [''], 'socket_timeout': 5, 'ssl_ca_certificate': None, 'scheduler': None, 'profiler_filename': None, 'ssl_private_key': '', 'scheduler_groups': None, 'password': '<ask>', 'request_queue_size': 5, 'ssl_certificate': '', 'cronjob': False, 'numthreads': None, 'quiet': False, 'interfaces': None, 'import_models': False, 'timeout': 10, 'plain': False, 'nobanner': False}>"
p1152
asbasbasbag69
(g85
g71
NtRp1153
(dp1154
g74
(dp1155
sg83
g1058
sg76
(lp1156
g69
(g90
g71
NtRp1157
(dp1158
g74
(dp1159
g94
g95
ssg83
g1153
sg76
(lp1160
S'db_sessions'
p1161
asbag69
(g90
g71
NtRp1162
(dp1163
g74
(dp1164
g101
g102
ssg83
g1153
sg76
(lp1165
S':'
asbag69
(g90
g71
NtRp1166
(dp1167
g74
(dp1168
sg83
g1153
sg76
(lp1169
g69
(g70
g71
NtRp1170
(dp1171
g74
(dp1172
g82
I4
ssg83
g1166
sg76
(lp1173
S'set([])'
p1174
asbasbasbag69
(g85
g71
NtRp1175
(dp1176
g74
(dp1177
sg83
g1058
sg76
(lp1178
g69
(g90
g71
NtRp1179
(dp1180
g74
(dp1181
g94
g95
ssg83
g1175
sg76
(lp1182
S'debugging'
p1183
asbag69
(g90
g71
NtRp1184
(dp1185
g74
(dp1186
g101
g102
ssg83
g1175
sg76
(lp1187
S':'
asbag69
(g90
g71
NtRp1188
(dp1189
g74
(dp1190
sg83
g1175
sg76
(lp1191
g69
(g70
g71
NtRp1192
(dp1193
g74
(dp1194
g82
I4
ssg83
g1188
sg76
(lp1195
g112
asbasbasbag69
(g85
g71
NtRp1196
(dp1197
g74
(dp1198
sg83
g1058
sg76
(lp1199
g69
(g90
g71
NtRp1200
(dp1201
g74
(dp1202
g94
g95
ssg83
g1196
sg76
(lp1203
S'gluon_parent'
p1204
asbag69
(g90
g71
NtRp1205
(dp1206
g74
(dp1207
g101
g102
ssg83
g1196
sg76
(lp1208
S':'
asbag69
(g90
g71
NtRp1209
(dp1210
g74
(dp1211
sg83
g1196
sg76
(lp1212
g69
(g70
g71
NtRp1213
(dp1214
g74
(dp1215
g82
I4
ssg83
g1209
sg76
(lp1216
S'/home/shipra/Desktop/Semester 1.2/ITWS-2/web2py'
p1217
asbasbasbag69
(g85
g71
NtRp1218
(dp1219
g74
(dp1220
sg83
g1058
sg76
(lp1221
g69
(g90
g71
NtRp1222
(dp1223
g74
(dp1224
g94
g95
ssg83
g1218
sg76
(lp1225
S'http_accept'
p1226
asbag69
(g90
g71
NtRp1227
(dp1228
g74
(dp1229
g101
g102
ssg83
g1218
sg76
(lp1230
S':'
asbag69
(g90
g71
NtRp1231
(dp1232
g74
(dp1233
sg83
g1218
sg76
(lp1234
g69
(g70
g71
NtRp1235
(dp1236
g74
(dp1237
g82
I4
ssg83
g1231
sg76
(lp1238
S'text/html,application/xhtml+xml,application/xml;q=0.9,*/*;q=0.8'
p1239
asbasbasbag69
(g85
g71
NtRp1240
(dp1241
g74
(dp1242
sg83
g1058
sg76
(lp1243
g69
(g90
g71
NtRp1244
(dp1245
g74
(dp1246
g94
g95
ssg83
g1240
sg76
(lp1247
S'http_accept_encoding'
p1248
asbag69
(g90
g71
NtRp1249
(dp1250
g74
(dp1251
g101
g102
ssg83
g1240
sg76
(lp1252
S':'
asbag69
(g90
g71
NtRp1253
(dp1254
g74
(dp1255
sg83
g1240
sg76
(lp1256
g69
(g70
g71
NtRp1257
(dp1258
g74
(dp1259
g82
I4
ssg83
g1253
sg76
(lp1260
S'gzip, deflate'
p1261
asbasbasbag69
(g85
g71
NtRp1262
(dp1263
g74
(dp1264
sg83
g1058
sg76
(lp1265
g69
(g90
g71
NtRp1266
(dp1267
g74
(dp1268
g94
g95
ssg83
g1262
sg76
(lp1269
S'http_accept_language'
p1270
asbag69
(g90
g71
NtRp1271
(dp1272
g74
(dp1273
g101
g102
ssg83
g1262
sg76
(lp1274
S':'
asbag69
(g90
g71
NtRp1275
(dp1276
g74
(dp1277
sg83
g1262
sg76
(lp1278
g69
(g70
g71
NtRp1279
(dp1280
g74
(dp1281
g82
I4
ssg83
g1275
sg76
(lp1282
S'en-us,en;q=0.5'
p1283
asbasbasbag69
(g85
g71
NtRp1284
(dp1285
g74
(dp1286
sg83
g1058
sg76
(lp1287
g69
(g90
g71
NtRp1288
(dp1289
g74
(dp1290
g94
g95
ssg83
g1284
sg76
(lp1291
S'http_connection'
p1292
asbag69
(g90
g71
NtRp1293
(dp1294
g74
(dp1295
g101
g102
ssg83
g1284
sg76
(lp1296
S':'
asbag69
(g90
g71
NtRp1297
(dp1298
g74
(dp1299
sg83
g1284
sg76
(lp1300
g69
(g70
g71
NtRp1301
(dp1302
g74
(dp1303
g82
I4
ssg83
g1297
sg76
(lp1304
S'keep-alive'
p1305
asbasbasbag69
(g85
g71
NtRp1306
(dp1307
g74
(dp1308
sg83
g1058
sg76
(lp1309
g69
(g90
g71
NtRp1310
(dp1311
g74
(dp1312
g94
g95
ssg83
g1306
sg76
(lp1313
S'http_cookie'
p1314
asbag69
(g90
g71
NtRp1315
(dp1316
g74
(dp1317
g101
g102
ssg83
g1306
sg76
(lp1318
S':'
asbag69
(g90
g71
NtRp1319
(dp1320
g74
(dp1321
sg83
g1306
sg76
(lp1322
g69
(g70
g71
NtRp1323
(dp1324
g74
(dp1325
g82
I4
ssg83
g1319
sg76
(lp1326
S'__utma=96992031.1334412862.1364672878.1364672878.1364718243.2; __utmz=96992031.1364672878.1.1.utmcsr=(direct)|utmccn=(direct)|utmcmd=(none); __lc.visitor_id.1195381=S1364672235.4faffcf2d2; __ar_v4=OWHSPOGHTNEIPPPBMHVFTA%3A20130329%3A12%7CAMEDRHI4VZG4TIA2AZ565D%3A20130329%3A12%7CWAEQXC4B2NH3DDBR3TZM6I%3A20130329%3A12; mp_2093ad9ff9c5428a2228386de2f2b0e4_mixpanel=%7B%22distinct_id%22%3A%20%2262ffc2d0-7b9f-0130-efb0-22000a1cbb2a%22%2C%22is_registered_user%22%3A%20false%2C%22%24initial_referrer%22%3A%20%22%24direct%22%2C%22%24initial_referring_domain%22%3A%20%22%24direct%22%7D; session_id_welcome=127.0.0.1-a1dcee7c-e184-4b24-994e-b9d344891f24; session_id_admin=127.0.0.1-dc460202-62d9-43ac-881c-17f356e5f59c; session_id_assignment_2=127.0.0.1-a1ea54ad-1f50-4df2-bed9-5564e0abdc15'
p1327
asbasbasbag69
(g85
g71
NtRp1328
(dp1329
g74
(dp1330
sg83
g1058
sg76
(lp1331
g69
(g90
g71
NtRp1332
(dp1333
g74
(dp1334
g94
g95
ssg83
g1328
sg76
(lp1335
S'http_host'
p1336
asbag69
(g90
g71
NtRp1337
(dp1338
g74
(dp1339
g101
g102
ssg83
g1328
sg76
(lp1340
S':'
asbag69
(g90
g71
NtRp1341
(dp1342
g74
(dp1343
sg83
g1328
sg76
(lp1344
g69
(g70
g71
NtRp1345
(dp1346
g74
(dp1347
g82
I4
ssg83
g1341
sg76
(lp1348
S'127.0.0.1:8000'
p1349
asbasbasbag69
(g85
g71
NtRp1350
(dp1351
g74
(dp1352
sg83
g1058
sg76
(lp1353
g69
(g90
g71
NtRp1354
(dp1355
g74
(dp1356
g94
g95
ssg83
g1350
sg76
(lp1357
S'http_user_agent'
p1358
asbag69
(g90
g71
NtRp1359
(dp1360
g74
(dp1361
g101
g102
ssg83
g1350
sg76
(lp1362
S':'
asbag69
(g90
g71
NtRp1363
(dp1364
g74
(dp1365
sg83
g1350
sg76
(lp1366
g69
(g70
g71
NtRp1367
(dp1368
g74
(dp1369
g82
I4
ssg83
g1363
sg76
(lp1370
S'Mozilla/5.0 (X11; Linux x86_64; rv:12.0) Gecko/20100101 Firefox/12.0'
p1371
asbasbasbag69
(g85
g71
NtRp1372
(dp1373
g74
(dp1374
sg83
g1058
sg76
(lp1375
g69
(g90
g71
NtRp1376
(dp1377
g74
(dp1378
g94
g95
ssg83
g1372
sg76
(lp1379
S'is_jython'
p1380
asbag69
(g90
g71
NtRp1381
(dp1382
g74
(dp1383
g101
g102
ssg83
g1372
sg76
(lp1384
S':'
asbag69
(g90
g71
NtRp1385
(dp1386
g74
(dp1387
sg83
g1372
sg76
(lp1388
g69
(g70
g71
NtRp1389
(dp1390
g74
(dp1391
g82
I4
ssg83
g1385
sg76
(lp1392
g112
asbasbasbag69
(g85
g71
NtRp1393
(dp1394
g74
(dp1395
sg83
g1058
sg76
(lp1396
g69
(g90
g71
NtRp1397
(dp1398
g74
(dp1399
g94
g95
ssg83
g1393
sg76
(lp1400
S'is_pypy'
p1401
asbag69
(g90
g71
NtRp1402
(dp1403
g74
(dp1404
g101
g102
ssg83
g1393
sg76
(lp1405
S':'
asbag69
(g90
g71
NtRp1406
(dp1407
g74
(dp1408
sg83
g1393
sg76
(lp1409
g69
(g70
g71
NtRp1410
(dp1411
g74
(dp1412
g82
I4
ssg83
g1406
sg76
(lp1413
g112
asbasbasbag69
(g85
g71
NtRp1414
(dp1415
g74
(dp1416
sg83
g1058
sg76
(lp1417
g69
(g90
g71
NtRp1418
(dp1419
g74
(dp1420
g94
g95
ssg83
g1414
sg76
(lp1421
S'local_hosts'
p1422
asbag69
(g90
g71
NtRp1423
(dp1424
g74
(dp1425
g101
g102
ssg83
g1414
sg76
(lp1426
S':'
asbag69
(g90
g71
NtRp1427
(dp1428
g74
(dp1429
sg83
g1414
sg76
(lp1430
g69
(g70
g71
NtRp1431
(dp1432
g74
(dp1433
g82
I4
ssg83
g1427
sg76
(lp1434
g69
(g78
g71
NtRp1435
(dp1436
g74
(dp1437
g82
I3
ssg83
Nsg76
(lp1438
g69
(g85
g71
NtRp1439
(dp1440
g74
(dp1441
sg83
g1435
sg76
(lp1442
g69
(g90
g71
NtRp1443
(dp1444
g74
(dp1445
sg83
g1439
sg76
(lp1446
g69
(g70
g71
NtRp1447
(dp1448
g74
(dp1449
g82
I3
ssg83
g1443
sg76
(lp1450
S'192.168.122.1'
p1451
asbasbasbag69
(g85
g71
NtRp1452
(dp1453
g74
(dp1454
sg83
g1435
sg76
(lp1455
g69
(g90
g71
NtRp1456
(dp1457
g74
(dp1458
sg83
g1452
sg76
(lp1459
g69
(g70
g71
NtRp1460
(dp1461
g74
(dp1462
g82
I3
ssg83
g1456
sg76
(lp1463
S'::ffff:127.0.0.1'
p1464
asbasbasbag69
(g85
g71
NtRp1465
(dp1466
g74
(dp1467
sg83
g1435
sg76
(lp1468
g69
(g90
g71
NtRp1469
(dp1470
g74
(dp1471
sg83
g1465
sg76
(lp1472
g69
(g70
g71
NtRp1473
(dp1474
g74
(dp1475
g82
I3
ssg83
g1469
sg76
(lp1476
S'::1'
p1477
asbasbasbag69
(g85
g71
NtRp1478
(dp1479
g74
(dp1480
sg83
g1435
sg76
(lp1481
g69
(g90
g71
NtRp1482
(dp1483
g74
(dp1484
sg83
g1478
sg76
(lp1485
g69
(g70
g71
NtRp1486
(dp1487
g74
(dp1488
g82
I3
ssg83
g1482
sg76
(lp1489
S'10.1.129.70'
p1490
asbasbasbag69
(g85
g71
NtRp1491
(dp1492
g74
(dp1493
sg83
g1435
sg76
(lp1494
g69
(g90
g71
NtRp1495
(dp1496
g74
(dp1497
sg83
g1491
sg76
(lp1498
g69
(g70
g71
NtRp1499
(dp1500
g74
(dp1501
g82
I3
ssg83
g1495
sg76
(lp1502
S'fe80::e611:5bff:fe38:8d0d%p5p1'
p1503
asbasbasbag69
(g85
g71
NtRp1504
(dp1505
g74
(dp1506
sg83
g1435
sg76
(lp1507
g69
(g90
g71
NtRp1508
(dp1509
g74
(dp1510
sg83
g1504
sg76
(lp1511
g69
(g70
g71
NtRp1512
(dp1513
g74
(dp1514
g82
I3
ssg83
g1508
sg76
(lp1515
S'127.0.0.1'
p1516
asbasbasbag69
(g85
g71
NtRp1517
(dp1518
g74
(dp1519
sg83
g1435
sg76
(lp1520
g69
(g90
g71
NtRp1521
(dp1522
g74
(dp1523
sg83
g1517
sg76
(lp1524
g69
(g70
g71
NtRp1525
(dp1526
g74
(dp1527
g82
I3
ssg83
g1521
sg76
(lp1528
S'shipra'
p1529
asbasbasbasbasbasbasbag69
(g85
g71
NtRp1530
(dp1531
g74
(dp1532
sg83
g1058
sg76
(lp1533
g69
(g90
g71
NtRp1534
(dp1535
g74
(dp1536
g94
g95
ssg83
g1530
sg76
(lp1537
S'path_info'
p1538
asbag69
(g90
g71
NtRp1539
(dp1540
g74
(dp1541
g101
g102
ssg83
g1530
sg76
(lp1542
S':'
asbag69
(g90
g71
NtRp1543
(dp1544
g74
(dp1545
sg83
g1530
sg76
(lp1546
g69
(g70
g71
NtRp1547
(dp1548
g74
(dp1549
g82
I4
ssg83
g1543
sg76
(lp1550
S'/Assignment_2/default/user/login'
p1551
asbasbasbag69
(g85
g71
NtRp1552
(dp1553
g74
(dp1554
sg83
g1058
sg76
(lp1555
g69
(g90
g71
NtRp1556
(dp1557
g74
(dp1558
g94
g95
ssg83
g1552
sg76
(lp1559
S'query_string'
p1560
asbag69
(g90
g71
NtRp1561
(dp1562
g74
(dp1563
g101
g102
ssg83
g1552
sg76
(lp1564
S':'
asbag69
(g90
g71
NtRp1565
(dp1566
g74
(dp1567
sg83
g1552
sg76
(lp1568
g69
(g70
g71
NtRp1569
(dp1570
g74
(dp1571
g82
I4
ssg83
g1565
sg76
(lp1572
S'_next=/Assignment_2/default/index'
p1573
asbasbasbag69
(g85
g71
NtRp1574
(dp1575
g74
(dp1576
sg83
g1058
sg76
(lp1577
g69
(g90
g71
NtRp1578
(dp1579
g74
(dp1580
g94
g95
ssg83
g1574
sg76
(lp1581
S'remote_addr'
p1582
asbag69
(g90
g71
NtRp1583
(dp1584
g74
(dp1585
g101
g102
ssg83
g1574
sg76
(lp1586
S':'
asbag69
(g90
g71
NtRp1587
(dp1588
g74
(dp1589
sg83
g1574
sg76
(lp1590
g69
(g70
g71
NtRp1591
(dp1592
g74
(dp1593
g82
I4
ssg83
g1587
sg76
(lp1594
g237
asbasbasbag69
(g85
g71
NtRp1595
(dp1596
g74
(dp1597
sg83
g1058
sg76
(lp1598
g69
(g90
g71
NtRp1599
(dp1600
g74
(dp1601
g94
g95
ssg83
g1595
sg76
(lp1602
S'remote_port'
p1603
asbag69
(g90
g71
NtRp1604
(dp1605
g74
(dp1606
g101
g102
ssg83
g1595
sg76
(lp1607
S':'
asbag69
(g90
g71
NtRp1608
(dp1609
g74
(dp1610
sg83
g1595
sg76
(lp1611
g69
(g70
g71
NtRp1612
(dp1613
g74
(dp1614
g82
I4
ssg83
g1608
sg76
(lp1615
S'35499'
p1616
asbasbasbag69
(g85
g71
NtRp1617
(dp1618
g74
(dp1619
sg83
g1058
sg76
(lp1620
g69
(g90
g71
NtRp1621
(dp1622
g74
(dp1623
g94
g95
ssg83
g1617
sg76
(lp1624
S'request_method'
p1625
asbag69
(g90
g71
NtRp1626
(dp1627
g74
(dp1628
g101
g102
ssg83
g1617
sg76
(lp1629
S':'
asbag69
(g90
g71
NtRp1630
(dp1631
g74
(dp1632
sg83
g1617
sg76
(lp1633
g69
(g70
g71
NtRp1634
(dp1635
g74
(dp1636
g82
I4
ssg83
g1630
sg76
(lp1637
S'GET'
p1638
asbasbasbag69
(g85
g71
NtRp1639
(dp1640
g74
(dp1641
sg83
g1058
sg76
(lp1642
g69
(g90
g71
NtRp1643
(dp1644
g74
(dp1645
g94
g95
ssg83
g1639
sg76
(lp1646
S'request_uri'
p1647
asbag69
(g90
g71
NtRp1648
(dp1649
g74
(dp1650
g101
g102
ssg83
g1639
sg76
(lp1651
S':'
asbag69
(g90
g71
NtRp1652
(dp1653
g74
(dp1654
sg83
g1639
sg76
(lp1655
g69
(g70
g71
NtRp1656
(dp1657
g74
(dp1658
g82
I4
ssg83
g1652
sg76
(lp1659
S'/Assignment_2/default/user/login?_next=/Assignment_2/default/index'
p1660
asbasbasbag69
(g85
g71
NtRp1661
(dp1662
g74
(dp1663
sg83
g1058
sg76
(lp1664
g69
(g90
g71
NtRp1665
(dp1666
g74
(dp1667
g94
g95
ssg83
g1661
sg76
(lp1668
S'script_name'
p1669
asbag69
(g90
g71
NtRp1670
(dp1671
g74
(dp1672
g101
g102
ssg83
g1661
sg76
(lp1673
S':'
asbag69
(g90
g71
NtRp1674
(dp1675
g74
(dp1676
sg83
g1661
sg76
(lp1677
g69
(g70
g71
NtRp1678
(dp1679
g74
(dp1680
g82
I4
ssg83
g1674
sg76
(lp1681
S''
asbasbasbag69
(g85
g71
NtRp1682
(dp1683
g74
(dp1684
sg83
g1058
sg76
(lp1685
g69
(g90
g71
NtRp1686
(dp1687
g74
(dp1688
g94
g95
ssg83
g1682
sg76
(lp1689
S'server_name'
p1690
asbag69
(g90
g71
NtRp1691
(dp1692
g74
(dp1693
g101
g102
ssg83
g1682
sg76
(lp1694
S':'
asbag69
(g90
g71
NtRp1695
(dp1696
g74
(dp1697
sg83
g1682
sg76
(lp1698
g69
(g70
g71
NtRp1699
(dp1700
g74
(dp1701
g82
I4
ssg83
g1695
sg76
(lp1702
S'shipra'
p1703
asbasbasbag69
(g85
g71
NtRp1704
(dp1705
g74
(dp1706
sg83
g1058
sg76
(lp1707
g69
(g90
g71
NtRp1708
(dp1709
g74
(dp1710
g94
g95
ssg83
g1704
sg76
(lp1711
S'server_port'
p1712
asbag69
(g90
g71
NtRp1713
(dp1714
g74
(dp1715
g101
g102
ssg83
g1704
sg76
(lp1716
S':'
asbag69
(g90
g71
NtRp1717
(dp1718
g74
(dp1719
sg83
g1704
sg76
(lp1720
g69
(g70
g71
NtRp1721
(dp1722
g74
(dp1723
g82
I4
ssg83
g1717
sg76
(lp1724
S'8000'
p1725
asbasbasbag69
(g85
g71
NtRp1726
(dp1727
g74
(dp1728
sg83
g1058
sg76
(lp1729
g69
(g90
g71
NtRp1730
(dp1731
g74
(dp1732
g94
g95
ssg83
g1726
sg76
(lp1733
S'server_protocol'
p1734
asbag69
(g90
g71
NtRp1735
(dp1736
g74
(dp1737
g101
g102
ssg83
g1726
sg76
(lp1738
S':'
asbag69
(g90
g71
NtRp1739
(dp1740
g74
(dp1741
sg83
g1726
sg76
(lp1742
g69
(g70
g71
NtRp1743
(dp1744
g74
(dp1745
g82
I4
ssg83
g1739
sg76
(lp1746
S'HTTP/1.1'
p1747
asbasbasbag69
(g85
g71
NtRp1748
(dp1749
g74
(dp1750
sg83
g1058
sg76
(lp1751
g69
(g90
g71
NtRp1752
(dp1753
g74
(dp1754
g94
g95
ssg83
g1748
sg76
(lp1755
S'server_software'
p1756
asbag69
(g90
g71
NtRp1757
(dp1758
g74
(dp1759
g101
g102
ssg83
g1748
sg76
(lp1760
S':'
asbag69
(g90
g71
NtRp1761
(dp1762
g74
(dp1763
sg83
g1748
sg76
(lp1764
g69
(g70
g71
NtRp1765
(dp1766
g74
(dp1767
g82
I4
ssg83
g1761
sg76
(lp1768
S'Rocket 1.2.6'
p1769
asbasbasbag69
(g85
g71
NtRp1770
(dp1771
g74
(dp1772
sg83
g1058
sg76
(lp1773
g69
(g90
g71
NtRp1774
(dp1775
g74
(dp1776
g94
g95
ssg83
g1770
sg76
(lp1777
S'web2py_path'
p1778
asbag69
(g90
g71
NtRp1779
(dp1780
g74
(dp1781
g101
g102
ssg83
g1770
sg76
(lp1782
S':'
asbag69
(g90
g71
NtRp1783
(dp1784
g74
(dp1785
sg83
g1770
sg76
(lp1786
g69
(g70
g71
NtRp1787
(dp1788
g74
(dp1789
g82
I4
ssg83
g1783
sg76
(lp1790
g1105
asbasbasbag69
(g85
g71
NtRp1791
(dp1792
g74
(dp1793
sg83
g1058
sg76
(lp1794
g69
(g90
g71
NtRp1795
(dp1796
g74
(dp1797
g94
g95
ssg83
g1791
sg76
(lp1798
S'web2py_version'
p1799
asbag69
(g90
g71
NtRp1800
(dp1801
g74
(dp1802
g101
g102
ssg83
g1791
sg76
(lp1803
S':'
asbag69
(g90
g71
NtRp1804
(dp1805
g74
(dp1806
sg83
g1791
sg76
(lp1807
g69
(g70
g71
NtRp1808
(dp1809
g74
(dp1810
g82
I4
ssg83
g1804
sg76
(lp1811
g69
(g78
g71
NtRp1812
(dp1813
g74
(dp1814
g82
I3
ssg83
Nsg76
(lp1815
g69
(g85
g71
NtRp1816
(dp1817
g74
(dp1818
sg83
g1812
sg76
(lp1819
g69
(g90
g71
NtRp1820
(dp1821
g74
(dp1822
sg83
g1816
sg76
(lp1823
g69
(g70
g71
NtRp1824
(dp1825
g74
(dp1826
g82
I3
ssg83
g1820
sg76
(lp1827
S'2'
asbasbasbag69
(g85
g71
NtRp1828
(dp1829
g74
(dp1830
sg83
g1812
sg76
(lp1831
g69
(g90
g71
NtRp1832
(dp1833
g74
(dp1834
sg83
g1828
sg76
(lp1835
g69
(g70
g71
NtRp1836
(dp1837
g74
(dp1838
g82
I3
ssg83
g1832
sg76
(lp1839
S'3'
asbasbasbag69
(g85
g71
NtRp1840
(dp1841
g74
(dp1842
sg83
g1812
sg76
(lp1843
g69
(g90
g71
NtRp1844
(dp1845
g74
(dp1846
sg83
g1840
sg76
(lp1847
g69
(g70
g71
NtRp1848
(dp1849
g74
(dp1850
g82
I3
ssg83
g1844
sg76
(lp1851
S'2'
asbasbasbag69
(g85
g71
NtRp1852
(dp1853
g74
(dp1854
sg83
g1812
sg76
(lp1855
g69
(g90
g71
NtRp1856
(dp1857
g74
(dp1858
sg83
g1852
sg76
(lp1859
g69
(g70
g71
NtRp1860
(dp1861
g74
(dp1862
g82
I3
ssg83
g1856
sg76
(lp1863
S'datetime.datetime(2012, 12, 17, 15, 3, 30)'
p1864
asbasbasbag69
(g85
g71
NtRp1865
(dp1866
g74
(dp1867
sg83
g1812
sg76
(lp1868
g69
(g90
g71
NtRp1869
(dp1870
g74
(dp1871
sg83
g1865
sg76
(lp1872
g69
(g70
g71
NtRp1873
(dp1874
g74
(dp1875
g82
I3
ssg83
g1869
sg76
(lp1876
S'stable'
p1877
asbasbasbasbasbasbasbag69
(g85
g71
NtRp1878
(dp1879
g74
(dp1880
sg83
g1058
sg76
(lp1881
g69
(g90
g71
NtRp1882
(dp1883
g74
(dp1884
g94
g95
ssg83
g1878
sg76
(lp1885
S'wsgi_errors'
p1886
asbag69
(g90
g71
NtRp1887
(dp1888
g74
(dp1889
g101
g102
ssg83
g1878
sg76
(lp1890
S':'
asbag69
(g90
g71
NtRp1891
(dp1892
g74
(dp1893
sg83
g1878
sg76
(lp1894
g69
(g70
g71
NtRp1895
(dp1896
g74
(dp1897
g82
I4
ssg83
g1891
sg76
(lp1898
S"<open file '<stderr>', mode 'w' at 0x7f411ee5d270>"
p1899
asbasbasbag69
(g85
g71
NtRp1900
(dp1901
g74
(dp1902
sg83
g1058
sg76
(lp1903
g69
(g90
g71
NtRp1904
(dp1905
g74
(dp1906
g94
g95
ssg83
g1900
sg76
(lp1907
S'wsgi_file_wrapper'
p1908
asbag69
(g90
g71
NtRp1909
(dp1910
g74
(dp1911
g101
g102
ssg83
g1900
sg76
(lp1912
S':'
asbag69
(g90
g71
NtRp1913
(dp1914
g74
(dp1915
sg83
g1900
sg76
(lp1916
g69
(g70
g71
NtRp1917
(dp1918
g74
(dp1919
g82
I4
ssg83
g1913
sg76
(lp1920
S'<class wsgiref.util.FileWrapper at 0x1992e20>'
p1921
asbasbasbag69
(g85
g71
NtRp1922
(dp1923
g74
(dp1924
sg83
g1058
sg76
(lp1925
g69
(g90
g71
NtRp1926
(dp1927
g74
(dp1928
g94
g95
ssg83
g1922
sg76
(lp1929
S'wsgi_input'
p1930
asbag69
(g90
g71
NtRp1931
(dp1932
g74
(dp1933
g101
g102
ssg83
g1922
sg76
(lp1934
S':'
asbag69
(g90
g71
NtRp1935
(dp1936
g74
(dp1937
sg83
g1922
sg76
(lp1938
g69
(g70
g71
NtRp1939
(dp1940
g74
(dp1941
g82
I4
ssg83
g1935
sg76
(lp1942
S'<socket._fileobject object at 0x7f40ec105f50>'
p1943
asbasbasbag69
(g85
g71
NtRp1944
(dp1945
g74
(dp1946
sg83
g1058
sg76
(lp1947
g69
(g90
g71
NtRp1948
(dp1949
g74
(dp1950
g94
g95
ssg83
g1944
sg76
(lp1951
S'wsgi_multiprocess'
p1952
asbag69
(g90
g71
NtRp1953
(dp1954
g74
(dp1955
g101
g102
ssg83
g1944
sg76
(lp1956
S':'
asbag69
(g90
g71
NtRp1957
(dp1958
g74
(dp1959
sg83
g1944
sg76
(lp1960
g69
(g70
g71
NtRp1961
(dp1962
g74
(dp1963
g82
I4
ssg83
g1957
sg76
(lp1964
g112
asbasbasbag69
(g85
g71
NtRp1965
(dp1966
g74
(dp1967
sg83
g1058
sg76
(lp1968
g69
(g90
g71
NtRp1969
(dp1970
g74
(dp1971
g94
g95
ssg83
g1965
sg76
(lp1972
S'wsgi_multithread'
p1973
asbag69
(g90
g71
NtRp1974
(dp1975
g74
(dp1976
g101
g102
ssg83
g1965
sg76
(lp1977
S':'
asbag69
(g90
g71
NtRp1978
(dp1979
g74
(dp1980
sg83
g1965
sg76
(lp1981
g69
(g70
g71
NtRp1982
(dp1983
g74
(dp1984
g82
I4
ssg83
g1978
sg76
(lp1985
S'True'
p1986
asbasbasbag69
(g85
g71
NtRp1987
(dp1988
g74
(dp1989
sg83
g1058
sg76
(lp1990
g69
(g90
g71
NtRp1991
(dp1992
g74
(dp1993
g94
g95
ssg83
g1987
sg76
(lp1994
S'wsgi_run_once'
p1995
asbag69
(g90
g71
NtRp1996
(dp1997
g74
(dp1998
g101
g102
ssg83
g1987
sg76
(lp1999
S':'
asbag69
(g90
g71
NtRp2000
(dp2001
g74
(dp2002
sg83
g1987
sg76
(lp2003
g69
(g70
g71
NtRp2004
(dp2005
g74
(dp2006
g82
I4
ssg83
g2000
sg76
(lp2007
g112
asbasbasbag69
(g85
g71
NtRp2008
(dp2009
g74
(dp2010
sg83
g1058
sg76
(lp2011
g69
(g90
g71
NtRp2012
(dp2013
g74
(dp2014
g94
g95
ssg83
g2008
sg76
(lp2015
S'wsgi_url_scheme'
p2016
asbag69
(g90
g71
NtRp2017
(dp2018
g74
(dp2019
g101
g102
ssg83
g2008
sg76
(lp2020
S':'
asbag69
(g90
g71
NtRp2021
(dp2022
g74
(dp2023
sg83
g2008
sg76
(lp2024
g69
(g70
g71
NtRp2025
(dp2026
g74
(dp2027
g82
I4
ssg83
g2021
sg76
(lp2028
S'http'
p2029
asbasbasbag69
(g85
g71
NtRp2030
(dp2031
g74
(dp2032
sg83
g1058
sg76
(lp2033
g69
(g90
g71
NtRp2034
(dp2035
g74
(dp2036
g94
g95
ssg83
g2030
sg76
(lp2037
S'wsgi_version'
p2038
asbag69
(g90
g71
NtRp2039
(dp2040
g74
(dp2041
g101
g102
ssg83
g2030
sg76
(lp2042
S':'
asbag69
(g90
g71
NtRp2043
(dp2044
g74
(dp2045
sg83
g2030
sg76
(lp2046
g69
(g70
g71
NtRp2047
(dp2048
g74
(dp2049
g82
I4
ssg83
g2043
sg76
(lp2050
g69
(g78
g71
NtRp2051
(dp2052
g74
(dp2053
g82
I3
ssg83
Nsg76
(lp2054
g69
(g85
g71
NtRp2055
(dp2056
g74
(dp2057
sg83
g2051
sg76
(lp2058
g69
(g90
g71
NtRp2059
(dp2060
g74
(dp2061
sg83
g2055
sg76
(lp2062
g69
(g70
g71
NtRp2063
(dp2064
g74
(dp2065
g82
I3
ssg83
g2059
sg76
(lp2066
S'1'
asbasbasbag69
(g85
g71
NtRp2067
(dp2068
g74
(dp2069
sg83
g2051
sg76
(lp2070
g69
(g90
g71
NtRp2071
(dp2072
g74
(dp2073
sg83
g2067
sg76
(lp2074
g69
(g70
g71
NtRp2075
(dp2076
g74
(dp2077
g82
I3
ssg83
g2071
sg76
(lp2078
S'0'
asbasbasbasbasbasbasbasbasbasbasbag69
(g85
g71
NtRp2079
(dp2080
g74
(dp2081
sg83
g79
sg76
(lp2082
g69
(g90
g71
NtRp2083
(dp2084
g74
(dp2085
g94
g95
ssg83
g2079
sg76
(lp2086
S'extension'
p2087
asbag69
(g90
g71
NtRp2088
(dp2089
g74
(dp2090
g101
g102
ssg83
g2079
sg76
(lp2091
S':'
asbag69
(g90
g71
NtRp2092
(dp2093
g74
(dp2094
sg83
g2079
sg76
(lp2095
g69
(g70
g71
NtRp2096
(dp2097
g74
(dp2098
g82
I5
ssg83
g2092
sg76
(lp2099
S'html'
p2100
asbasbasbag69
(g85
g71
NtRp2101
(dp2102
g74
(dp2103
sg83
g79
sg76
(lp2104
g69
(g90
g71
NtRp2105
(dp2106
g74
(dp2107
g94
g95
ssg83
g2101
sg76
(lp2108
S'folder'
p2109
asbag69
(g90
g71
NtRp2110
(dp2111
g74
(dp2112
g101
g102
ssg83
g2101
sg76
(lp2113
S':'
asbag69
(g90
g71
NtRp2114
(dp2115
g74
(dp2116
sg83
g2101
sg76
(lp2117
g69
(g70
g71
NtRp2118
(dp2119
g74
(dp2120
g82
I5
ssg83
g2114
sg76
(lp2121
S'/home/shipra/Desktop/Semester 1.2/ITWS-2/web2py/applications/Assignment_2/'
p2122
asbasbasbag69
(g85
g71
NtRp2123
(dp2124
g74
(dp2125
sg83
g79
sg76
(lp2126
g69
(g90
g71
NtRp2127
(dp2128
g74
(dp2129
g94
g95
ssg83
g2123
sg76
(lp2130
S'function'
p2131
asbag69
(g90
g71
NtRp2132
(dp2133
g74
(dp2134
g101
g102
ssg83
g2123
sg76
(lp2135
S':'
asbag69
(g90
g71
NtRp2136
(dp2137
g74
(dp2138
sg83
g2123
sg76
(lp2139
g69
(g70
g71
NtRp2140
(dp2141
g74
(dp2142
g82
I5
ssg83
g2136
sg76
(lp2143
S'user'
p2144
asbasbasbag69
(g85
g71
NtRp2145
(dp2146
g74
(dp2147
sg83
g79
sg76
(lp2148
g69
(g90
g71
NtRp2149
(dp2150
g74
(dp2151
g94
g95
ssg83
g2145
sg76
(lp2152
S'get_vars'
p2153
asbag69
(g90
g71
NtRp2154
(dp2155
g74
(dp2156
g101
g102
ssg83
g2145
sg76
(lp2157
S':'
asbag69
(g90
g71
NtRp2158
(dp2159
g74
(dp2160
sg83
g2145
sg76
(lp2161
g69
(g70
g71
NtRp2162
(dp2163
g74
(dp2164
g82
I5
ssg83
g2158
sg76
(lp2165
g69
(g78
g71
NtRp2166
(dp2167
g74
(dp2168
g82
I4
ssg83
Nsg76
(lp2169
sbasbasbasbag69
(g85
g71
NtRp2170
(dp2171
g74
(dp2172
sg83
g79
sg76
(lp2173
g69
(g90
g71
NtRp2174
(dp2175
g74
(dp2176
g94
g95
ssg83
g2170
sg76
(lp2177
S'global_settings'
p2178
asbag69
(g90
g71
NtRp2179
(dp2180
g74
(dp2181
g101
g102
ssg83
g2170
sg76
(lp2182
S':'
asbag69
(g90
g71
NtRp2183
(dp2184
g74
(dp2185
sg83
g2170
sg76
(lp2186
g69
(g70
g71
NtRp2187
(dp2188
g74
(dp2189
g82
I5
ssg83
g2183
sg76
(lp2190
g69
(g78
g71
NtRp2191
(dp2192
g74
(dp2193
g82
I4
ssg83
Nsg76
(lp2194
g69
(g85
g71
NtRp2195
(dp2196
g74
(dp2197
sg83
g2191
sg76
(lp2198
g69
(g90
g71
NtRp2199
(dp2200
g74
(dp2201
g94
g95
ssg83
g2195
sg76
(lp2202
g1070
asbag69
(g90
g71
NtRp2203
(dp2204
g74
(dp2205
g101
g102
ssg83
g2195
sg76
(lp2206
S':'
asbag69
(g90
g71
NtRp2207
(dp2208
g74
(dp2209
sg83
g2195
sg76
(lp2210
g69
(g70
g71
NtRp2211
(dp2212
g74
(dp2213
g82
I4
ssg83
g2207
sg76
(lp2214
S"set(['/home/shipra/Desktop/Semester 1.2/ITWS-2/web2py/applications/Assignment_2/', '/home/shipra/Desktop/Semester 1.2/ITWS-2/web2py/applications/welcome/', '/home/shipra/Desktop/Semester 1.2/ITWS-2/web2py/applications/admin/'])"
p2215
asbasbasbag69
(g85
g71
NtRp2216
(dp2217
g74
(dp2218
sg83
g2191
sg76
(lp2219
g69
(g90
g71
NtRp2220
(dp2221
g74
(dp2222
g94
g95
ssg83
g2216
sg76
(lp2223
g1092
asbag69
(g90
g71
NtRp2224
(dp2225
g74
(dp2226
g101
g102
ssg83
g2216
sg76
(lp2227
S':'
asbag69
(g90
g71
NtRp2228
(dp2229
g74
(dp2230
sg83
g2216
sg76
(lp2231
g69
(g70
g71
NtRp2232
(dp2233
g74
(dp2234
g82
I4
ssg83
g2228
sg76
(lp2235
g1105
asbasbasbag69
(g85
g71
NtRp2236
(dp2237
g74
(dp2238
sg83
g2191
sg76
(lp2239
g69
(g90
g71
NtRp2240
(dp2241
g74
(dp2242
g94
g95
ssg83
g2236
sg76
(lp2243
g1114
asbag69
(g90
g71
NtRp2244
(dp2245
g74
(dp2246
g101
g102
ssg83
g2236
sg76
(lp2247
S':'
asbag69
(g90
g71
NtRp2248
(dp2249
g74
(dp2250
sg83
g2236
sg76
(lp2251
g69
(g70
g71
NtRp2252
(dp2253
g74
(dp2254
g82
I4
ssg83
g2248
sg76
(lp2255
g69
(g78
g71
NtRp2256
(dp2257
g74
(dp2258
g82
I3
ssg83
Nsg76
(lp2259
sbasbasbasbag69
(g85
g71
NtRp2260
(dp2261
g74
(dp2262
sg83
g2191
sg76
(lp2263
g69
(g90
g71
NtRp2264
(dp2265
g74
(dp2266
g94
g95
ssg83
g2260
sg76
(lp2267
g1139
asbag69
(g90
g71
NtRp2268
(dp2269
g74
(dp2270
g101
g102
ssg83
g2260
sg76
(lp2271
S':'
asbag69
(g90
g71
NtRp2272
(dp2273
g74
(dp2274
sg83
g2260
sg76
(lp2275
g69
(g70
g71
NtRp2276
(dp2277
g74
(dp2278
g82
I4
ssg83
g2272
sg76
(lp2279
S"<Values at 0x1a09290: {'verbose': False, 'ip': '127.0.0.1', 'with_scheduler': False, 'ips': ['10.1.129.70', '192.168.122.1', 'fe80::e611:5bff:fe38:8d0d%p5p1'], 'shutdown_timeout': 5, 'taskbar': False, 'port': 8000, 'maxthreads': None, 'softcron': False, 'server_name': 'shipra', 'bpython': False, 'nogui': False, 'pid_filename': 'httpserver.pid', 'extcron': False, 'runcron': False, 'run_system_tests': False, 'test': None, 'folder': '/home/shipra/Desktop/Semester 1.2/ITWS-2/web2py', 'config': '', 'minthreads': None, 'winservice': '', 'shell': None, 'run': '', 'log_filename': 'httpserver.log', 'debuglevel': 30, 'args': [''], 'socket_timeout': 5, 'ssl_ca_certificate': None, 'scheduler': None, 'profiler_filename': None, 'ssl_private_key': '', 'scheduler_groups': None, 'password': '<ask>', 'request_queue_size': 5, 'ssl_certificate': '', 'cronjob': False, 'numthreads': None, 'quiet': False, 'interfaces': None, 'import_models': False, 'timeout': 10, 'plain': False, 'nobanner': False}>"
p2280
asbasbasbag69
(g85
g71
NtRp2281
(dp2282
g74
(dp2283
sg83
g2191
sg76
(lp2284
g69
(g90
g71
NtRp2285
(dp2286
g74
(dp2287
g94
g95
ssg83
g2281
sg76
(lp2288
g1161
asbag69
(g90
g71
NtRp2289
(dp2290
g74
(dp2291
g101
g102
ssg83
g2281
sg76
(lp2292
S':'
asbag69
(g90
g71
NtRp2293
(dp2294
g74
(dp2295
sg83
g2281
sg76
(lp2296
g69
(g70
g71
NtRp2297
(dp2298
g74
(dp2299
g82
I4
ssg83
g2293
sg76
(lp2300
S'set([])'
p2301
asbasbasbag69
(g85
g71
NtRp2302
(dp2303
g74
(dp2304
sg83
g2191
sg76
(lp2305
g69
(g90
g71
NtRp2306
(dp2307
g74
(dp2308
g94
g95
ssg83
g2302
sg76
(lp2309
g1183
asbag69
(g90
g71
NtRp2310
(dp2311
g74
(dp2312
g101
g102
ssg83
g2302
sg76
(lp2313
S':'
asbag69
(g90
g71
NtRp2314
(dp2315
g74
(dp2316
sg83
g2302
sg76
(lp2317
g69
(g70
g71
NtRp2318
(dp2319
g74
(dp2320
g82
I4
ssg83
g2314
sg76
(lp2321
g112
asbasbasbag69
(g85
g71
NtRp2322
(dp2323
g74
(dp2324
sg83
g2191
sg76
(lp2325
g69
(g90
g71
NtRp2326
(dp2327
g74
(dp2328
g94
g95
ssg83
g2322
sg76
(lp2329
g1204
asbag69
(g90
g71
NtRp2330
(dp2331
g74
(dp2332
g101
g102
ssg83
g2322
sg76
(lp2333
S':'
asbag69
(g90
g71
NtRp2334
(dp2335
g74
(dp2336
sg83
g2322
sg76
(lp2337
g69
(g70
g71
NtRp2338
(dp2339
g74
(dp2340
g82
I4
ssg83
g2334
sg76
(lp2341
g1217
asbasbasbag69
(g85
g71
NtRp2342
(dp2343
g74
(dp2344
sg83
g2191
sg76
(lp2345
g69
(g90
g71
NtRp2346
(dp2347
g74
(dp2348
g94
g95
ssg83
g2342
sg76
(lp2349
g1380
asbag69
(g90
g71
NtRp2350
(dp2351
g74
(dp2352
g101
g102
ssg83
g2342
sg76
(lp2353
S':'
asbag69
(g90
g71
NtRp2354
(dp2355
g74
(dp2356
sg83
g2342
sg76
(lp2357
g69
(g70
g71
NtRp2358
(dp2359
g74
(dp2360
g82
I4
ssg83
g2354
sg76
(lp2361
g112
asbasbasbag69
(g85
g71
NtRp2362
(dp2363
g74
(dp2364
sg83
g2191
sg76
(lp2365
g69
(g90
g71
NtRp2366
(dp2367
g74
(dp2368
g94
g95
ssg83
g2362
sg76
(lp2369
g1401
asbag69
(g90
g71
NtRp2370
(dp2371
g74
(dp2372
g101
g102
ssg83
g2362
sg76
(lp2373
S':'
asbag69
(g90
g71
NtRp2374
(dp2375
g74
(dp2376
sg83
g2362
sg76
(lp2377
g69
(g70
g71
NtRp2378
(dp2379
g74
(dp2380
g82
I4
ssg83
g2374
sg76
(lp2381
g112
asbasbasbag69
(g85
g71
NtRp2382
(dp2383
g74
(dp2384
sg83
g2191
sg76
(lp2385
g69
(g90
g71
NtRp2386
(dp2387
g74
(dp2388
g94
g95
ssg83
g2382
sg76
(lp2389
g1422
asbag69
(g90
g71
NtRp2390
(dp2391
g74
(dp2392
g101
g102
ssg83
g2382
sg76
(lp2393
S':'
asbag69
(g90
g71
NtRp2394
(dp2395
g74
(dp2396
sg83
g2382
sg76
(lp2397
g69
(g70
g71
NtRp2398
(dp2399
g74
(dp2400
g82
I4
ssg83
g2394
sg76
(lp2401
g69
(g78
g71
NtRp2402
(dp2403
g74
(dp2404
g82
I3
ssg83
Nsg76
(lp2405
g69
(g85
g71
NtRp2406
(dp2407
g74
(dp2408
sg83
g2402
sg76
(lp2409
g69
(g90
g71
NtRp2410
(dp2411
g74
(dp2412
sg83
g2406
sg76
(lp2413
g69
(g70
g71
NtRp2414
(dp2415
g74
(dp2416
g82
I3
ssg83
g2410
sg76
(lp2417
g1451
asbasbasbag69
(g85
g71
NtRp2418
(dp2419
g74
(dp2420
sg83
g2402
sg76
(lp2421
g69
(g90
g71
NtRp2422
(dp2423
g74
(dp2424
sg83
g2418
sg76
(lp2425
g69
(g70
g71
NtRp2426
(dp2427
g74
(dp2428
g82
I3
ssg83
g2422
sg76
(lp2429
g1464
asbasbasbag69
(g85
g71
NtRp2430
(dp2431
g74
(dp2432
sg83
g2402
sg76
(lp2433
g69
(g90
g71
NtRp2434
(dp2435
g74
(dp2436
sg83
g2430
sg76
(lp2437
g69
(g70
g71
NtRp2438
(dp2439
g74
(dp2440
g82
I3
ssg83
g2434
sg76
(lp2441
g1477
asbasbasbag69
(g85
g71
NtRp2442
(dp2443
g74
(dp2444
sg83
g2402
sg76
(lp2445
g69
(g90
g71
NtRp2446
(dp2447
g74
(dp2448
sg83
g2442
sg76
(lp2449
g69
(g70
g71
NtRp2450
(dp2451
g74
(dp2452
g82
I3
ssg83
g2446
sg76
(lp2453
g1490
asbasbasbag69
(g85
g71
NtRp2454
(dp2455
g74
(dp2456
sg83
g2402
sg76
(lp2457
g69
(g90
g71
NtRp2458
(dp2459
g74
(dp2460
sg83
g2454
sg76
(lp2461
g69
(g70
g71
NtRp2462
(dp2463
g74
(dp2464
g82
I3
ssg83
g2458
sg76
(lp2465
g1503
asbasbasbag69
(g85
g71
NtRp2466
(dp2467
g74
(dp2468
sg83
g2402
sg76
(lp2469
g69
(g90
g71
NtRp2470
(dp2471
g74
(dp2472
sg83
g2466
sg76
(lp2473
g69
(g70
g71
NtRp2474
(dp2475
g74
(dp2476
g82
I3
ssg83
g2470
sg76
(lp2477
g1516
asbasbasbag69
(g85
g71
NtRp2478
(dp2479
g74
(dp2480
sg83
g2402
sg76
(lp2481
g69
(g90
g71
NtRp2482
(dp2483
g74
(dp2484
sg83
g2478
sg76
(lp2485
g69
(g70
g71
NtRp2486
(dp2487
g74
(dp2488
g82
I3
ssg83
g2482
sg76
(lp2489
g1529
asbasbasbasbasbasbasbag69
(g85
g71
NtRp2490
(dp2491
g74
(dp2492
sg83
g2191
sg76
(lp2493
g69
(g90
g71
NtRp2494
(dp2495
g74
(dp2496
g94
g95
ssg83
g2490
sg76
(lp2497
g1799
asbag69
(g90
g71
NtRp2498
(dp2499
g74
(dp2500
g101
g102
ssg83
g2490
sg76
(lp2501
S':'
asbag69
(g90
g71
NtRp2502
(dp2503
g74
(dp2504
sg83
g2490
sg76
(lp2505
g69
(g70
g71
NtRp2506
(dp2507
g74
(dp2508
g82
I4
ssg83
g2502
sg76
(lp2509
g69
(g78
g71
NtRp2510
(dp2511
g74
(dp2512
g82
I3
ssg83
Nsg76
(lp2513
g69
(g85
g71
NtRp2514
(dp2515
g74
(dp2516
sg83
g2510
sg76
(lp2517
g69
(g90
g71
NtRp2518
(dp2519
g74
(dp2520
sg83
g2514
sg76
(lp2521
g69
(g70
g71
NtRp2522
(dp2523
g74
(dp2524
g82
I3
ssg83
g2518
sg76
(lp2525
S'2'
asbasbasbag69
(g85
g71
NtRp2526
(dp2527
g74
(dp2528
sg83
g2510
sg76
(lp2529
g69
(g90
g71
NtRp2530
(dp2531
g74
(dp2532
sg83
g2526
sg76
(lp2533
g69
(g70
g71
NtRp2534
(dp2535
g74
(dp2536
g82
I3
ssg83
g2530
sg76
(lp2537
S'3'
asbasbasbag69
(g85
g71
NtRp2538
(dp2539
g74
(dp2540
sg83
g2510
sg76
(lp2541
g69
(g90
g71
NtRp2542
(dp2543
g74
(dp2544
sg83
g2538
sg76
(lp2545
g69
(g70
g71
NtRp2546
(dp2547
g74
(dp2548
g82
I3
ssg83
g2542
sg76
(lp2549
S'2'
asbasbasbag69
(g85
g71
NtRp2550
(dp2551
g74
(dp2552
sg83
g2510
sg76
(lp2553
g69
(g90
g71
NtRp2554
(dp2555
g74
(dp2556
sg83
g2550
sg76
(lp2557
g69
(g70
g71
NtRp2558
(dp2559
g74
(dp2560
g82
I3
ssg83
g2554
sg76
(lp2561
S'datetime.datetime(2012, 12, 17, 15, 3, 30)'
p2562
asbasbasbag69
(g85
g71
NtRp2563
(dp2564
g74
(dp2565
sg83
g2510
sg76
(lp2566
g69
(g90
g71
NtRp2567
(dp2568
g74
(dp2569
sg83
g2563
sg76
(lp2570
g69
(g70
g71
NtRp2571
(dp2572
g74
(dp2573
g82
I3
ssg83
g2567
sg76
(lp2574
g1877
asbasbasbasbasbasbasbasbasbasbasbag69
(g85
g71
NtRp2575
(dp2576
g74
(dp2577
sg83
g79
sg76
(lp2578
g69
(g90
g71
NtRp2579
(dp2580
g74
(dp2581
g94
g95
ssg83
g2575
sg76
(lp2582
S'is_https'
p2583
asbag69
(g90
g71
NtRp2584
(dp2585
g74
(dp2586
g101
g102
ssg83
g2575
sg76
(lp2587
S':'
asbag69
(g90
g71
NtRp2588
(dp2589
g74
(dp2590
sg83
g2575
sg76
(lp2591
g69
(g70
g71
NtRp2592
(dp2593
g74
(dp2594
g82
I5
ssg83
g2588
sg76
(lp2595
g112
asbasbasbag69
(g85
g71
NtRp2596
(dp2597
g74
(dp2598
sg83
g79
sg76
(lp2599
g69
(g90
g71
NtRp2600
(dp2601
g74
(dp2602
g94
g95
ssg83
g2596
sg76
(lp2603
S'is_local'
p2604
asbag69
(g90
g71
NtRp2605
(dp2606
g74
(dp2607
g101
g102
ssg83
g2596
sg76
(lp2608
S':'
asbag69
(g90
g71
NtRp2609
(dp2610
g74
(dp2611
sg83
g2596
sg76
(lp2612
g69
(g70
g71
NtRp2613
(dp2614
g74
(dp2615
g82
I5
ssg83
g2609
sg76
(lp2616
g1986
asbasbasbag69
(g85
g71
NtRp2617
(dp2618
g74
(dp2619
sg83
g79
sg76
(lp2620
g69
(g90
g71
NtRp2621
(dp2622
g74
(dp2623
g94
g95
ssg83
g2617
sg76
(lp2624
S'is_restful'
p2625
asbag69
(g90
g71
NtRp2626
(dp2627
g74
(dp2628
g101
g102
ssg83
g2617
sg76
(lp2629
S':'
asbag69
(g90
g71
NtRp2630
(dp2631
g74
(dp2632
sg83
g2617
sg76
(lp2633
g69
(g70
g71
NtRp2634
(dp2635
g74
(dp2636
g82
I5
ssg83
g2630
sg76
(lp2637
g112
asbasbasbag69
(g85
g71
NtRp2638
(dp2639
g74
(dp2640
sg83
g79
sg76
(lp2641
g69
(g90
g71
NtRp2642
(dp2643
g74
(dp2644
g94
g95
ssg83
g2638
sg76
(lp2645
S'now'
p2646
asbag69
(g90
g71
NtRp2647
(dp2648
g74
(dp2649
g101
g102
ssg83
g2638
sg76
(lp2650
S':'
asbag69
(g90
g71
NtRp2651
(dp2652
g74
(dp2653
sg83
g2638
sg76
(lp2654
g69
(g70
g71
NtRp2655
(dp2656
g74
(dp2657
g82
I5
ssg83
g2651
sg76
(lp2658
S'datetime.datetime(2013, 8, 26, 0, 36, 26, 339170)'
p2659
asbasbasbag69
(g85
g71
NtRp2660
(dp2661
g74
(dp2662
sg83
g79
sg76
(lp2663
g69
(g90
g71
NtRp2664
(dp2665
g74
(dp2666
g94
g95
ssg83
g2660
sg76
(lp2667
S'post_vars'
p2668
asbag69
(g90
g71
NtRp2669
(dp2670
g74
(dp2671
g101
g102
ssg83
g2660
sg76
(lp2672
S':'
asbag69
(g90
g71
NtRp2673
(dp2674
g74
(dp2675
sg83
g2660
sg76
(lp2676
g69
(g70
g71
NtRp2677
(dp2678
g74
(dp2679
g82
I5
ssg83
g2673
sg76
(lp2680
g69
(g78
g71
NtRp2681
(dp2682
g74
(dp2683
g82
I4
ssg83
Nsg76
(lp2684
sbasbasbasbag69
(g85
g71
NtRp2685
(dp2686
g74
(dp2687
sg83
g79
sg76
(lp2688
g69
(g90
g71
NtRp2689
(dp2690
g74
(dp2691
g94
g95
ssg83
g2685
sg76
(lp2692
S'raw_args'
p2693
asbag69
(g90
g71
NtRp2694
(dp2695
g74
(dp2696
g101
g102
ssg83
g2685
sg76
(lp2697
S':'
asbag69
(g90
g71
NtRp2698
(dp2699
g74
(dp2700
sg83
g2685
sg76
(lp2701
g69
(g70
g71
NtRp2702
(dp2703
g74
(dp2704
g82
I5
ssg83
g2698
sg76
(lp2705
g171
asbasbasbag69
(g85
g71
NtRp2706
(dp2707
g74
(dp2708
sg83
g79
sg76
(lp2709
g69
(g90
g71
NtRp2710
(dp2711
g74
(dp2712
g94
g95
ssg83
g2706
sg76
(lp2713
S'raw_extension'
p2714
asbag69
(g90
g71
NtRp2715
(dp2716
g74
(dp2717
g101
g102
ssg83
g2706
sg76
(lp2718
S':'
asbag69
(g90
g71
NtRp2719
(dp2720
g74
(dp2721
sg83
g2706
sg76
(lp2722
g69
(g70
g71
NtRp2723
(dp2724
g74
(dp2725
g82
I5
ssg83
g2719
sg76
(lp2726
S'None'
p2727
asbasbasbag69
(g85
g71
NtRp2728
(dp2729
g74
(dp2730
sg83
g79
sg76
(lp2731
g69
(g90
g71
NtRp2732
(dp2733
g74
(dp2734
g94
g95
ssg83
g2728
sg76
(lp2735
S'url'
p2736
asbag69
(g90
g71
NtRp2737
(dp2738
g74
(dp2739
g101
g102
ssg83
g2728
sg76
(lp2740
S':'
asbag69
(g90
g71
NtRp2741
(dp2742
g74
(dp2743
sg83
g2728
sg76
(lp2744
g69
(g70
g71
NtRp2745
(dp2746
g74
(dp2747
g82
I5
ssg83
g2741
sg76
(lp2748
g1551
asbasbasbag69
(g85
g71
NtRp2749
(dp2750
g74
(dp2751
sg83
g79
sg76
(lp2752
g69
(g90
g71
NtRp2753
(dp2754
g74
(dp2755
g94
g95
ssg83
g2749
sg76
(lp2756
S'utcnow'
p2757
asbag69
(g90
g71
NtRp2758
(dp2759
g74
(dp2760
g101
g102
ssg83
g2749
sg76
(lp2761
S':'
asbag69
(g90
g71
NtRp2762
(dp2763
g74
(dp2764
sg83
g2749
sg76
(lp2765
g69
(g70
g71
NtRp2766
(dp2767
g74
(dp2768
g82
I5
ssg83
g2762
sg76
(lp2769
S'datetime.datetime(2013, 8, 25, 19, 6, 26, 339192)'
p2770
asbasbasbag69
(g85
g71
NtRp2771
(dp2772
g74
(dp2773
sg83
g79
sg76
(lp2774
g69
(g90
g71
NtRp2775
(dp2776
g74
(dp2777
g94
g95
ssg83
g2771
sg76
(lp2778
S'uuid'
p2779
asbag69
(g90
g71
NtRp2780
(dp2781
g74
(dp2782
g101
g102
ssg83
g2771
sg76
(lp2783
S':'
asbag69
(g90
g71
NtRp2784
(dp2785
g74
(dp2786
sg83
g2771
sg76
(lp2787
g69
(g70
g71
NtRp2788
(dp2789
g74
(dp2790
g82
I5
ssg83
g2784
sg76
(lp2791
S'Assignment_2/127.0.0.1.2013-08-26.00-36-26.d86cb78f-32d2-4ad6-8209-917da592406a'
p2792
asbasbasbag69
(g85
g71
NtRp2793
(dp2794
g74
(dp2795
sg83
g79
sg76
(lp2796
g69
(g90
g71
NtRp2797
(dp2798
g74
(dp2799
g94
g95
ssg83
g2793
sg76
(lp2800
S'vars'
p2801
asbag69
(g90
g71
NtRp2802
(dp2803
g74
(dp2804
g101
g102
ssg83
g2793
sg76
(lp2805
S':'
asbag69
(g90
g71
NtRp2806
(dp2807
g74
(dp2808
sg83
g2793
sg76
(lp2809
g69
(g70
g71
NtRp2810
(dp2811
g74
(dp2812
g82
I5
ssg83
g2806
sg76
(lp2813
g69
(g78
g71
NtRp2814
(dp2815
g74
(dp2816
g82
I4
ssg83
Nsg76
(lp2817
sbasbasbasbag69
(g85
g71
NtRp2818
(dp2819
g74
(dp2820
sg83
g79
sg76
(lp2821
g69
(g90
g71
NtRp2822
(dp2823
g74
(dp2824
g94
g95
ssg83
g2818
sg76
(lp2825
S'wsgi'
p2826
asbag69
(g90
g71
NtRp2827
(dp2828
g74
(dp2829
g101
g102
ssg83
g2818
sg76
(lp2830
S':'
asbag69
(g90
g71
NtRp2831
(dp2832
g74
(dp2833
sg83
g2818
sg76
(lp2834
g69
(g70
g71
NtRp2835
(dp2836
g74
(dp2837
g82
I5
ssg83
g2831
sg76
(lp2838
g69
(g78
g71
NtRp2839
(dp2840
g74
(dp2841
g82
I4
ssg83
Nsg76
(lp2842
g69
(g85
g71
NtRp2843
(dp2844
g74
(dp2845
sg83
g2839
sg76
(lp2846
g69
(g90
g71
NtRp2847
(dp2848
g74
(dp2849
g94
g95
ssg83
g2843
sg76
(lp2850
S'environ'
p2851
asbag69
(g90
g71
NtRp2852
(dp2853
g74
(dp2854
g101
g102
ssg83
g2843
sg76
(lp2855
S':'
asbag69
(g90
g71
NtRp2856
(dp2857
g74
(dp2858
sg83
g2843
sg76
(lp2859
g69
(g70
g71
NtRp2860
(dp2861
g74
(dp2862
g82
I4
ssg83
g2856
sg76
(lp2863
g69
(g78
g71
NtRp2864
(dp2865
g74
(dp2866
g82
I3
ssg83
Nsg76
(lp2867
g69
(g85
g71
NtRp2868
(dp2869
g74
(dp2870
sg83
g2864
sg76
(lp2871
g69
(g90
g71
NtRp2872
(dp2873
g74
(dp2874
g94
g95
ssg83
g2868
sg76
(lp2875
S'HTTP_ACCEPT'
p2876
asbag69
(g90
g71
NtRp2877
(dp2878
g74
(dp2879
g101
g102
ssg83
g2868
sg76
(lp2880
S':'
asbag69
(g90
g71
NtRp2881
(dp2882
g74
(dp2883
sg83
g2868
sg76
(lp2884
g69
(g70
g71
NtRp2885
(dp2886
g74
(dp2887
g82
I3
ssg83
g2881
sg76
(lp2888
g1239
asbasbasbag69
(g85
g71
NtRp2889
(dp2890
g74
(dp2891
sg83
g2864
sg76
(lp2892
g69
(g90
g71
NtRp2893
(dp2894
g74
(dp2895
g94
g95
ssg83
g2889
sg76
(lp2896
S'HTTP_ACCEPT_ENCODING'
p2897
asbag69
(g90
g71
NtRp2898
(dp2899
g74
(dp2900
g101
g102
ssg83
g2889
sg76
(lp2901
S':'
asbag69
(g90
g71
NtRp2902
(dp2903
g74
(dp2904
sg83
g2889
sg76
(lp2905
g69
(g70
g71
NtRp2906
(dp2907
g74
(dp2908
g82
I3
ssg83
g2902
sg76
(lp2909
g1261
asbasbasbag69
(g85
g71
NtRp2910
(dp2911
g74
(dp2912
sg83
g2864
sg76
(lp2913
g69
(g90
g71
NtRp2914
(dp2915
g74
(dp2916
g94
g95
ssg83
g2910
sg76
(lp2917
S'HTTP_ACCEPT_LANGUAGE'
p2918
asbag69
(g90
g71
NtRp2919
(dp2920
g74
(dp2921
g101
g102
ssg83
g2910
sg76
(lp2922
S':'
asbag69
(g90
g71
NtRp2923
(dp2924
g74
(dp2925
sg83
g2910
sg76
(lp2926
g69
(g70
g71
NtRp2927
(dp2928
g74
(dp2929
g82
I3
ssg83
g2923
sg76
(lp2930
g1283
asbasbasbag69
(g85
g71
NtRp2931
(dp2932
g74
(dp2933
sg83
g2864
sg76
(lp2934
g69
(g90
g71
NtRp2935
(dp2936
g74
(dp2937
g94
g95
ssg83
g2931
sg76
(lp2938
S'HTTP_CONNECTION'
p2939
asbag69
(g90
g71
NtRp2940
(dp2941
g74
(dp2942
g101
g102
ssg83
g2931
sg76
(lp2943
S':'
asbag69
(g90
g71
NtRp2944
(dp2945
g74
(dp2946
sg83
g2931
sg76
(lp2947
g69
(g70
g71
NtRp2948
(dp2949
g74
(dp2950
g82
I3
ssg83
g2944
sg76
(lp2951
g1305
asbasbasbag69
(g85
g71
NtRp2952
(dp2953
g74
(dp2954
sg83
g2864
sg76
(lp2955
g69
(g90
g71
NtRp2956
(dp2957
g74
(dp2958
g94
g95
ssg83
g2952
sg76
(lp2959
S'HTTP_COOKIE'
p2960
asbag69
(g90
g71
NtRp2961
(dp2962
g74
(dp2963
g101
g102
ssg83
g2952
sg76
(lp2964
S':'
asbag69
(g90
g71
NtRp2965
(dp2966
g74
(dp2967
sg83
g2952
sg76
(lp2968
g69
(g70
g71
NtRp2969
(dp2970
g74
(dp2971
g82
I3
ssg83
g2965
sg76
(lp2972
g1327
asbasbasbag69
(g85
g71
NtRp2973
(dp2974
g74
(dp2975
sg83
g2864
sg76
(lp2976
g69
(g90
g71
NtRp2977
(dp2978
g74
(dp2979
g94
g95
ssg83
g2973
sg76
(lp2980
S'HTTP_HOST'
p2981
asbag69
(g90
g71
NtRp2982
(dp2983
g74
(dp2984
g101
g102
ssg83
g2973
sg76
(lp2985
S':'
asbag69
(g90
g71
NtRp2986
(dp2987
g74
(dp2988
sg83
g2973
sg76
(lp2989
g69
(g70
g71
NtRp2990
(dp2991
g74
(dp2992
g82
I3
ssg83
g2986
sg76
(lp2993
g1349
asbasbasbag69
(g85
g71
NtRp2994
(dp2995
g74
(dp2996
sg83
g2864
sg76
(lp2997
g69
(g90
g71
NtRp2998
(dp2999
g74
(dp3000
g94
g95
ssg83
g2994
sg76
(lp3001
S'HTTP_USER_AGENT'
p3002
asbag69
(g90
g71
NtRp3003
(dp3004
g74
(dp3005
g101
g102
ssg83
g2994
sg76
(lp3006
S':'
asbag69
(g90
g71
NtRp3007
(dp3008
g74
(dp3009
sg83
g2994
sg76
(lp3010
g69
(g70
g71
NtRp3011
(dp3012
g74
(dp3013
g82
I3
ssg83
g3007
sg76
(lp3014
g1371
asbasbasbag69
(g85
g71
NtRp3015
(dp3016
g74
(dp3017
sg83
g2864
sg76
(lp3018
g69
(g90
g71
NtRp3019
(dp3020
g74
(dp3021
g94
g95
ssg83
g3015
sg76
(lp3022
S'PATH_INFO'
p3023
asbag69
(g90
g71
NtRp3024
(dp3025
g74
(dp3026
g101
g102
ssg83
g3015
sg76
(lp3027
S':'
asbag69
(g90
g71
NtRp3028
(dp3029
g74
(dp3030
sg83
g3015
sg76
(lp3031
g69
(g70
g71
NtRp3032
(dp3033
g74
(dp3034
g82
I3
ssg83
g3028
sg76
(lp3035
g1551
asbasbasbag69
(g85
g71
NtRp3036
(dp3037
g74
(dp3038
sg83
g2864
sg76
(lp3039
g69
(g90
g71
NtRp3040
(dp3041
g74
(dp3042
g94
g95
ssg83
g3036
sg76
(lp3043
S'QUERY_STRING'
p3044
asbag69
(g90
g71
NtRp3045
(dp3046
g74
(dp3047
g101
g102
ssg83
g3036
sg76
(lp3048
S':'
asbag69
(g90
g71
NtRp3049
(dp3050
g74
(dp3051
sg83
g3036
sg76
(lp3052
g69
(g70
g71
NtRp3053
(dp3054
g74
(dp3055
g82
I3
ssg83
g3049
sg76
(lp3056
g1573
asbasbasbag69
(g85
g71
NtRp3057
(dp3058
g74
(dp3059
sg83
g2864
sg76
(lp3060
g69
(g90
g71
NtRp3061
(dp3062
g74
(dp3063
g94
g95
ssg83
g3057
sg76
(lp3064
S'REMOTE_ADDR'
p3065
asbag69
(g90
g71
NtRp3066
(dp3067
g74
(dp3068
g101
g102
ssg83
g3057
sg76
(lp3069
S':'
asbag69
(g90
g71
NtRp3070
(dp3071
g74
(dp3072
sg83
g3057
sg76
(lp3073
g69
(g70
g71
NtRp3074
(dp3075
g74
(dp3076
g82
I3
ssg83
g3070
sg76
(lp3077
g237
asbasbasbag69
(g85
g71
NtRp3078
(dp3079
g74
(dp3080
sg83
g2864
sg76
(lp3081
g69
(g90
g71
NtRp3082
(dp3083
g74
(dp3084
g94
g95
ssg83
g3078
sg76
(lp3085
S'REMOTE_PORT'
p3086
asbag69
(g90
g71
NtRp3087
(dp3088
g74
(dp3089
g101
g102
ssg83
g3078
sg76
(lp3090
S':'
asbag69
(g90
g71
NtRp3091
(dp3092
g74
(dp3093
sg83
g3078
sg76
(lp3094
g69
(g70
g71
NtRp3095
(dp3096
g74
(dp3097
g82
I3
ssg83
g3091
sg76
(lp3098
g1616
asbasbasbag69
(g85
g71
NtRp3099
(dp3100
g74
(dp3101
sg83
g2864
sg76
(lp3102
g69
(g90
g71
NtRp3103
(dp3104
g74
(dp3105
g94
g95
ssg83
g3099
sg76
(lp3106
S'REQUEST_METHOD'
p3107
asbag69
(g90
g71
NtRp3108
(dp3109
g74
(dp3110
g101
g102
ssg83
g3099
sg76
(lp3111
S':'
asbag69
(g90
g71
NtRp3112
(dp3113
g74
(dp3114
sg83
g3099
sg76
(lp3115
g69
(g70
g71
NtRp3116
(dp3117
g74
(dp3118
g82
I3
ssg83
g3112
sg76
(lp3119
g1638
asbasbasbag69
(g85
g71
NtRp3120
(dp3121
g74
(dp3122
sg83
g2864
sg76
(lp3123
g69
(g90
g71
NtRp3124
(dp3125
g74
(dp3126
g94
g95
ssg83
g3120
sg76
(lp3127
S'REQUEST_URI'
p3128
asbag69
(g90
g71
NtRp3129
(dp3130
g74
(dp3131
g101
g102
ssg83
g3120
sg76
(lp3132
S':'
asbag69
(g90
g71
NtRp3133
(dp3134
g74
(dp3135
sg83
g3120
sg76
(lp3136
g69
(g70
g71
NtRp3137
(dp3138
g74
(dp3139
g82
I3
ssg83
g3133
sg76
(lp3140
g1660
asbasbasbag69
(g85
g71
NtRp3141
(dp3142
g74
(dp3143
sg83
g2864
sg76
(lp3144
g69
(g90
g71
NtRp3145
(dp3146
g74
(dp3147
g94
g95
ssg83
g3141
sg76
(lp3148
S'SCRIPT_NAME'
p3149
asbag69
(g90
g71
NtRp3150
(dp3151
g74
(dp3152
g101
g102
ssg83
g3141
sg76
(lp3153
S':'
asbag69
(g90
g71
NtRp3154
(dp3155
g74
(dp3156
sg83
g3141
sg76
(lp3157
g69
(g70
g71
NtRp3158
(dp3159
g74
(dp3160
g82
I3
ssg83
g3154
sg76
(lp3161
S''
asbasbasbag69
(g85
g71
NtRp3162
(dp3163
g74
(dp3164
sg83
g2864
sg76
(lp3165
g69
(g90
g71
NtRp3166
(dp3167
g74
(dp3168
g94
g95
ssg83
g3162
sg76
(lp3169
S'SERVER_NAME'
p3170
asbag69
(g90
g71
NtRp3171
(dp3172
g74
(dp3173
g101
g102
ssg83
g3162
sg76
(lp3174
S':'
asbag69
(g90
g71
NtRp3175
(dp3176
g74
(dp3177
sg83
g3162
sg76
(lp3178
g69
(g70
g71
NtRp3179
(dp3180
g74
(dp3181
g82
I3
ssg83
g3175
sg76
(lp3182
g1703
asbasbasbag69
(g85
g71
NtRp3183
(dp3184
g74
(dp3185
sg83
g2864
sg76
(lp3186
g69
(g90
g71
NtRp3187
(dp3188
g74
(dp3189
g94
g95
ssg83
g3183
sg76
(lp3190
S'SERVER_PORT'
p3191
asbag69
(g90
g71
NtRp3192
(dp3193
g74
(dp3194
g101
g102
ssg83
g3183
sg76
(lp3195
S':'
asbag69
(g90
g71
NtRp3196
(dp3197
g74
(dp3198
sg83
g3183
sg76
(lp3199
g69
(g70
g71
NtRp3200
(dp3201
g74
(dp3202
g82
I3
ssg83
g3196
sg76
(lp3203
g1725
asbasbasbag69
(g85
g71
NtRp3204
(dp3205
g74
(dp3206
sg83
g2864
sg76
(lp3207
g69
(g90
g71
NtRp3208
(dp3209
g74
(dp3210
g94
g95
ssg83
g3204
sg76
(lp3211
S'SERVER_PROTOCOL'
p3212
asbag69
(g90
g71
NtRp3213
(dp3214
g74
(dp3215
g101
g102
ssg83
g3204
sg76
(lp3216
S':'
asbag69
(g90
g71
NtRp3217
(dp3218
g74
(dp3219
sg83
g3204
sg76
(lp3220
g69
(g70
g71
NtRp3221
(dp3222
g74
(dp3223
g82
I3
ssg83
g3217
sg76
(lp3224
g1747
asbasbasbag69
(g85
g71
NtRp3225
(dp3226
g74
(dp3227
sg83
g2864
sg76
(lp3228
g69
(g90
g71
NtRp3229
(dp3230
g74
(dp3231
g94
g95
ssg83
g3225
sg76
(lp3232
S'SERVER_SOFTWARE'
p3233
asbag69
(g90
g71
NtRp3234
(dp3235
g74
(dp3236
g101
g102
ssg83
g3225
sg76
(lp3237
S':'
asbag69
(g90
g71
NtRp3238
(dp3239
g74
(dp3240
sg83
g3225
sg76
(lp3241
g69
(g70
g71
NtRp3242
(dp3243
g74
(dp3244
g82
I3
ssg83
g3238
sg76
(lp3245
g1769
asbasbasbag69
(g85
g71
NtRp3246
(dp3247
g74
(dp3248
sg83
g2864
sg76
(lp3249
g69
(g90
g71
NtRp3250
(dp3251
g74
(dp3252
g94
g95
ssg83
g3246
sg76
(lp3253
S'wsgi.errors'
p3254
asbag69
(g90
g71
NtRp3255
(dp3256
g74
(dp3257
g101
g102
ssg83
g3246
sg76
(lp3258
S':'
asbag69
(g90
g71
NtRp3259
(dp3260
g74
(dp3261
sg83
g3246
sg76
(lp3262
g69
(g70
g71
NtRp3263
(dp3264
g74
(dp3265
g82
I3
ssg83
g3259
sg76
(lp3266
S"<open file '<stderr>', mode 'w' at 0x7f411ee5d270>"
p3267
asbasbasbag69
(g85
g71
NtRp3268
(dp3269
g74
(dp3270
sg83
g2864
sg76
(lp3271
g69
(g90
g71
NtRp3272
(dp3273
g74
(dp3274
g94
g95
ssg83
g3268
sg76
(lp3275
S'wsgi.file_wrapper'
p3276
asbag69
(g90
g71
NtRp3277
(dp3278
g74
(dp3279
g101
g102
ssg83
g3268
sg76
(lp3280
S':'
asbag69
(g90
g71
NtRp3281
(dp3282
g74
(dp3283
sg83
g3268
sg76
(lp3284
g69
(g70
g71
NtRp3285
(dp3286
g74
(dp3287
g82
I3
ssg83
g3281
sg76
(lp3288
S'<class wsgiref.util.FileWrapper at 0x1992e20>'
p3289
asbasbasbag69
(g85
g71
NtRp3290
(dp3291
g74
(dp3292
sg83
g2864
sg76
(lp3293
g69
(g90
g71
NtRp3294
(dp3295
g74
(dp3296
g94
g95
ssg83
g3290
sg76
(lp3297
S'wsgi.input'
p3298
asbag69
(g90
g71
NtRp3299
(dp3300
g74
(dp3301
g101
g102
ssg83
g3290
sg76
(lp3302
S':'
asbag69
(g90
g71
NtRp3303
(dp3304
g74
(dp3305
sg83
g3290
sg76
(lp3306
g69
(g70
g71
NtRp3307
(dp3308
g74
(dp3309
g82
I3
ssg83
g3303
sg76
(lp3310
S'<cStringIO.StringO object at 0x1d61378>'
p3311
asbasbasbag69
(g85
g71
NtRp3312
(dp3313
g74
(dp3314
sg83
g2864
sg76
(lp3315
g69
(g90
g71
NtRp3316
(dp3317
g74
(dp3318
g94
g95
ssg83
g3312
sg76
(lp3319
S'wsgi.multiprocess'
p3320
asbag69
(g90
g71
NtRp3321
(dp3322
g74
(dp3323
g101
g102
ssg83
g3312
sg76
(lp3324
S':'
asbag69
(g90
g71
NtRp3325
(dp3326
g74
(dp3327
sg83
g3312
sg76
(lp3328
g69
(g70
g71
NtRp3329
(dp3330
g74
(dp3331
g82
I3
ssg83
g3325
sg76
(lp3332
g112
asbasbasbag69
(g85
g71
NtRp3333
(dp3334
g74
(dp3335
sg83
g2864
sg76
(lp3336
g69
(g90
g71
NtRp3337
(dp3338
g74
(dp3339
g94
g95
ssg83
g3333
sg76
(lp3340
S'wsgi.multithread'
p3341
asbag69
(g90
g71
NtRp3342
(dp3343
g74
(dp3344
g101
g102
ssg83
g3333
sg76
(lp3345
S':'
asbag69
(g90
g71
NtRp3346
(dp3347
g74
(dp3348
sg83
g3333
sg76
(lp3349
g69
(g70
g71
NtRp3350
(dp3351
g74
(dp3352
g82
I3
ssg83
g3346
sg76
(lp3353
g1986
asbasbasbag69
(g85
g71
NtRp3354
(dp3355
g74
(dp3356
sg83
g2864
sg76
(lp3357
g69
(g90
g71
NtRp3358
(dp3359
g74
(dp3360
g94
g95
ssg83
g3354
sg76
(lp3361
S'wsgi.run_once'
p3362
asbag69
(g90
g71
NtRp3363
(dp3364
g74
(dp3365
g101
g102
ssg83
g3354
sg76
(lp3366
S':'
asbag69
(g90
g71
NtRp3367
(dp3368
g74
(dp3369
sg83
g3354
sg76
(lp3370
g69
(g70
g71
NtRp3371
(dp3372
g74
(dp3373
g82
I3
ssg83
g3367
sg76
(lp3374
g112
asbasbasbag69
(g85
g71
NtRp3375
(dp3376
g74
(dp3377
sg83
g2864
sg76
(lp3378
g69
(g90
g71
NtRp3379
(dp3380
g74
(dp3381
g94
g95
ssg83
g3375
sg76
(lp3382
S'wsgi.url_scheme'
p3383
asbag69
(g90
g71
NtRp3384
(dp3385
g74
(dp3386
g101
g102
ssg83
g3375
sg76
(lp3387
S':'
asbag69
(g90
g71
NtRp3388
(dp3389
g74
(dp3390
sg83
g3375
sg76
(lp3391
g69
(g70
g71
NtRp3392
(dp3393
g74
(dp3394
g82
I3
ssg83
g3388
sg76
(lp3395
g2029
asbasbasbag69
(g85
g71
NtRp3396
(dp3397
g74
(dp3398
sg83
g2864
sg76
(lp3399
g69
(g90
g71
NtRp3400
(dp3401
g74
(dp3402
g94
g95
ssg83
g3396
sg76
(lp3403
S'wsgi.version'
p3404
asbag69
(g90
g71
NtRp3405
(dp3406
g74
(dp3407
g101
g102
ssg83
g3396
sg76
(lp3408
S':'
asbag69
(g90
g71
NtRp3409
(dp3410
g74
(dp3411
sg83
g3396
sg76
(lp3412
g69
(g70
g71
NtRp3413
(dp3414
g74
(dp3415
g82
I3
ssg83
g3409
sg76
(lp3416
S'1'
asbasbasbasbasbasbasbasbasbasbasbasbasbsS'frames'
p3417
(lp3418
(dp3419
S'file'
p3420
S'/home/shipra/Desktop/Semester 1.2/ITWS-2/web2py/gluon/restricted.py'
p3421
sS'dump'
p3422
(dp3423
S'code'
p3424
S"'# -*- coding: utf-8 -*-\\n# this file is released ...m=crud())\\n\\nresponse._vars=response._caller(user)\\n'"
p3425
sS'layer'
p3426
S"'/home/shipra/Desktop/Semester 1.2/ITWS-2/web2py/applications/Assignment_2/controllers/default.py'"
p3427
sS'global compile2'
p3428
S'<function compile2>'
p3429
sS'ccode'
p3430
S'undefined'
p3431
ssS'lnum'
p3432
I211
sS'lines'
p3433
(dp3434
I206
S"    environment['__name__'] = '__restricted__'"
p3435
sI207
S'    try:'
p3436
sI208
S'        if isinstance(code, types.CodeType):'
p3437
sI209
S'            ccode = code'
p3438
sI210
S'        else:'
p3439
sI211
S'            ccode = compile2(code, layer)'
p3440
sI212
S'        exec ccode in environment'
p3441
sI213
S'    except HTTP:'
p3442
sI214
S'        raise'
p3443
sI215
S'    except RestrictedError:'
p3444
ssS'call'
p3445
S"(code='# -*- coding: utf-8 -*-\\n# this file is released ...m=crud())\\n\\nresponse._vars=response._caller(user)\\n', environment={'A': <class 'gluon.html.A'>, 'Auth': <class 'gluon.tools.Auth'>, 'B': <class 'gluon.html.B'>, 'BEAUTIFY': <class 'gluon.html.BEAUTIFY'>, 'BODY': <class 'gluon.html.BODY'>, 'BR': <class 'gluon.html.BR'>, 'BUTTON': <class 'gluon.html.BUTTON'>, 'CAT': <class 'gluon.html.CAT'>, 'CENTER': <class 'gluon.html.CENTER'>, 'CLEANUP': <class 'gluon.validators.CLEANUP'>, ...}, layer='/home/shipra/Desktop/Semester 1.2/ITWS-2/web2py/applications/Assignment_2/controllers/default.py')"
p3446
sS'func'
p3447
S'restricted'
p3448
sa(dp3449
g3420
S'/home/shipra/Desktop/Semester 1.2/ITWS-2/web2py/gluon/restricted.py'
p3450
sg3422
(dp3451
S'builtincompile'
p3452
S'<built-in function compile>'
p3453
sS'code'
p3454
S"'# -*- coding: utf-8 -*-\\n# this file is released ...m=crud())\\n\\nresponse._vars=response._caller(user)\\n'"
p3455
sS'code.rstrip'
p3456
S'<built-in method rstrip of str object>'
p3457
sS').replace'
p3458
g3431
sS'layer'
p3459
S"'/home/shipra/Desktop/Semester 1.2/ITWS-2/web2py/applications/Assignment_2/controllers/default.py'"
p3460
ssg3432
I194
sg3433
(dp3461
I192
S"    The +'\\n' is necessary else compile fails when code ends in a comment."
p3462
sI193
S'    """'
p3463
sI194
S"    return compile(code.rstrip().replace('\\r\\n', '\\n') + '\\n', layer, 'exec')"
p3464
sI195
S''
sI196
S''
sI197
S"def restricted(code, environment=None, layer='Unknown'):"
p3465
sI198
S'    """'
p3466
sI189
S''
sI190
S'def compile2(code, layer):'
p3467
sI191
S'    """'
p3468
ssg3445
S"(code='# -*- coding: utf-8 -*-\\n# this file is released ...m=crud())\\n\\nresponse._vars=response._caller(user)\\n', layer='/home/shipra/Desktop/Semester 1.2/ITWS-2/web2py/applications/Assignment_2/controllers/default.py')"
p3469
sg3447
S'compile2'
p3470
sasS'pyver'
p3471
S'Python 2.7.3: /usr/bin/python'
p3472
sS'session'
p3473
g69
(g70
g71
NtRp3474
(dp3475
g74
(dp3476
sg76
(lp3477
g69
(g78
g71
NtRp3478
(dp3479
g74
(dp3480
g82
I5
ssg83
Nsg76
(lp3481
g69
(g85
g71
NtRp3482
(dp3483
g74
(dp3484
sg83
g3478
sg76
(lp3485
g69
(g90
g71
NtRp3486
(dp3487
g74
(dp3488
g94
g95
ssg83
g3482
sg76
(lp3489
S'auth'
p3490
asbag69
(g90
g71
NtRp3491
(dp3492
g74
(dp3493
g101
g102
ssg83
g3482
sg76
(lp3494
S':'
asbag69
(g90
g71
NtRp3495
(dp3496
g74
(dp3497
sg83
g3482
sg76
(lp3498
g69
(g70
g71
NtRp3499
(dp3500
g74
(dp3501
g82
I5
ssg83
g3495
sg76
(lp3502
g69
(g78
g71
NtRp3503
(dp3504
g74
(dp3505
g82
I4
ssg83
Nsg76
(lp3506
g69
(g85
g71
NtRp3507
(dp3508
g74
(dp3509
sg83
g3503
sg76
(lp3510
g69
(g90
g71
NtRp3511
(dp3512
g74
(dp3513
g94
g95
ssg83
g3507
sg76
(lp3514
S'expiration'
p3515
asbag69
(g90
g71
NtRp3516
(dp3517
g74
(dp3518
g101
g102
ssg83
g3507
sg76
(lp3519
S':'
asbag69
(g90
g71
NtRp3520
(dp3521
g74
(dp3522
sg83
g3507
sg76
(lp3523
g69
(g70
g71
NtRp3524
(dp3525
g74
(dp3526
g82
I4
ssg83
g3520
sg76
(lp3527
S'3600'
p3528
asbasbasbag69
(g85
g71
NtRp3529
(dp3530
g74
(dp3531
sg83
g3503
sg76
(lp3532
g69
(g90
g71
NtRp3533
(dp3534
g74
(dp3535
g94
g95
ssg83
g3529
sg76
(lp3536
S'hmac_key'
p3537
asbag69
(g90
g71
NtRp3538
(dp3539
g74
(dp3540
g101
g102
ssg83
g3529
sg76
(lp3541
S':'
asbag69
(g90
g71
NtRp3542
(dp3543
g74
(dp3544
sg83
g3529
sg76
(lp3545
g69
(g70
g71
NtRp3546
(dp3547
g74
(dp3548
g82
I4
ssg83
g3542
sg76
(lp3549
S'e77d68ba-efb5-4b94-b380-f39b4c23e96a'
p3550
asbasbasbag69
(g85
g71
NtRp3551
(dp3552
g74
(dp3553
sg83
g3503
sg76
(lp3554
g69
(g90
g71
NtRp3555
(dp3556
g74
(dp3557
g94
g95
ssg83
g3551
sg76
(lp3558
S'last_visit'
p3559
asbag69
(g90
g71
NtRp3560
(dp3561
g74
(dp3562
g101
g102
ssg83
g3551
sg76
(lp3563
S':'
asbag69
(g90
g71
NtRp3564
(dp3565
g74
(dp3566
sg83
g3551
sg76
(lp3567
g69
(g70
g71
NtRp3568
(dp3569
g74
(dp3570
g82
I4
ssg83
g3564
sg76
(lp3571
S'datetime.datetime(2013, 8, 26, 0, 32, 47, 755230)'
p3572
asbasbasbag69
(g85
g71
NtRp3573
(dp3574
g74
(dp3575
sg83
g3503
sg76
(lp3576
g69
(g90
g71
NtRp3577
(dp3578
g74
(dp3579
g94
g95
ssg83
g3573
sg76
(lp3580
S'remember'
p3581
asbag69
(g90
g71
NtRp3582
(dp3583
g74
(dp3584
g101
g102
ssg83
g3573
sg76
(lp3585
S':'
asbag69
(g90
g71
NtRp3586
(dp3587
g74
(dp3588
sg83
g3573
sg76
(lp3589
g69
(g70
g71
NtRp3590
(dp3591
g74
(dp3592
g82
I4
ssg83
g3586
sg76
(lp3593
g112
asbasbasbag69
(g85
g71
NtRp3594
(dp3595
g74
(dp3596
sg83
g3503
sg76
(lp3597
g69
(g90
g71
NtRp3598
(dp3599
g74
(dp3600
g94
g95
ssg83
g3594
sg76
(lp3601
S'user'
p3602
asbag69
(g90
g71
NtRp3603
(dp3604
g74
(dp3605
g101
g102
ssg83
g3594
sg76
(lp3606
S':'
asbag69
(g90
g71
NtRp3607
(dp3608
g74
(dp3609
sg83
g3594
sg76
(lp3610
g69
(g70
g71
NtRp3611
(dp3612
g74
(dp3613
g82
I4
ssg83
g3607
sg76
(lp3614
g69
(g78
g71
NtRp3615
(dp3616
g74
(dp3617
g82
I3
ssg83
Nsg76
(lp3618
g69
(g85
g71
NtRp3619
(dp3620
g74
(dp3621
sg83
g3615
sg76
(lp3622
g69
(g90
g71
NtRp3623
(dp3624
g74
(dp3625
g94
g95
ssg83
g3619
sg76
(lp3626
S'email'
p3627
asbag69
(g90
g71
NtRp3628
(dp3629
g74
(dp3630
g101
g102
ssg83
g3619
sg76
(lp3631
S':'
asbag69
(g90
g71
NtRp3632
(dp3633
g74
(dp3634
sg83
g3619
sg76
(lp3635
g69
(g70
g71
NtRp3636
(dp3637
g74
(dp3638
g82
I3
ssg83
g3632
sg76
(lp3639
S'bangashipra@gmail.com'
p3640
asbasbasbag69
(g85
g71
NtRp3641
(dp3642
g74
(dp3643
sg83
g3615
sg76
(lp3644
g69
(g90
g71
NtRp3645
(dp3646
g74
(dp3647
g94
g95
ssg83
g3641
sg76
(lp3648
S'first_name'
p3649
asbag69
(g90
g71
NtRp3650
(dp3651
g74
(dp3652
g101
g102
ssg83
g3641
sg76
(lp3653
S':'
asbag69
(g90
g71
NtRp3654
(dp3655
g74
(dp3656
sg83
g3641
sg76
(lp3657
g69
(g70
g71
NtRp3658
(dp3659
g74
(dp3660
g82
I3
ssg83
g3654
sg76
(lp3661
S'Shipra'
p3662
asbasbasbag69
(g85
g71
NtRp3663
(dp3664
g74
(dp3665
sg83
g3615
sg76
(lp3666
g69
(g90
g71
NtRp3667
(dp3668
g74
(dp3669
g94
g95
ssg83
g3663
sg76
(lp3670
S'id'
p3671
asbag69
(g90
g71
NtRp3672
(dp3673
g74
(dp3674
g101
g102
ssg83
g3663
sg76
(lp3675
S':'
asbag69
(g90
g71
NtRp3676
(dp3677
g74
(dp3678
sg83
g3663
sg76
(lp3679
g69
(g70
g71
NtRp3680
(dp3681
g74
(dp3682
g82
I3
ssg83
g3676
sg76
(lp3683
S'3'
asbasbasbag69
(g85
g71
NtRp3684
(dp3685
g74
(dp3686
sg83
g3615
sg76
(lp3687
g69
(g90
g71
NtRp3688
(dp3689
g74
(dp3690
g94
g95
ssg83
g3684
sg76
(lp3691
S'last_name'
p3692
asbag69
(g90
g71
NtRp3693
(dp3694
g74
(dp3695
g101
g102
ssg83
g3684
sg76
(lp3696
S':'
asbag69
(g90
g71
NtRp3697
(dp3698
g74
(dp3699
sg83
g3684
sg76
(lp3700
g69
(g70
g71
NtRp3701
(dp3702
g74
(dp3703
g82
I3
ssg83
g3697
sg76
(lp3704
S'Banga'
p3705
asbasbasbag69
(g85
g71
NtRp3706
(dp3707
g74
(dp3708
sg83
g3615
sg76
(lp3709
g69
(g90
g71
NtRp3710
(dp3711
g74
(dp3712
g94
g95
ssg83
g3706
sg76
(lp3713
S'registration_id'
p3714
asbag69
(g90
g71
NtRp3715
(dp3716
g74
(dp3717
g101
g102
ssg83
g3706
sg76
(lp3718
S':'
asbag69
(g90
g71
NtRp3719
(dp3720
g74
(dp3721
sg83
g3706
sg76
(lp3722
g69
(g70
g71
NtRp3723
(dp3724
g74
(dp3725
g82
I3
ssg83
g3719
sg76
(lp3726
S''
asbasbasbag69
(g85
g71
NtRp3727
(dp3728
g74
(dp3729
sg83
g3615
sg76
(lp3730
g69
(g90
g71
NtRp3731
(dp3732
g74
(dp3733
g94
g95
ssg83
g3727
sg76
(lp3734
S'registration_key'
p3735
asbag69
(g90
g71
NtRp3736
(dp3737
g74
(dp3738
g101
g102
ssg83
g3727
sg76
(lp3739
S':'
asbag69
(g90
g71
NtRp3740
(dp3741
g74
(dp3742
sg83
g3727
sg76
(lp3743
g69
(g70
g71
NtRp3744
(dp3745
g74
(dp3746
g82
I3
ssg83
g3740
sg76
(lp3747
S''
asbasbasbag69
(g85
g71
NtRp3748
(dp3749
g74
(dp3750
sg83
g3615
sg76
(lp3751
g69
(g90
g71
NtRp3752
(dp3753
g74
(dp3754
g94
g95
ssg83
g3748
sg76
(lp3755
S'reset_password_key'
p3756
asbag69
(g90
g71
NtRp3757
(dp3758
g74
(dp3759
g101
g102
ssg83
g3748
sg76
(lp3760
S':'
asbag69
(g90
g71
NtRp3761
(dp3762
g74
(dp3763
sg83
g3748
sg76
(lp3764
g69
(g70
g71
NtRp3765
(dp3766
g74
(dp3767
g82
I3
ssg83
g3761
sg76
(lp3768
S''
asbasbasbag69
(g85
g71
NtRp3769
(dp3770
g74
(dp3771
sg83
g3615
sg76
(lp3772
g69
(g90
g71
NtRp3773
(dp3774
g74
(dp3775
g94
g95
ssg83
g3769
sg76
(lp3776
S'username'
p3777
asbag69
(g90
g71
NtRp3778
(dp3779
g74
(dp3780
g101
g102
ssg83
g3769
sg76
(lp3781
S':'
asbag69
(g90
g71
NtRp3782
(dp3783
g74
(dp3784
sg83
g3769
sg76
(lp3785
g69
(g70
g71
NtRp3786
(dp3787
g74
(dp3788
g82
I3
ssg83
g3782
sg76
(lp3789
S'admin'
p3790
asbasbasbasbasbasbasbag69
(g85
g71
NtRp3791
(dp3792
g74
(dp3793
sg83
g3503
sg76
(lp3794
g69
(g90
g71
NtRp3795
(dp3796
g74
(dp3797
g94
g95
ssg83
g3791
sg76
(lp3798
S'user_groups'
p3799
asbag69
(g90
g71
NtRp3800
(dp3801
g74
(dp3802
g101
g102
ssg83
g3791
sg76
(lp3803
S':'
asbag69
(g90
g71
NtRp3804
(dp3805
g74
(dp3806
sg83
g3791
sg76
(lp3807
g69
(g70
g71
NtRp3808
(dp3809
g74
(dp3810
g82
I4
ssg83
g3804
sg76
(lp3811
g69
(g78
g71
NtRp3812
(dp3813
g74
(dp3814
g82
I3
ssg83
Nsg76
(lp3815
g69
(g85
g71
NtRp3816
(dp3817
g74
(dp3818
sg83
g3812
sg76
(lp3819
g69
(g90
g71
NtRp3820
(dp3821
g74
(dp3822
g94
g95
ssg83
g3816
sg76
(lp3823
S'2'
asbag69
(g90
g71
NtRp3824
(dp3825
g74
(dp3826
g101
g102
ssg83
g3816
sg76
(lp3827
S':'
asbag69
(g90
g71
NtRp3828
(dp3829
g74
(dp3830
sg83
g3816
sg76
(lp3831
g69
(g70
g71
NtRp3832
(dp3833
g74
(dp3834
g82
I3
ssg83
g3828
sg76
(lp3835
S'user_3'
p3836
asbasbasbasbasbasbasbasbasbasbasbag69
(g85
g71
NtRp3837
(dp3838
g74
(dp3839
sg83
g3478
sg76
(lp3840
g69
(g90
g71
NtRp3841
(dp3842
g74
(dp3843
g94
g95
ssg83
g3837
sg76
(lp3844
S'flash'
p3845
asbag69
(g90
g71
NtRp3846
(dp3847
g74
(dp3848
g101
g102
ssg83
g3837
sg76
(lp3849
S':'
asbag69
(g90
g71
NtRp3850
(dp3851
g74
(dp3852
sg83
g3837
sg76
(lp3853
g69
(g70
g71
NtRp3854
(dp3855
g74
(dp3856
g82
I5
ssg83
g3850
sg76
(lp3857
S'None'
p3858
asbasbasbag69
(g85
g71
NtRp3859
(dp3860
g74
(dp3861
sg83
g3478
sg76
(lp3862
g69
(g90
g71
NtRp3863
(dp3864
g74
(dp3865
g94
g95
ssg83
g3859
sg76
(lp3866
S'last_orderby'
p3867
asbag69
(g90
g71
NtRp3868
(dp3869
g74
(dp3870
g101
g102
ssg83
g3859
sg76
(lp3871
S':'
asbag69
(g90
g71
NtRp3872
(dp3873
g74
(dp3874
sg83
g3859
sg76
(lp3875
g69
(g70
g71
NtRp3876
(dp3877
g74
(dp3878
g82
I5
ssg83
g3872
sg76
(lp3879
S'None'
p3880
asbasbasbag69
(g85
g71
NtRp3881
(dp3882
g74
(dp3883
sg83
g3478
sg76
(lp3884
g69
(g90
g71
NtRp3885
(dp3886
g74
(dp3887
g94
g95
ssg83
g3881
sg76
(lp3888
S'last_query'
p3889
asbag69
(g90
g71
NtRp3890
(dp3891
g74
(dp3892
g101
g102
ssg83
g3881
sg76
(lp3893
S':'
asbag69
(g90
g71
NtRp3894
(dp3895
g74
(dp3896
sg83
g3881
sg76
(lp3897
g69
(g70
g71
NtRp3898
(dp3899
g74
(dp3900
g82
I5
ssg83
g3894
sg76
(lp3901
S'db.auth_user.id>0'
p3902
asbasbasbasbasbsS'etype'
p3903
S"<type 'exceptions.IndentationError'>"
p3904
sS'date'
p3905
S'Mon Aug 26 00:36:26 2013'
p3906
sS'response'
p3907
g69
(g70
g71
NtRp3908
(dp3909
g74
(dp3910
sg76
(lp3911
g69
(g78
g71
NtRp3912
(dp3913
g74
(dp3914
g82
I5
ssg83
Nsg76
(lp3915
g69
(g85
g71
NtRp3916
(dp3917
g74
(dp3918
sg83
g3912
sg76
(lp3919
g69
(g90
g71
NtRp3920
(dp3921
g74
(dp3922
g94
g95
ssg83
g3916
sg76
(lp3923
g180
asbag69
(g90
g71
NtRp3924
(dp3925
g74
(dp3926
g101
g102
ssg83
g3916
sg76
(lp3927
S':'
asbag69
(g90
g71
NtRp3928
(dp3929
g74
(dp3930
sg83
g3916
sg76
(lp3931
g69
(g70
g71
NtRp3932
(dp3933
g74
(dp3934
g82
I5
ssg83
g3928
sg76
(lp3935
S'<cStringIO.StringO object at 0x7f40f8080a40>'
p3936
asbasbasbag69
(g85
g71
NtRp3937
(dp3938
g74
(dp3939
sg83
g3912
sg76
(lp3940
g69
(g90
g71
NtRp3941
(dp3942
g74
(dp3943
g94
g95
ssg83
g3937
sg76
(lp3944
g268
asbag69
(g90
g71
NtRp3945
(dp3946
g74
(dp3947
g101
g102
ssg83
g3937
sg76
(lp3948
S':'
asbag69
(g90
g71
NtRp3949
(dp3950
g74
(dp3951
sg83
g3937
sg76
(lp3952
g69
(g70
g71
NtRp3953
(dp3954
g74
(dp3955
g82
I5
ssg83
g3949
sg76
(lp3956
g69
(g78
g71
NtRp3957
(dp3958
g74
(dp3959
g82
I4
ssg83
Nsg76
(lp3960
g69
(g85
g71
NtRp3961
(dp3962
g74
(dp3963
sg83
g3957
sg76
(lp3964
g69
(g90
g71
NtRp3965
(dp3966
g74
(dp3967
g94
g95
ssg83
g3961
sg76
(lp3968
S'session_id_assignment_2'
p3969
asbag69
(g90
g71
NtRp3970
(dp3971
g74
(dp3972
g101
g102
ssg83
g3961
sg76
(lp3973
S':'
asbag69
(g90
g71
NtRp3974
(dp3975
g74
(dp3976
sg83
g3961
sg76
(lp3977
g69
(g70
g71
NtRp3978
(dp3979
g74
(dp3980
g82
I4
ssg83
g3974
sg76
(lp3981
g686
ag69
(g78
g71
NtRp3982
(dp3983
g74
(dp3984
g82
I3
ssg83
Nsg76
(lp3985
g69
(g85
g71
NtRp3986
(dp3987
g74
(dp3988
sg83
g3982
sg76
(lp3989
g69
(g90
g71
NtRp3990
(dp3991
g74
(dp3992
g94
g95
ssg83
g3986
sg76
(lp3993
g319
asbag69
(g90
g71
NtRp3994
(dp3995
g74
(dp3996
g101
g102
ssg83
g3986
sg76
(lp3997
S':'
asbag69
(g90
g71
NtRp3998
(dp3999
g74
(dp4000
sg83
g3986
sg76
(lp4001
g69
(g70
g71
NtRp4002
(dp4003
g74
(dp4004
g82
I3
ssg83
g3998
sg76
(lp4005
S''
asbasbasbag69
(g85
g71
NtRp4006
(dp4007
g74
(dp4008
sg83
g3982
sg76
(lp4009
g69
(g90
g71
NtRp4010
(dp4011
g74
(dp4012
g94
g95
ssg83
g4006
sg76
(lp4013
g340
asbag69
(g90
g71
NtRp4014
(dp4015
g74
(dp4016
g101
g102
ssg83
g4006
sg76
(lp4017
S':'
asbag69
(g90
g71
NtRp4018
(dp4019
g74
(dp4020
sg83
g4006
sg76
(lp4021
g69
(g70
g71
NtRp4022
(dp4023
g74
(dp4024
g82
I3
ssg83
g4018
sg76
(lp4025
S''
asbasbasbag69
(g85
g71
NtRp4026
(dp4027
g74
(dp4028
sg83
g3982
sg76
(lp4029
g69
(g90
g71
NtRp4030
(dp4031
g74
(dp4032
g94
g95
ssg83
g4026
sg76
(lp4033
g361
asbag69
(g90
g71
NtRp4034
(dp4035
g74
(dp4036
g101
g102
ssg83
g4026
sg76
(lp4037
S':'
asbag69
(g90
g71
NtRp4038
(dp4039
g74
(dp4040
sg83
g4026
sg76
(lp4041
g69
(g70
g71
NtRp4042
(dp4043
g74
(dp4044
g82
I3
ssg83
g4038
sg76
(lp4045
S''
asbasbasbag69
(g85
g71
NtRp4046
(dp4047
g74
(dp4048
sg83
g3982
sg76
(lp4049
g69
(g90
g71
NtRp4050
(dp4051
g74
(dp4052
g94
g95
ssg83
g4046
sg76
(lp4053
g382
asbag69
(g90
g71
NtRp4054
(dp4055
g74
(dp4056
g101
g102
ssg83
g4046
sg76
(lp4057
S':'
asbag69
(g90
g71
NtRp4058
(dp4059
g74
(dp4060
sg83
g4046
sg76
(lp4061
g69
(g70
g71
NtRp4062
(dp4063
g74
(dp4064
g82
I3
ssg83
g4058
sg76
(lp4065
S''
asbasbasbag69
(g85
g71
NtRp4066
(dp4067
g74
(dp4068
sg83
g3982
sg76
(lp4069
g69
(g90
g71
NtRp4070
(dp4071
g74
(dp4072
g94
g95
ssg83
g4066
sg76
(lp4073
g403
asbag69
(g90
g71
NtRp4074
(dp4075
g74
(dp4076
g101
g102
ssg83
g4066
sg76
(lp4077
S':'
asbag69
(g90
g71
NtRp4078
(dp4079
g74
(dp4080
sg83
g4066
sg76
(lp4081
g69
(g70
g71
NtRp4082
(dp4083
g74
(dp4084
g82
I3
ssg83
g4078
sg76
(lp4085
S''
asbasbasbag69
(g85
g71
NtRp4086
(dp4087
g74
(dp4088
sg83
g3982
sg76
(lp4089
g69
(g90
g71
NtRp4090
(dp4091
g74
(dp4092
g94
g95
ssg83
g4086
sg76
(lp4093
g424
asbag69
(g90
g71
NtRp4094
(dp4095
g74
(dp4096
g101
g102
ssg83
g4086
sg76
(lp4097
S':'
asbag69
(g90
g71
NtRp4098
(dp4099
g74
(dp4100
sg83
g4086
sg76
(lp4101
g69
(g70
g71
NtRp4102
(dp4103
g74
(dp4104
g82
I3
ssg83
g4098
sg76
(lp4105
S'/'
asbasbasbag69
(g85
g71
NtRp4106
(dp4107
g74
(dp4108
sg83
g3982
sg76
(lp4109
g69
(g90
g71
NtRp4110
(dp4111
g74
(dp4112
g94
g95
ssg83
g4106
sg76
(lp4113
g445
asbag69
(g90
g71
NtRp4114
(dp4115
g74
(dp4116
g101
g102
ssg83
g4106
sg76
(lp4117
S':'
asbag69
(g90
g71
NtRp4118
(dp4119
g74
(dp4120
sg83
g4106
sg76
(lp4121
g69
(g70
g71
NtRp4122
(dp4123
g74
(dp4124
g82
I3
ssg83
g4118
sg76
(lp4125
S''
asbasbasbag69
(g85
g71
NtRp4126
(dp4127
g74
(dp4128
sg83
g3982
sg76
(lp4129
g69
(g90
g71
NtRp4130
(dp4131
g74
(dp4132
g94
g95
ssg83
g4126
sg76
(lp4133
g466
asbag69
(g90
g71
NtRp4134
(dp4135
g74
(dp4136
g101
g102
ssg83
g4126
sg76
(lp4137
S':'
asbag69
(g90
g71
NtRp4138
(dp4139
g74
(dp4140
sg83
g4126
sg76
(lp4141
g69
(g70
g71
NtRp4142
(dp4143
g74
(dp4144
g82
I3
ssg83
g4138
sg76
(lp4145
S''
asbasbasbasbasbasbasbasbasbasbasbag69
(g85
g71
NtRp4146
(dp4147
g74
(dp4148
sg83
g3912
sg76
(lp4149
g69
(g90
g71
NtRp4150
(dp4151
g74
(dp4152
g94
g95
ssg83
g4146
sg76
(lp4153
S'delimiters'
p4154
asbag69
(g90
g71
NtRp4155
(dp4156
g74
(dp4157
g101
g102
ssg83
g4146
sg76
(lp4158
S':'
asbag69
(g90
g71
NtRp4159
(dp4160
g74
(dp4161
sg83
g4146
sg76
(lp4162
g69
(g70
g71
NtRp4163
(dp4164
g74
(dp4165
g82
I5
ssg83
g4159
sg76
(lp4166
g69
(g78
g71
NtRp4167
(dp4168
g74
(dp4169
g82
I4
ssg83
Nsg76
(lp4170
g69
(g85
g71
NtRp4171
(dp4172
g74
(dp4173
sg83
g4167
sg76
(lp4174
g69
(g90
g71
NtRp4175
(dp4176
g74
(dp4177
sg83
g4171
sg76
(lp4178
g69
(g70
g71
NtRp4179
(dp4180
g74
(dp4181
g82
I4
ssg83
g4175
sg76
(lp4182
S'{{'
p4183
asbasbasbag69
(g85
g71
NtRp4184
(dp4185
g74
(dp4186
sg83
g4167
sg76
(lp4187
g69
(g90
g71
NtRp4188
(dp4189
g74
(dp4190
sg83
g4184
sg76
(lp4191
g69
(g70
g71
NtRp4192
(dp4193
g74
(dp4194
g82
I4
ssg83
g4188
sg76
(lp4195
S'}}'
p4196
asbasbasbasbasbasbasbag69
(g85
g71
NtRp4197
(dp4198
g74
(dp4199
sg83
g3912
sg76
(lp4200
g69
(g90
g71
NtRp4201
(dp4202
g74
(dp4203
g94
g95
ssg83
g4197
sg76
(lp4204
S'files'
p4205
asbag69
(g90
g71
NtRp4206
(dp4207
g74
(dp4208
g101
g102
ssg83
g4197
sg76
(lp4209
S':'
asbag69
(g90
g71
NtRp4210
(dp4211
g74
(dp4212
sg83
g4197
sg76
(lp4213
g69
(g70
g71
NtRp4214
(dp4215
g74
(dp4216
g82
I5
ssg83
g4210
sg76
(lp4217
g69
(g78
g71
NtRp4218
(dp4219
g74
(dp4220
g82
I4
ssg83
Nsg76
(lp4221
sbasbasbasbag69
(g85
g71
NtRp4222
(dp4223
g74
(dp4224
sg83
g3912
sg76
(lp4225
g69
(g90
g71
NtRp4226
(dp4227
g74
(dp4228
g94
g95
ssg83
g4222
sg76
(lp4229
S'flash'
p4230
asbag69
(g90
g71
NtRp4231
(dp4232
g74
(dp4233
g101
g102
ssg83
g4222
sg76
(lp4234
S':'
asbag69
(g90
g71
NtRp4235
(dp4236
g74
(dp4237
sg83
g4222
sg76
(lp4238
g69
(g70
g71
NtRp4239
(dp4240
g74
(dp4241
g82
I5
ssg83
g4235
sg76
(lp4242
S''
asbasbasbag69
(g85
g71
NtRp4243
(dp4244
g74
(dp4245
sg83
g3912
sg76
(lp4246
g69
(g90
g71
NtRp4247
(dp4248
g74
(dp4249
g94
g95
ssg83
g4243
sg76
(lp4250
S'generic_patterns'
p4251
asbag69
(g90
g71
NtRp4252
(dp4253
g74
(dp4254
g101
g102
ssg83
g4243
sg76
(lp4255
S':'
asbag69
(g90
g71
NtRp4256
(dp4257
g74
(dp4258
sg83
g4243
sg76
(lp4259
g69
(g70
g71
NtRp4260
(dp4261
g74
(dp4262
g82
I5
ssg83
g4256
sg76
(lp4263
g69
(g78
g71
NtRp4264
(dp4265
g74
(dp4266
g82
I4
ssg83
Nsg76
(lp4267
g69
(g85
g71
NtRp4268
(dp4269
g74
(dp4270
sg83
g4264
sg76
(lp4271
g69
(g90
g71
NtRp4272
(dp4273
g74
(dp4274
sg83
g4268
sg76
(lp4275
g69
(g70
g71
NtRp4276
(dp4277
g74
(dp4278
g82
I4
ssg83
g4272
sg76
(lp4279
S'*'
asbasbasbasbasbasbasbag69
(g85
g71
NtRp4280
(dp4281
g74
(dp4282
sg83
g3912
sg76
(lp4283
g69
(g90
g71
NtRp4284
(dp4285
g74
(dp4286
g94
g95
ssg83
g4280
sg76
(lp4287
S'google_analytics_id'
p4288
asbag69
(g90
g71
NtRp4289
(dp4290
g74
(dp4291
g101
g102
ssg83
g4280
sg76
(lp4292
S':'
asbag69
(g90
g71
NtRp4293
(dp4294
g74
(dp4295
sg83
g4280
sg76
(lp4296
g69
(g70
g71
NtRp4297
(dp4298
g74
(dp4299
g82
I5
ssg83
g4293
sg76
(lp4300
S'None'
p4301
asbasbasbag69
(g85
g71
NtRp4302
(dp4303
g74
(dp4304
sg83
g3912
sg76
(lp4305
g69
(g90
g71
NtRp4306
(dp4307
g74
(dp4308
g94
g95
ssg83
g4302
sg76
(lp4309
S'headers'
p4310
asbag69
(g90
g71
NtRp4311
(dp4312
g74
(dp4313
g101
g102
ssg83
g4302
sg76
(lp4314
S':'
asbag69
(g90
g71
NtRp4315
(dp4316
g74
(dp4317
sg83
g4302
sg76
(lp4318
g69
(g70
g71
NtRp4319
(dp4320
g74
(dp4321
g82
I5
ssg83
g4315
sg76
(lp4322
g69
(g78
g71
NtRp4323
(dp4324
g74
(dp4325
g82
I4
ssg83
Nsg76
(lp4326
g69
(g85
g71
NtRp4327
(dp4328
g74
(dp4329
sg83
g4323
sg76
(lp4330
g69
(g90
g71
NtRp4331
(dp4332
g74
(dp4333
g94
g95
ssg83
g4327
sg76
(lp4334
S'X-Powered-By'
p4335
asbag69
(g90
g71
NtRp4336
(dp4337
g74
(dp4338
g101
g102
ssg83
g4327
sg76
(lp4339
S':'
asbag69
(g90
g71
NtRp4340
(dp4341
g74
(dp4342
sg83
g4327
sg76
(lp4343
g69
(g70
g71
NtRp4344
(dp4345
g74
(dp4346
g82
I4
ssg83
g4340
sg76
(lp4347
S'web2py'
p4348
asbasbasbasbasbasbasbag69
(g85
g71
NtRp4349
(dp4350
g74
(dp4351
sg83
g3912
sg76
(lp4352
g69
(g90
g71
NtRp4353
(dp4354
g74
(dp4355
g94
g95
ssg83
g4349
sg76
(lp4356
S'logo'
p4357
asbag69
(g90
g71
NtRp4358
(dp4359
g74
(dp4360
g101
g102
ssg83
g4349
sg76
(lp4361
S':'
asbag69
(g90
g71
NtRp4362
(dp4363
g74
(dp4364
sg83
g4349
sg76
(lp4365
g69
(g70
g71
NtRp4366
(dp4367
g74
(dp4368
g82
I5
ssg83
g4362
sg76
(lp4369
g69
(cgluon.html
A
p4370
g71
NtRp4371
(dp4372
g74
(dp4373
S'_class'
p4374
S'brand'
p4375
sS'_href'
p4376
S'http://www.web2py.com/'
p4377
ssg83
Nsg76
(lp4378
g69
(cgluon.html
B
p4379
g71
NtRp4380
(dp4381
g74
(dp4382
sg83
g4371
sg76
(lp4383
S'web'
p4384
ag69
(cgluon.html
SPAN
p4385
g71
NtRp4386
(dp4387
g74
(dp4388
sg83
g4380
sg76
(lp4389
I2
asbaS'py'
p4390
asbacgluon.html
XML_unpickle
p4391
(S's\r\x00\x00\x00&trade;&nbsp;'
tRp4392
asbasbasbasbag69
(g85
g71
NtRp4393
(dp4394
g74
(dp4395
sg83
g3912
sg76
(lp4396
g69
(g90
g71
NtRp4397
(dp4398
g74
(dp4399
g94
g95
ssg83
g4393
sg76
(lp4400
S'menu'
p4401
asbag69
(g90
g71
NtRp4402
(dp4403
g74
(dp4404
g101
g102
ssg83
g4393
sg76
(lp4405
S':'
asbag69
(g90
g71
NtRp4406
(dp4407
g74
(dp4408
sg83
g4393
sg76
(lp4409
g69
(g70
g71
NtRp4410
(dp4411
g74
(dp4412
g82
I5
ssg83
g4406
sg76
(lp4413
g69
(g78
g71
NtRp4414
(dp4415
g74
(dp4416
g82
I4
ssg83
Nsg76
(lp4417
g69
(g85
g71
NtRp4418
(dp4419
g74
(dp4420
sg83
g4414
sg76
(lp4421
g69
(g90
g71
NtRp4422
(dp4423
g74
(dp4424
sg83
g4418
sg76
(lp4425
g69
(g70
g71
NtRp4426
(dp4427
g74
(dp4428
g82
I4
ssg83
g4422
sg76
(lp4429
g69
(g78
g71
NtRp4430
(dp4431
g74
(dp4432
g82
I3
ssg83
Nsg76
(lp4433
g69
(g85
g71
NtRp4434
(dp4435
g74
(dp4436
sg83
g4430
sg76
(lp4437
g69
(g90
g71
NtRp4438
(dp4439
g74
(dp4440
sg83
g4434
sg76
(lp4441
g69
(g70
g71
NtRp4442
(dp4443
g74
(dp4444
g82
I3
ssg83
g4438
sg76
(lp4445
cgluon.languages
lazyT_unpickle
p4446
(S's\x04\x00\x00\x00Home'
tRp4447
asbasbasbag69
(g85
g71
NtRp4448
(dp4449
g74
(dp4450
sg83
g4430
sg76
(lp4451
g69
(g90
g71
NtRp4452
(dp4453
g74
(dp4454
sg83
g4448
sg76
(lp4455
g69
(g70
g71
NtRp4456
(dp4457
g74
(dp4458
g82
I3
ssg83
g4452
sg76
(lp4459
g112
asbasbasbag69
(g85
g71
NtRp4460
(dp4461
g74
(dp4462
sg83
g4430
sg76
(lp4463
g69
(g90
g71
NtRp4464
(dp4465
g74
(dp4466
sg83
g4460
sg76
(lp4467
g69
(g70
g71
NtRp4468
(dp4469
g74
(dp4470
g82
I3
ssg83
g4464
sg76
(lp4471
S'/Assignment_2/default/index'
p4472
asbasbasbag69
(g85
g71
NtRp4473
(dp4474
g74
(dp4475
sg83
g4430
sg76
(lp4476
g69
(g90
g71
NtRp4477
(dp4478
g74
(dp4479
sg83
g4473
sg76
(lp4480
g69
(g70
g71
NtRp4481
(dp4482
g74
(dp4483
g82
I3
ssg83
g4477
sg76
(lp4484
g69
(g78
g71
NtRp4485
(dp4486
g74
(dp4487
g82
I2
ssg83
Nsg76
(lp4488
sbasbasbasbasbasbasbasbag69
(g85
g71
NtRp4489
(dp4490
g74
(dp4491
sg83
g4414
sg76
(lp4492
g69
(g90
g71
NtRp4493
(dp4494
g74
(dp4495
sg83
g4489
sg76
(lp4496
g69
(g70
g71
NtRp4497
(dp4498
g74
(dp4499
g82
I4
ssg83
g4493
sg76
(lp4500
g69
(g78
g71
NtRp4501
(dp4502
g74
(dp4503
g82
I3
ssg83
Nsg76
(lp4504
g69
(g85
g71
NtRp4505
(dp4506
g74
(dp4507
sg83
g4501
sg76
(lp4508
g69
(g90
g71
NtRp4509
(dp4510
g74
(dp4511
sg83
g4505
sg76
(lp4512
g69
(g70
g71
NtRp4513
(dp4514
g74
(dp4515
g82
I3
ssg83
g4509
sg76
(lp4516
g69
(g4385
g71
NtRp4517
(dp4518
g74
(dp4519
g4374
S'highlighted'
p4520
ssg83
Nsg76
(lp4521
g4348
asbasbasbasbag69
(g85
g71
NtRp4522
(dp4523
g74
(dp4524
sg83
g4501
sg76
(lp4525
g69
(g90
g71
NtRp4526
(dp4527
g74
(dp4528
sg83
g4522
sg76
(lp4529
g69
(g70
g71
NtRp4530
(dp4531
g74
(dp4532
g82
I3
ssg83
g4526
sg76
(lp4533
g112
asbasbasbag69
(g85
g71
NtRp4534
(dp4535
g74
(dp4536
sg83
g4501
sg76
(lp4537
g69
(g90
g71
NtRp4538
(dp4539
g74
(dp4540
sg83
g4534
sg76
(lp4541
g69
(g70
g71
NtRp4542
(dp4543
g74
(dp4544
g82
I3
ssg83
g4538
sg76
(lp4545
S'http://web2py.com'
p4546
asbasbasbag69
(g85
g71
NtRp4547
(dp4548
g74
(dp4549
sg83
g4501
sg76
(lp4550
g69
(g90
g71
NtRp4551
(dp4552
g74
(dp4553
sg83
g4547
sg76
(lp4554
g69
(g70
g71
NtRp4555
(dp4556
g74
(dp4557
g82
I3
ssg83
g4551
sg76
(lp4558
g69
(g78
g71
NtRp4559
(dp4560
g74
(dp4561
g82
I2
ssg83
Nsg76
(lp4562
g69
(g85
g71
NtRp4563
(dp4564
g74
(dp4565
sg83
g4559
sg76
(lp4566
g69
(g90
g71
NtRp4567
(dp4568
g74
(dp4569
sg83
g4563
sg76
(lp4570
g69
(g70
g71
NtRp4571
(dp4572
g74
(dp4573
g82
I2
ssg83
g4567
sg76
(lp4574
g69
(g78
g71
NtRp4575
(dp4576
g74
(dp4577
g82
I1
ssg83
Nsg76
(lp4578
g69
(g85
g71
NtRp4579
(dp4580
g74
(dp4581
sg83
g4575
sg76
(lp4582
g69
(g90
g71
NtRp4583
(dp4584
g74
(dp4585
sg83
g4579
sg76
(lp4586
g69
(g70
g71
NtRp4587
(dp4588
g74
(dp4589
g82
I1
ssg83
g4583
sg76
(lp4590
g4446
(S's\x08\x00\x00\x00My Sites'
tRp4591
asbasbasbag69
(g85
g71
NtRp4592
(dp4593
g74
(dp4594
sg83
g4575
sg76
(lp4595
g69
(g90
g71
NtRp4596
(dp4597
g74
(dp4598
sg83
g4592
sg76
(lp4599
g69
(g70
g71
NtRp4600
(dp4601
g74
(dp4602
g82
I1
ssg83
g4596
sg76
(lp4603
I00
asbasbasbag69
(g85
g71
NtRp4604
(dp4605
g74
(dp4606
sg83
g4575
sg76
(lp4607
g69
(g90
g71
NtRp4608
(dp4609
g74
(dp4610
sg83
g4604
sg76
(lp4611
g69
(g70
g71
NtRp4612
(dp4613
g74
(dp4614
g82
I1
ssg83
g4608
sg76
(lp4615
S'/admin/default/site'
p4616
asbasbasbasbasbasbasbag69
(g85
g71
NtRp4617
(dp4618
g74
(dp4619
sg83
g4559
sg76
(lp4620
g69
(g90
g71
NtRp4621
(dp4622
g74
(dp4623
sg83
g4617
sg76
(lp4624
g69
(g70
g71
NtRp4625
(dp4626
g74
(dp4627
g82
I2
ssg83
g4621
sg76
(lp4628
g69
(g78
g71
NtRp4629
(dp4630
g74
(dp4631
g82
I1
ssg83
Nsg76
(lp4632
g69
(g85
g71
NtRp4633
(dp4634
g74
(dp4635
sg83
g4629
sg76
(lp4636
g69
(g90
g71
NtRp4637
(dp4638
g74
(dp4639
sg83
g4633
sg76
(lp4640
g69
(g70
g71
NtRp4641
(dp4642
g74
(dp4643
g82
I1
ssg83
g4637
sg76
(lp4644
g4446
(S's\x08\x00\x00\x00This App'
tRp4645
asbasbasbag69
(g85
g71
NtRp4646
(dp4647
g74
(dp4648
sg83
g4629
sg76
(lp4649
g69
(g90
g71
NtRp4650
(dp4651
g74
(dp4652
sg83
g4646
sg76
(lp4653
g69
(g70
g71
NtRp4654
(dp4655
g74
(dp4656
g82
I1
ssg83
g4650
sg76
(lp4657
I00
asbasbasbag69
(g85
g71
NtRp4658
(dp4659
g74
(dp4660
sg83
g4629
sg76
(lp4661
g69
(g90
g71
NtRp4662
(dp4663
g74
(dp4664
sg83
g4658
sg76
(lp4665
g69
(g70
g71
NtRp4666
(dp4667
g74
(dp4668
g82
I1
ssg83
g4662
sg76
(lp4669
S'/admin/default/design/Assignment_2'
p4670
asbasbasbag69
(g85
g71
NtRp4671
(dp4672
g74
(dp4673
sg83
g4629
sg76
(lp4674
g69
(g90
g71
NtRp4675
(dp4676
g74
(dp4677
sg83
g4671
sg76
(lp4678
g69
(g70
g71
NtRp4679
(dp4680
g74
(dp4681
g82
I1
ssg83
g4675
sg76
(lp4682
(lp4683
(g4446
(S's\n\x00\x00\x00Controller'
tRp4684
I00
S'/admin/default/edit/Assignment_2/controllers/default.py'
tp4685
a(g4446
(S's\x04\x00\x00\x00View'
tRp4686
I00
S'/admin/default/edit/Assignment_2/views/default/user.html'
tp4687
a(g4446
(S's\x06\x00\x00\x00Layout'
tRp4688
I00
S'/admin/default/edit/Assignment_2/views/layout.html'
tp4689
a(g4446
(S's\n\x00\x00\x00Stylesheet'
tRp4690
I00
S'/admin/default/edit/Assignment_2/static/css/web2py.css'
tp4691
a(g4446
(S's\x08\x00\x00\x00DB Model'
tRp4692
I00
S'/admin/default/edit/Assignment_2/models/db.py'
tp4693
a(g4446
(S's\n\x00\x00\x00Menu Model'
tRp4694
I00
S'/admin/default/edit/Assignment_2/models/menu.py'
tp4695
a(g4446
(S's\x08\x00\x00\x00Database'
tRp4696
I00
S'/Assignment_2/appadmin/index'
tp4697
a(g4446
(S's\x06\x00\x00\x00Errors'
tRp4698
I00
S'/admin/default/errors/Assignment_2'
tp4699
a(g4446
(S's\x05\x00\x00\x00About'
tRp4700
I00
S'/admin/default/about/Assignment_2'
tp4701
aasbasbasbasbasbasbasbag69
(g85
g71
NtRp4702
(dp4703
g74
(dp4704
sg83
g4559
sg76
(lp4705
g69
(g90
g71
NtRp4706
(dp4707
g74
(dp4708
sg83
g4702
sg76
(lp4709
g69
(g70
g71
NtRp4710
(dp4711
g74
(dp4712
g82
I2
ssg83
g4706
sg76
(lp4713
g69
(g78
g71
NtRp4714
(dp4715
g74
(dp4716
g82
I1
ssg83
Nsg76
(lp4717
g69
(g85
g71
NtRp4718
(dp4719
g74
(dp4720
sg83
g4714
sg76
(lp4721
g69
(g90
g71
NtRp4722
(dp4723
g74
(dp4724
sg83
g4718
sg76
(lp4725
g69
(g70
g71
NtRp4726
(dp4727
g74
(dp4728
g82
I1
ssg83
g4722
sg76
(lp4729
S'web2py.com'
p4730
asbasbasbag69
(g85
g71
NtRp4731
(dp4732
g74
(dp4733
sg83
g4714
sg76
(lp4734
g69
(g90
g71
NtRp4735
(dp4736
g74
(dp4737
sg83
g4731
sg76
(lp4738
g69
(g70
g71
NtRp4739
(dp4740
g74
(dp4741
g82
I1
ssg83
g4735
sg76
(lp4742
I00
asbasbasbag69
(g85
g71
NtRp4743
(dp4744
g74
(dp4745
sg83
g4714
sg76
(lp4746
g69
(g90
g71
NtRp4747
(dp4748
g74
(dp4749
sg83
g4743
sg76
(lp4750
g69
(g70
g71
NtRp4751
(dp4752
g74
(dp4753
g82
I1
ssg83
g4747
sg76
(lp4754
S'http://www.web2py.com'
p4755
asbasbasbag69
(g85
g71
NtRp4756
(dp4757
g74
(dp4758
sg83
g4714
sg76
(lp4759
g69
(g90
g71
NtRp4760
(dp4761
g74
(dp4762
sg83
g4756
sg76
(lp4763
g69
(g70
g71
NtRp4764
(dp4765
g74
(dp4766
g82
I1
ssg83
g4760
sg76
(lp4767
(lp4768
(g4446
(S's\x08\x00\x00\x00Download'
tRp4769
I00
S'http://www.web2py.com/examples/default/download'
p4770
tp4771
a(g4446
(S's\x07\x00\x00\x00Support'
tRp4772
I00
S'http://www.web2py.com/examples/default/support'
p4773
tp4774
a(g4446
(S's\x04\x00\x00\x00Demo'
tRp4775
I00
S'http://web2py.com/demo_admin'
p4776
tp4777
a(g4446
(S's\x0e\x00\x00\x00Quick Examples'
tRp4778
I00
S'http://web2py.com/examples/default/examples'
p4779
tp4780
a(g4446
(S's\x03\x00\x00\x00FAQ'
tRp4781
I00
S'http://web2py.com/AlterEgo'
p4782
tp4783
a(g4446
(S's\x06\x00\x00\x00Videos'
tRp4784
I00
S'http://www.web2py.com/examples/default/videos/'
p4785
tp4786
a(g4446
(S's\x11\x00\x00\x00Free Applications'
tRp4787
I00
S'http://web2py.com/appliances'
p4788
tp4789
a(g4446
(S's\x07\x00\x00\x00Plugins'
tRp4790
I00
S'http://web2py.com/plugins'
p4791
tp4792
a(g4446
(S's\x07\x00\x00\x00Layouts'
tRp4793
I00
S'http://web2py.com/layouts'
p4794
tp4795
a(g4446
(S's\x07\x00\x00\x00Recipes'
tRp4796
I00
S'http://web2pyslices.com/'
p4797
tp4798
a(g4446
(S's\x08\x00\x00\x00Semantic'
tRp4799
I00
S'http://web2py.com/semantic'
p4800
tp4801
aasbasbasbasbasbasbasbag69
(g85
g71
NtRp4802
(dp4803
g74
(dp4804
sg83
g4559
sg76
(lp4805
g69
(g90
g71
NtRp4806
(dp4807
g74
(dp4808
sg83
g4802
sg76
(lp4809
g69
(g70
g71
NtRp4810
(dp4811
g74
(dp4812
g82
I2
ssg83
g4806
sg76
(lp4813
g69
(g78
g71
NtRp4814
(dp4815
g74
(dp4816
g82
I1
ssg83
Nsg76
(lp4817
g69
(g85
g71
NtRp4818
(dp4819
g74
(dp4820
sg83
g4814
sg76
(lp4821
g69
(g90
g71
NtRp4822
(dp4823
g74
(dp4824
sg83
g4818
sg76
(lp4825
g69
(g70
g71
NtRp4826
(dp4827
g74
(dp4828
g82
I1
ssg83
g4822
sg76
(lp4829
g4446
(S's\r\x00\x00\x00Documentation'
tRp4830
asbasbasbag69
(g85
g71
NtRp4831
(dp4832
g74
(dp4833
sg83
g4814
sg76
(lp4834
g69
(g90
g71
NtRp4835
(dp4836
g74
(dp4837
sg83
g4831
sg76
(lp4838
g69
(g70
g71
NtRp4839
(dp4840
g74
(dp4841
g82
I1
ssg83
g4835
sg76
(lp4842
I00
asbasbasbag69
(g85
g71
NtRp4843
(dp4844
g74
(dp4845
sg83
g4814
sg76
(lp4846
g69
(g90
g71
NtRp4847
(dp4848
g74
(dp4849
sg83
g4843
sg76
(lp4850
g69
(g70
g71
NtRp4851
(dp4852
g74
(dp4853
g82
I1
ssg83
g4847
sg76
(lp4854
S'http://www.web2py.com/book'
p4855
asbasbasbag69
(g85
g71
NtRp4856
(dp4857
g74
(dp4858
sg83
g4814
sg76
(lp4859
g69
(g90
g71
NtRp4860
(dp4861
g74
(dp4862
sg83
g4856
sg76
(lp4863
g69
(g70
g71
NtRp4864
(dp4865
g74
(dp4866
g82
I1
ssg83
g4860
sg76
(lp4867
(lp4868
(g4446
(S's\x07\x00\x00\x00Preface'
tRp4869
I00
S'http://www.web2py.com/book/default/chapter/00'
p4870
tp4871
a(g4446
(S's\x0c\x00\x00\x00Introduction'
tRp4872
I00
S'http://www.web2py.com/book/default/chapter/01'
p4873
tp4874
a(g4446
(S's\x06\x00\x00\x00Python'
tRp4875
I00
S'http://www.web2py.com/book/default/chapter/02'
p4876
tp4877
a(g4446
(S's\x08\x00\x00\x00Overview'
tRp4878
I00
S'http://www.web2py.com/book/default/chapter/03'
p4879
tp4880
a(g4446
(S's\x08\x00\x00\x00The Core'
tRp4881
I00
S'http://www.web2py.com/book/default/chapter/04'
p4882
tp4883
a(g4446
(S's\t\x00\x00\x00The Views'
tRp4884
I00
S'http://www.web2py.com/book/default/chapter/05'
p4885
tp4886
a(g4446
(S's\x08\x00\x00\x00Database'
tRp4887
I00
S'http://www.web2py.com/book/default/chapter/06'
p4888
tp4889
a(g4446
(S's\x14\x00\x00\x00Forms and Validators'
tRp4890
I00
S'http://www.web2py.com/book/default/chapter/07'
p4891
tp4892
a(g4446
(S's\r\x00\x00\x00Email and SMS'
tRp4893
I00
S'http://www.web2py.com/book/default/chapter/08'
p4894
tp4895
a(g4446
(S's\x0e\x00\x00\x00Access Control'
tRp4896
I00
S'http://www.web2py.com/book/default/chapter/09'
p4897
tp4898
a(g4446
(S's\x08\x00\x00\x00Services'
tRp4899
I00
S'http://www.web2py.com/book/default/chapter/10'
p4900
tp4901
a(g4446
(S's\x0c\x00\x00\x00Ajax Recipes'
tRp4902
I00
S'http://www.web2py.com/book/default/chapter/11'
p4903
tp4904
a(g4446
(S's\x16\x00\x00\x00Components and Plugins'
tRp4905
I00
S'http://www.web2py.com/book/default/chapter/12'
p4906
tp4907
a(g4446
(S's\x12\x00\x00\x00Deployment Recipes'
tRp4908
I00
S'http://www.web2py.com/book/default/chapter/13'
p4909
tp4910
a(g4446
(S's\r\x00\x00\x00Other Recipes'
tRp4911
I00
S'http://www.web2py.com/book/default/chapter/14'
p4912
tp4913
a(g4446
(S's\r\x00\x00\x00Buy this book'
tRp4914
I00
S'http://stores.lulu.com/web2py'
p4915
tp4916
aasbasbasbasbasbasbasbag69
(g85
g71
NtRp4917
(dp4918
g74
(dp4919
sg83
g4559
sg76
(lp4920
g69
(g90
g71
NtRp4921
(dp4922
g74
(dp4923
sg83
g4917
sg76
(lp4924
g69
(g70
g71
NtRp4925
(dp4926
g74
(dp4927
g82
I2
ssg83
g4921
sg76
(lp4928
g69
(g78
g71
NtRp4929
(dp4930
g74
(dp4931
g82
I1
ssg83
Nsg76
(lp4932
g69
(g85
g71
NtRp4933
(dp4934
g74
(dp4935
sg83
g4929
sg76
(lp4936
g69
(g90
g71
NtRp4937
(dp4938
g74
(dp4939
sg83
g4933
sg76
(lp4940
g69
(g70
g71
NtRp4941
(dp4942
g74
(dp4943
g82
I1
ssg83
g4937
sg76
(lp4944
g4446
(S's\t\x00\x00\x00Community'
tRp4945
asbasbasbag69
(g85
g71
NtRp4946
(dp4947
g74
(dp4948
sg83
g4929
sg76
(lp4949
g69
(g90
g71
NtRp4950
(dp4951
g74
(dp4952
sg83
g4946
sg76
(lp4953
g69
(g70
g71
NtRp4954
(dp4955
g74
(dp4956
g82
I1
ssg83
g4950
sg76
(lp4957
I00
asbasbasbag69
(g85
g71
NtRp4958
(dp4959
g74
(dp4960
sg83
g4929
sg76
(lp4961
g69
(g90
g71
NtRp4962
(dp4963
g74
(dp4964
sg83
g4958
sg76
(lp4965
g69
(g70
g71
NtRp4966
(dp4967
g74
(dp4968
g82
I1
ssg83
g4962
sg76
(lp4969
Nasbasbasbag69
(g85
g71
NtRp4970
(dp4971
g74
(dp4972
sg83
g4929
sg76
(lp4973
g69
(g90
g71
NtRp4974
(dp4975
g74
(dp4976
sg83
g4970
sg76
(lp4977
g69
(g70
g71
NtRp4978
(dp4979
g74
(dp4980
g82
I1
ssg83
g4974
sg76
(lp4981
(lp4982
(g4446
(S's\x06\x00\x00\x00Groups'
tRp4983
I00
S'http://www.web2py.com/examples/default/usergroups'
p4984
tp4985
a(g4446
(S's\x07\x00\x00\x00Twitter'
tRp4986
I00
S'http://twitter.com/web2py'
p4987
tp4988
a(g4446
(S's\t\x00\x00\x00Live Chat'
tRp4989
I00
S'http://webchat.freenode.net/?channels=web2py'
p4990
tp4991
aasbasbasbasbasbasbasbag69
(g85
g71
NtRp4992
(dp4993
g74
(dp4994
sg83
g4559
sg76
(lp4995
g69
(g90
g71
NtRp4996
(dp4997
g74
(dp4998
sg83
g4992
sg76
(lp4999
g69
(g70
g71
NtRp5000
(dp5001
g74
(dp5002
g82
I2
ssg83
g4996
sg76
(lp5003
g69
(g78
g71
NtRp5004
(dp5005
g74
(dp5006
g82
I1
ssg83
Nsg76
(lp5007
g69
(g85
g71
NtRp5008
(dp5009
g74
(dp5010
sg83
g5004
sg76
(lp5011
g69
(g90
g71
NtRp5012
(dp5013
g74
(dp5014
sg83
g5008
sg76
(lp5015
g69
(g70
g71
NtRp5016
(dp5017
g74
(dp5018
g82
I1
ssg83
g5012
sg76
(lp5019
g4446
(S's\x07\x00\x00\x00Plugins'
tRp5020
asbasbasbag69
(g85
g71
NtRp5021
(dp5022
g74
(dp5023
sg83
g5004
sg76
(lp5024
g69
(g90
g71
NtRp5025
(dp5026
g74
(dp5027
sg83
g5021
sg76
(lp5028
g69
(g70
g71
NtRp5029
(dp5030
g74
(dp5031
g82
I1
ssg83
g5025
sg76
(lp5032
I00
asbasbasbag69
(g85
g71
NtRp5033
(dp5034
g74
(dp5035
sg83
g5004
sg76
(lp5036
g69
(g90
g71
NtRp5037
(dp5038
g74
(dp5039
sg83
g5033
sg76
(lp5040
g69
(g70
g71
NtRp5041
(dp5042
g74
(dp5043
g82
I1
ssg83
g5037
sg76
(lp5044
Nasbasbasbag69
(g85
g71
NtRp5045
(dp5046
g74
(dp5047
sg83
g5004
sg76
(lp5048
g69
(g90
g71
NtRp5049
(dp5050
g74
(dp5051
sg83
g5045
sg76
(lp5052
g69
(g70
g71
NtRp5053
(dp5054
g74
(dp5055
g82
I1
ssg83
g5049
sg76
(lp5056
(lp5057
(S'plugin_wiki'
p5058
I00
S'http://web2py.com/examples/default/download'
p5059
tp5060
a(g4446
(S's\r\x00\x00\x00Other Plugins'
tRp5061
I00
g4791
tp5062
a(g4446
(S's\x0e\x00\x00\x00Layout Plugins'
tRp5063
I00
g4794
tp5064
aasbasbasbasbasbasbasbasbasbasbasbasbasbasbasbasbasbasbasbag69
(g85
g71
NtRp5065
(dp5066
g74
(dp5067
sg83
g3912
sg76
(lp5068
g69
(g90
g71
NtRp5069
(dp5070
g74
(dp5071
g94
g95
ssg83
g5065
sg76
(lp5072
S'meta'
p5073
asbag69
(g90
g71
NtRp5074
(dp5075
g74
(dp5076
g101
g102
ssg83
g5065
sg76
(lp5077
S':'
asbag69
(g90
g71
NtRp5078
(dp5079
g74
(dp5080
sg83
g5065
sg76
(lp5081
g69
(g70
g71
NtRp5082
(dp5083
g74
(dp5084
g82
I5
ssg83
g5078
sg76
(lp5085
g69
(g78
g71
NtRp5086
(dp5087
g74
(dp5088
g82
I4
ssg83
Nsg76
(lp5089
g69
(g85
g71
NtRp5090
(dp5091
g74
(dp5092
sg83
g5086
sg76
(lp5093
g69
(g90
g71
NtRp5094
(dp5095
g74
(dp5096
g94
g95
ssg83
g5090
sg76
(lp5097
S'author'
p5098
asbag69
(g90
g71
NtRp5099
(dp5100
g74
(dp5101
g101
g102
ssg83
g5090
sg76
(lp5102
S':'
asbag69
(g90
g71
NtRp5103
(dp5104
g74
(dp5105
sg83
g5090
sg76
(lp5106
g69
(g70
g71
NtRp5107
(dp5108
g74
(dp5109
g82
I4
ssg83
g5103
sg76
(lp5110
S'Your Name <you@example.com>'
p5111
asbasbasbag69
(g85
g71
NtRp5112
(dp5113
g74
(dp5114
sg83
g5086
sg76
(lp5115
g69
(g90
g71
NtRp5116
(dp5117
g74
(dp5118
g94
g95
ssg83
g5112
sg76
(lp5119
S'description'
p5120
asbag69
(g90
g71
NtRp5121
(dp5122
g74
(dp5123
g101
g102
ssg83
g5112
sg76
(lp5124
S':'
asbag69
(g90
g71
NtRp5125
(dp5126
g74
(dp5127
sg83
g5112
sg76
(lp5128
g69
(g70
g71
NtRp5129
(dp5130
g74
(dp5131
g82
I4
ssg83
g5125
sg76
(lp5132
S'a cool new app'
p5133
asbasbasbag69
(g85
g71
NtRp5134
(dp5135
g74
(dp5136
sg83
g5086
sg76
(lp5137
g69
(g90
g71
NtRp5138
(dp5139
g74
(dp5140
g94
g95
ssg83
g5134
sg76
(lp5141
S'generator'
p5142
asbag69
(g90
g71
NtRp5143
(dp5144
g74
(dp5145
g101
g102
ssg83
g5134
sg76
(lp5146
S':'
asbag69
(g90
g71
NtRp5147
(dp5148
g74
(dp5149
sg83
g5134
sg76
(lp5150
g69
(g70
g71
NtRp5151
(dp5152
g74
(dp5153
g82
I4
ssg83
g5147
sg76
(lp5154
S'Web2py Web Framework'
p5155
asbasbasbag69
(g85
g71
NtRp5156
(dp5157
g74
(dp5158
sg83
g5086
sg76
(lp5159
g69
(g90
g71
NtRp5160
(dp5161
g74
(dp5162
g94
g95
ssg83
g5156
sg76
(lp5163
S'keywords'
p5164
asbag69
(g90
g71
NtRp5165
(dp5166
g74
(dp5167
g101
g102
ssg83
g5156
sg76
(lp5168
S':'
asbag69
(g90
g71
NtRp5169
(dp5170
g74
(dp5171
sg83
g5156
sg76
(lp5172
g69
(g70
g71
NtRp5173
(dp5174
g74
(dp5175
g82
I4
ssg83
g5169
sg76
(lp5176
S'web2py, python, framework'
p5177
asbasbasbasbasbasbasbag69
(g85
g71
NtRp5178
(dp5179
g74
(dp5180
sg83
g3912
sg76
(lp5181
g69
(g90
g71
NtRp5182
(dp5183
g74
(dp5184
g94
g95
ssg83
g5178
sg76
(lp5185
S'models_to_run'
p5186
asbag69
(g90
g71
NtRp5187
(dp5188
g74
(dp5189
g101
g102
ssg83
g5178
sg76
(lp5190
S':'
asbag69
(g90
g71
NtRp5191
(dp5192
g74
(dp5193
sg83
g5178
sg76
(lp5194
g69
(g70
g71
NtRp5195
(dp5196
g74
(dp5197
g82
I5
ssg83
g5191
sg76
(lp5198
g69
(g78
g71
NtRp5199
(dp5200
g74
(dp5201
g82
I4
ssg83
Nsg76
(lp5202
g69
(g85
g71
NtRp5203
(dp5204
g74
(dp5205
sg83
g5199
sg76
(lp5206
g69
(g90
g71
NtRp5207
(dp5208
g74
(dp5209
sg83
g5203
sg76
(lp5210
g69
(g70
g71
NtRp5211
(dp5212
g74
(dp5213
g82
I4
ssg83
g5207
sg76
(lp5214
S'^\\w+\\.py$'
p5215
asbasbasbag69
(g85
g71
NtRp5216
(dp5217
g74
(dp5218
sg83
g5199
sg76
(lp5219
g69
(g90
g71
NtRp5220
(dp5221
g74
(dp5222
sg83
g5216
sg76
(lp5223
g69
(g70
g71
NtRp5224
(dp5225
g74
(dp5226
g82
I4
ssg83
g5220
sg76
(lp5227
S'^default/\\w+\\.py$'
p5228
asbasbasbag69
(g85
g71
NtRp5229
(dp5230
g74
(dp5231
sg83
g5199
sg76
(lp5232
g69
(g90
g71
NtRp5233
(dp5234
g74
(dp5235
sg83
g5229
sg76
(lp5236
g69
(g70
g71
NtRp5237
(dp5238
g74
(dp5239
g82
I4
ssg83
g5233
sg76
(lp5240
S'^default/user/\\w+\\.py$'
p5241
asbasbasbasbasbasbasbag69
(g85
g71
NtRp5242
(dp5243
g74
(dp5244
sg83
g3912
sg76
(lp5245
g69
(g90
g71
NtRp5246
(dp5247
g74
(dp5248
g94
g95
ssg83
g5242
sg76
(lp5249
S'postprocessing'
p5250
asbag69
(g90
g71
NtRp5251
(dp5252
g74
(dp5253
g101
g102
ssg83
g5242
sg76
(lp5254
S':'
asbag69
(g90
g71
NtRp5255
(dp5256
g74
(dp5257
sg83
g5242
sg76
(lp5258
g69
(g70
g71
NtRp5259
(dp5260
g74
(dp5261
g82
I5
ssg83
g5255
sg76
(lp5262
g69
(g78
g71
NtRp5263
(dp5264
g74
(dp5265
g82
I4
ssg83
Nsg76
(lp5266
sbasbasbasbag69
(g85
g71
NtRp5267
(dp5268
g74
(dp5269
sg83
g3912
sg76
(lp5270
g69
(g90
g71
NtRp5271
(dp5272
g74
(dp5273
g94
g95
ssg83
g5267
sg76
(lp5274
S'session_cookie_expires'
p5275
asbag69
(g90
g71
NtRp5276
(dp5277
g74
(dp5278
g101
g102
ssg83
g5267
sg76
(lp5279
S':'
asbag69
(g90
g71
NtRp5280
(dp5281
g74
(dp5282
sg83
g5267
sg76
(lp5283
g69
(g70
g71
NtRp5284
(dp5285
g74
(dp5286
g82
I5
ssg83
g5280
sg76
(lp5287
S'None'
p5288
asbasbasbag69
(g85
g71
NtRp5289
(dp5290
g74
(dp5291
sg83
g3912
sg76
(lp5292
g69
(g90
g71
NtRp5293
(dp5294
g74
(dp5295
g94
g95
ssg83
g5289
sg76
(lp5296
S'session_data_name'
p5297
asbag69
(g90
g71
NtRp5298
(dp5299
g74
(dp5300
g101
g102
ssg83
g5289
sg76
(lp5301
S':'
asbag69
(g90
g71
NtRp5302
(dp5303
g74
(dp5304
sg83
g5289
sg76
(lp5305
g69
(g70
g71
NtRp5306
(dp5307
g74
(dp5308
g82
I5
ssg83
g5302
sg76
(lp5309
S'session_data_assignment_2'
p5310
asbasbasbag69
(g85
g71
NtRp5311
(dp5312
g74
(dp5313
sg83
g3912
sg76
(lp5314
g69
(g90
g71
NtRp5315
(dp5316
g74
(dp5317
g94
g95
ssg83
g5311
sg76
(lp5318
S'session_file'
p5319
asbag69
(g90
g71
NtRp5320
(dp5321
g74
(dp5322
g101
g102
ssg83
g5311
sg76
(lp5323
S':'
asbag69
(g90
g71
NtRp5324
(dp5325
g74
(dp5326
sg83
g5311
sg76
(lp5327
g69
(g70
g71
NtRp5328
(dp5329
g74
(dp5330
g82
I5
ssg83
g5324
sg76
(lp5331
S"<open file '/home/shipra/Desktop/Semester 1.2/ITWS-2/web2py/applications/Assignment_2/sessions/127.0.0.1-a1ea54ad-1f50-4df2-bed9-5564e0abdc15', mode 'rb+' at 0x7f40f8061b70>"
p5332
asbasbasbag69
(g85
g71
NtRp5333
(dp5334
g74
(dp5335
sg83
g3912
sg76
(lp5336
g69
(g90
g71
NtRp5337
(dp5338
g74
(dp5339
g94
g95
ssg83
g5333
sg76
(lp5340
S'session_filename'
p5341
asbag69
(g90
g71
NtRp5342
(dp5343
g74
(dp5344
g101
g102
ssg83
g5333
sg76
(lp5345
S':'
asbag69
(g90
g71
NtRp5346
(dp5347
g74
(dp5348
sg83
g5333
sg76
(lp5349
g69
(g70
g71
NtRp5350
(dp5351
g74
(dp5352
g82
I5
ssg83
g5346
sg76
(lp5353
S'/home/shipra/Desktop/Semester 1.2/ITWS-2/web2py/applications/Assignment_2/sessions/127.0.0.1-a1ea54ad-1f50-4df2-bed9-5564e0abdc15'
p5354
asbasbasbag69
(g85
g71
NtRp5355
(dp5356
g74
(dp5357
sg83
g3912
sg76
(lp5358
g69
(g90
g71
NtRp5359
(dp5360
g74
(dp5361
g94
g95
ssg83
g5355
sg76
(lp5362
S'session_id'
p5363
asbag69
(g90
g71
NtRp5364
(dp5365
g74
(dp5366
g101
g102
ssg83
g5355
sg76
(lp5367
S':'
asbag69
(g90
g71
NtRp5368
(dp5369
g74
(dp5370
sg83
g5355
sg76
(lp5371
g69
(g70
g71
NtRp5372
(dp5373
g74
(dp5374
g82
I5
ssg83
g5368
sg76
(lp5375
g686
asbasbasbag69
(g85
g71
NtRp5376
(dp5377
g74
(dp5378
sg83
g3912
sg76
(lp5379
g69
(g90
g71
NtRp5380
(dp5381
g74
(dp5382
g94
g95
ssg83
g5376
sg76
(lp5383
S'session_id_name'
p5384
asbag69
(g90
g71
NtRp5385
(dp5386
g74
(dp5387
g101
g102
ssg83
g5376
sg76
(lp5388
S':'
asbag69
(g90
g71
NtRp5389
(dp5390
g74
(dp5391
sg83
g5376
sg76
(lp5392
g69
(g70
g71
NtRp5393
(dp5394
g74
(dp5395
g82
I5
ssg83
g5389
sg76
(lp5396
g3969
asbasbasbag69
(g85
g71
NtRp5397
(dp5398
g74
(dp5399
sg83
g3912
sg76
(lp5400
g69
(g90
g71
NtRp5401
(dp5402
g74
(dp5403
g94
g95
ssg83
g5397
sg76
(lp5404
S'session_locked'
p5405
asbag69
(g90
g71
NtRp5406
(dp5407
g74
(dp5408
g101
g102
ssg83
g5397
sg76
(lp5409
S':'
asbag69
(g90
g71
NtRp5410
(dp5411
g74
(dp5412
sg83
g5397
sg76
(lp5413
g69
(g70
g71
NtRp5414
(dp5415
g74
(dp5416
g82
I5
ssg83
g5410
sg76
(lp5417
g1986
asbasbasbag69
(g85
g71
NtRp5418
(dp5419
g74
(dp5420
sg83
g3912
sg76
(lp5421
g69
(g90
g71
NtRp5422
(dp5423
g74
(dp5424
g94
g95
ssg83
g5418
sg76
(lp5425
S'session_new'
p5426
asbag69
(g90
g71
NtRp5427
(dp5428
g74
(dp5429
g101
g102
ssg83
g5418
sg76
(lp5430
S':'
asbag69
(g90
g71
NtRp5431
(dp5432
g74
(dp5433
sg83
g5418
sg76
(lp5434
g69
(g70
g71
NtRp5435
(dp5436
g74
(dp5437
g82
I5
ssg83
g5431
sg76
(lp5438
g112
asbasbasbag69
(g85
g71
NtRp5439
(dp5440
g74
(dp5441
sg83
g3912
sg76
(lp5442
g69
(g90
g71
NtRp5443
(dp5444
g74
(dp5445
g94
g95
ssg83
g5439
sg76
(lp5446
S'session_storage_type'
p5447
asbag69
(g90
g71
NtRp5448
(dp5449
g74
(dp5450
g101
g102
ssg83
g5439
sg76
(lp5451
S':'
asbag69
(g90
g71
NtRp5452
(dp5453
g74
(dp5454
sg83
g5439
sg76
(lp5455
g69
(g70
g71
NtRp5456
(dp5457
g74
(dp5458
g82
I5
ssg83
g5452
sg76
(lp5459
g3420
asbasbasbag69
(g85
g71
NtRp5460
(dp5461
g74
(dp5462
sg83
g3912
sg76
(lp5463
g69
(g90
g71
NtRp5464
(dp5465
g74
(dp5466
g94
g95
ssg83
g5460
sg76
(lp5467
S'status'
p5468
asbag69
(g90
g71
NtRp5469
(dp5470
g74
(dp5471
g101
g102
ssg83
g5460
sg76
(lp5472
S':'
asbag69
(g90
g71
NtRp5473
(dp5474
g74
(dp5475
sg83
g5460
sg76
(lp5476
g69
(g70
g71
NtRp5477
(dp5478
g74
(dp5479
g82
I5
ssg83
g5473
sg76
(lp5480
S'200'
p5481
asbasbasbag69
(g85
g71
NtRp5482
(dp5483
g74
(dp5484
sg83
g3912
sg76
(lp5485
g69
(g90
g71
NtRp5486
(dp5487
g74
(dp5488
g94
g95
ssg83
g5482
sg76
(lp5489
S'subtitle'
p5490
asbag69
(g90
g71
NtRp5491
(dp5492
g74
(dp5493
g101
g102
ssg83
g5482
sg76
(lp5494
S':'
asbag69
(g90
g71
NtRp5495
(dp5496
g74
(dp5497
sg83
g5482
sg76
(lp5498
g69
(g70
g71
NtRp5499
(dp5500
g74
(dp5501
g82
I5
ssg83
g5495
sg76
(lp5502
g4446
(S's\r\x00\x00\x00customize me!'
tRp5503
asbasbasbag69
(g85
g71
NtRp5504
(dp5505
g74
(dp5506
sg83
g3912
sg76
(lp5507
g69
(g90
g71
NtRp5508
(dp5509
g74
(dp5510
g94
g95
ssg83
g5504
sg76
(lp5511
S'title'
p5512
asbag69
(g90
g71
NtRp5513
(dp5514
g74
(dp5515
g101
g102
ssg83
g5504
sg76
(lp5516
S':'
asbag69
(g90
g71
NtRp5517
(dp5518
g74
(dp5519
sg83
g5504
sg76
(lp5520
g69
(g70
g71
NtRp5521
(dp5522
g74
(dp5523
g82
I5
ssg83
g5517
sg76
(lp5524
S'Assignment 2'
p5525
asbasbasbag69
(g85
g71
NtRp5526
(dp5527
g74
(dp5528
sg83
g3912
sg76
(lp5529
g69
(g90
g71
NtRp5530
(dp5531
g74
(dp5532
g94
g95
ssg83
g5526
sg76
(lp5533
S'view'
p5534
asbag69
(g90
g71
NtRp5535
(dp5536
g74
(dp5537
g101
g102
ssg83
g5526
sg76
(lp5538
S':'
asbag69
(g90
g71
NtRp5539
(dp5540
g74
(dp5541
sg83
g5526
sg76
(lp5542
g69
(g70
g71
NtRp5543
(dp5544
g74
(dp5545
g82
I5
ssg83
g5539
sg76
(lp5546
S'default/user.html'
p5547
asbasbasbasbasbsS'locals'
p5548
(dp5549
g4
S"'/home/shipra/Desktop/Semester 1.2/ITWS-2/web2py/applications/Assignment_2/controllers/default.py'"
p5550
sg6
S"'# -*- coding: utf-8 -*-\\n# this file is released ...m=crud())\\n\\nresponse._vars=response._caller(user)\\n'"
p5551
sssS'traceback'
p5552
S'Traceback (most recent call last):\n  File "/home/shipra/Desktop/Semester 1.2/ITWS-2/web2py/gluon/restricted.py", line 211, in restricted\n    ccode = compile2(code, layer)\n  File "/home/shipra/Desktop/Semester 1.2/ITWS-2/web2py/gluon/restricted.py", line 194, in compile2\n    return compile(code.rstrip().replace(\'\\r\\n\', \'\\n\') + \'\\n\', layer, \'exec\')\n  File "/home/shipra/Desktop/Semester 1.2/ITWS-2/web2py/applications/Assignment_2/controllers/default.py", line 27\n    else:\n        ^\nIndentationError: unindent does not match any outer indentation level\n'
p5553
s.