(dp1
S'output'
p2
S"<type 'exceptions.IndentationError'> unexpected indent (default.py, line 15)"
p3
sS'layer'
p4
S'/home/shipra/Desktop/Semester 1.2/ITWS-2/web2py/applications/Assignment_2/controllers/default.py'
p5
sS'code'
p6
S'# -*- coding: utf-8 -*-\n# this file is released under public domain and you can use without limitations\n\n#########################################################################\n## This is a samples controller\n## - index is the default action of any application\n## - user is required for authentication and authorization\n## - download is for downloading files uploaded in the db (does streaming)\n## - call exposes all registered services (none by default)\n#########################################################################\n\n@auth.requires_login()\ndef index():\n    \'auth\' in globals()\n     if auth.user:\n     \t\tc1=auth.user_id\n    \t\tresponse.flash=T("Welcome to web2py!")\n    \t\tif(c1==3):\n\t\t    redirect(URL(\'admin\'))\n   \t\telse:\n\t\t    redirect(URL(\'client\'))\n    return locals()\n\ndef admin():\n\treturn locals()\ndef user():\n    """\n    exposes:\n    http://..../[app]/default/user/login\n    http://..../[app]/default/user/logout\n    http://..../[app]/default/user/register\n    http://..../[app]/default/user/profile\n    http://..../[app]/default/user/retrieve_password\n    http://..../[app]/default/user/change_password\n    use @auth.requires_login()\n        @auth.requires_membership(\'group name\')\n        @auth.requires_permission(\'read\',\'table name\',record_id)\n    to decorate functions that need access control\n    """\n    return dict(form=auth())\ndef client():\n\treturn locals()\n\ndef download():\n    """\n    allows downloading of uploaded files\n    http://..../[app]/default/download/[filename]\n    """\n    return response.download(request, db)\n\n\ndef call():\n    """\n    exposes services. for example:\n    http://..../[app]/default/call/jsonrpc\n    decorate with @services.jsonrpc the functions to expose\n    supports xml, json, xmlrpc, jsonrpc, amfrpc, rss, csv\n    """\n    return service()\n\n\n@auth.requires_signature()\ndef data():\n    """\n    http://..../[app]/default/data/tables\n    http://..../[app]/default/data/create/[table]\n    http://..../[app]/default/data/read/[table]/[id]\n    http://..../[app]/default/data/update/[table]/[id]\n    http://..../[app]/default/data/delete/[table]/[id]\n    http://..../[app]/default/data/select/[table]\n    http://..../[app]/default/data/search/[table]\n    but URLs must be signed, i.e. linked with\n      A(\'table\',_href=URL(\'data/tables\',user_signature=True))\n    or with the signed load operator\n      LOAD(\'default\',\'data.load\',args=\'tables\',ajax=True,user_signature=True)\n    """\n    return dict(form=crud())\n\nresponse._vars=response._caller(client)\n'
p7
sS'snapshot'
p8
(dp9
S'exception'
p10
(dp11
S'__getslice__'
p12
S"<method-wrapper '__getslice__' of exceptions.IndentationError object>"
p13
sS'text'
p14
S"'     if auth.user:\\n'"
p15
sS'__str__'
p16
S"<method-wrapper '__str__' of exceptions.IndentationError object>"
p17
sS'__reduce__'
p18
S'<built-in method __reduce__ of exceptions.IndentationError object>'
p19
sS'__dict__'
p20
S'{}'
p21
sS'__sizeof__'
p22
S'<built-in method __sizeof__ of exceptions.IndentationError object>'
p23
sS'__init__'
p24
S"<method-wrapper '__init__' of exceptions.IndentationError object>"
p25
sS'__setattr__'
p26
S"<method-wrapper '__setattr__' of exceptions.IndentationError object>"
p27
sS'__reduce_ex__'
p28
S'<built-in method __reduce_ex__ of exceptions.IndentationError object>'
p29
sS'__new__'
p30
S'<built-in method __new__ of type object>'
p31
sS'__format__'
p32
S'<built-in method __format__ of exceptions.IndentationError object>'
p33
sS'__class__'
p34
S"<type 'exceptions.IndentationError'>"
p35
sS'filename'
p36
S"'/home/shipra/Desktop/Semester 1.2/ITWS-2/web2py/applications/Assignment_2/controllers/default.py'"
p37
sS'lineno'
p38
S'15'
p39
sS'msg'
p40
S"'unexpected indent'"
p41
sS'__doc__'
p42
S"'Improper indentation.'"
p43
sS'__getitem__'
p44
S"<method-wrapper '__getitem__' of exceptions.IndentationError object>"
p45
sS'__setstate__'
p46
S'<built-in method __setstate__ of exceptions.IndentationError object>'
p47
sS'__getattribute__'
p48
S"<method-wrapper '__getattribute__' of exceptions.IndentationError object>"
p49
sS'print_file_and_line'
p50
S'None'
p51
sS'args'
p52
S"('unexpected indent', ('/home/shipra/Desktop/Semester 1.2/ITWS-2/web2py/applications/Assignment_2/controllers/default.py', 15, 5, '     if auth.user:\\n'))"
p53
sS'__subclasshook__'
p54
S'<built-in method __subclasshook__ of type object>'
p55
sS'offset'
p56
S'5'
sS'__unicode__'
p57
S'<built-in method __unicode__ of exceptions.IndentationError object>'
p58
sS'__delattr__'
p59
S"<method-wrapper '__delattr__' of exceptions.IndentationError object>"
p60
sS'__repr__'
p61
S"<method-wrapper '__repr__' of exceptions.IndentationError object>"
p62
sS'__hash__'
p63
S"<method-wrapper '__hash__' of exceptions.IndentationError object>"
p64
ssS'evalue'
p65
S'unexpected indent (default.py, line 15)'
p66
sS'request'
p67
ccopy_reg
_reconstructor
p68
(cgluon.html
BEAUTIFY
p69
c__builtin__
object
p70
NtRp71
(dp72
S'attributes'
p73
(dp74
sS'components'
p75
(lp76
g68
(cgluon.html
TABLE
p77
g70
NtRp78
(dp79
g73
(dp80
S'level'
p81
I5
ssS'parent'
p82
Nsg75
(lp83
g68
(cgluon.html
TR
p84
g70
NtRp85
(dp86
g73
(dp87
sg82
g78
sg75
(lp88
g68
(cgluon.html
TD
p89
g70
NtRp90
(dp91
g73
(dp92
S'_style'
p93
S'font-weight:bold;vertical-align:top'
p94
ssg82
g85
sg75
(lp95
S'ajax'
p96
asbag68
(g89
g70
NtRp97
(dp98
g73
(dp99
S'_valign'
p100
S'top'
p101
ssg82
g85
sg75
(lp102
S':'
asbag68
(g89
g70
NtRp103
(dp104
g73
(dp105
sg82
g85
sg75
(lp106
g68
(g69
g70
NtRp107
(dp108
g73
(dp109
g81
I5
ssg82
g103
sg75
(lp110
S'False'
p111
asbasbasbag68
(g84
g70
NtRp112
(dp113
g73
(dp114
sg82
g78
sg75
(lp115
g68
(g89
g70
NtRp116
(dp117
g73
(dp118
g93
g94
ssg82
g112
sg75
(lp119
S'application'
p120
asbag68
(g89
g70
NtRp121
(dp122
g73
(dp123
g100
g101
ssg82
g112
sg75
(lp124
S':'
asbag68
(g89
g70
NtRp125
(dp126
g73
(dp127
sg82
g112
sg75
(lp128
g68
(g69
g70
NtRp129
(dp130
g73
(dp131
g81
I5
ssg82
g125
sg75
(lp132
S'Assignment_2'
p133
asbasbasbag68
(g84
g70
NtRp134
(dp135
g73
(dp136
sg82
g78
sg75
(lp137
g68
(g89
g70
NtRp138
(dp139
g73
(dp140
g93
g94
ssg82
g134
sg75
(lp141
g52
asbag68
(g89
g70
NtRp142
(dp143
g73
(dp144
g100
g101
ssg82
g134
sg75
(lp145
S':'
asbag68
(g89
g70
NtRp146
(dp147
g73
(dp148
sg82
g134
sg75
(lp149
g68
(g69
g70
NtRp150
(dp151
g73
(dp152
g81
I5
ssg82
g146
sg75
(lp153
g68
(g77
g70
NtRp154
(dp155
g73
(dp156
g81
I4
ssg82
Nsg75
(lp157
sbasbasbasbag68
(g84
g70
NtRp158
(dp159
g73
(dp160
sg82
g78
sg75
(lp161
g68
(g89
g70
NtRp162
(dp163
g73
(dp164
g93
g94
ssg82
g158
sg75
(lp165
S'body'
p166
asbag68
(g89
g70
NtRp167
(dp168
g73
(dp169
g100
g101
ssg82
g158
sg75
(lp170
S':'
asbag68
(g89
g70
NtRp171
(dp172
g73
(dp173
sg82
g158
sg75
(lp174
g68
(g69
g70
NtRp175
(dp176
g73
(dp177
g81
I5
ssg82
g171
sg75
(lp178
S'<cStringIO.StringO object at 0x7f40fc3bce30>'
p179
asbasbasbag68
(g84
g70
NtRp180
(dp181
g73
(dp182
sg82
g78
sg75
(lp183
g68
(g89
g70
NtRp184
(dp185
g73
(dp186
g93
g94
ssg82
g180
sg75
(lp187
S'cid'
p188
asbag68
(g89
g70
NtRp189
(dp190
g73
(dp191
g100
g101
ssg82
g180
sg75
(lp192
S':'
asbag68
(g89
g70
NtRp193
(dp194
g73
(dp195
sg82
g180
sg75
(lp196
g68
(g69
g70
NtRp197
(dp198
g73
(dp199
g81
I5
ssg82
g193
sg75
(lp200
S'None'
p201
asbasbasbag68
(g84
g70
NtRp202
(dp203
g73
(dp204
sg82
g78
sg75
(lp205
g68
(g89
g70
NtRp206
(dp207
g73
(dp208
g93
g94
ssg82
g202
sg75
(lp209
S'client'
p210
asbag68
(g89
g70
NtRp211
(dp212
g73
(dp213
g100
g101
ssg82
g202
sg75
(lp214
S':'
asbag68
(g89
g70
NtRp215
(dp216
g73
(dp217
sg82
g202
sg75
(lp218
g68
(g69
g70
NtRp219
(dp220
g73
(dp221
g81
I5
ssg82
g215
sg75
(lp222
S'127.0.0.1'
p223
asbasbasbag68
(g84
g70
NtRp224
(dp225
g73
(dp226
sg82
g78
sg75
(lp227
g68
(g89
g70
NtRp228
(dp229
g73
(dp230
g93
g94
ssg82
g224
sg75
(lp231
S'controller'
p232
asbag68
(g89
g70
NtRp233
(dp234
g73
(dp235
g100
g101
ssg82
g224
sg75
(lp236
S':'
asbag68
(g89
g70
NtRp237
(dp238
g73
(dp239
sg82
g224
sg75
(lp240
g68
(g69
g70
NtRp241
(dp242
g73
(dp243
g81
I5
ssg82
g237
sg75
(lp244
S'default'
p245
asbasbasbag68
(g84
g70
NtRp246
(dp247
g73
(dp248
sg82
g78
sg75
(lp249
g68
(g89
g70
NtRp250
(dp251
g73
(dp252
g93
g94
ssg82
g246
sg75
(lp253
S'cookies'
p254
asbag68
(g89
g70
NtRp255
(dp256
g73
(dp257
g100
g101
ssg82
g246
sg75
(lp258
S':'
asbag68
(g89
g70
NtRp259
(dp260
g73
(dp261
sg82
g246
sg75
(lp262
g68
(g69
g70
NtRp263
(dp264
g73
(dp265
g81
I5
ssg82
g259
sg75
(lp266
g68
(g77
g70
NtRp267
(dp268
g73
(dp269
g81
I4
ssg82
Nsg75
(lp270
g68
(g84
g70
NtRp271
(dp272
g73
(dp273
sg82
g267
sg75
(lp274
g68
(g89
g70
NtRp275
(dp276
g73
(dp277
g93
g94
ssg82
g271
sg75
(lp278
S'mp_2093ad9ff9c5428a2228386de2f2b0e4_mixpanel'
p279
asbag68
(g89
g70
NtRp280
(dp281
g73
(dp282
g100
g101
ssg82
g271
sg75
(lp283
S':'
asbag68
(g89
g70
NtRp284
(dp285
g73
(dp286
sg82
g271
sg75
(lp287
g68
(g69
g70
NtRp288
(dp289
g73
(dp290
g81
I4
ssg82
g284
sg75
(lp291
S'%7B%22distinct_id%22%3A%20%2262ffc2d0-7b9f-0130-efb0-22000a1cbb2a%22%2C%22is_registered_user%22%3A%20false%2C%22%24initial_referrer%22%3A%20%22%24direct%22%2C%22%24initial_referring_domain%22%3A%20%22%24direct%22%7D'
p292
ag68
(g77
g70
NtRp293
(dp294
g73
(dp295
g81
I3
ssg82
Nsg75
(lp296
g68
(g84
g70
NtRp297
(dp298
g73
(dp299
sg82
g293
sg75
(lp300
g68
(g89
g70
NtRp301
(dp302
g73
(dp303
g93
g94
ssg82
g297
sg75
(lp304
S'comment'
p305
asbag68
(g89
g70
NtRp306
(dp307
g73
(dp308
g100
g101
ssg82
g297
sg75
(lp309
S':'
asbag68
(g89
g70
NtRp310
(dp311
g73
(dp312
sg82
g297
sg75
(lp313
g68
(g69
g70
NtRp314
(dp315
g73
(dp316
g81
I3
ssg82
g310
sg75
(lp317
S''
asbasbasbag68
(g84
g70
NtRp318
(dp319
g73
(dp320
sg82
g293
sg75
(lp321
g68
(g89
g70
NtRp322
(dp323
g73
(dp324
g93
g94
ssg82
g318
sg75
(lp325
S'domain'
p326
asbag68
(g89
g70
NtRp327
(dp328
g73
(dp329
g100
g101
ssg82
g318
sg75
(lp330
S':'
asbag68
(g89
g70
NtRp331
(dp332
g73
(dp333
sg82
g318
sg75
(lp334
g68
(g69
g70
NtRp335
(dp336
g73
(dp337
g81
I3
ssg82
g331
sg75
(lp338
S''
asbasbasbag68
(g84
g70
NtRp339
(dp340
g73
(dp341
sg82
g293
sg75
(lp342
g68
(g89
g70
NtRp343
(dp344
g73
(dp345
g93
g94
ssg82
g339
sg75
(lp346
S'expires'
p347
asbag68
(g89
g70
NtRp348
(dp349
g73
(dp350
g100
g101
ssg82
g339
sg75
(lp351
S':'
asbag68
(g89
g70
NtRp352
(dp353
g73
(dp354
sg82
g339
sg75
(lp355
g68
(g69
g70
NtRp356
(dp357
g73
(dp358
g81
I3
ssg82
g352
sg75
(lp359
S''
asbasbasbag68
(g84
g70
NtRp360
(dp361
g73
(dp362
sg82
g293
sg75
(lp363
g68
(g89
g70
NtRp364
(dp365
g73
(dp366
g93
g94
ssg82
g360
sg75
(lp367
S'httponly'
p368
asbag68
(g89
g70
NtRp369
(dp370
g73
(dp371
g100
g101
ssg82
g360
sg75
(lp372
S':'
asbag68
(g89
g70
NtRp373
(dp374
g73
(dp375
sg82
g360
sg75
(lp376
g68
(g69
g70
NtRp377
(dp378
g73
(dp379
g81
I3
ssg82
g373
sg75
(lp380
S''
asbasbasbag68
(g84
g70
NtRp381
(dp382
g73
(dp383
sg82
g293
sg75
(lp384
g68
(g89
g70
NtRp385
(dp386
g73
(dp387
g93
g94
ssg82
g381
sg75
(lp388
S'max-age'
p389
asbag68
(g89
g70
NtRp390
(dp391
g73
(dp392
g100
g101
ssg82
g381
sg75
(lp393
S':'
asbag68
(g89
g70
NtRp394
(dp395
g73
(dp396
sg82
g381
sg75
(lp397
g68
(g69
g70
NtRp398
(dp399
g73
(dp400
g81
I3
ssg82
g394
sg75
(lp401
S''
asbasbasbag68
(g84
g70
NtRp402
(dp403
g73
(dp404
sg82
g293
sg75
(lp405
g68
(g89
g70
NtRp406
(dp407
g73
(dp408
g93
g94
ssg82
g402
sg75
(lp409
S'path'
p410
asbag68
(g89
g70
NtRp411
(dp412
g73
(dp413
g100
g101
ssg82
g402
sg75
(lp414
S':'
asbag68
(g89
g70
NtRp415
(dp416
g73
(dp417
sg82
g402
sg75
(lp418
g68
(g69
g70
NtRp419
(dp420
g73
(dp421
g81
I3
ssg82
g415
sg75
(lp422
S''
asbasbasbag68
(g84
g70
NtRp423
(dp424
g73
(dp425
sg82
g293
sg75
(lp426
g68
(g89
g70
NtRp427
(dp428
g73
(dp429
g93
g94
ssg82
g423
sg75
(lp430
S'secure'
p431
asbag68
(g89
g70
NtRp432
(dp433
g73
(dp434
g100
g101
ssg82
g423
sg75
(lp435
S':'
asbag68
(g89
g70
NtRp436
(dp437
g73
(dp438
sg82
g423
sg75
(lp439
g68
(g69
g70
NtRp440
(dp441
g73
(dp442
g81
I3
ssg82
g436
sg75
(lp443
S''
asbasbasbag68
(g84
g70
NtRp444
(dp445
g73
(dp446
sg82
g293
sg75
(lp447
g68
(g89
g70
NtRp448
(dp449
g73
(dp450
g93
g94
ssg82
g444
sg75
(lp451
S'version'
p452
asbag68
(g89
g70
NtRp453
(dp454
g73
(dp455
g100
g101
ssg82
g444
sg75
(lp456
S':'
asbag68
(g89
g70
NtRp457
(dp458
g73
(dp459
sg82
g444
sg75
(lp460
g68
(g69
g70
NtRp461
(dp462
g73
(dp463
g81
I3
ssg82
g457
sg75
(lp464
S''
asbasbasbasbasbasbasbag68
(g84
g70
NtRp465
(dp466
g73
(dp467
sg82
g267
sg75
(lp468
g68
(g89
g70
NtRp469
(dp470
g73
(dp471
g93
g94
ssg82
g465
sg75
(lp472
S'session_id_admin'
p473
asbag68
(g89
g70
NtRp474
(dp475
g73
(dp476
g100
g101
ssg82
g465
sg75
(lp477
S':'
asbag68
(g89
g70
NtRp478
(dp479
g73
(dp480
sg82
g465
sg75
(lp481
g68
(g69
g70
NtRp482
(dp483
g73
(dp484
g81
I4
ssg82
g478
sg75
(lp485
S'127.0.0.1-dc460202-62d9-43ac-881c-17f356e5f59c'
p486
ag68
(g77
g70
NtRp487
(dp488
g73
(dp489
g81
I3
ssg82
Nsg75
(lp490
g68
(g84
g70
NtRp491
(dp492
g73
(dp493
sg82
g487
sg75
(lp494
g68
(g89
g70
NtRp495
(dp496
g73
(dp497
g93
g94
ssg82
g491
sg75
(lp498
g305
asbag68
(g89
g70
NtRp499
(dp500
g73
(dp501
g100
g101
ssg82
g491
sg75
(lp502
S':'
asbag68
(g89
g70
NtRp503
(dp504
g73
(dp505
sg82
g491
sg75
(lp506
g68
(g69
g70
NtRp507
(dp508
g73
(dp509
g81
I3
ssg82
g503
sg75
(lp510
S''
asbasbasbag68
(g84
g70
NtRp511
(dp512
g73
(dp513
sg82
g487
sg75
(lp514
g68
(g89
g70
NtRp515
(dp516
g73
(dp517
g93
g94
ssg82
g511
sg75
(lp518
g326
asbag68
(g89
g70
NtRp519
(dp520
g73
(dp521
g100
g101
ssg82
g511
sg75
(lp522
S':'
asbag68
(g89
g70
NtRp523
(dp524
g73
(dp525
sg82
g511
sg75
(lp526
g68
(g69
g70
NtRp527
(dp528
g73
(dp529
g81
I3
ssg82
g523
sg75
(lp530
S''
asbasbasbag68
(g84
g70
NtRp531
(dp532
g73
(dp533
sg82
g487
sg75
(lp534
g68
(g89
g70
NtRp535
(dp536
g73
(dp537
g93
g94
ssg82
g531
sg75
(lp538
g347
asbag68
(g89
g70
NtRp539
(dp540
g73
(dp541
g100
g101
ssg82
g531
sg75
(lp542
S':'
asbag68
(g89
g70
NtRp543
(dp544
g73
(dp545
sg82
g531
sg75
(lp546
g68
(g69
g70
NtRp547
(dp548
g73
(dp549
g81
I3
ssg82
g543
sg75
(lp550
S''
asbasbasbag68
(g84
g70
NtRp551
(dp552
g73
(dp553
sg82
g487
sg75
(lp554
g68
(g89
g70
NtRp555
(dp556
g73
(dp557
g93
g94
ssg82
g551
sg75
(lp558
g368
asbag68
(g89
g70
NtRp559
(dp560
g73
(dp561
g100
g101
ssg82
g551
sg75
(lp562
S':'
asbag68
(g89
g70
NtRp563
(dp564
g73
(dp565
sg82
g551
sg75
(lp566
g68
(g69
g70
NtRp567
(dp568
g73
(dp569
g81
I3
ssg82
g563
sg75
(lp570
S''
asbasbasbag68
(g84
g70
NtRp571
(dp572
g73
(dp573
sg82
g487
sg75
(lp574
g68
(g89
g70
NtRp575
(dp576
g73
(dp577
g93
g94
ssg82
g571
sg75
(lp578
g389
asbag68
(g89
g70
NtRp579
(dp580
g73
(dp581
g100
g101
ssg82
g571
sg75
(lp582
S':'
asbag68
(g89
g70
NtRp583
(dp584
g73
(dp585
sg82
g571
sg75
(lp586
g68
(g69
g70
NtRp587
(dp588
g73
(dp589
g81
I3
ssg82
g583
sg75
(lp590
S''
asbasbasbag68
(g84
g70
NtRp591
(dp592
g73
(dp593
sg82
g487
sg75
(lp594
g68
(g89
g70
NtRp595
(dp596
g73
(dp597
g93
g94
ssg82
g591
sg75
(lp598
g410
asbag68
(g89
g70
NtRp599
(dp600
g73
(dp601
g100
g101
ssg82
g591
sg75
(lp602
S':'
asbag68
(g89
g70
NtRp603
(dp604
g73
(dp605
sg82
g591
sg75
(lp606
g68
(g69
g70
NtRp607
(dp608
g73
(dp609
g81
I3
ssg82
g603
sg75
(lp610
S''
asbasbasbag68
(g84
g70
NtRp611
(dp612
g73
(dp613
sg82
g487
sg75
(lp614
g68
(g89
g70
NtRp615
(dp616
g73
(dp617
g93
g94
ssg82
g611
sg75
(lp618
g431
asbag68
(g89
g70
NtRp619
(dp620
g73
(dp621
g100
g101
ssg82
g611
sg75
(lp622
S':'
asbag68
(g89
g70
NtRp623
(dp624
g73
(dp625
sg82
g611
sg75
(lp626
g68
(g69
g70
NtRp627
(dp628
g73
(dp629
g81
I3
ssg82
g623
sg75
(lp630
S''
asbasbasbag68
(g84
g70
NtRp631
(dp632
g73
(dp633
sg82
g487
sg75
(lp634
g68
(g89
g70
NtRp635
(dp636
g73
(dp637
g93
g94
ssg82
g631
sg75
(lp638
g452
asbag68
(g89
g70
NtRp639
(dp640
g73
(dp641
g100
g101
ssg82
g631
sg75
(lp642
S':'
asbag68
(g89
g70
NtRp643
(dp644
g73
(dp645
sg82
g631
sg75
(lp646
g68
(g69
g70
NtRp647
(dp648
g73
(dp649
g81
I3
ssg82
g643
sg75
(lp650
S''
asbasbasbasbasbasbasbag68
(g84
g70
NtRp651
(dp652
g73
(dp653
sg82
g267
sg75
(lp654
g68
(g89
g70
NtRp655
(dp656
g73
(dp657
g93
g94
ssg82
g651
sg75
(lp658
S'session_id_assignment_2'
p659
asbag68
(g89
g70
NtRp660
(dp661
g73
(dp662
g100
g101
ssg82
g651
sg75
(lp663
S':'
asbag68
(g89
g70
NtRp664
(dp665
g73
(dp666
sg82
g651
sg75
(lp667
g68
(g69
g70
NtRp668
(dp669
g73
(dp670
g81
I4
ssg82
g664
sg75
(lp671
S'127.0.0.1-a1ea54ad-1f50-4df2-bed9-5564e0abdc15'
p672
ag68
(g77
g70
NtRp673
(dp674
g73
(dp675
g81
I3
ssg82
Nsg75
(lp676
g68
(g84
g70
NtRp677
(dp678
g73
(dp679
sg82
g673
sg75
(lp680
g68
(g89
g70
NtRp681
(dp682
g73
(dp683
g93
g94
ssg82
g677
sg75
(lp684
g305
asbag68
(g89
g70
NtRp685
(dp686
g73
(dp687
g100
g101
ssg82
g677
sg75
(lp688
S':'
asbag68
(g89
g70
NtRp689
(dp690
g73
(dp691
sg82
g677
sg75
(lp692
g68
(g69
g70
NtRp693
(dp694
g73
(dp695
g81
I3
ssg82
g689
sg75
(lp696
S''
asbasbasbag68
(g84
g70
NtRp697
(dp698
g73
(dp699
sg82
g673
sg75
(lp700
g68
(g89
g70
NtRp701
(dp702
g73
(dp703
g93
g94
ssg82
g697
sg75
(lp704
g326
asbag68
(g89
g70
NtRp705
(dp706
g73
(dp707
g100
g101
ssg82
g697
sg75
(lp708
S':'
asbag68
(g89
g70
NtRp709
(dp710
g73
(dp711
sg82
g697
sg75
(lp712
g68
(g69
g70
NtRp713
(dp714
g73
(dp715
g81
I3
ssg82
g709
sg75
(lp716
S''
asbasbasbag68
(g84
g70
NtRp717
(dp718
g73
(dp719
sg82
g673
sg75
(lp720
g68
(g89
g70
NtRp721
(dp722
g73
(dp723
g93
g94
ssg82
g717
sg75
(lp724
g347
asbag68
(g89
g70
NtRp725
(dp726
g73
(dp727
g100
g101
ssg82
g717
sg75
(lp728
S':'
asbag68
(g89
g70
NtRp729
(dp730
g73
(dp731
sg82
g717
sg75
(lp732
g68
(g69
g70
NtRp733
(dp734
g73
(dp735
g81
I3
ssg82
g729
sg75
(lp736
S''
asbasbasbag68
(g84
g70
NtRp737
(dp738
g73
(dp739
sg82
g673
sg75
(lp740
g68
(g89
g70
NtRp741
(dp742
g73
(dp743
g93
g94
ssg82
g737
sg75
(lp744
g368
asbag68
(g89
g70
NtRp745
(dp746
g73
(dp747
g100
g101
ssg82
g737
sg75
(lp748
S':'
asbag68
(g89
g70
NtRp749
(dp750
g73
(dp751
sg82
g737
sg75
(lp752
g68
(g69
g70
NtRp753
(dp754
g73
(dp755
g81
I3
ssg82
g749
sg75
(lp756
S''
asbasbasbag68
(g84
g70
NtRp757
(dp758
g73
(dp759
sg82
g673
sg75
(lp760
g68
(g89
g70
NtRp761
(dp762
g73
(dp763
g93
g94
ssg82
g757
sg75
(lp764
g389
asbag68
(g89
g70
NtRp765
(dp766
g73
(dp767
g100
g101
ssg82
g757
sg75
(lp768
S':'
asbag68
(g89
g70
NtRp769
(dp770
g73
(dp771
sg82
g757
sg75
(lp772
g68
(g69
g70
NtRp773
(dp774
g73
(dp775
g81
I3
ssg82
g769
sg75
(lp776
S''
asbasbasbag68
(g84
g70
NtRp777
(dp778
g73
(dp779
sg82
g673
sg75
(lp780
g68
(g89
g70
NtRp781
(dp782
g73
(dp783
g93
g94
ssg82
g777
sg75
(lp784
g410
asbag68
(g89
g70
NtRp785
(dp786
g73
(dp787
g100
g101
ssg82
g777
sg75
(lp788
S':'
asbag68
(g89
g70
NtRp789
(dp790
g73
(dp791
sg82
g777
sg75
(lp792
g68
(g69
g70
NtRp793
(dp794
g73
(dp795
g81
I3
ssg82
g789
sg75
(lp796
S''
asbasbasbag68
(g84
g70
NtRp797
(dp798
g73
(dp799
sg82
g673
sg75
(lp800
g68
(g89
g70
NtRp801
(dp802
g73
(dp803
g93
g94
ssg82
g797
sg75
(lp804
g431
asbag68
(g89
g70
NtRp805
(dp806
g73
(dp807
g100
g101
ssg82
g797
sg75
(lp808
S':'
asbag68
(g89
g70
NtRp809
(dp810
g73
(dp811
sg82
g797
sg75
(lp812
g68
(g69
g70
NtRp813
(dp814
g73
(dp815
g81
I3
ssg82
g809
sg75
(lp816
S''
asbasbasbag68
(g84
g70
NtRp817
(dp818
g73
(dp819
sg82
g673
sg75
(lp820
g68
(g89
g70
NtRp821
(dp822
g73
(dp823
g93
g94
ssg82
g817
sg75
(lp824
g452
asbag68
(g89
g70
NtRp825
(dp826
g73
(dp827
g100
g101
ssg82
g817
sg75
(lp828
S':'
asbag68
(g89
g70
NtRp829
(dp830
g73
(dp831
sg82
g817
sg75
(lp832
g68
(g69
g70
NtRp833
(dp834
g73
(dp835
g81
I3
ssg82
g829
sg75
(lp836
S''
asbasbasbasbasbasbasbag68
(g84
g70
NtRp837
(dp838
g73
(dp839
sg82
g267
sg75
(lp840
g68
(g89
g70
NtRp841
(dp842
g73
(dp843
g93
g94
ssg82
g837
sg75
(lp844
S'session_id_welcome'
p845
asbag68
(g89
g70
NtRp846
(dp847
g73
(dp848
g100
g101
ssg82
g837
sg75
(lp849
S':'
asbag68
(g89
g70
NtRp850
(dp851
g73
(dp852
sg82
g837
sg75
(lp853
g68
(g69
g70
NtRp854
(dp855
g73
(dp856
g81
I4
ssg82
g850
sg75
(lp857
S'127.0.0.1-a1dcee7c-e184-4b24-994e-b9d344891f24'
p858
ag68
(g77
g70
NtRp859
(dp860
g73
(dp861
g81
I3
ssg82
Nsg75
(lp862
g68
(g84
g70
NtRp863
(dp864
g73
(dp865
sg82
g859
sg75
(lp866
g68
(g89
g70
NtRp867
(dp868
g73
(dp869
g93
g94
ssg82
g863
sg75
(lp870
g305
asbag68
(g89
g70
NtRp871
(dp872
g73
(dp873
g100
g101
ssg82
g863
sg75
(lp874
S':'
asbag68
(g89
g70
NtRp875
(dp876
g73
(dp877
sg82
g863
sg75
(lp878
g68
(g69
g70
NtRp879
(dp880
g73
(dp881
g81
I3
ssg82
g875
sg75
(lp882
S''
asbasbasbag68
(g84
g70
NtRp883
(dp884
g73
(dp885
sg82
g859
sg75
(lp886
g68
(g89
g70
NtRp887
(dp888
g73
(dp889
g93
g94
ssg82
g883
sg75
(lp890
g326
asbag68
(g89
g70
NtRp891
(dp892
g73
(dp893
g100
g101
ssg82
g883
sg75
(lp894
S':'
asbag68
(g89
g70
NtRp895
(dp896
g73
(dp897
sg82
g883
sg75
(lp898
g68
(g69
g70
NtRp899
(dp900
g73
(dp901
g81
I3
ssg82
g895
sg75
(lp902
S''
asbasbasbag68
(g84
g70
NtRp903
(dp904
g73
(dp905
sg82
g859
sg75
(lp906
g68
(g89
g70
NtRp907
(dp908
g73
(dp909
g93
g94
ssg82
g903
sg75
(lp910
g347
asbag68
(g89
g70
NtRp911
(dp912
g73
(dp913
g100
g101
ssg82
g903
sg75
(lp914
S':'
asbag68
(g89
g70
NtRp915
(dp916
g73
(dp917
sg82
g903
sg75
(lp918
g68
(g69
g70
NtRp919
(dp920
g73
(dp921
g81
I3
ssg82
g915
sg75
(lp922
S''
asbasbasbag68
(g84
g70
NtRp923
(dp924
g73
(dp925
sg82
g859
sg75
(lp926
g68
(g89
g70
NtRp927
(dp928
g73
(dp929
g93
g94
ssg82
g923
sg75
(lp930
g368
asbag68
(g89
g70
NtRp931
(dp932
g73
(dp933
g100
g101
ssg82
g923
sg75
(lp934
S':'
asbag68
(g89
g70
NtRp935
(dp936
g73
(dp937
sg82
g923
sg75
(lp938
g68
(g69
g70
NtRp939
(dp940
g73
(dp941
g81
I3
ssg82
g935
sg75
(lp942
S''
asbasbasbag68
(g84
g70
NtRp943
(dp944
g73
(dp945
sg82
g859
sg75
(lp946
g68
(g89
g70
NtRp947
(dp948
g73
(dp949
g93
g94
ssg82
g943
sg75
(lp950
g389
asbag68
(g89
g70
NtRp951
(dp952
g73
(dp953
g100
g101
ssg82
g943
sg75
(lp954
S':'
asbag68
(g89
g70
NtRp955
(dp956
g73
(dp957
sg82
g943
sg75
(lp958
g68
(g69
g70
NtRp959
(dp960
g73
(dp961
g81
I3
ssg82
g955
sg75
(lp962
S''
asbasbasbag68
(g84
g70
NtRp963
(dp964
g73
(dp965
sg82
g859
sg75
(lp966
g68
(g89
g70
NtRp967
(dp968
g73
(dp969
g93
g94
ssg82
g963
sg75
(lp970
g410
asbag68
(g89
g70
NtRp971
(dp972
g73
(dp973
g100
g101
ssg82
g963
sg75
(lp974
S':'
asbag68
(g89
g70
NtRp975
(dp976
g73
(dp977
sg82
g963
sg75
(lp978
g68
(g69
g70
NtRp979
(dp980
g73
(dp981
g81
I3
ssg82
g975
sg75
(lp982
S''
asbasbasbag68
(g84
g70
NtRp983
(dp984
g73
(dp985
sg82
g859
sg75
(lp986
g68
(g89
g70
NtRp987
(dp988
g73
(dp989
g93
g94
ssg82
g983
sg75
(lp990
g431
asbag68
(g89
g70
NtRp991
(dp992
g73
(dp993
g100
g101
ssg82
g983
sg75
(lp994
S':'
asbag68
(g89
g70
NtRp995
(dp996
g73
(dp997
sg82
g983
sg75
(lp998
g68
(g69
g70
NtRp999
(dp1000
g73
(dp1001
g81
I3
ssg82
g995
sg75
(lp1002
S''
asbasbasbag68
(g84
g70
NtRp1003
(dp1004
g73
(dp1005
sg82
g859
sg75
(lp1006
g68
(g89
g70
NtRp1007
(dp1008
g73
(dp1009
g93
g94
ssg82
g1003
sg75
(lp1010
g452
asbag68
(g89
g70
NtRp1011
(dp1012
g73
(dp1013
g100
g101
ssg82
g1003
sg75
(lp1014
S':'
asbag68
(g89
g70
NtRp1015
(dp1016
g73
(dp1017
sg82
g1003
sg75
(lp1018
g68
(g69
g70
NtRp1019
(dp1020
g73
(dp1021
g81
I3
ssg82
g1015
sg75
(lp1022
S''
asbasbasbasbasbasbasbasbasbasbasbag68
(g84
g70
NtRp1023
(dp1024
g73
(dp1025
sg82
g78
sg75
(lp1026
g68
(g89
g70
NtRp1027
(dp1028
g73
(dp1029
g93
g94
ssg82
g1023
sg75
(lp1030
S'env'
p1031
asbag68
(g89
g70
NtRp1032
(dp1033
g73
(dp1034
g100
g101
ssg82
g1023
sg75
(lp1035
S':'
asbag68
(g89
g70
NtRp1036
(dp1037
g73
(dp1038
sg82
g1023
sg75
(lp1039
g68
(g69
g70
NtRp1040
(dp1041
g73
(dp1042
g81
I5
ssg82
g1036
sg75
(lp1043
g68
(g77
g70
NtRp1044
(dp1045
g73
(dp1046
g81
I4
ssg82
Nsg75
(lp1047
g68
(g84
g70
NtRp1048
(dp1049
g73
(dp1050
sg82
g1044
sg75
(lp1051
g68
(g89
g70
NtRp1052
(dp1053
g73
(dp1054
g93
g94
ssg82
g1048
sg75
(lp1055
S'app_folders'
p1056
asbag68
(g89
g70
NtRp1057
(dp1058
g73
(dp1059
g100
g101
ssg82
g1048
sg75
(lp1060
S':'
asbag68
(g89
g70
NtRp1061
(dp1062
g73
(dp1063
sg82
g1048
sg75
(lp1064
g68
(g69
g70
NtRp1065
(dp1066
g73
(dp1067
g81
I4
ssg82
g1061
sg75
(lp1068
S"set(['/home/shipra/Desktop/Semester 1.2/ITWS-2/web2py/applications/Assignment_2/', '/home/shipra/Desktop/Semester 1.2/ITWS-2/web2py/applications/welcome/', '/home/shipra/Desktop/Semester 1.2/ITWS-2/web2py/applications/admin/'])"
p1069
asbasbasbag68
(g84
g70
NtRp1070
(dp1071
g73
(dp1072
sg82
g1044
sg75
(lp1073
g68
(g89
g70
NtRp1074
(dp1075
g73
(dp1076
g93
g94
ssg82
g1070
sg75
(lp1077
S'applications_parent'
p1078
asbag68
(g89
g70
NtRp1079
(dp1080
g73
(dp1081
g100
g101
ssg82
g1070
sg75
(lp1082
S':'
asbag68
(g89
g70
NtRp1083
(dp1084
g73
(dp1085
sg82
g1070
sg75
(lp1086
g68
(g69
g70
NtRp1087
(dp1088
g73
(dp1089
g81
I4
ssg82
g1083
sg75
(lp1090
S'/home/shipra/Desktop/Semester 1.2/ITWS-2/web2py'
p1091
asbasbasbag68
(g84
g70
NtRp1092
(dp1093
g73
(dp1094
sg82
g1044
sg75
(lp1095
g68
(g89
g70
NtRp1096
(dp1097
g73
(dp1098
g93
g94
ssg82
g1092
sg75
(lp1099
S'cmd_args'
p1100
asbag68
(g89
g70
NtRp1101
(dp1102
g73
(dp1103
g100
g101
ssg82
g1092
sg75
(lp1104
S':'
asbag68
(g89
g70
NtRp1105
(dp1106
g73
(dp1107
sg82
g1092
sg75
(lp1108
g68
(g69
g70
NtRp1109
(dp1110
g73
(dp1111
g81
I4
ssg82
g1105
sg75
(lp1112
g68
(g77
g70
NtRp1113
(dp1114
g73
(dp1115
g81
I3
ssg82
Nsg75
(lp1116
sbasbasbasbag68
(g84
g70
NtRp1117
(dp1118
g73
(dp1119
sg82
g1044
sg75
(lp1120
g68
(g89
g70
NtRp1121
(dp1122
g73
(dp1123
g93
g94
ssg82
g1117
sg75
(lp1124
S'cmd_options'
p1125
asbag68
(g89
g70
NtRp1126
(dp1127
g73
(dp1128
g100
g101
ssg82
g1117
sg75
(lp1129
S':'
asbag68
(g89
g70
NtRp1130
(dp1131
g73
(dp1132
sg82
g1117
sg75
(lp1133
g68
(g69
g70
NtRp1134
(dp1135
g73
(dp1136
g81
I4
ssg82
g1130
sg75
(lp1137
S"<Values at 0x1a09290: {'verbose': False, 'ip': '127.0.0.1', 'with_scheduler': False, 'ips': ['10.1.129.70', '192.168.122.1', 'fe80::e611:5bff:fe38:8d0d%p5p1'], 'shutdown_timeout': 5, 'taskbar': False, 'port': 8000, 'maxthreads': None, 'softcron': False, 'server_name': 'shipra', 'bpython': False, 'nogui': False, 'pid_filename': 'httpserver.pid', 'extcron': False, 'runcron': False, 'run_system_tests': False, 'test': None, 'folder': '/home/shipra/Desktop/Semester 1.2/ITWS-2/web2py', 'config': '', 'minthreads': None, 'winservice': '', 'shell': None, 'run': '', 'log_filename': 'httpserver.log', 'debuglevel': 30, 'args': [''], 'socket_timeout': 5, 'ssl_ca_certificate': None, 'scheduler': None, 'profiler_filename': None, 'ssl_private_key': '', 'scheduler_groups': None, 'password': '<ask>', 'request_queue_size': 5, 'ssl_certificate': '', 'cronjob': False, 'numthreads': None, 'quiet': False, 'interfaces': None, 'import_models': False, 'timeout': 10, 'plain': False, 'nobanner': False}>"
p1138
asbasbasbag68
(g84
g70
NtRp1139
(dp1140
g73
(dp1141
sg82
g1044
sg75
(lp1142
g68
(g89
g70
NtRp1143
(dp1144
g73
(dp1145
g93
g94
ssg82
g1139
sg75
(lp1146
S'db_sessions'
p1147
asbag68
(g89
g70
NtRp1148
(dp1149
g73
(dp1150
g100
g101
ssg82
g1139
sg75
(lp1151
S':'
asbag68
(g89
g70
NtRp1152
(dp1153
g73
(dp1154
sg82
g1139
sg75
(lp1155
g68
(g69
g70
NtRp1156
(dp1157
g73
(dp1158
g81
I4
ssg82
g1152
sg75
(lp1159
S'set([])'
p1160
asbasbasbag68
(g84
g70
NtRp1161
(dp1162
g73
(dp1163
sg82
g1044
sg75
(lp1164
g68
(g89
g70
NtRp1165
(dp1166
g73
(dp1167
g93
g94
ssg82
g1161
sg75
(lp1168
S'debugging'
p1169
asbag68
(g89
g70
NtRp1170
(dp1171
g73
(dp1172
g100
g101
ssg82
g1161
sg75
(lp1173
S':'
asbag68
(g89
g70
NtRp1174
(dp1175
g73
(dp1176
sg82
g1161
sg75
(lp1177
g68
(g69
g70
NtRp1178
(dp1179
g73
(dp1180
g81
I4
ssg82
g1174
sg75
(lp1181
g111
asbasbasbag68
(g84
g70
NtRp1182
(dp1183
g73
(dp1184
sg82
g1044
sg75
(lp1185
g68
(g89
g70
NtRp1186
(dp1187
g73
(dp1188
g93
g94
ssg82
g1182
sg75
(lp1189
S'gluon_parent'
p1190
asbag68
(g89
g70
NtRp1191
(dp1192
g73
(dp1193
g100
g101
ssg82
g1182
sg75
(lp1194
S':'
asbag68
(g89
g70
NtRp1195
(dp1196
g73
(dp1197
sg82
g1182
sg75
(lp1198
g68
(g69
g70
NtRp1199
(dp1200
g73
(dp1201
g81
I4
ssg82
g1195
sg75
(lp1202
S'/home/shipra/Desktop/Semester 1.2/ITWS-2/web2py'
p1203
asbasbasbag68
(g84
g70
NtRp1204
(dp1205
g73
(dp1206
sg82
g1044
sg75
(lp1207
g68
(g89
g70
NtRp1208
(dp1209
g73
(dp1210
g93
g94
ssg82
g1204
sg75
(lp1211
S'http_accept'
p1212
asbag68
(g89
g70
NtRp1213
(dp1214
g73
(dp1215
g100
g101
ssg82
g1204
sg75
(lp1216
S':'
asbag68
(g89
g70
NtRp1217
(dp1218
g73
(dp1219
sg82
g1204
sg75
(lp1220
g68
(g69
g70
NtRp1221
(dp1222
g73
(dp1223
g81
I4
ssg82
g1217
sg75
(lp1224
S'text/html,application/xhtml+xml,application/xml;q=0.9,*/*;q=0.8'
p1225
asbasbasbag68
(g84
g70
NtRp1226
(dp1227
g73
(dp1228
sg82
g1044
sg75
(lp1229
g68
(g89
g70
NtRp1230
(dp1231
g73
(dp1232
g93
g94
ssg82
g1226
sg75
(lp1233
S'http_accept_encoding'
p1234
asbag68
(g89
g70
NtRp1235
(dp1236
g73
(dp1237
g100
g101
ssg82
g1226
sg75
(lp1238
S':'
asbag68
(g89
g70
NtRp1239
(dp1240
g73
(dp1241
sg82
g1226
sg75
(lp1242
g68
(g69
g70
NtRp1243
(dp1244
g73
(dp1245
g81
I4
ssg82
g1239
sg75
(lp1246
S'gzip, deflate'
p1247
asbasbasbag68
(g84
g70
NtRp1248
(dp1249
g73
(dp1250
sg82
g1044
sg75
(lp1251
g68
(g89
g70
NtRp1252
(dp1253
g73
(dp1254
g93
g94
ssg82
g1248
sg75
(lp1255
S'http_accept_language'
p1256
asbag68
(g89
g70
NtRp1257
(dp1258
g73
(dp1259
g100
g101
ssg82
g1248
sg75
(lp1260
S':'
asbag68
(g89
g70
NtRp1261
(dp1262
g73
(dp1263
sg82
g1248
sg75
(lp1264
g68
(g69
g70
NtRp1265
(dp1266
g73
(dp1267
g81
I4
ssg82
g1261
sg75
(lp1268
S'en-us,en;q=0.5'
p1269
asbasbasbag68
(g84
g70
NtRp1270
(dp1271
g73
(dp1272
sg82
g1044
sg75
(lp1273
g68
(g89
g70
NtRp1274
(dp1275
g73
(dp1276
g93
g94
ssg82
g1270
sg75
(lp1277
S'http_connection'
p1278
asbag68
(g89
g70
NtRp1279
(dp1280
g73
(dp1281
g100
g101
ssg82
g1270
sg75
(lp1282
S':'
asbag68
(g89
g70
NtRp1283
(dp1284
g73
(dp1285
sg82
g1270
sg75
(lp1286
g68
(g69
g70
NtRp1287
(dp1288
g73
(dp1289
g81
I4
ssg82
g1283
sg75
(lp1290
S'keep-alive'
p1291
asbasbasbag68
(g84
g70
NtRp1292
(dp1293
g73
(dp1294
sg82
g1044
sg75
(lp1295
g68
(g89
g70
NtRp1296
(dp1297
g73
(dp1298
g93
g94
ssg82
g1292
sg75
(lp1299
S'http_cookie'
p1300
asbag68
(g89
g70
NtRp1301
(dp1302
g73
(dp1303
g100
g101
ssg82
g1292
sg75
(lp1304
S':'
asbag68
(g89
g70
NtRp1305
(dp1306
g73
(dp1307
sg82
g1292
sg75
(lp1308
g68
(g69
g70
NtRp1309
(dp1310
g73
(dp1311
g81
I4
ssg82
g1305
sg75
(lp1312
S'__utma=96992031.1334412862.1364672878.1364672878.1364718243.2; __utmz=96992031.1364672878.1.1.utmcsr=(direct)|utmccn=(direct)|utmcmd=(none); __lc.visitor_id.1195381=S1364672235.4faffcf2d2; __ar_v4=OWHSPOGHTNEIPPPBMHVFTA%3A20130329%3A12%7CAMEDRHI4VZG4TIA2AZ565D%3A20130329%3A12%7CWAEQXC4B2NH3DDBR3TZM6I%3A20130329%3A12; mp_2093ad9ff9c5428a2228386de2f2b0e4_mixpanel=%7B%22distinct_id%22%3A%20%2262ffc2d0-7b9f-0130-efb0-22000a1cbb2a%22%2C%22is_registered_user%22%3A%20false%2C%22%24initial_referrer%22%3A%20%22%24direct%22%2C%22%24initial_referring_domain%22%3A%20%22%24direct%22%7D; session_id_welcome=127.0.0.1-a1dcee7c-e184-4b24-994e-b9d344891f24; session_id_admin=127.0.0.1-dc460202-62d9-43ac-881c-17f356e5f59c; session_id_assignment_2=127.0.0.1-a1ea54ad-1f50-4df2-bed9-5564e0abdc15'
p1313
asbasbasbag68
(g84
g70
NtRp1314
(dp1315
g73
(dp1316
sg82
g1044
sg75
(lp1317
g68
(g89
g70
NtRp1318
(dp1319
g73
(dp1320
g93
g94
ssg82
g1314
sg75
(lp1321
S'http_host'
p1322
asbag68
(g89
g70
NtRp1323
(dp1324
g73
(dp1325
g100
g101
ssg82
g1314
sg75
(lp1326
S':'
asbag68
(g89
g70
NtRp1327
(dp1328
g73
(dp1329
sg82
g1314
sg75
(lp1330
g68
(g69
g70
NtRp1331
(dp1332
g73
(dp1333
g81
I4
ssg82
g1327
sg75
(lp1334
S'127.0.0.1:8000'
p1335
asbasbasbag68
(g84
g70
NtRp1336
(dp1337
g73
(dp1338
sg82
g1044
sg75
(lp1339
g68
(g89
g70
NtRp1340
(dp1341
g73
(dp1342
g93
g94
ssg82
g1336
sg75
(lp1343
S'http_referer'
p1344
asbag68
(g89
g70
NtRp1345
(dp1346
g73
(dp1347
g100
g101
ssg82
g1336
sg75
(lp1348
S':'
asbag68
(g89
g70
NtRp1349
(dp1350
g73
(dp1351
sg82
g1336
sg75
(lp1352
g68
(g69
g70
NtRp1353
(dp1354
g73
(dp1355
g81
I4
ssg82
g1349
sg75
(lp1356
S'http://127.0.0.1:8000/Assignment_2/default/user/login'
p1357
asbasbasbag68
(g84
g70
NtRp1358
(dp1359
g73
(dp1360
sg82
g1044
sg75
(lp1361
g68
(g89
g70
NtRp1362
(dp1363
g73
(dp1364
g93
g94
ssg82
g1358
sg75
(lp1365
S'http_user_agent'
p1366
asbag68
(g89
g70
NtRp1367
(dp1368
g73
(dp1369
g100
g101
ssg82
g1358
sg75
(lp1370
S':'
asbag68
(g89
g70
NtRp1371
(dp1372
g73
(dp1373
sg82
g1358
sg75
(lp1374
g68
(g69
g70
NtRp1375
(dp1376
g73
(dp1377
g81
I4
ssg82
g1371
sg75
(lp1378
S'Mozilla/5.0 (X11; Linux x86_64; rv:12.0) Gecko/20100101 Firefox/12.0'
p1379
asbasbasbag68
(g84
g70
NtRp1380
(dp1381
g73
(dp1382
sg82
g1044
sg75
(lp1383
g68
(g89
g70
NtRp1384
(dp1385
g73
(dp1386
g93
g94
ssg82
g1380
sg75
(lp1387
S'is_jython'
p1388
asbag68
(g89
g70
NtRp1389
(dp1390
g73
(dp1391
g100
g101
ssg82
g1380
sg75
(lp1392
S':'
asbag68
(g89
g70
NtRp1393
(dp1394
g73
(dp1395
sg82
g1380
sg75
(lp1396
g68
(g69
g70
NtRp1397
(dp1398
g73
(dp1399
g81
I4
ssg82
g1393
sg75
(lp1400
g111
asbasbasbag68
(g84
g70
NtRp1401
(dp1402
g73
(dp1403
sg82
g1044
sg75
(lp1404
g68
(g89
g70
NtRp1405
(dp1406
g73
(dp1407
g93
g94
ssg82
g1401
sg75
(lp1408
S'is_pypy'
p1409
asbag68
(g89
g70
NtRp1410
(dp1411
g73
(dp1412
g100
g101
ssg82
g1401
sg75
(lp1413
S':'
asbag68
(g89
g70
NtRp1414
(dp1415
g73
(dp1416
sg82
g1401
sg75
(lp1417
g68
(g69
g70
NtRp1418
(dp1419
g73
(dp1420
g81
I4
ssg82
g1414
sg75
(lp1421
g111
asbasbasbag68
(g84
g70
NtRp1422
(dp1423
g73
(dp1424
sg82
g1044
sg75
(lp1425
g68
(g89
g70
NtRp1426
(dp1427
g73
(dp1428
g93
g94
ssg82
g1422
sg75
(lp1429
S'local_hosts'
p1430
asbag68
(g89
g70
NtRp1431
(dp1432
g73
(dp1433
g100
g101
ssg82
g1422
sg75
(lp1434
S':'
asbag68
(g89
g70
NtRp1435
(dp1436
g73
(dp1437
sg82
g1422
sg75
(lp1438
g68
(g69
g70
NtRp1439
(dp1440
g73
(dp1441
g81
I4
ssg82
g1435
sg75
(lp1442
g68
(g77
g70
NtRp1443
(dp1444
g73
(dp1445
g81
I3
ssg82
Nsg75
(lp1446
g68
(g84
g70
NtRp1447
(dp1448
g73
(dp1449
sg82
g1443
sg75
(lp1450
g68
(g89
g70
NtRp1451
(dp1452
g73
(dp1453
sg82
g1447
sg75
(lp1454
g68
(g69
g70
NtRp1455
(dp1456
g73
(dp1457
g81
I3
ssg82
g1451
sg75
(lp1458
S'192.168.122.1'
p1459
asbasbasbag68
(g84
g70
NtRp1460
(dp1461
g73
(dp1462
sg82
g1443
sg75
(lp1463
g68
(g89
g70
NtRp1464
(dp1465
g73
(dp1466
sg82
g1460
sg75
(lp1467
g68
(g69
g70
NtRp1468
(dp1469
g73
(dp1470
g81
I3
ssg82
g1464
sg75
(lp1471
S'::ffff:127.0.0.1'
p1472
asbasbasbag68
(g84
g70
NtRp1473
(dp1474
g73
(dp1475
sg82
g1443
sg75
(lp1476
g68
(g89
g70
NtRp1477
(dp1478
g73
(dp1479
sg82
g1473
sg75
(lp1480
g68
(g69
g70
NtRp1481
(dp1482
g73
(dp1483
g81
I3
ssg82
g1477
sg75
(lp1484
S'::1'
p1485
asbasbasbag68
(g84
g70
NtRp1486
(dp1487
g73
(dp1488
sg82
g1443
sg75
(lp1489
g68
(g89
g70
NtRp1490
(dp1491
g73
(dp1492
sg82
g1486
sg75
(lp1493
g68
(g69
g70
NtRp1494
(dp1495
g73
(dp1496
g81
I3
ssg82
g1490
sg75
(lp1497
S'10.1.129.70'
p1498
asbasbasbag68
(g84
g70
NtRp1499
(dp1500
g73
(dp1501
sg82
g1443
sg75
(lp1502
g68
(g89
g70
NtRp1503
(dp1504
g73
(dp1505
sg82
g1499
sg75
(lp1506
g68
(g69
g70
NtRp1507
(dp1508
g73
(dp1509
g81
I3
ssg82
g1503
sg75
(lp1510
S'fe80::e611:5bff:fe38:8d0d%p5p1'
p1511
asbasbasbag68
(g84
g70
NtRp1512
(dp1513
g73
(dp1514
sg82
g1443
sg75
(lp1515
g68
(g89
g70
NtRp1516
(dp1517
g73
(dp1518
sg82
g1512
sg75
(lp1519
g68
(g69
g70
NtRp1520
(dp1521
g73
(dp1522
g81
I3
ssg82
g1516
sg75
(lp1523
S'127.0.0.1'
p1524
asbasbasbag68
(g84
g70
NtRp1525
(dp1526
g73
(dp1527
sg82
g1443
sg75
(lp1528
g68
(g89
g70
NtRp1529
(dp1530
g73
(dp1531
sg82
g1525
sg75
(lp1532
g68
(g69
g70
NtRp1533
(dp1534
g73
(dp1535
g81
I3
ssg82
g1529
sg75
(lp1536
S'shipra'
p1537
asbasbasbasbasbasbasbag68
(g84
g70
NtRp1538
(dp1539
g73
(dp1540
sg82
g1044
sg75
(lp1541
g68
(g89
g70
NtRp1542
(dp1543
g73
(dp1544
g93
g94
ssg82
g1538
sg75
(lp1545
S'path_info'
p1546
asbag68
(g89
g70
NtRp1547
(dp1548
g73
(dp1549
g100
g101
ssg82
g1538
sg75
(lp1550
S':'
asbag68
(g89
g70
NtRp1551
(dp1552
g73
(dp1553
sg82
g1538
sg75
(lp1554
g68
(g69
g70
NtRp1555
(dp1556
g73
(dp1557
g81
I4
ssg82
g1551
sg75
(lp1558
S'/Assignment_2/default/client'
p1559
asbasbasbag68
(g84
g70
NtRp1560
(dp1561
g73
(dp1562
sg82
g1044
sg75
(lp1563
g68
(g89
g70
NtRp1564
(dp1565
g73
(dp1566
g93
g94
ssg82
g1560
sg75
(lp1567
S'query_string'
p1568
asbag68
(g89
g70
NtRp1569
(dp1570
g73
(dp1571
g100
g101
ssg82
g1560
sg75
(lp1572
S':'
asbag68
(g89
g70
NtRp1573
(dp1574
g73
(dp1575
sg82
g1560
sg75
(lp1576
g68
(g69
g70
NtRp1577
(dp1578
g73
(dp1579
g81
I4
ssg82
g1573
sg75
(lp1580
S''
asbasbasbag68
(g84
g70
NtRp1581
(dp1582
g73
(dp1583
sg82
g1044
sg75
(lp1584
g68
(g89
g70
NtRp1585
(dp1586
g73
(dp1587
g93
g94
ssg82
g1581
sg75
(lp1588
S'remote_addr'
p1589
asbag68
(g89
g70
NtRp1590
(dp1591
g73
(dp1592
g100
g101
ssg82
g1581
sg75
(lp1593
S':'
asbag68
(g89
g70
NtRp1594
(dp1595
g73
(dp1596
sg82
g1581
sg75
(lp1597
g68
(g69
g70
NtRp1598
(dp1599
g73
(dp1600
g81
I4
ssg82
g1594
sg75
(lp1601
g223
asbasbasbag68
(g84
g70
NtRp1602
(dp1603
g73
(dp1604
sg82
g1044
sg75
(lp1605
g68
(g89
g70
NtRp1606
(dp1607
g73
(dp1608
g93
g94
ssg82
g1602
sg75
(lp1609
S'remote_port'
p1610
asbag68
(g89
g70
NtRp1611
(dp1612
g73
(dp1613
g100
g101
ssg82
g1602
sg75
(lp1614
S':'
asbag68
(g89
g70
NtRp1615
(dp1616
g73
(dp1617
sg82
g1602
sg75
(lp1618
g68
(g69
g70
NtRp1619
(dp1620
g73
(dp1621
g81
I4
ssg82
g1615
sg75
(lp1622
S'35550'
p1623
asbasbasbag68
(g84
g70
NtRp1624
(dp1625
g73
(dp1626
sg82
g1044
sg75
(lp1627
g68
(g89
g70
NtRp1628
(dp1629
g73
(dp1630
g93
g94
ssg82
g1624
sg75
(lp1631
S'request_method'
p1632
asbag68
(g89
g70
NtRp1633
(dp1634
g73
(dp1635
g100
g101
ssg82
g1624
sg75
(lp1636
S':'
asbag68
(g89
g70
NtRp1637
(dp1638
g73
(dp1639
sg82
g1624
sg75
(lp1640
g68
(g69
g70
NtRp1641
(dp1642
g73
(dp1643
g81
I4
ssg82
g1637
sg75
(lp1644
S'GET'
p1645
asbasbasbag68
(g84
g70
NtRp1646
(dp1647
g73
(dp1648
sg82
g1044
sg75
(lp1649
g68
(g89
g70
NtRp1650
(dp1651
g73
(dp1652
g93
g94
ssg82
g1646
sg75
(lp1653
S'request_uri'
p1654
asbag68
(g89
g70
NtRp1655
(dp1656
g73
(dp1657
g100
g101
ssg82
g1646
sg75
(lp1658
S':'
asbag68
(g89
g70
NtRp1659
(dp1660
g73
(dp1661
sg82
g1646
sg75
(lp1662
g68
(g69
g70
NtRp1663
(dp1664
g73
(dp1665
g81
I4
ssg82
g1659
sg75
(lp1666
g1559
asbasbasbag68
(g84
g70
NtRp1667
(dp1668
g73
(dp1669
sg82
g1044
sg75
(lp1670
g68
(g89
g70
NtRp1671
(dp1672
g73
(dp1673
g93
g94
ssg82
g1667
sg75
(lp1674
S'script_name'
p1675
asbag68
(g89
g70
NtRp1676
(dp1677
g73
(dp1678
g100
g101
ssg82
g1667
sg75
(lp1679
S':'
asbag68
(g89
g70
NtRp1680
(dp1681
g73
(dp1682
sg82
g1667
sg75
(lp1683
g68
(g69
g70
NtRp1684
(dp1685
g73
(dp1686
g81
I4
ssg82
g1680
sg75
(lp1687
S''
asbasbasbag68
(g84
g70
NtRp1688
(dp1689
g73
(dp1690
sg82
g1044
sg75
(lp1691
g68
(g89
g70
NtRp1692
(dp1693
g73
(dp1694
g93
g94
ssg82
g1688
sg75
(lp1695
S'server_name'
p1696
asbag68
(g89
g70
NtRp1697
(dp1698
g73
(dp1699
g100
g101
ssg82
g1688
sg75
(lp1700
S':'
asbag68
(g89
g70
NtRp1701
(dp1702
g73
(dp1703
sg82
g1688
sg75
(lp1704
g68
(g69
g70
NtRp1705
(dp1706
g73
(dp1707
g81
I4
ssg82
g1701
sg75
(lp1708
S'shipra'
p1709
asbasbasbag68
(g84
g70
NtRp1710
(dp1711
g73
(dp1712
sg82
g1044
sg75
(lp1713
g68
(g89
g70
NtRp1714
(dp1715
g73
(dp1716
g93
g94
ssg82
g1710
sg75
(lp1717
S'server_port'
p1718
asbag68
(g89
g70
NtRp1719
(dp1720
g73
(dp1721
g100
g101
ssg82
g1710
sg75
(lp1722
S':'
asbag68
(g89
g70
NtRp1723
(dp1724
g73
(dp1725
sg82
g1710
sg75
(lp1726
g68
(g69
g70
NtRp1727
(dp1728
g73
(dp1729
g81
I4
ssg82
g1723
sg75
(lp1730
S'8000'
p1731
asbasbasbag68
(g84
g70
NtRp1732
(dp1733
g73
(dp1734
sg82
g1044
sg75
(lp1735
g68
(g89
g70
NtRp1736
(dp1737
g73
(dp1738
g93
g94
ssg82
g1732
sg75
(lp1739
S'server_protocol'
p1740
asbag68
(g89
g70
NtRp1741
(dp1742
g73
(dp1743
g100
g101
ssg82
g1732
sg75
(lp1744
S':'
asbag68
(g89
g70
NtRp1745
(dp1746
g73
(dp1747
sg82
g1732
sg75
(lp1748
g68
(g69
g70
NtRp1749
(dp1750
g73
(dp1751
g81
I4
ssg82
g1745
sg75
(lp1752
S'HTTP/1.1'
p1753
asbasbasbag68
(g84
g70
NtRp1754
(dp1755
g73
(dp1756
sg82
g1044
sg75
(lp1757
g68
(g89
g70
NtRp1758
(dp1759
g73
(dp1760
g93
g94
ssg82
g1754
sg75
(lp1761
S'server_software'
p1762
asbag68
(g89
g70
NtRp1763
(dp1764
g73
(dp1765
g100
g101
ssg82
g1754
sg75
(lp1766
S':'
asbag68
(g89
g70
NtRp1767
(dp1768
g73
(dp1769
sg82
g1754
sg75
(lp1770
g68
(g69
g70
NtRp1771
(dp1772
g73
(dp1773
g81
I4
ssg82
g1767
sg75
(lp1774
S'Rocket 1.2.6'
p1775
asbasbasbag68
(g84
g70
NtRp1776
(dp1777
g73
(dp1778
sg82
g1044
sg75
(lp1779
g68
(g89
g70
NtRp1780
(dp1781
g73
(dp1782
g93
g94
ssg82
g1776
sg75
(lp1783
S'web2py_path'
p1784
asbag68
(g89
g70
NtRp1785
(dp1786
g73
(dp1787
g100
g101
ssg82
g1776
sg75
(lp1788
S':'
asbag68
(g89
g70
NtRp1789
(dp1790
g73
(dp1791
sg82
g1776
sg75
(lp1792
g68
(g69
g70
NtRp1793
(dp1794
g73
(dp1795
g81
I4
ssg82
g1789
sg75
(lp1796
g1091
asbasbasbag68
(g84
g70
NtRp1797
(dp1798
g73
(dp1799
sg82
g1044
sg75
(lp1800
g68
(g89
g70
NtRp1801
(dp1802
g73
(dp1803
g93
g94
ssg82
g1797
sg75
(lp1804
S'web2py_version'
p1805
asbag68
(g89
g70
NtRp1806
(dp1807
g73
(dp1808
g100
g101
ssg82
g1797
sg75
(lp1809
S':'
asbag68
(g89
g70
NtRp1810
(dp1811
g73
(dp1812
sg82
g1797
sg75
(lp1813
g68
(g69
g70
NtRp1814
(dp1815
g73
(dp1816
g81
I4
ssg82
g1810
sg75
(lp1817
g68
(g77
g70
NtRp1818
(dp1819
g73
(dp1820
g81
I3
ssg82
Nsg75
(lp1821
g68
(g84
g70
NtRp1822
(dp1823
g73
(dp1824
sg82
g1818
sg75
(lp1825
g68
(g89
g70
NtRp1826
(dp1827
g73
(dp1828
sg82
g1822
sg75
(lp1829
g68
(g69
g70
NtRp1830
(dp1831
g73
(dp1832
g81
I3
ssg82
g1826
sg75
(lp1833
S'2'
asbasbasbag68
(g84
g70
NtRp1834
(dp1835
g73
(dp1836
sg82
g1818
sg75
(lp1837
g68
(g89
g70
NtRp1838
(dp1839
g73
(dp1840
sg82
g1834
sg75
(lp1841
g68
(g69
g70
NtRp1842
(dp1843
g73
(dp1844
g81
I3
ssg82
g1838
sg75
(lp1845
S'3'
asbasbasbag68
(g84
g70
NtRp1846
(dp1847
g73
(dp1848
sg82
g1818
sg75
(lp1849
g68
(g89
g70
NtRp1850
(dp1851
g73
(dp1852
sg82
g1846
sg75
(lp1853
g68
(g69
g70
NtRp1854
(dp1855
g73
(dp1856
g81
I3
ssg82
g1850
sg75
(lp1857
S'2'
asbasbasbag68
(g84
g70
NtRp1858
(dp1859
g73
(dp1860
sg82
g1818
sg75
(lp1861
g68
(g89
g70
NtRp1862
(dp1863
g73
(dp1864
sg82
g1858
sg75
(lp1865
g68
(g69
g70
NtRp1866
(dp1867
g73
(dp1868
g81
I3
ssg82
g1862
sg75
(lp1869
S'datetime.datetime(2012, 12, 17, 15, 3, 30)'
p1870
asbasbasbag68
(g84
g70
NtRp1871
(dp1872
g73
(dp1873
sg82
g1818
sg75
(lp1874
g68
(g89
g70
NtRp1875
(dp1876
g73
(dp1877
sg82
g1871
sg75
(lp1878
g68
(g69
g70
NtRp1879
(dp1880
g73
(dp1881
g81
I3
ssg82
g1875
sg75
(lp1882
S'stable'
p1883
asbasbasbasbasbasbasbag68
(g84
g70
NtRp1884
(dp1885
g73
(dp1886
sg82
g1044
sg75
(lp1887
g68
(g89
g70
NtRp1888
(dp1889
g73
(dp1890
g93
g94
ssg82
g1884
sg75
(lp1891
S'wsgi_errors'
p1892
asbag68
(g89
g70
NtRp1893
(dp1894
g73
(dp1895
g100
g101
ssg82
g1884
sg75
(lp1896
S':'
asbag68
(g89
g70
NtRp1897
(dp1898
g73
(dp1899
sg82
g1884
sg75
(lp1900
g68
(g69
g70
NtRp1901
(dp1902
g73
(dp1903
g81
I4
ssg82
g1897
sg75
(lp1904
S"<open file '<stderr>', mode 'w' at 0x7f411ee5d270>"
p1905
asbasbasbag68
(g84
g70
NtRp1906
(dp1907
g73
(dp1908
sg82
g1044
sg75
(lp1909
g68
(g89
g70
NtRp1910
(dp1911
g73
(dp1912
g93
g94
ssg82
g1906
sg75
(lp1913
S'wsgi_file_wrapper'
p1914
asbag68
(g89
g70
NtRp1915
(dp1916
g73
(dp1917
g100
g101
ssg82
g1906
sg75
(lp1918
S':'
asbag68
(g89
g70
NtRp1919
(dp1920
g73
(dp1921
sg82
g1906
sg75
(lp1922
g68
(g69
g70
NtRp1923
(dp1924
g73
(dp1925
g81
I4
ssg82
g1919
sg75
(lp1926
S'<class wsgiref.util.FileWrapper at 0x1992e20>'
p1927
asbasbasbag68
(g84
g70
NtRp1928
(dp1929
g73
(dp1930
sg82
g1044
sg75
(lp1931
g68
(g89
g70
NtRp1932
(dp1933
g73
(dp1934
g93
g94
ssg82
g1928
sg75
(lp1935
S'wsgi_input'
p1936
asbag68
(g89
g70
NtRp1937
(dp1938
g73
(dp1939
g100
g101
ssg82
g1928
sg75
(lp1940
S':'
asbag68
(g89
g70
NtRp1941
(dp1942
g73
(dp1943
sg82
g1928
sg75
(lp1944
g68
(g69
g70
NtRp1945
(dp1946
g73
(dp1947
g81
I4
ssg82
g1941
sg75
(lp1948
S'<socket._fileobject object at 0x7f4108472dd0>'
p1949
asbasbasbag68
(g84
g70
NtRp1950
(dp1951
g73
(dp1952
sg82
g1044
sg75
(lp1953
g68
(g89
g70
NtRp1954
(dp1955
g73
(dp1956
g93
g94
ssg82
g1950
sg75
(lp1957
S'wsgi_multiprocess'
p1958
asbag68
(g89
g70
NtRp1959
(dp1960
g73
(dp1961
g100
g101
ssg82
g1950
sg75
(lp1962
S':'
asbag68
(g89
g70
NtRp1963
(dp1964
g73
(dp1965
sg82
g1950
sg75
(lp1966
g68
(g69
g70
NtRp1967
(dp1968
g73
(dp1969
g81
I4
ssg82
g1963
sg75
(lp1970
g111
asbasbasbag68
(g84
g70
NtRp1971
(dp1972
g73
(dp1973
sg82
g1044
sg75
(lp1974
g68
(g89
g70
NtRp1975
(dp1976
g73
(dp1977
g93
g94
ssg82
g1971
sg75
(lp1978
S'wsgi_multithread'
p1979
asbag68
(g89
g70
NtRp1980
(dp1981
g73
(dp1982
g100
g101
ssg82
g1971
sg75
(lp1983
S':'
asbag68
(g89
g70
NtRp1984
(dp1985
g73
(dp1986
sg82
g1971
sg75
(lp1987
g68
(g69
g70
NtRp1988
(dp1989
g73
(dp1990
g81
I4
ssg82
g1984
sg75
(lp1991
S'True'
p1992
asbasbasbag68
(g84
g70
NtRp1993
(dp1994
g73
(dp1995
sg82
g1044
sg75
(lp1996
g68
(g89
g70
NtRp1997
(dp1998
g73
(dp1999
g93
g94
ssg82
g1993
sg75
(lp2000
S'wsgi_run_once'
p2001
asbag68
(g89
g70
NtRp2002
(dp2003
g73
(dp2004
g100
g101
ssg82
g1993
sg75
(lp2005
S':'
asbag68
(g89
g70
NtRp2006
(dp2007
g73
(dp2008
sg82
g1993
sg75
(lp2009
g68
(g69
g70
NtRp2010
(dp2011
g73
(dp2012
g81
I4
ssg82
g2006
sg75
(lp2013
g111
asbasbasbag68
(g84
g70
NtRp2014
(dp2015
g73
(dp2016
sg82
g1044
sg75
(lp2017
g68
(g89
g70
NtRp2018
(dp2019
g73
(dp2020
g93
g94
ssg82
g2014
sg75
(lp2021
S'wsgi_url_scheme'
p2022
asbag68
(g89
g70
NtRp2023
(dp2024
g73
(dp2025
g100
g101
ssg82
g2014
sg75
(lp2026
S':'
asbag68
(g89
g70
NtRp2027
(dp2028
g73
(dp2029
sg82
g2014
sg75
(lp2030
g68
(g69
g70
NtRp2031
(dp2032
g73
(dp2033
g81
I4
ssg82
g2027
sg75
(lp2034
S'http'
p2035
asbasbasbag68
(g84
g70
NtRp2036
(dp2037
g73
(dp2038
sg82
g1044
sg75
(lp2039
g68
(g89
g70
NtRp2040
(dp2041
g73
(dp2042
g93
g94
ssg82
g2036
sg75
(lp2043
S'wsgi_version'
p2044
asbag68
(g89
g70
NtRp2045
(dp2046
g73
(dp2047
g100
g101
ssg82
g2036
sg75
(lp2048
S':'
asbag68
(g89
g70
NtRp2049
(dp2050
g73
(dp2051
sg82
g2036
sg75
(lp2052
g68
(g69
g70
NtRp2053
(dp2054
g73
(dp2055
g81
I4
ssg82
g2049
sg75
(lp2056
g68
(g77
g70
NtRp2057
(dp2058
g73
(dp2059
g81
I3
ssg82
Nsg75
(lp2060
g68
(g84
g70
NtRp2061
(dp2062
g73
(dp2063
sg82
g2057
sg75
(lp2064
g68
(g89
g70
NtRp2065
(dp2066
g73
(dp2067
sg82
g2061
sg75
(lp2068
g68
(g69
g70
NtRp2069
(dp2070
g73
(dp2071
g81
I3
ssg82
g2065
sg75
(lp2072
S'1'
asbasbasbag68
(g84
g70
NtRp2073
(dp2074
g73
(dp2075
sg82
g2057
sg75
(lp2076
g68
(g89
g70
NtRp2077
(dp2078
g73
(dp2079
sg82
g2073
sg75
(lp2080
g68
(g69
g70
NtRp2081
(dp2082
g73
(dp2083
g81
I3
ssg82
g2077
sg75
(lp2084
S'0'
asbasbasbasbasbasbasbasbasbasbasbag68
(g84
g70
NtRp2085
(dp2086
g73
(dp2087
sg82
g78
sg75
(lp2088
g68
(g89
g70
NtRp2089
(dp2090
g73
(dp2091
g93
g94
ssg82
g2085
sg75
(lp2092
S'extension'
p2093
asbag68
(g89
g70
NtRp2094
(dp2095
g73
(dp2096
g100
g101
ssg82
g2085
sg75
(lp2097
S':'
asbag68
(g89
g70
NtRp2098
(dp2099
g73
(dp2100
sg82
g2085
sg75
(lp2101
g68
(g69
g70
NtRp2102
(dp2103
g73
(dp2104
g81
I5
ssg82
g2098
sg75
(lp2105
S'html'
p2106
asbasbasbag68
(g84
g70
NtRp2107
(dp2108
g73
(dp2109
sg82
g78
sg75
(lp2110
g68
(g89
g70
NtRp2111
(dp2112
g73
(dp2113
g93
g94
ssg82
g2107
sg75
(lp2114
S'folder'
p2115
asbag68
(g89
g70
NtRp2116
(dp2117
g73
(dp2118
g100
g101
ssg82
g2107
sg75
(lp2119
S':'
asbag68
(g89
g70
NtRp2120
(dp2121
g73
(dp2122
sg82
g2107
sg75
(lp2123
g68
(g69
g70
NtRp2124
(dp2125
g73
(dp2126
g81
I5
ssg82
g2120
sg75
(lp2127
S'/home/shipra/Desktop/Semester 1.2/ITWS-2/web2py/applications/Assignment_2/'
p2128
asbasbasbag68
(g84
g70
NtRp2129
(dp2130
g73
(dp2131
sg82
g78
sg75
(lp2132
g68
(g89
g70
NtRp2133
(dp2134
g73
(dp2135
g93
g94
ssg82
g2129
sg75
(lp2136
S'function'
p2137
asbag68
(g89
g70
NtRp2138
(dp2139
g73
(dp2140
g100
g101
ssg82
g2129
sg75
(lp2141
S':'
asbag68
(g89
g70
NtRp2142
(dp2143
g73
(dp2144
sg82
g2129
sg75
(lp2145
g68
(g69
g70
NtRp2146
(dp2147
g73
(dp2148
g81
I5
ssg82
g2142
sg75
(lp2149
S'client'
p2150
asbasbasbag68
(g84
g70
NtRp2151
(dp2152
g73
(dp2153
sg82
g78
sg75
(lp2154
g68
(g89
g70
NtRp2155
(dp2156
g73
(dp2157
g93
g94
ssg82
g2151
sg75
(lp2158
S'get_vars'
p2159
asbag68
(g89
g70
NtRp2160
(dp2161
g73
(dp2162
g100
g101
ssg82
g2151
sg75
(lp2163
S':'
asbag68
(g89
g70
NtRp2164
(dp2165
g73
(dp2166
sg82
g2151
sg75
(lp2167
g68
(g69
g70
NtRp2168
(dp2169
g73
(dp2170
g81
I5
ssg82
g2164
sg75
(lp2171
g68
(g77
g70
NtRp2172
(dp2173
g73
(dp2174
g81
I4
ssg82
Nsg75
(lp2175
sbasbasbasbag68
(g84
g70
NtRp2176
(dp2177
g73
(dp2178
sg82
g78
sg75
(lp2179
g68
(g89
g70
NtRp2180
(dp2181
g73
(dp2182
g93
g94
ssg82
g2176
sg75
(lp2183
S'global_settings'
p2184
asbag68
(g89
g70
NtRp2185
(dp2186
g73
(dp2187
g100
g101
ssg82
g2176
sg75
(lp2188
S':'
asbag68
(g89
g70
NtRp2189
(dp2190
g73
(dp2191
sg82
g2176
sg75
(lp2192
g68
(g69
g70
NtRp2193
(dp2194
g73
(dp2195
g81
I5
ssg82
g2189
sg75
(lp2196
g68
(g77
g70
NtRp2197
(dp2198
g73
(dp2199
g81
I4
ssg82
Nsg75
(lp2200
g68
(g84
g70
NtRp2201
(dp2202
g73
(dp2203
sg82
g2197
sg75
(lp2204
g68
(g89
g70
NtRp2205
(dp2206
g73
(dp2207
g93
g94
ssg82
g2201
sg75
(lp2208
g1056
asbag68
(g89
g70
NtRp2209
(dp2210
g73
(dp2211
g100
g101
ssg82
g2201
sg75
(lp2212
S':'
asbag68
(g89
g70
NtRp2213
(dp2214
g73
(dp2215
sg82
g2201
sg75
(lp2216
g68
(g69
g70
NtRp2217
(dp2218
g73
(dp2219
g81
I4
ssg82
g2213
sg75
(lp2220
S"set(['/home/shipra/Desktop/Semester 1.2/ITWS-2/web2py/applications/Assignment_2/', '/home/shipra/Desktop/Semester 1.2/ITWS-2/web2py/applications/welcome/', '/home/shipra/Desktop/Semester 1.2/ITWS-2/web2py/applications/admin/'])"
p2221
asbasbasbag68
(g84
g70
NtRp2222
(dp2223
g73
(dp2224
sg82
g2197
sg75
(lp2225
g68
(g89
g70
NtRp2226
(dp2227
g73
(dp2228
g93
g94
ssg82
g2222
sg75
(lp2229
g1078
asbag68
(g89
g70
NtRp2230
(dp2231
g73
(dp2232
g100
g101
ssg82
g2222
sg75
(lp2233
S':'
asbag68
(g89
g70
NtRp2234
(dp2235
g73
(dp2236
sg82
g2222
sg75
(lp2237
g68
(g69
g70
NtRp2238
(dp2239
g73
(dp2240
g81
I4
ssg82
g2234
sg75
(lp2241
g1091
asbasbasbag68
(g84
g70
NtRp2242
(dp2243
g73
(dp2244
sg82
g2197
sg75
(lp2245
g68
(g89
g70
NtRp2246
(dp2247
g73
(dp2248
g93
g94
ssg82
g2242
sg75
(lp2249
g1100
asbag68
(g89
g70
NtRp2250
(dp2251
g73
(dp2252
g100
g101
ssg82
g2242
sg75
(lp2253
S':'
asbag68
(g89
g70
NtRp2254
(dp2255
g73
(dp2256
sg82
g2242
sg75
(lp2257
g68
(g69
g70
NtRp2258
(dp2259
g73
(dp2260
g81
I4
ssg82
g2254
sg75
(lp2261
g68
(g77
g70
NtRp2262
(dp2263
g73
(dp2264
g81
I3
ssg82
Nsg75
(lp2265
sbasbasbasbag68
(g84
g70
NtRp2266
(dp2267
g73
(dp2268
sg82
g2197
sg75
(lp2269
g68
(g89
g70
NtRp2270
(dp2271
g73
(dp2272
g93
g94
ssg82
g2266
sg75
(lp2273
g1125
asbag68
(g89
g70
NtRp2274
(dp2275
g73
(dp2276
g100
g101
ssg82
g2266
sg75
(lp2277
S':'
asbag68
(g89
g70
NtRp2278
(dp2279
g73
(dp2280
sg82
g2266
sg75
(lp2281
g68
(g69
g70
NtRp2282
(dp2283
g73
(dp2284
g81
I4
ssg82
g2278
sg75
(lp2285
S"<Values at 0x1a09290: {'verbose': False, 'ip': '127.0.0.1', 'with_scheduler': False, 'ips': ['10.1.129.70', '192.168.122.1', 'fe80::e611:5bff:fe38:8d0d%p5p1'], 'shutdown_timeout': 5, 'taskbar': False, 'port': 8000, 'maxthreads': None, 'softcron': False, 'server_name': 'shipra', 'bpython': False, 'nogui': False, 'pid_filename': 'httpserver.pid', 'extcron': False, 'runcron': False, 'run_system_tests': False, 'test': None, 'folder': '/home/shipra/Desktop/Semester 1.2/ITWS-2/web2py', 'config': '', 'minthreads': None, 'winservice': '', 'shell': None, 'run': '', 'log_filename': 'httpserver.log', 'debuglevel': 30, 'args': [''], 'socket_timeout': 5, 'ssl_ca_certificate': None, 'scheduler': None, 'profiler_filename': None, 'ssl_private_key': '', 'scheduler_groups': None, 'password': '<ask>', 'request_queue_size': 5, 'ssl_certificate': '', 'cronjob': False, 'numthreads': None, 'quiet': False, 'interfaces': None, 'import_models': False, 'timeout': 10, 'plain': False, 'nobanner': False}>"
p2286
asbasbasbag68
(g84
g70
NtRp2287
(dp2288
g73
(dp2289
sg82
g2197
sg75
(lp2290
g68
(g89
g70
NtRp2291
(dp2292
g73
(dp2293
g93
g94
ssg82
g2287
sg75
(lp2294
g1147
asbag68
(g89
g70
NtRp2295
(dp2296
g73
(dp2297
g100
g101
ssg82
g2287
sg75
(lp2298
S':'
asbag68
(g89
g70
NtRp2299
(dp2300
g73
(dp2301
sg82
g2287
sg75
(lp2302
g68
(g69
g70
NtRp2303
(dp2304
g73
(dp2305
g81
I4
ssg82
g2299
sg75
(lp2306
S'set([])'
p2307
asbasbasbag68
(g84
g70
NtRp2308
(dp2309
g73
(dp2310
sg82
g2197
sg75
(lp2311
g68
(g89
g70
NtRp2312
(dp2313
g73
(dp2314
g93
g94
ssg82
g2308
sg75
(lp2315
g1169
asbag68
(g89
g70
NtRp2316
(dp2317
g73
(dp2318
g100
g101
ssg82
g2308
sg75
(lp2319
S':'
asbag68
(g89
g70
NtRp2320
(dp2321
g73
(dp2322
sg82
g2308
sg75
(lp2323
g68
(g69
g70
NtRp2324
(dp2325
g73
(dp2326
g81
I4
ssg82
g2320
sg75
(lp2327
g111
asbasbasbag68
(g84
g70
NtRp2328
(dp2329
g73
(dp2330
sg82
g2197
sg75
(lp2331
g68
(g89
g70
NtRp2332
(dp2333
g73
(dp2334
g93
g94
ssg82
g2328
sg75
(lp2335
g1190
asbag68
(g89
g70
NtRp2336
(dp2337
g73
(dp2338
g100
g101
ssg82
g2328
sg75
(lp2339
S':'
asbag68
(g89
g70
NtRp2340
(dp2341
g73
(dp2342
sg82
g2328
sg75
(lp2343
g68
(g69
g70
NtRp2344
(dp2345
g73
(dp2346
g81
I4
ssg82
g2340
sg75
(lp2347
g1203
asbasbasbag68
(g84
g70
NtRp2348
(dp2349
g73
(dp2350
sg82
g2197
sg75
(lp2351
g68
(g89
g70
NtRp2352
(dp2353
g73
(dp2354
g93
g94
ssg82
g2348
sg75
(lp2355
g1388
asbag68
(g89
g70
NtRp2356
(dp2357
g73
(dp2358
g100
g101
ssg82
g2348
sg75
(lp2359
S':'
asbag68
(g89
g70
NtRp2360
(dp2361
g73
(dp2362
sg82
g2348
sg75
(lp2363
g68
(g69
g70
NtRp2364
(dp2365
g73
(dp2366
g81
I4
ssg82
g2360
sg75
(lp2367
g111
asbasbasbag68
(g84
g70
NtRp2368
(dp2369
g73
(dp2370
sg82
g2197
sg75
(lp2371
g68
(g89
g70
NtRp2372
(dp2373
g73
(dp2374
g93
g94
ssg82
g2368
sg75
(lp2375
g1409
asbag68
(g89
g70
NtRp2376
(dp2377
g73
(dp2378
g100
g101
ssg82
g2368
sg75
(lp2379
S':'
asbag68
(g89
g70
NtRp2380
(dp2381
g73
(dp2382
sg82
g2368
sg75
(lp2383
g68
(g69
g70
NtRp2384
(dp2385
g73
(dp2386
g81
I4
ssg82
g2380
sg75
(lp2387
g111
asbasbasbag68
(g84
g70
NtRp2388
(dp2389
g73
(dp2390
sg82
g2197
sg75
(lp2391
g68
(g89
g70
NtRp2392
(dp2393
g73
(dp2394
g93
g94
ssg82
g2388
sg75
(lp2395
g1430
asbag68
(g89
g70
NtRp2396
(dp2397
g73
(dp2398
g100
g101
ssg82
g2388
sg75
(lp2399
S':'
asbag68
(g89
g70
NtRp2400
(dp2401
g73
(dp2402
sg82
g2388
sg75
(lp2403
g68
(g69
g70
NtRp2404
(dp2405
g73
(dp2406
g81
I4
ssg82
g2400
sg75
(lp2407
g68
(g77
g70
NtRp2408
(dp2409
g73
(dp2410
g81
I3
ssg82
Nsg75
(lp2411
g68
(g84
g70
NtRp2412
(dp2413
g73
(dp2414
sg82
g2408
sg75
(lp2415
g68
(g89
g70
NtRp2416
(dp2417
g73
(dp2418
sg82
g2412
sg75
(lp2419
g68
(g69
g70
NtRp2420
(dp2421
g73
(dp2422
g81
I3
ssg82
g2416
sg75
(lp2423
g1459
asbasbasbag68
(g84
g70
NtRp2424
(dp2425
g73
(dp2426
sg82
g2408
sg75
(lp2427
g68
(g89
g70
NtRp2428
(dp2429
g73
(dp2430
sg82
g2424
sg75
(lp2431
g68
(g69
g70
NtRp2432
(dp2433
g73
(dp2434
g81
I3
ssg82
g2428
sg75
(lp2435
g1472
asbasbasbag68
(g84
g70
NtRp2436
(dp2437
g73
(dp2438
sg82
g2408
sg75
(lp2439
g68
(g89
g70
NtRp2440
(dp2441
g73
(dp2442
sg82
g2436
sg75
(lp2443
g68
(g69
g70
NtRp2444
(dp2445
g73
(dp2446
g81
I3
ssg82
g2440
sg75
(lp2447
g1485
asbasbasbag68
(g84
g70
NtRp2448
(dp2449
g73
(dp2450
sg82
g2408
sg75
(lp2451
g68
(g89
g70
NtRp2452
(dp2453
g73
(dp2454
sg82
g2448
sg75
(lp2455
g68
(g69
g70
NtRp2456
(dp2457
g73
(dp2458
g81
I3
ssg82
g2452
sg75
(lp2459
g1498
asbasbasbag68
(g84
g70
NtRp2460
(dp2461
g73
(dp2462
sg82
g2408
sg75
(lp2463
g68
(g89
g70
NtRp2464
(dp2465
g73
(dp2466
sg82
g2460
sg75
(lp2467
g68
(g69
g70
NtRp2468
(dp2469
g73
(dp2470
g81
I3
ssg82
g2464
sg75
(lp2471
g1511
asbasbasbag68
(g84
g70
NtRp2472
(dp2473
g73
(dp2474
sg82
g2408
sg75
(lp2475
g68
(g89
g70
NtRp2476
(dp2477
g73
(dp2478
sg82
g2472
sg75
(lp2479
g68
(g69
g70
NtRp2480
(dp2481
g73
(dp2482
g81
I3
ssg82
g2476
sg75
(lp2483
g1524
asbasbasbag68
(g84
g70
NtRp2484
(dp2485
g73
(dp2486
sg82
g2408
sg75
(lp2487
g68
(g89
g70
NtRp2488
(dp2489
g73
(dp2490
sg82
g2484
sg75
(lp2491
g68
(g69
g70
NtRp2492
(dp2493
g73
(dp2494
g81
I3
ssg82
g2488
sg75
(lp2495
g1537
asbasbasbasbasbasbasbag68
(g84
g70
NtRp2496
(dp2497
g73
(dp2498
sg82
g2197
sg75
(lp2499
g68
(g89
g70
NtRp2500
(dp2501
g73
(dp2502
g93
g94
ssg82
g2496
sg75
(lp2503
g1805
asbag68
(g89
g70
NtRp2504
(dp2505
g73
(dp2506
g100
g101
ssg82
g2496
sg75
(lp2507
S':'
asbag68
(g89
g70
NtRp2508
(dp2509
g73
(dp2510
sg82
g2496
sg75
(lp2511
g68
(g69
g70
NtRp2512
(dp2513
g73
(dp2514
g81
I4
ssg82
g2508
sg75
(lp2515
g68
(g77
g70
NtRp2516
(dp2517
g73
(dp2518
g81
I3
ssg82
Nsg75
(lp2519
g68
(g84
g70
NtRp2520
(dp2521
g73
(dp2522
sg82
g2516
sg75
(lp2523
g68
(g89
g70
NtRp2524
(dp2525
g73
(dp2526
sg82
g2520
sg75
(lp2527
g68
(g69
g70
NtRp2528
(dp2529
g73
(dp2530
g81
I3
ssg82
g2524
sg75
(lp2531
S'2'
asbasbasbag68
(g84
g70
NtRp2532
(dp2533
g73
(dp2534
sg82
g2516
sg75
(lp2535
g68
(g89
g70
NtRp2536
(dp2537
g73
(dp2538
sg82
g2532
sg75
(lp2539
g68
(g69
g70
NtRp2540
(dp2541
g73
(dp2542
g81
I3
ssg82
g2536
sg75
(lp2543
S'3'
asbasbasbag68
(g84
g70
NtRp2544
(dp2545
g73
(dp2546
sg82
g2516
sg75
(lp2547
g68
(g89
g70
NtRp2548
(dp2549
g73
(dp2550
sg82
g2544
sg75
(lp2551
g68
(g69
g70
NtRp2552
(dp2553
g73
(dp2554
g81
I3
ssg82
g2548
sg75
(lp2555
S'2'
asbasbasbag68
(g84
g70
NtRp2556
(dp2557
g73
(dp2558
sg82
g2516
sg75
(lp2559
g68
(g89
g70
NtRp2560
(dp2561
g73
(dp2562
sg82
g2556
sg75
(lp2563
g68
(g69
g70
NtRp2564
(dp2565
g73
(dp2566
g81
I3
ssg82
g2560
sg75
(lp2567
S'datetime.datetime(2012, 12, 17, 15, 3, 30)'
p2568
asbasbasbag68
(g84
g70
NtRp2569
(dp2570
g73
(dp2571
sg82
g2516
sg75
(lp2572
g68
(g89
g70
NtRp2573
(dp2574
g73
(dp2575
sg82
g2569
sg75
(lp2576
g68
(g69
g70
NtRp2577
(dp2578
g73
(dp2579
g81
I3
ssg82
g2573
sg75
(lp2580
g1883
asbasbasbasbasbasbasbasbasbasbasbag68
(g84
g70
NtRp2581
(dp2582
g73
(dp2583
sg82
g78
sg75
(lp2584
g68
(g89
g70
NtRp2585
(dp2586
g73
(dp2587
g93
g94
ssg82
g2581
sg75
(lp2588
S'is_https'
p2589
asbag68
(g89
g70
NtRp2590
(dp2591
g73
(dp2592
g100
g101
ssg82
g2581
sg75
(lp2593
S':'
asbag68
(g89
g70
NtRp2594
(dp2595
g73
(dp2596
sg82
g2581
sg75
(lp2597
g68
(g69
g70
NtRp2598
(dp2599
g73
(dp2600
g81
I5
ssg82
g2594
sg75
(lp2601
g111
asbasbasbag68
(g84
g70
NtRp2602
(dp2603
g73
(dp2604
sg82
g78
sg75
(lp2605
g68
(g89
g70
NtRp2606
(dp2607
g73
(dp2608
g93
g94
ssg82
g2602
sg75
(lp2609
S'is_local'
p2610
asbag68
(g89
g70
NtRp2611
(dp2612
g73
(dp2613
g100
g101
ssg82
g2602
sg75
(lp2614
S':'
asbag68
(g89
g70
NtRp2615
(dp2616
g73
(dp2617
sg82
g2602
sg75
(lp2618
g68
(g69
g70
NtRp2619
(dp2620
g73
(dp2621
g81
I5
ssg82
g2615
sg75
(lp2622
g1992
asbasbasbag68
(g84
g70
NtRp2623
(dp2624
g73
(dp2625
sg82
g78
sg75
(lp2626
g68
(g89
g70
NtRp2627
(dp2628
g73
(dp2629
g93
g94
ssg82
g2623
sg75
(lp2630
S'is_restful'
p2631
asbag68
(g89
g70
NtRp2632
(dp2633
g73
(dp2634
g100
g101
ssg82
g2623
sg75
(lp2635
S':'
asbag68
(g89
g70
NtRp2636
(dp2637
g73
(dp2638
sg82
g2623
sg75
(lp2639
g68
(g69
g70
NtRp2640
(dp2641
g73
(dp2642
g81
I5
ssg82
g2636
sg75
(lp2643
g111
asbasbasbag68
(g84
g70
NtRp2644
(dp2645
g73
(dp2646
sg82
g78
sg75
(lp2647
g68
(g89
g70
NtRp2648
(dp2649
g73
(dp2650
g93
g94
ssg82
g2644
sg75
(lp2651
S'now'
p2652
asbag68
(g89
g70
NtRp2653
(dp2654
g73
(dp2655
g100
g101
ssg82
g2644
sg75
(lp2656
S':'
asbag68
(g89
g70
NtRp2657
(dp2658
g73
(dp2659
sg82
g2644
sg75
(lp2660
g68
(g69
g70
NtRp2661
(dp2662
g73
(dp2663
g81
I5
ssg82
g2657
sg75
(lp2664
S'datetime.datetime(2013, 8, 26, 0, 41, 29, 519879)'
p2665
asbasbasbag68
(g84
g70
NtRp2666
(dp2667
g73
(dp2668
sg82
g78
sg75
(lp2669
g68
(g89
g70
NtRp2670
(dp2671
g73
(dp2672
g93
g94
ssg82
g2666
sg75
(lp2673
S'post_vars'
p2674
asbag68
(g89
g70
NtRp2675
(dp2676
g73
(dp2677
g100
g101
ssg82
g2666
sg75
(lp2678
S':'
asbag68
(g89
g70
NtRp2679
(dp2680
g73
(dp2681
sg82
g2666
sg75
(lp2682
g68
(g69
g70
NtRp2683
(dp2684
g73
(dp2685
g81
I5
ssg82
g2679
sg75
(lp2686
g68
(g77
g70
NtRp2687
(dp2688
g73
(dp2689
g81
I4
ssg82
Nsg75
(lp2690
sbasbasbasbag68
(g84
g70
NtRp2691
(dp2692
g73
(dp2693
sg82
g78
sg75
(lp2694
g68
(g89
g70
NtRp2695
(dp2696
g73
(dp2697
g93
g94
ssg82
g2691
sg75
(lp2698
S'raw_args'
p2699
asbag68
(g89
g70
NtRp2700
(dp2701
g73
(dp2702
g100
g101
ssg82
g2691
sg75
(lp2703
S':'
asbag68
(g89
g70
NtRp2704
(dp2705
g73
(dp2706
sg82
g2691
sg75
(lp2707
g68
(g69
g70
NtRp2708
(dp2709
g73
(dp2710
g81
I5
ssg82
g2704
sg75
(lp2711
S''
asbasbasbag68
(g84
g70
NtRp2712
(dp2713
g73
(dp2714
sg82
g78
sg75
(lp2715
g68
(g89
g70
NtRp2716
(dp2717
g73
(dp2718
g93
g94
ssg82
g2712
sg75
(lp2719
S'raw_extension'
p2720
asbag68
(g89
g70
NtRp2721
(dp2722
g73
(dp2723
g100
g101
ssg82
g2712
sg75
(lp2724
S':'
asbag68
(g89
g70
NtRp2725
(dp2726
g73
(dp2727
sg82
g2712
sg75
(lp2728
g68
(g69
g70
NtRp2729
(dp2730
g73
(dp2731
g81
I5
ssg82
g2725
sg75
(lp2732
S'None'
p2733
asbasbasbag68
(g84
g70
NtRp2734
(dp2735
g73
(dp2736
sg82
g78
sg75
(lp2737
g68
(g89
g70
NtRp2738
(dp2739
g73
(dp2740
g93
g94
ssg82
g2734
sg75
(lp2741
S'url'
p2742
asbag68
(g89
g70
NtRp2743
(dp2744
g73
(dp2745
g100
g101
ssg82
g2734
sg75
(lp2746
S':'
asbag68
(g89
g70
NtRp2747
(dp2748
g73
(dp2749
sg82
g2734
sg75
(lp2750
g68
(g69
g70
NtRp2751
(dp2752
g73
(dp2753
g81
I5
ssg82
g2747
sg75
(lp2754
g1559
asbasbasbag68
(g84
g70
NtRp2755
(dp2756
g73
(dp2757
sg82
g78
sg75
(lp2758
g68
(g89
g70
NtRp2759
(dp2760
g73
(dp2761
g93
g94
ssg82
g2755
sg75
(lp2762
S'utcnow'
p2763
asbag68
(g89
g70
NtRp2764
(dp2765
g73
(dp2766
g100
g101
ssg82
g2755
sg75
(lp2767
S':'
asbag68
(g89
g70
NtRp2768
(dp2769
g73
(dp2770
sg82
g2755
sg75
(lp2771
g68
(g69
g70
NtRp2772
(dp2773
g73
(dp2774
g81
I5
ssg82
g2768
sg75
(lp2775
S'datetime.datetime(2013, 8, 25, 19, 11, 29, 519904)'
p2776
asbasbasbag68
(g84
g70
NtRp2777
(dp2778
g73
(dp2779
sg82
g78
sg75
(lp2780
g68
(g89
g70
NtRp2781
(dp2782
g73
(dp2783
g93
g94
ssg82
g2777
sg75
(lp2784
S'uuid'
p2785
asbag68
(g89
g70
NtRp2786
(dp2787
g73
(dp2788
g100
g101
ssg82
g2777
sg75
(lp2789
S':'
asbag68
(g89
g70
NtRp2790
(dp2791
g73
(dp2792
sg82
g2777
sg75
(lp2793
g68
(g69
g70
NtRp2794
(dp2795
g73
(dp2796
g81
I5
ssg82
g2790
sg75
(lp2797
S'Assignment_2/127.0.0.1.2013-08-26.00-41-29.fa45c1e9-5d82-464a-b424-e75687e92faf'
p2798
asbasbasbag68
(g84
g70
NtRp2799
(dp2800
g73
(dp2801
sg82
g78
sg75
(lp2802
g68
(g89
g70
NtRp2803
(dp2804
g73
(dp2805
g93
g94
ssg82
g2799
sg75
(lp2806
S'vars'
p2807
asbag68
(g89
g70
NtRp2808
(dp2809
g73
(dp2810
g100
g101
ssg82
g2799
sg75
(lp2811
S':'
asbag68
(g89
g70
NtRp2812
(dp2813
g73
(dp2814
sg82
g2799
sg75
(lp2815
g68
(g69
g70
NtRp2816
(dp2817
g73
(dp2818
g81
I5
ssg82
g2812
sg75
(lp2819
g68
(g77
g70
NtRp2820
(dp2821
g73
(dp2822
g81
I4
ssg82
Nsg75
(lp2823
sbasbasbasbag68
(g84
g70
NtRp2824
(dp2825
g73
(dp2826
sg82
g78
sg75
(lp2827
g68
(g89
g70
NtRp2828
(dp2829
g73
(dp2830
g93
g94
ssg82
g2824
sg75
(lp2831
S'wsgi'
p2832
asbag68
(g89
g70
NtRp2833
(dp2834
g73
(dp2835
g100
g101
ssg82
g2824
sg75
(lp2836
S':'
asbag68
(g89
g70
NtRp2837
(dp2838
g73
(dp2839
sg82
g2824
sg75
(lp2840
g68
(g69
g70
NtRp2841
(dp2842
g73
(dp2843
g81
I5
ssg82
g2837
sg75
(lp2844
g68
(g77
g70
NtRp2845
(dp2846
g73
(dp2847
g81
I4
ssg82
Nsg75
(lp2848
g68
(g84
g70
NtRp2849
(dp2850
g73
(dp2851
sg82
g2845
sg75
(lp2852
g68
(g89
g70
NtRp2853
(dp2854
g73
(dp2855
g93
g94
ssg82
g2849
sg75
(lp2856
S'environ'
p2857
asbag68
(g89
g70
NtRp2858
(dp2859
g73
(dp2860
g100
g101
ssg82
g2849
sg75
(lp2861
S':'
asbag68
(g89
g70
NtRp2862
(dp2863
g73
(dp2864
sg82
g2849
sg75
(lp2865
g68
(g69
g70
NtRp2866
(dp2867
g73
(dp2868
g81
I4
ssg82
g2862
sg75
(lp2869
g68
(g77
g70
NtRp2870
(dp2871
g73
(dp2872
g81
I3
ssg82
Nsg75
(lp2873
g68
(g84
g70
NtRp2874
(dp2875
g73
(dp2876
sg82
g2870
sg75
(lp2877
g68
(g89
g70
NtRp2878
(dp2879
g73
(dp2880
g93
g94
ssg82
g2874
sg75
(lp2881
S'HTTP_ACCEPT'
p2882
asbag68
(g89
g70
NtRp2883
(dp2884
g73
(dp2885
g100
g101
ssg82
g2874
sg75
(lp2886
S':'
asbag68
(g89
g70
NtRp2887
(dp2888
g73
(dp2889
sg82
g2874
sg75
(lp2890
g68
(g69
g70
NtRp2891
(dp2892
g73
(dp2893
g81
I3
ssg82
g2887
sg75
(lp2894
g1225
asbasbasbag68
(g84
g70
NtRp2895
(dp2896
g73
(dp2897
sg82
g2870
sg75
(lp2898
g68
(g89
g70
NtRp2899
(dp2900
g73
(dp2901
g93
g94
ssg82
g2895
sg75
(lp2902
S'HTTP_ACCEPT_ENCODING'
p2903
asbag68
(g89
g70
NtRp2904
(dp2905
g73
(dp2906
g100
g101
ssg82
g2895
sg75
(lp2907
S':'
asbag68
(g89
g70
NtRp2908
(dp2909
g73
(dp2910
sg82
g2895
sg75
(lp2911
g68
(g69
g70
NtRp2912
(dp2913
g73
(dp2914
g81
I3
ssg82
g2908
sg75
(lp2915
g1247
asbasbasbag68
(g84
g70
NtRp2916
(dp2917
g73
(dp2918
sg82
g2870
sg75
(lp2919
g68
(g89
g70
NtRp2920
(dp2921
g73
(dp2922
g93
g94
ssg82
g2916
sg75
(lp2923
S'HTTP_ACCEPT_LANGUAGE'
p2924
asbag68
(g89
g70
NtRp2925
(dp2926
g73
(dp2927
g100
g101
ssg82
g2916
sg75
(lp2928
S':'
asbag68
(g89
g70
NtRp2929
(dp2930
g73
(dp2931
sg82
g2916
sg75
(lp2932
g68
(g69
g70
NtRp2933
(dp2934
g73
(dp2935
g81
I3
ssg82
g2929
sg75
(lp2936
g1269
asbasbasbag68
(g84
g70
NtRp2937
(dp2938
g73
(dp2939
sg82
g2870
sg75
(lp2940
g68
(g89
g70
NtRp2941
(dp2942
g73
(dp2943
g93
g94
ssg82
g2937
sg75
(lp2944
S'HTTP_CONNECTION'
p2945
asbag68
(g89
g70
NtRp2946
(dp2947
g73
(dp2948
g100
g101
ssg82
g2937
sg75
(lp2949
S':'
asbag68
(g89
g70
NtRp2950
(dp2951
g73
(dp2952
sg82
g2937
sg75
(lp2953
g68
(g69
g70
NtRp2954
(dp2955
g73
(dp2956
g81
I3
ssg82
g2950
sg75
(lp2957
g1291
asbasbasbag68
(g84
g70
NtRp2958
(dp2959
g73
(dp2960
sg82
g2870
sg75
(lp2961
g68
(g89
g70
NtRp2962
(dp2963
g73
(dp2964
g93
g94
ssg82
g2958
sg75
(lp2965
S'HTTP_COOKIE'
p2966
asbag68
(g89
g70
NtRp2967
(dp2968
g73
(dp2969
g100
g101
ssg82
g2958
sg75
(lp2970
S':'
asbag68
(g89
g70
NtRp2971
(dp2972
g73
(dp2973
sg82
g2958
sg75
(lp2974
g68
(g69
g70
NtRp2975
(dp2976
g73
(dp2977
g81
I3
ssg82
g2971
sg75
(lp2978
g1313
asbasbasbag68
(g84
g70
NtRp2979
(dp2980
g73
(dp2981
sg82
g2870
sg75
(lp2982
g68
(g89
g70
NtRp2983
(dp2984
g73
(dp2985
g93
g94
ssg82
g2979
sg75
(lp2986
S'HTTP_HOST'
p2987
asbag68
(g89
g70
NtRp2988
(dp2989
g73
(dp2990
g100
g101
ssg82
g2979
sg75
(lp2991
S':'
asbag68
(g89
g70
NtRp2992
(dp2993
g73
(dp2994
sg82
g2979
sg75
(lp2995
g68
(g69
g70
NtRp2996
(dp2997
g73
(dp2998
g81
I3
ssg82
g2992
sg75
(lp2999
g1335
asbasbasbag68
(g84
g70
NtRp3000
(dp3001
g73
(dp3002
sg82
g2870
sg75
(lp3003
g68
(g89
g70
NtRp3004
(dp3005
g73
(dp3006
g93
g94
ssg82
g3000
sg75
(lp3007
S'HTTP_REFERER'
p3008
asbag68
(g89
g70
NtRp3009
(dp3010
g73
(dp3011
g100
g101
ssg82
g3000
sg75
(lp3012
S':'
asbag68
(g89
g70
NtRp3013
(dp3014
g73
(dp3015
sg82
g3000
sg75
(lp3016
g68
(g69
g70
NtRp3017
(dp3018
g73
(dp3019
g81
I3
ssg82
g3013
sg75
(lp3020
g1357
asbasbasbag68
(g84
g70
NtRp3021
(dp3022
g73
(dp3023
sg82
g2870
sg75
(lp3024
g68
(g89
g70
NtRp3025
(dp3026
g73
(dp3027
g93
g94
ssg82
g3021
sg75
(lp3028
S'HTTP_USER_AGENT'
p3029
asbag68
(g89
g70
NtRp3030
(dp3031
g73
(dp3032
g100
g101
ssg82
g3021
sg75
(lp3033
S':'
asbag68
(g89
g70
NtRp3034
(dp3035
g73
(dp3036
sg82
g3021
sg75
(lp3037
g68
(g69
g70
NtRp3038
(dp3039
g73
(dp3040
g81
I3
ssg82
g3034
sg75
(lp3041
g1379
asbasbasbag68
(g84
g70
NtRp3042
(dp3043
g73
(dp3044
sg82
g2870
sg75
(lp3045
g68
(g89
g70
NtRp3046
(dp3047
g73
(dp3048
g93
g94
ssg82
g3042
sg75
(lp3049
S'PATH_INFO'
p3050
asbag68
(g89
g70
NtRp3051
(dp3052
g73
(dp3053
g100
g101
ssg82
g3042
sg75
(lp3054
S':'
asbag68
(g89
g70
NtRp3055
(dp3056
g73
(dp3057
sg82
g3042
sg75
(lp3058
g68
(g69
g70
NtRp3059
(dp3060
g73
(dp3061
g81
I3
ssg82
g3055
sg75
(lp3062
g1559
asbasbasbag68
(g84
g70
NtRp3063
(dp3064
g73
(dp3065
sg82
g2870
sg75
(lp3066
g68
(g89
g70
NtRp3067
(dp3068
g73
(dp3069
g93
g94
ssg82
g3063
sg75
(lp3070
S'QUERY_STRING'
p3071
asbag68
(g89
g70
NtRp3072
(dp3073
g73
(dp3074
g100
g101
ssg82
g3063
sg75
(lp3075
S':'
asbag68
(g89
g70
NtRp3076
(dp3077
g73
(dp3078
sg82
g3063
sg75
(lp3079
g68
(g69
g70
NtRp3080
(dp3081
g73
(dp3082
g81
I3
ssg82
g3076
sg75
(lp3083
S''
asbasbasbag68
(g84
g70
NtRp3084
(dp3085
g73
(dp3086
sg82
g2870
sg75
(lp3087
g68
(g89
g70
NtRp3088
(dp3089
g73
(dp3090
g93
g94
ssg82
g3084
sg75
(lp3091
S'REMOTE_ADDR'
p3092
asbag68
(g89
g70
NtRp3093
(dp3094
g73
(dp3095
g100
g101
ssg82
g3084
sg75
(lp3096
S':'
asbag68
(g89
g70
NtRp3097
(dp3098
g73
(dp3099
sg82
g3084
sg75
(lp3100
g68
(g69
g70
NtRp3101
(dp3102
g73
(dp3103
g81
I3
ssg82
g3097
sg75
(lp3104
g223
asbasbasbag68
(g84
g70
NtRp3105
(dp3106
g73
(dp3107
sg82
g2870
sg75
(lp3108
g68
(g89
g70
NtRp3109
(dp3110
g73
(dp3111
g93
g94
ssg82
g3105
sg75
(lp3112
S'REMOTE_PORT'
p3113
asbag68
(g89
g70
NtRp3114
(dp3115
g73
(dp3116
g100
g101
ssg82
g3105
sg75
(lp3117
S':'
asbag68
(g89
g70
NtRp3118
(dp3119
g73
(dp3120
sg82
g3105
sg75
(lp3121
g68
(g69
g70
NtRp3122
(dp3123
g73
(dp3124
g81
I3
ssg82
g3118
sg75
(lp3125
g1623
asbasbasbag68
(g84
g70
NtRp3126
(dp3127
g73
(dp3128
sg82
g2870
sg75
(lp3129
g68
(g89
g70
NtRp3130
(dp3131
g73
(dp3132
g93
g94
ssg82
g3126
sg75
(lp3133
S'REQUEST_METHOD'
p3134
asbag68
(g89
g70
NtRp3135
(dp3136
g73
(dp3137
g100
g101
ssg82
g3126
sg75
(lp3138
S':'
asbag68
(g89
g70
NtRp3139
(dp3140
g73
(dp3141
sg82
g3126
sg75
(lp3142
g68
(g69
g70
NtRp3143
(dp3144
g73
(dp3145
g81
I3
ssg82
g3139
sg75
(lp3146
g1645
asbasbasbag68
(g84
g70
NtRp3147
(dp3148
g73
(dp3149
sg82
g2870
sg75
(lp3150
g68
(g89
g70
NtRp3151
(dp3152
g73
(dp3153
g93
g94
ssg82
g3147
sg75
(lp3154
S'REQUEST_URI'
p3155
asbag68
(g89
g70
NtRp3156
(dp3157
g73
(dp3158
g100
g101
ssg82
g3147
sg75
(lp3159
S':'
asbag68
(g89
g70
NtRp3160
(dp3161
g73
(dp3162
sg82
g3147
sg75
(lp3163
g68
(g69
g70
NtRp3164
(dp3165
g73
(dp3166
g81
I3
ssg82
g3160
sg75
(lp3167
g1559
asbasbasbag68
(g84
g70
NtRp3168
(dp3169
g73
(dp3170
sg82
g2870
sg75
(lp3171
g68
(g89
g70
NtRp3172
(dp3173
g73
(dp3174
g93
g94
ssg82
g3168
sg75
(lp3175
S'SCRIPT_NAME'
p3176
asbag68
(g89
g70
NtRp3177
(dp3178
g73
(dp3179
g100
g101
ssg82
g3168
sg75
(lp3180
S':'
asbag68
(g89
g70
NtRp3181
(dp3182
g73
(dp3183
sg82
g3168
sg75
(lp3184
g68
(g69
g70
NtRp3185
(dp3186
g73
(dp3187
g81
I3
ssg82
g3181
sg75
(lp3188
S''
asbasbasbag68
(g84
g70
NtRp3189
(dp3190
g73
(dp3191
sg82
g2870
sg75
(lp3192
g68
(g89
g70
NtRp3193
(dp3194
g73
(dp3195
g93
g94
ssg82
g3189
sg75
(lp3196
S'SERVER_NAME'
p3197
asbag68
(g89
g70
NtRp3198
(dp3199
g73
(dp3200
g100
g101
ssg82
g3189
sg75
(lp3201
S':'
asbag68
(g89
g70
NtRp3202
(dp3203
g73
(dp3204
sg82
g3189
sg75
(lp3205
g68
(g69
g70
NtRp3206
(dp3207
g73
(dp3208
g81
I3
ssg82
g3202
sg75
(lp3209
g1709
asbasbasbag68
(g84
g70
NtRp3210
(dp3211
g73
(dp3212
sg82
g2870
sg75
(lp3213
g68
(g89
g70
NtRp3214
(dp3215
g73
(dp3216
g93
g94
ssg82
g3210
sg75
(lp3217
S'SERVER_PORT'
p3218
asbag68
(g89
g70
NtRp3219
(dp3220
g73
(dp3221
g100
g101
ssg82
g3210
sg75
(lp3222
S':'
asbag68
(g89
g70
NtRp3223
(dp3224
g73
(dp3225
sg82
g3210
sg75
(lp3226
g68
(g69
g70
NtRp3227
(dp3228
g73
(dp3229
g81
I3
ssg82
g3223
sg75
(lp3230
g1731
asbasbasbag68
(g84
g70
NtRp3231
(dp3232
g73
(dp3233
sg82
g2870
sg75
(lp3234
g68
(g89
g70
NtRp3235
(dp3236
g73
(dp3237
g93
g94
ssg82
g3231
sg75
(lp3238
S'SERVER_PROTOCOL'
p3239
asbag68
(g89
g70
NtRp3240
(dp3241
g73
(dp3242
g100
g101
ssg82
g3231
sg75
(lp3243
S':'
asbag68
(g89
g70
NtRp3244
(dp3245
g73
(dp3246
sg82
g3231
sg75
(lp3247
g68
(g69
g70
NtRp3248
(dp3249
g73
(dp3250
g81
I3
ssg82
g3244
sg75
(lp3251
g1753
asbasbasbag68
(g84
g70
NtRp3252
(dp3253
g73
(dp3254
sg82
g2870
sg75
(lp3255
g68
(g89
g70
NtRp3256
(dp3257
g73
(dp3258
g93
g94
ssg82
g3252
sg75
(lp3259
S'SERVER_SOFTWARE'
p3260
asbag68
(g89
g70
NtRp3261
(dp3262
g73
(dp3263
g100
g101
ssg82
g3252
sg75
(lp3264
S':'
asbag68
(g89
g70
NtRp3265
(dp3266
g73
(dp3267
sg82
g3252
sg75
(lp3268
g68
(g69
g70
NtRp3269
(dp3270
g73
(dp3271
g81
I3
ssg82
g3265
sg75
(lp3272
g1775
asbasbasbag68
(g84
g70
NtRp3273
(dp3274
g73
(dp3275
sg82
g2870
sg75
(lp3276
g68
(g89
g70
NtRp3277
(dp3278
g73
(dp3279
g93
g94
ssg82
g3273
sg75
(lp3280
S'wsgi.errors'
p3281
asbag68
(g89
g70
NtRp3282
(dp3283
g73
(dp3284
g100
g101
ssg82
g3273
sg75
(lp3285
S':'
asbag68
(g89
g70
NtRp3286
(dp3287
g73
(dp3288
sg82
g3273
sg75
(lp3289
g68
(g69
g70
NtRp3290
(dp3291
g73
(dp3292
g81
I3
ssg82
g3286
sg75
(lp3293
S"<open file '<stderr>', mode 'w' at 0x7f411ee5d270>"
p3294
asbasbasbag68
(g84
g70
NtRp3295
(dp3296
g73
(dp3297
sg82
g2870
sg75
(lp3298
g68
(g89
g70
NtRp3299
(dp3300
g73
(dp3301
g93
g94
ssg82
g3295
sg75
(lp3302
S'wsgi.file_wrapper'
p3303
asbag68
(g89
g70
NtRp3304
(dp3305
g73
(dp3306
g100
g101
ssg82
g3295
sg75
(lp3307
S':'
asbag68
(g89
g70
NtRp3308
(dp3309
g73
(dp3310
sg82
g3295
sg75
(lp3311
g68
(g69
g70
NtRp3312
(dp3313
g73
(dp3314
g81
I3
ssg82
g3308
sg75
(lp3315
S'<class wsgiref.util.FileWrapper at 0x1992e20>'
p3316
asbasbasbag68
(g84
g70
NtRp3317
(dp3318
g73
(dp3319
sg82
g2870
sg75
(lp3320
g68
(g89
g70
NtRp3321
(dp3322
g73
(dp3323
g93
g94
ssg82
g3317
sg75
(lp3324
S'wsgi.input'
p3325
asbag68
(g89
g70
NtRp3326
(dp3327
g73
(dp3328
g100
g101
ssg82
g3317
sg75
(lp3329
S':'
asbag68
(g89
g70
NtRp3330
(dp3331
g73
(dp3332
sg82
g3317
sg75
(lp3333
g68
(g69
g70
NtRp3334
(dp3335
g73
(dp3336
g81
I3
ssg82
g3330
sg75
(lp3337
S'<cStringIO.StringO object at 0x7f40fc3bce30>'
p3338
asbasbasbag68
(g84
g70
NtRp3339
(dp3340
g73
(dp3341
sg82
g2870
sg75
(lp3342
g68
(g89
g70
NtRp3343
(dp3344
g73
(dp3345
g93
g94
ssg82
g3339
sg75
(lp3346
S'wsgi.multiprocess'
p3347
asbag68
(g89
g70
NtRp3348
(dp3349
g73
(dp3350
g100
g101
ssg82
g3339
sg75
(lp3351
S':'
asbag68
(g89
g70
NtRp3352
(dp3353
g73
(dp3354
sg82
g3339
sg75
(lp3355
g68
(g69
g70
NtRp3356
(dp3357
g73
(dp3358
g81
I3
ssg82
g3352
sg75
(lp3359
g111
asbasbasbag68
(g84
g70
NtRp3360
(dp3361
g73
(dp3362
sg82
g2870
sg75
(lp3363
g68
(g89
g70
NtRp3364
(dp3365
g73
(dp3366
g93
g94
ssg82
g3360
sg75
(lp3367
S'wsgi.multithread'
p3368
asbag68
(g89
g70
NtRp3369
(dp3370
g73
(dp3371
g100
g101
ssg82
g3360
sg75
(lp3372
S':'
asbag68
(g89
g70
NtRp3373
(dp3374
g73
(dp3375
sg82
g3360
sg75
(lp3376
g68
(g69
g70
NtRp3377
(dp3378
g73
(dp3379
g81
I3
ssg82
g3373
sg75
(lp3380
g1992
asbasbasbag68
(g84
g70
NtRp3381
(dp3382
g73
(dp3383
sg82
g2870
sg75
(lp3384
g68
(g89
g70
NtRp3385
(dp3386
g73
(dp3387
g93
g94
ssg82
g3381
sg75
(lp3388
S'wsgi.run_once'
p3389
asbag68
(g89
g70
NtRp3390
(dp3391
g73
(dp3392
g100
g101
ssg82
g3381
sg75
(lp3393
S':'
asbag68
(g89
g70
NtRp3394
(dp3395
g73
(dp3396
sg82
g3381
sg75
(lp3397
g68
(g69
g70
NtRp3398
(dp3399
g73
(dp3400
g81
I3
ssg82
g3394
sg75
(lp3401
g111
asbasbasbag68
(g84
g70
NtRp3402
(dp3403
g73
(dp3404
sg82
g2870
sg75
(lp3405
g68
(g89
g70
NtRp3406
(dp3407
g73
(dp3408
g93
g94
ssg82
g3402
sg75
(lp3409
S'wsgi.url_scheme'
p3410
asbag68
(g89
g70
NtRp3411
(dp3412
g73
(dp3413
g100
g101
ssg82
g3402
sg75
(lp3414
S':'
asbag68
(g89
g70
NtRp3415
(dp3416
g73
(dp3417
sg82
g3402
sg75
(lp3418
g68
(g69
g70
NtRp3419
(dp3420
g73
(dp3421
g81
I3
ssg82
g3415
sg75
(lp3422
g2035
asbasbasbag68
(g84
g70
NtRp3423
(dp3424
g73
(dp3425
sg82
g2870
sg75
(lp3426
g68
(g89
g70
NtRp3427
(dp3428
g73
(dp3429
g93
g94
ssg82
g3423
sg75
(lp3430
S'wsgi.version'
p3431
asbag68
(g89
g70
NtRp3432
(dp3433
g73
(dp3434
g100
g101
ssg82
g3423
sg75
(lp3435
S':'
asbag68
(g89
g70
NtRp3436
(dp3437
g73
(dp3438
sg82
g3423
sg75
(lp3439
g68
(g69
g70
NtRp3440
(dp3441
g73
(dp3442
g81
I3
ssg82
g3436
sg75
(lp3443
S'1'
asbasbasbasbasbasbasbasbasbasbasbasbasbsS'frames'
p3444
(lp3445
(dp3446
S'file'
p3447
S'/home/shipra/Desktop/Semester 1.2/ITWS-2/web2py/gluon/restricted.py'
p3448
sS'dump'
p3449
(dp3450
S'code'
p3451
S"'# -*- coding: utf-8 -*-\\n# this file is released ...crud())\\n\\nresponse._vars=response._caller(client)\\n'"
p3452
sS'layer'
p3453
S"'/home/shipra/Desktop/Semester 1.2/ITWS-2/web2py/applications/Assignment_2/controllers/default.py'"
p3454
sS'global compile2'
p3455
S'<function compile2>'
p3456
sS'ccode'
p3457
S'undefined'
p3458
ssS'lnum'
p3459
I211
sS'lines'
p3460
(dp3461
I206
S"    environment['__name__'] = '__restricted__'"
p3462
sI207
S'    try:'
p3463
sI208
S'        if isinstance(code, types.CodeType):'
p3464
sI209
S'            ccode = code'
p3465
sI210
S'        else:'
p3466
sI211
S'            ccode = compile2(code, layer)'
p3467
sI212
S'        exec ccode in environment'
p3468
sI213
S'    except HTTP:'
p3469
sI214
S'        raise'
p3470
sI215
S'    except RestrictedError:'
p3471
ssS'call'
p3472
S"(code='# -*- coding: utf-8 -*-\\n# this file is released ...crud())\\n\\nresponse._vars=response._caller(client)\\n', environment={'A': <class 'gluon.html.A'>, 'Auth': <class 'gluon.tools.Auth'>, 'B': <class 'gluon.html.B'>, 'BEAUTIFY': <class 'gluon.html.BEAUTIFY'>, 'BODY': <class 'gluon.html.BODY'>, 'BR': <class 'gluon.html.BR'>, 'BUTTON': <class 'gluon.html.BUTTON'>, 'CAT': <class 'gluon.html.CAT'>, 'CENTER': <class 'gluon.html.CENTER'>, 'CLEANUP': <class 'gluon.validators.CLEANUP'>, ...}, layer='/home/shipra/Desktop/Semester 1.2/ITWS-2/web2py/applications/Assignment_2/controllers/default.py')"
p3473
sS'func'
p3474
S'restricted'
p3475
sa(dp3476
g3447
S'/home/shipra/Desktop/Semester 1.2/ITWS-2/web2py/gluon/restricted.py'
p3477
sg3449
(dp3478
S'builtincompile'
p3479
S'<built-in function compile>'
p3480
sS'code'
p3481
S"'# -*- coding: utf-8 -*-\\n# this file is released ...crud())\\n\\nresponse._vars=response._caller(client)\\n'"
p3482
sS'code.rstrip'
p3483
S'<built-in method rstrip of str object>'
p3484
sS').replace'
p3485
g3458
sS'layer'
p3486
S"'/home/shipra/Desktop/Semester 1.2/ITWS-2/web2py/applications/Assignment_2/controllers/default.py'"
p3487
ssg3459
I194
sg3460
(dp3488
I192
S"    The +'\\n' is necessary else compile fails when code ends in a comment."
p3489
sI193
S'    """'
p3490
sI194
S"    return compile(code.rstrip().replace('\\r\\n', '\\n') + '\\n', layer, 'exec')"
p3491
sI195
S''
sI196
S''
sI197
S"def restricted(code, environment=None, layer='Unknown'):"
p3492
sI198
S'    """'
p3493
sI189
S''
sI190
S'def compile2(code, layer):'
p3494
sI191
S'    """'
p3495
ssg3472
S"(code='# -*- coding: utf-8 -*-\\n# this file is released ...crud())\\n\\nresponse._vars=response._caller(client)\\n', layer='/home/shipra/Desktop/Semester 1.2/ITWS-2/web2py/applications/Assignment_2/controllers/default.py')"
p3496
sg3474
S'compile2'
p3497
sasS'pyver'
p3498
S'Python 2.7.3: /usr/bin/python'
p3499
sS'session'
p3500
g68
(g69
g70
NtRp3501
(dp3502
g73
(dp3503
sg75
(lp3504
g68
(g77
g70
NtRp3505
(dp3506
g73
(dp3507
g81
I5
ssg82
Nsg75
(lp3508
g68
(g84
g70
NtRp3509
(dp3510
g73
(dp3511
sg82
g3505
sg75
(lp3512
g68
(g89
g70
NtRp3513
(dp3514
g73
(dp3515
g93
g94
ssg82
g3509
sg75
(lp3516
S'auth'
p3517
asbag68
(g89
g70
NtRp3518
(dp3519
g73
(dp3520
g100
g101
ssg82
g3509
sg75
(lp3521
S':'
asbag68
(g89
g70
NtRp3522
(dp3523
g73
(dp3524
sg82
g3509
sg75
(lp3525
g68
(g69
g70
NtRp3526
(dp3527
g73
(dp3528
g81
I5
ssg82
g3522
sg75
(lp3529
g68
(g77
g70
NtRp3530
(dp3531
g73
(dp3532
g81
I4
ssg82
Nsg75
(lp3533
g68
(g84
g70
NtRp3534
(dp3535
g73
(dp3536
sg82
g3530
sg75
(lp3537
g68
(g89
g70
NtRp3538
(dp3539
g73
(dp3540
g93
g94
ssg82
g3534
sg75
(lp3541
S'expiration'
p3542
asbag68
(g89
g70
NtRp3543
(dp3544
g73
(dp3545
g100
g101
ssg82
g3534
sg75
(lp3546
S':'
asbag68
(g89
g70
NtRp3547
(dp3548
g73
(dp3549
sg82
g3534
sg75
(lp3550
g68
(g69
g70
NtRp3551
(dp3552
g73
(dp3553
g81
I4
ssg82
g3547
sg75
(lp3554
S'3600'
p3555
asbasbasbag68
(g84
g70
NtRp3556
(dp3557
g73
(dp3558
sg82
g3530
sg75
(lp3559
g68
(g89
g70
NtRp3560
(dp3561
g73
(dp3562
g93
g94
ssg82
g3556
sg75
(lp3563
S'hmac_key'
p3564
asbag68
(g89
g70
NtRp3565
(dp3566
g73
(dp3567
g100
g101
ssg82
g3556
sg75
(lp3568
S':'
asbag68
(g89
g70
NtRp3569
(dp3570
g73
(dp3571
sg82
g3556
sg75
(lp3572
g68
(g69
g70
NtRp3573
(dp3574
g73
(dp3575
g81
I4
ssg82
g3569
sg75
(lp3576
S'e0d59fa9-213c-46d5-ab23-0f7bbac88f10'
p3577
asbasbasbag68
(g84
g70
NtRp3578
(dp3579
g73
(dp3580
sg82
g3530
sg75
(lp3581
g68
(g89
g70
NtRp3582
(dp3583
g73
(dp3584
g93
g94
ssg82
g3578
sg75
(lp3585
S'last_visit'
p3586
asbag68
(g89
g70
NtRp3587
(dp3588
g73
(dp3589
g100
g101
ssg82
g3578
sg75
(lp3590
S':'
asbag68
(g89
g70
NtRp3591
(dp3592
g73
(dp3593
sg82
g3578
sg75
(lp3594
g68
(g69
g70
NtRp3595
(dp3596
g73
(dp3597
g81
I4
ssg82
g3591
sg75
(lp3598
S'datetime.datetime(2013, 8, 26, 0, 37, 19, 934311)'
p3599
asbasbasbag68
(g84
g70
NtRp3600
(dp3601
g73
(dp3602
sg82
g3530
sg75
(lp3603
g68
(g89
g70
NtRp3604
(dp3605
g73
(dp3606
g93
g94
ssg82
g3600
sg75
(lp3607
S'remember'
p3608
asbag68
(g89
g70
NtRp3609
(dp3610
g73
(dp3611
g100
g101
ssg82
g3600
sg75
(lp3612
S':'
asbag68
(g89
g70
NtRp3613
(dp3614
g73
(dp3615
sg82
g3600
sg75
(lp3616
g68
(g69
g70
NtRp3617
(dp3618
g73
(dp3619
g81
I4
ssg82
g3613
sg75
(lp3620
g111
asbasbasbag68
(g84
g70
NtRp3621
(dp3622
g73
(dp3623
sg82
g3530
sg75
(lp3624
g68
(g89
g70
NtRp3625
(dp3626
g73
(dp3627
g93
g94
ssg82
g3621
sg75
(lp3628
S'user'
p3629
asbag68
(g89
g70
NtRp3630
(dp3631
g73
(dp3632
g100
g101
ssg82
g3621
sg75
(lp3633
S':'
asbag68
(g89
g70
NtRp3634
(dp3635
g73
(dp3636
sg82
g3621
sg75
(lp3637
g68
(g69
g70
NtRp3638
(dp3639
g73
(dp3640
g81
I4
ssg82
g3634
sg75
(lp3641
g68
(g77
g70
NtRp3642
(dp3643
g73
(dp3644
g81
I3
ssg82
Nsg75
(lp3645
g68
(g84
g70
NtRp3646
(dp3647
g73
(dp3648
sg82
g3642
sg75
(lp3649
g68
(g89
g70
NtRp3650
(dp3651
g73
(dp3652
g93
g94
ssg82
g3646
sg75
(lp3653
S'email'
p3654
asbag68
(g89
g70
NtRp3655
(dp3656
g73
(dp3657
g100
g101
ssg82
g3646
sg75
(lp3658
S':'
asbag68
(g89
g70
NtRp3659
(dp3660
g73
(dp3661
sg82
g3646
sg75
(lp3662
g68
(g69
g70
NtRp3663
(dp3664
g73
(dp3665
g81
I3
ssg82
g3659
sg75
(lp3666
S'vanya.jauhal@gmail.com'
p3667
asbasbasbag68
(g84
g70
NtRp3668
(dp3669
g73
(dp3670
sg82
g3642
sg75
(lp3671
g68
(g89
g70
NtRp3672
(dp3673
g73
(dp3674
g93
g94
ssg82
g3668
sg75
(lp3675
S'first_name'
p3676
asbag68
(g89
g70
NtRp3677
(dp3678
g73
(dp3679
g100
g101
ssg82
g3668
sg75
(lp3680
S':'
asbag68
(g89
g70
NtRp3681
(dp3682
g73
(dp3683
sg82
g3668
sg75
(lp3684
g68
(g69
g70
NtRp3685
(dp3686
g73
(dp3687
g81
I3
ssg82
g3681
sg75
(lp3688
S'vanya'
p3689
asbasbasbag68
(g84
g70
NtRp3690
(dp3691
g73
(dp3692
sg82
g3642
sg75
(lp3693
g68
(g89
g70
NtRp3694
(dp3695
g73
(dp3696
g93
g94
ssg82
g3690
sg75
(lp3697
S'id'
p3698
asbag68
(g89
g70
NtRp3699
(dp3700
g73
(dp3701
g100
g101
ssg82
g3690
sg75
(lp3702
S':'
asbag68
(g89
g70
NtRp3703
(dp3704
g73
(dp3705
sg82
g3690
sg75
(lp3706
g68
(g69
g70
NtRp3707
(dp3708
g73
(dp3709
g81
I3
ssg82
g3703
sg75
(lp3710
S'4'
asbasbasbag68
(g84
g70
NtRp3711
(dp3712
g73
(dp3713
sg82
g3642
sg75
(lp3714
g68
(g89
g70
NtRp3715
(dp3716
g73
(dp3717
g93
g94
ssg82
g3711
sg75
(lp3718
S'last_name'
p3719
asbag68
(g89
g70
NtRp3720
(dp3721
g73
(dp3722
g100
g101
ssg82
g3711
sg75
(lp3723
S':'
asbag68
(g89
g70
NtRp3724
(dp3725
g73
(dp3726
sg82
g3711
sg75
(lp3727
g68
(g69
g70
NtRp3728
(dp3729
g73
(dp3730
g81
I3
ssg82
g3724
sg75
(lp3731
S'jauhal'
p3732
asbasbasbag68
(g84
g70
NtRp3733
(dp3734
g73
(dp3735
sg82
g3642
sg75
(lp3736
g68
(g89
g70
NtRp3737
(dp3738
g73
(dp3739
g93
g94
ssg82
g3733
sg75
(lp3740
S'registration_id'
p3741
asbag68
(g89
g70
NtRp3742
(dp3743
g73
(dp3744
g100
g101
ssg82
g3733
sg75
(lp3745
S':'
asbag68
(g89
g70
NtRp3746
(dp3747
g73
(dp3748
sg82
g3733
sg75
(lp3749
g68
(g69
g70
NtRp3750
(dp3751
g73
(dp3752
g81
I3
ssg82
g3746
sg75
(lp3753
S''
asbasbasbag68
(g84
g70
NtRp3754
(dp3755
g73
(dp3756
sg82
g3642
sg75
(lp3757
g68
(g89
g70
NtRp3758
(dp3759
g73
(dp3760
g93
g94
ssg82
g3754
sg75
(lp3761
S'registration_key'
p3762
asbag68
(g89
g70
NtRp3763
(dp3764
g73
(dp3765
g100
g101
ssg82
g3754
sg75
(lp3766
S':'
asbag68
(g89
g70
NtRp3767
(dp3768
g73
(dp3769
sg82
g3754
sg75
(lp3770
g68
(g69
g70
NtRp3771
(dp3772
g73
(dp3773
g81
I3
ssg82
g3767
sg75
(lp3774
S''
asbasbasbag68
(g84
g70
NtRp3775
(dp3776
g73
(dp3777
sg82
g3642
sg75
(lp3778
g68
(g89
g70
NtRp3779
(dp3780
g73
(dp3781
g93
g94
ssg82
g3775
sg75
(lp3782
S'reset_password_key'
p3783
asbag68
(g89
g70
NtRp3784
(dp3785
g73
(dp3786
g100
g101
ssg82
g3775
sg75
(lp3787
S':'
asbag68
(g89
g70
NtRp3788
(dp3789
g73
(dp3790
sg82
g3775
sg75
(lp3791
g68
(g69
g70
NtRp3792
(dp3793
g73
(dp3794
g81
I3
ssg82
g3788
sg75
(lp3795
S''
asbasbasbag68
(g84
g70
NtRp3796
(dp3797
g73
(dp3798
sg82
g3642
sg75
(lp3799
g68
(g89
g70
NtRp3800
(dp3801
g73
(dp3802
g93
g94
ssg82
g3796
sg75
(lp3803
S'username'
p3804
asbag68
(g89
g70
NtRp3805
(dp3806
g73
(dp3807
g100
g101
ssg82
g3796
sg75
(lp3808
S':'
asbag68
(g89
g70
NtRp3809
(dp3810
g73
(dp3811
sg82
g3796
sg75
(lp3812
g68
(g69
g70
NtRp3813
(dp3814
g73
(dp3815
g81
I3
ssg82
g3809
sg75
(lp3816
S'Vanya'
p3817
asbasbasbasbasbasbasbag68
(g84
g70
NtRp3818
(dp3819
g73
(dp3820
sg82
g3530
sg75
(lp3821
g68
(g89
g70
NtRp3822
(dp3823
g73
(dp3824
g93
g94
ssg82
g3818
sg75
(lp3825
S'user_groups'
p3826
asbag68
(g89
g70
NtRp3827
(dp3828
g73
(dp3829
g100
g101
ssg82
g3818
sg75
(lp3830
S':'
asbag68
(g89
g70
NtRp3831
(dp3832
g73
(dp3833
sg82
g3818
sg75
(lp3834
g68
(g69
g70
NtRp3835
(dp3836
g73
(dp3837
g81
I4
ssg82
g3831
sg75
(lp3838
g68
(g77
g70
NtRp3839
(dp3840
g73
(dp3841
g81
I3
ssg82
Nsg75
(lp3842
g68
(g84
g70
NtRp3843
(dp3844
g73
(dp3845
sg82
g3839
sg75
(lp3846
g68
(g89
g70
NtRp3847
(dp3848
g73
(dp3849
g93
g94
ssg82
g3843
sg75
(lp3850
S'3'
asbag68
(g89
g70
NtRp3851
(dp3852
g73
(dp3853
g100
g101
ssg82
g3843
sg75
(lp3854
S':'
asbag68
(g89
g70
NtRp3855
(dp3856
g73
(dp3857
sg82
g3843
sg75
(lp3858
g68
(g69
g70
NtRp3859
(dp3860
g73
(dp3861
g81
I3
ssg82
g3855
sg75
(lp3862
S'user_4'
p3863
asbasbasbasbasbasbasbasbasbasbasbag68
(g84
g70
NtRp3864
(dp3865
g73
(dp3866
sg82
g3505
sg75
(lp3867
g68
(g89
g70
NtRp3868
(dp3869
g73
(dp3870
g93
g94
ssg82
g3864
sg75
(lp3871
S'flash'
p3872
asbag68
(g89
g70
NtRp3873
(dp3874
g73
(dp3875
g100
g101
ssg82
g3864
sg75
(lp3876
S':'
asbag68
(g89
g70
NtRp3877
(dp3878
g73
(dp3879
sg82
g3864
sg75
(lp3880
g68
(g69
g70
NtRp3881
(dp3882
g73
(dp3883
g81
I5
ssg82
g3877
sg75
(lp3884
S'None'
p3885
asbasbasbag68
(g84
g70
NtRp3886
(dp3887
g73
(dp3888
sg82
g3505
sg75
(lp3889
g68
(g89
g70
NtRp3890
(dp3891
g73
(dp3892
g93
g94
ssg82
g3886
sg75
(lp3893
S'last_orderby'
p3894
asbag68
(g89
g70
NtRp3895
(dp3896
g73
(dp3897
g100
g101
ssg82
g3886
sg75
(lp3898
S':'
asbag68
(g89
g70
NtRp3899
(dp3900
g73
(dp3901
sg82
g3886
sg75
(lp3902
g68
(g69
g70
NtRp3903
(dp3904
g73
(dp3905
g81
I5
ssg82
g3899
sg75
(lp3906
S'None'
p3907
asbasbasbag68
(g84
g70
NtRp3908
(dp3909
g73
(dp3910
sg82
g3505
sg75
(lp3911
g68
(g89
g70
NtRp3912
(dp3913
g73
(dp3914
g93
g94
ssg82
g3908
sg75
(lp3915
S'last_query'
p3916
asbag68
(g89
g70
NtRp3917
(dp3918
g73
(dp3919
g100
g101
ssg82
g3908
sg75
(lp3920
S':'
asbag68
(g89
g70
NtRp3921
(dp3922
g73
(dp3923
sg82
g3908
sg75
(lp3924
g68
(g69
g70
NtRp3925
(dp3926
g73
(dp3927
g81
I5
ssg82
g3921
sg75
(lp3928
S'db.auth_user.id>0'
p3929
asbasbasbasbasbsS'etype'
p3930
S"<type 'exceptions.IndentationError'>"
p3931
sS'date'
p3932
S'Mon Aug 26 00:41:29 2013'
p3933
sS'response'
p3934
g68
(g69
g70
NtRp3935
(dp3936
g73
(dp3937
sg75
(lp3938
g68
(g77
g70
NtRp3939
(dp3940
g73
(dp3941
g81
I5
ssg82
Nsg75
(lp3942
g68
(g84
g70
NtRp3943
(dp3944
g73
(dp3945
sg82
g3939
sg75
(lp3946
g68
(g89
g70
NtRp3947
(dp3948
g73
(dp3949
g93
g94
ssg82
g3943
sg75
(lp3950
g166
asbag68
(g89
g70
NtRp3951
(dp3952
g73
(dp3953
g100
g101
ssg82
g3943
sg75
(lp3954
S':'
asbag68
(g89
g70
NtRp3955
(dp3956
g73
(dp3957
sg82
g3943
sg75
(lp3958
g68
(g69
g70
NtRp3959
(dp3960
g73
(dp3961
g81
I5
ssg82
g3955
sg75
(lp3962
S'<cStringIO.StringO object at 0x7f40ec0ea068>'
p3963
asbasbasbag68
(g84
g70
NtRp3964
(dp3965
g73
(dp3966
sg82
g3939
sg75
(lp3967
g68
(g89
g70
NtRp3968
(dp3969
g73
(dp3970
g93
g94
ssg82
g3964
sg75
(lp3971
g254
asbag68
(g89
g70
NtRp3972
(dp3973
g73
(dp3974
g100
g101
ssg82
g3964
sg75
(lp3975
S':'
asbag68
(g89
g70
NtRp3976
(dp3977
g73
(dp3978
sg82
g3964
sg75
(lp3979
g68
(g69
g70
NtRp3980
(dp3981
g73
(dp3982
g81
I5
ssg82
g3976
sg75
(lp3983
g68
(g77
g70
NtRp3984
(dp3985
g73
(dp3986
g81
I4
ssg82
Nsg75
(lp3987
g68
(g84
g70
NtRp3988
(dp3989
g73
(dp3990
sg82
g3984
sg75
(lp3991
g68
(g89
g70
NtRp3992
(dp3993
g73
(dp3994
g93
g94
ssg82
g3988
sg75
(lp3995
S'session_id_assignment_2'
p3996
asbag68
(g89
g70
NtRp3997
(dp3998
g73
(dp3999
g100
g101
ssg82
g3988
sg75
(lp4000
S':'
asbag68
(g89
g70
NtRp4001
(dp4002
g73
(dp4003
sg82
g3988
sg75
(lp4004
g68
(g69
g70
NtRp4005
(dp4006
g73
(dp4007
g81
I4
ssg82
g4001
sg75
(lp4008
g672
ag68
(g77
g70
NtRp4009
(dp4010
g73
(dp4011
g81
I3
ssg82
Nsg75
(lp4012
g68
(g84
g70
NtRp4013
(dp4014
g73
(dp4015
sg82
g4009
sg75
(lp4016
g68
(g89
g70
NtRp4017
(dp4018
g73
(dp4019
g93
g94
ssg82
g4013
sg75
(lp4020
g305
asbag68
(g89
g70
NtRp4021
(dp4022
g73
(dp4023
g100
g101
ssg82
g4013
sg75
(lp4024
S':'
asbag68
(g89
g70
NtRp4025
(dp4026
g73
(dp4027
sg82
g4013
sg75
(lp4028
g68
(g69
g70
NtRp4029
(dp4030
g73
(dp4031
g81
I3
ssg82
g4025
sg75
(lp4032
S''
asbasbasbag68
(g84
g70
NtRp4033
(dp4034
g73
(dp4035
sg82
g4009
sg75
(lp4036
g68
(g89
g70
NtRp4037
(dp4038
g73
(dp4039
g93
g94
ssg82
g4033
sg75
(lp4040
g326
asbag68
(g89
g70
NtRp4041
(dp4042
g73
(dp4043
g100
g101
ssg82
g4033
sg75
(lp4044
S':'
asbag68
(g89
g70
NtRp4045
(dp4046
g73
(dp4047
sg82
g4033
sg75
(lp4048
g68
(g69
g70
NtRp4049
(dp4050
g73
(dp4051
g81
I3
ssg82
g4045
sg75
(lp4052
S''
asbasbasbag68
(g84
g70
NtRp4053
(dp4054
g73
(dp4055
sg82
g4009
sg75
(lp4056
g68
(g89
g70
NtRp4057
(dp4058
g73
(dp4059
g93
g94
ssg82
g4053
sg75
(lp4060
g347
asbag68
(g89
g70
NtRp4061
(dp4062
g73
(dp4063
g100
g101
ssg82
g4053
sg75
(lp4064
S':'
asbag68
(g89
g70
NtRp4065
(dp4066
g73
(dp4067
sg82
g4053
sg75
(lp4068
g68
(g69
g70
NtRp4069
(dp4070
g73
(dp4071
g81
I3
ssg82
g4065
sg75
(lp4072
S''
asbasbasbag68
(g84
g70
NtRp4073
(dp4074
g73
(dp4075
sg82
g4009
sg75
(lp4076
g68
(g89
g70
NtRp4077
(dp4078
g73
(dp4079
g93
g94
ssg82
g4073
sg75
(lp4080
g368
asbag68
(g89
g70
NtRp4081
(dp4082
g73
(dp4083
g100
g101
ssg82
g4073
sg75
(lp4084
S':'
asbag68
(g89
g70
NtRp4085
(dp4086
g73
(dp4087
sg82
g4073
sg75
(lp4088
g68
(g69
g70
NtRp4089
(dp4090
g73
(dp4091
g81
I3
ssg82
g4085
sg75
(lp4092
S''
asbasbasbag68
(g84
g70
NtRp4093
(dp4094
g73
(dp4095
sg82
g4009
sg75
(lp4096
g68
(g89
g70
NtRp4097
(dp4098
g73
(dp4099
g93
g94
ssg82
g4093
sg75
(lp4100
g389
asbag68
(g89
g70
NtRp4101
(dp4102
g73
(dp4103
g100
g101
ssg82
g4093
sg75
(lp4104
S':'
asbag68
(g89
g70
NtRp4105
(dp4106
g73
(dp4107
sg82
g4093
sg75
(lp4108
g68
(g69
g70
NtRp4109
(dp4110
g73
(dp4111
g81
I3
ssg82
g4105
sg75
(lp4112
S''
asbasbasbag68
(g84
g70
NtRp4113
(dp4114
g73
(dp4115
sg82
g4009
sg75
(lp4116
g68
(g89
g70
NtRp4117
(dp4118
g73
(dp4119
g93
g94
ssg82
g4113
sg75
(lp4120
g410
asbag68
(g89
g70
NtRp4121
(dp4122
g73
(dp4123
g100
g101
ssg82
g4113
sg75
(lp4124
S':'
asbag68
(g89
g70
NtRp4125
(dp4126
g73
(dp4127
sg82
g4113
sg75
(lp4128
g68
(g69
g70
NtRp4129
(dp4130
g73
(dp4131
g81
I3
ssg82
g4125
sg75
(lp4132
S'/'
asbasbasbag68
(g84
g70
NtRp4133
(dp4134
g73
(dp4135
sg82
g4009
sg75
(lp4136
g68
(g89
g70
NtRp4137
(dp4138
g73
(dp4139
g93
g94
ssg82
g4133
sg75
(lp4140
g431
asbag68
(g89
g70
NtRp4141
(dp4142
g73
(dp4143
g100
g101
ssg82
g4133
sg75
(lp4144
S':'
asbag68
(g89
g70
NtRp4145
(dp4146
g73
(dp4147
sg82
g4133
sg75
(lp4148
g68
(g69
g70
NtRp4149
(dp4150
g73
(dp4151
g81
I3
ssg82
g4145
sg75
(lp4152
S''
asbasbasbag68
(g84
g70
NtRp4153
(dp4154
g73
(dp4155
sg82
g4009
sg75
(lp4156
g68
(g89
g70
NtRp4157
(dp4158
g73
(dp4159
g93
g94
ssg82
g4153
sg75
(lp4160
g452
asbag68
(g89
g70
NtRp4161
(dp4162
g73
(dp4163
g100
g101
ssg82
g4153
sg75
(lp4164
S':'
asbag68
(g89
g70
NtRp4165
(dp4166
g73
(dp4167
sg82
g4153
sg75
(lp4168
g68
(g69
g70
NtRp4169
(dp4170
g73
(dp4171
g81
I3
ssg82
g4165
sg75
(lp4172
S''
asbasbasbasbasbasbasbasbasbasbasbag68
(g84
g70
NtRp4173
(dp4174
g73
(dp4175
sg82
g3939
sg75
(lp4176
g68
(g89
g70
NtRp4177
(dp4178
g73
(dp4179
g93
g94
ssg82
g4173
sg75
(lp4180
S'delimiters'
p4181
asbag68
(g89
g70
NtRp4182
(dp4183
g73
(dp4184
g100
g101
ssg82
g4173
sg75
(lp4185
S':'
asbag68
(g89
g70
NtRp4186
(dp4187
g73
(dp4188
sg82
g4173
sg75
(lp4189
g68
(g69
g70
NtRp4190
(dp4191
g73
(dp4192
g81
I5
ssg82
g4186
sg75
(lp4193
g68
(g77
g70
NtRp4194
(dp4195
g73
(dp4196
g81
I4
ssg82
Nsg75
(lp4197
g68
(g84
g70
NtRp4198
(dp4199
g73
(dp4200
sg82
g4194
sg75
(lp4201
g68
(g89
g70
NtRp4202
(dp4203
g73
(dp4204
sg82
g4198
sg75
(lp4205
g68
(g69
g70
NtRp4206
(dp4207
g73
(dp4208
g81
I4
ssg82
g4202
sg75
(lp4209
S'{{'
p4210
asbasbasbag68
(g84
g70
NtRp4211
(dp4212
g73
(dp4213
sg82
g4194
sg75
(lp4214
g68
(g89
g70
NtRp4215
(dp4216
g73
(dp4217
sg82
g4211
sg75
(lp4218
g68
(g69
g70
NtRp4219
(dp4220
g73
(dp4221
g81
I4
ssg82
g4215
sg75
(lp4222
S'}}'
p4223
asbasbasbasbasbasbasbag68
(g84
g70
NtRp4224
(dp4225
g73
(dp4226
sg82
g3939
sg75
(lp4227
g68
(g89
g70
NtRp4228
(dp4229
g73
(dp4230
g93
g94
ssg82
g4224
sg75
(lp4231
S'files'
p4232
asbag68
(g89
g70
NtRp4233
(dp4234
g73
(dp4235
g100
g101
ssg82
g4224
sg75
(lp4236
S':'
asbag68
(g89
g70
NtRp4237
(dp4238
g73
(dp4239
sg82
g4224
sg75
(lp4240
g68
(g69
g70
NtRp4241
(dp4242
g73
(dp4243
g81
I5
ssg82
g4237
sg75
(lp4244
g68
(g77
g70
NtRp4245
(dp4246
g73
(dp4247
g81
I4
ssg82
Nsg75
(lp4248
sbasbasbasbag68
(g84
g70
NtRp4249
(dp4250
g73
(dp4251
sg82
g3939
sg75
(lp4252
g68
(g89
g70
NtRp4253
(dp4254
g73
(dp4255
g93
g94
ssg82
g4249
sg75
(lp4256
S'flash'
p4257
asbag68
(g89
g70
NtRp4258
(dp4259
g73
(dp4260
g100
g101
ssg82
g4249
sg75
(lp4261
S':'
asbag68
(g89
g70
NtRp4262
(dp4263
g73
(dp4264
sg82
g4249
sg75
(lp4265
g68
(g69
g70
NtRp4266
(dp4267
g73
(dp4268
g81
I5
ssg82
g4262
sg75
(lp4269
S''
asbasbasbag68
(g84
g70
NtRp4270
(dp4271
g73
(dp4272
sg82
g3939
sg75
(lp4273
g68
(g89
g70
NtRp4274
(dp4275
g73
(dp4276
g93
g94
ssg82
g4270
sg75
(lp4277
S'generic_patterns'
p4278
asbag68
(g89
g70
NtRp4279
(dp4280
g73
(dp4281
g100
g101
ssg82
g4270
sg75
(lp4282
S':'
asbag68
(g89
g70
NtRp4283
(dp4284
g73
(dp4285
sg82
g4270
sg75
(lp4286
g68
(g69
g70
NtRp4287
(dp4288
g73
(dp4289
g81
I5
ssg82
g4283
sg75
(lp4290
g68
(g77
g70
NtRp4291
(dp4292
g73
(dp4293
g81
I4
ssg82
Nsg75
(lp4294
g68
(g84
g70
NtRp4295
(dp4296
g73
(dp4297
sg82
g4291
sg75
(lp4298
g68
(g89
g70
NtRp4299
(dp4300
g73
(dp4301
sg82
g4295
sg75
(lp4302
g68
(g69
g70
NtRp4303
(dp4304
g73
(dp4305
g81
I4
ssg82
g4299
sg75
(lp4306
S'*'
asbasbasbasbasbasbasbag68
(g84
g70
NtRp4307
(dp4308
g73
(dp4309
sg82
g3939
sg75
(lp4310
g68
(g89
g70
NtRp4311
(dp4312
g73
(dp4313
g93
g94
ssg82
g4307
sg75
(lp4314
S'google_analytics_id'
p4315
asbag68
(g89
g70
NtRp4316
(dp4317
g73
(dp4318
g100
g101
ssg82
g4307
sg75
(lp4319
S':'
asbag68
(g89
g70
NtRp4320
(dp4321
g73
(dp4322
sg82
g4307
sg75
(lp4323
g68
(g69
g70
NtRp4324
(dp4325
g73
(dp4326
g81
I5
ssg82
g4320
sg75
(lp4327
S'None'
p4328
asbasbasbag68
(g84
g70
NtRp4329
(dp4330
g73
(dp4331
sg82
g3939
sg75
(lp4332
g68
(g89
g70
NtRp4333
(dp4334
g73
(dp4335
g93
g94
ssg82
g4329
sg75
(lp4336
S'headers'
p4337
asbag68
(g89
g70
NtRp4338
(dp4339
g73
(dp4340
g100
g101
ssg82
g4329
sg75
(lp4341
S':'
asbag68
(g89
g70
NtRp4342
(dp4343
g73
(dp4344
sg82
g4329
sg75
(lp4345
g68
(g69
g70
NtRp4346
(dp4347
g73
(dp4348
g81
I5
ssg82
g4342
sg75
(lp4349
g68
(g77
g70
NtRp4350
(dp4351
g73
(dp4352
g81
I4
ssg82
Nsg75
(lp4353
g68
(g84
g70
NtRp4354
(dp4355
g73
(dp4356
sg82
g4350
sg75
(lp4357
g68
(g89
g70
NtRp4358
(dp4359
g73
(dp4360
g93
g94
ssg82
g4354
sg75
(lp4361
S'X-Powered-By'
p4362
asbag68
(g89
g70
NtRp4363
(dp4364
g73
(dp4365
g100
g101
ssg82
g4354
sg75
(lp4366
S':'
asbag68
(g89
g70
NtRp4367
(dp4368
g73
(dp4369
sg82
g4354
sg75
(lp4370
g68
(g69
g70
NtRp4371
(dp4372
g73
(dp4373
g81
I4
ssg82
g4367
sg75
(lp4374
S'web2py'
p4375
asbasbasbasbasbasbasbag68
(g84
g70
NtRp4376
(dp4377
g73
(dp4378
sg82
g3939
sg75
(lp4379
g68
(g89
g70
NtRp4380
(dp4381
g73
(dp4382
g93
g94
ssg82
g4376
sg75
(lp4383
S'logo'
p4384
asbag68
(g89
g70
NtRp4385
(dp4386
g73
(dp4387
g100
g101
ssg82
g4376
sg75
(lp4388
S':'
asbag68
(g89
g70
NtRp4389
(dp4390
g73
(dp4391
sg82
g4376
sg75
(lp4392
g68
(g69
g70
NtRp4393
(dp4394
g73
(dp4395
g81
I5
ssg82
g4389
sg75
(lp4396
g68
(cgluon.html
A
p4397
g70
NtRp4398
(dp4399
g73
(dp4400
S'_class'
p4401
S'brand'
p4402
sS'_href'
p4403
S'http://www.web2py.com/'
p4404
ssg82
Nsg75
(lp4405
g68
(cgluon.html
B
p4406
g70
NtRp4407
(dp4408
g73
(dp4409
sg82
g4398
sg75
(lp4410
S'web'
p4411
ag68
(cgluon.html
SPAN
p4412
g70
NtRp4413
(dp4414
g73
(dp4415
sg82
g4407
sg75
(lp4416
I2
asbaS'py'
p4417
asbacgluon.html
XML_unpickle
p4418
(S's\r\x00\x00\x00&trade;&nbsp;'
tRp4419
asbasbasbasbag68
(g84
g70
NtRp4420
(dp4421
g73
(dp4422
sg82
g3939
sg75
(lp4423
g68
(g89
g70
NtRp4424
(dp4425
g73
(dp4426
g93
g94
ssg82
g4420
sg75
(lp4427
S'menu'
p4428
asbag68
(g89
g70
NtRp4429
(dp4430
g73
(dp4431
g100
g101
ssg82
g4420
sg75
(lp4432
S':'
asbag68
(g89
g70
NtRp4433
(dp4434
g73
(dp4435
sg82
g4420
sg75
(lp4436
g68
(g69
g70
NtRp4437
(dp4438
g73
(dp4439
g81
I5
ssg82
g4433
sg75
(lp4440
g68
(g77
g70
NtRp4441
(dp4442
g73
(dp4443
g81
I4
ssg82
Nsg75
(lp4444
g68
(g84
g70
NtRp4445
(dp4446
g73
(dp4447
sg82
g4441
sg75
(lp4448
g68
(g89
g70
NtRp4449
(dp4450
g73
(dp4451
sg82
g4445
sg75
(lp4452
g68
(g69
g70
NtRp4453
(dp4454
g73
(dp4455
g81
I4
ssg82
g4449
sg75
(lp4456
g68
(g77
g70
NtRp4457
(dp4458
g73
(dp4459
g81
I3
ssg82
Nsg75
(lp4460
g68
(g84
g70
NtRp4461
(dp4462
g73
(dp4463
sg82
g4457
sg75
(lp4464
g68
(g89
g70
NtRp4465
(dp4466
g73
(dp4467
sg82
g4461
sg75
(lp4468
g68
(g69
g70
NtRp4469
(dp4470
g73
(dp4471
g81
I3
ssg82
g4465
sg75
(lp4472
cgluon.languages
lazyT_unpickle
p4473
(S's\x04\x00\x00\x00Home'
tRp4474
asbasbasbag68
(g84
g70
NtRp4475
(dp4476
g73
(dp4477
sg82
g4457
sg75
(lp4478
g68
(g89
g70
NtRp4479
(dp4480
g73
(dp4481
sg82
g4475
sg75
(lp4482
g68
(g69
g70
NtRp4483
(dp4484
g73
(dp4485
g81
I3
ssg82
g4479
sg75
(lp4486
g111
asbasbasbag68
(g84
g70
NtRp4487
(dp4488
g73
(dp4489
sg82
g4457
sg75
(lp4490
g68
(g89
g70
NtRp4491
(dp4492
g73
(dp4493
sg82
g4487
sg75
(lp4494
g68
(g69
g70
NtRp4495
(dp4496
g73
(dp4497
g81
I3
ssg82
g4491
sg75
(lp4498
S'/Assignment_2/default/index'
p4499
asbasbasbag68
(g84
g70
NtRp4500
(dp4501
g73
(dp4502
sg82
g4457
sg75
(lp4503
g68
(g89
g70
NtRp4504
(dp4505
g73
(dp4506
sg82
g4500
sg75
(lp4507
g68
(g69
g70
NtRp4508
(dp4509
g73
(dp4510
g81
I3
ssg82
g4504
sg75
(lp4511
g68
(g77
g70
NtRp4512
(dp4513
g73
(dp4514
g81
I2
ssg82
Nsg75
(lp4515
sbasbasbasbasbasbasbasbag68
(g84
g70
NtRp4516
(dp4517
g73
(dp4518
sg82
g4441
sg75
(lp4519
g68
(g89
g70
NtRp4520
(dp4521
g73
(dp4522
sg82
g4516
sg75
(lp4523
g68
(g69
g70
NtRp4524
(dp4525
g73
(dp4526
g81
I4
ssg82
g4520
sg75
(lp4527
g68
(g77
g70
NtRp4528
(dp4529
g73
(dp4530
g81
I3
ssg82
Nsg75
(lp4531
g68
(g84
g70
NtRp4532
(dp4533
g73
(dp4534
sg82
g4528
sg75
(lp4535
g68
(g89
g70
NtRp4536
(dp4537
g73
(dp4538
sg82
g4532
sg75
(lp4539
g68
(g69
g70
NtRp4540
(dp4541
g73
(dp4542
g81
I3
ssg82
g4536
sg75
(lp4543
g68
(g4412
g70
NtRp4544
(dp4545
g73
(dp4546
g4401
S'highlighted'
p4547
ssg82
Nsg75
(lp4548
g4375
asbasbasbasbag68
(g84
g70
NtRp4549
(dp4550
g73
(dp4551
sg82
g4528
sg75
(lp4552
g68
(g89
g70
NtRp4553
(dp4554
g73
(dp4555
sg82
g4549
sg75
(lp4556
g68
(g69
g70
NtRp4557
(dp4558
g73
(dp4559
g81
I3
ssg82
g4553
sg75
(lp4560
g111
asbasbasbag68
(g84
g70
NtRp4561
(dp4562
g73
(dp4563
sg82
g4528
sg75
(lp4564
g68
(g89
g70
NtRp4565
(dp4566
g73
(dp4567
sg82
g4561
sg75
(lp4568
g68
(g69
g70
NtRp4569
(dp4570
g73
(dp4571
g81
I3
ssg82
g4565
sg75
(lp4572
S'http://web2py.com'
p4573
asbasbasbag68
(g84
g70
NtRp4574
(dp4575
g73
(dp4576
sg82
g4528
sg75
(lp4577
g68
(g89
g70
NtRp4578
(dp4579
g73
(dp4580
sg82
g4574
sg75
(lp4581
g68
(g69
g70
NtRp4582
(dp4583
g73
(dp4584
g81
I3
ssg82
g4578
sg75
(lp4585
g68
(g77
g70
NtRp4586
(dp4587
g73
(dp4588
g81
I2
ssg82
Nsg75
(lp4589
g68
(g84
g70
NtRp4590
(dp4591
g73
(dp4592
sg82
g4586
sg75
(lp4593
g68
(g89
g70
NtRp4594
(dp4595
g73
(dp4596
sg82
g4590
sg75
(lp4597
g68
(g69
g70
NtRp4598
(dp4599
g73
(dp4600
g81
I2
ssg82
g4594
sg75
(lp4601
g68
(g77
g70
NtRp4602
(dp4603
g73
(dp4604
g81
I1
ssg82
Nsg75
(lp4605
g68
(g84
g70
NtRp4606
(dp4607
g73
(dp4608
sg82
g4602
sg75
(lp4609
g68
(g89
g70
NtRp4610
(dp4611
g73
(dp4612
sg82
g4606
sg75
(lp4613
g68
(g69
g70
NtRp4614
(dp4615
g73
(dp4616
g81
I1
ssg82
g4610
sg75
(lp4617
g4473
(S's\x08\x00\x00\x00My Sites'
tRp4618
asbasbasbag68
(g84
g70
NtRp4619
(dp4620
g73
(dp4621
sg82
g4602
sg75
(lp4622
g68
(g89
g70
NtRp4623
(dp4624
g73
(dp4625
sg82
g4619
sg75
(lp4626
g68
(g69
g70
NtRp4627
(dp4628
g73
(dp4629
g81
I1
ssg82
g4623
sg75
(lp4630
I00
asbasbasbag68
(g84
g70
NtRp4631
(dp4632
g73
(dp4633
sg82
g4602
sg75
(lp4634
g68
(g89
g70
NtRp4635
(dp4636
g73
(dp4637
sg82
g4631
sg75
(lp4638
g68
(g69
g70
NtRp4639
(dp4640
g73
(dp4641
g81
I1
ssg82
g4635
sg75
(lp4642
S'/admin/default/site'
p4643
asbasbasbasbasbasbasbag68
(g84
g70
NtRp4644
(dp4645
g73
(dp4646
sg82
g4586
sg75
(lp4647
g68
(g89
g70
NtRp4648
(dp4649
g73
(dp4650
sg82
g4644
sg75
(lp4651
g68
(g69
g70
NtRp4652
(dp4653
g73
(dp4654
g81
I2
ssg82
g4648
sg75
(lp4655
g68
(g77
g70
NtRp4656
(dp4657
g73
(dp4658
g81
I1
ssg82
Nsg75
(lp4659
g68
(g84
g70
NtRp4660
(dp4661
g73
(dp4662
sg82
g4656
sg75
(lp4663
g68
(g89
g70
NtRp4664
(dp4665
g73
(dp4666
sg82
g4660
sg75
(lp4667
g68
(g69
g70
NtRp4668
(dp4669
g73
(dp4670
g81
I1
ssg82
g4664
sg75
(lp4671
g4473
(S's\x08\x00\x00\x00This App'
tRp4672
asbasbasbag68
(g84
g70
NtRp4673
(dp4674
g73
(dp4675
sg82
g4656
sg75
(lp4676
g68
(g89
g70
NtRp4677
(dp4678
g73
(dp4679
sg82
g4673
sg75
(lp4680
g68
(g69
g70
NtRp4681
(dp4682
g73
(dp4683
g81
I1
ssg82
g4677
sg75
(lp4684
I00
asbasbasbag68
(g84
g70
NtRp4685
(dp4686
g73
(dp4687
sg82
g4656
sg75
(lp4688
g68
(g89
g70
NtRp4689
(dp4690
g73
(dp4691
sg82
g4685
sg75
(lp4692
g68
(g69
g70
NtRp4693
(dp4694
g73
(dp4695
g81
I1
ssg82
g4689
sg75
(lp4696
S'/admin/default/design/Assignment_2'
p4697
asbasbasbag68
(g84
g70
NtRp4698
(dp4699
g73
(dp4700
sg82
g4656
sg75
(lp4701
g68
(g89
g70
NtRp4702
(dp4703
g73
(dp4704
sg82
g4698
sg75
(lp4705
g68
(g69
g70
NtRp4706
(dp4707
g73
(dp4708
g81
I1
ssg82
g4702
sg75
(lp4709
(lp4710
(g4473
(S's\n\x00\x00\x00Controller'
tRp4711
I00
S'/admin/default/edit/Assignment_2/controllers/default.py'
tp4712
a(g4473
(S's\x04\x00\x00\x00View'
tRp4713
I00
S'/admin/default/edit/Assignment_2/views/default/client.html'
tp4714
a(g4473
(S's\x06\x00\x00\x00Layout'
tRp4715
I00
S'/admin/default/edit/Assignment_2/views/layout.html'
tp4716
a(g4473
(S's\n\x00\x00\x00Stylesheet'
tRp4717
I00
S'/admin/default/edit/Assignment_2/static/css/web2py.css'
tp4718
a(g4473
(S's\x08\x00\x00\x00DB Model'
tRp4719
I00
S'/admin/default/edit/Assignment_2/models/db.py'
tp4720
a(g4473
(S's\n\x00\x00\x00Menu Model'
tRp4721
I00
S'/admin/default/edit/Assignment_2/models/menu.py'
tp4722
a(g4473
(S's\x08\x00\x00\x00Database'
tRp4723
I00
S'/Assignment_2/appadmin/index'
tp4724
a(g4473
(S's\x06\x00\x00\x00Errors'
tRp4725
I00
S'/admin/default/errors/Assignment_2'
tp4726
a(g4473
(S's\x05\x00\x00\x00About'
tRp4727
I00
S'/admin/default/about/Assignment_2'
tp4728
aasbasbasbasbasbasbasbag68
(g84
g70
NtRp4729
(dp4730
g73
(dp4731
sg82
g4586
sg75
(lp4732
g68
(g89
g70
NtRp4733
(dp4734
g73
(dp4735
sg82
g4729
sg75
(lp4736
g68
(g69
g70
NtRp4737
(dp4738
g73
(dp4739
g81
I2
ssg82
g4733
sg75
(lp4740
g68
(g77
g70
NtRp4741
(dp4742
g73
(dp4743
g81
I1
ssg82
Nsg75
(lp4744
g68
(g84
g70
NtRp4745
(dp4746
g73
(dp4747
sg82
g4741
sg75
(lp4748
g68
(g89
g70
NtRp4749
(dp4750
g73
(dp4751
sg82
g4745
sg75
(lp4752
g68
(g69
g70
NtRp4753
(dp4754
g73
(dp4755
g81
I1
ssg82
g4749
sg75
(lp4756
S'web2py.com'
p4757
asbasbasbag68
(g84
g70
NtRp4758
(dp4759
g73
(dp4760
sg82
g4741
sg75
(lp4761
g68
(g89
g70
NtRp4762
(dp4763
g73
(dp4764
sg82
g4758
sg75
(lp4765
g68
(g69
g70
NtRp4766
(dp4767
g73
(dp4768
g81
I1
ssg82
g4762
sg75
(lp4769
I00
asbasbasbag68
(g84
g70
NtRp4770
(dp4771
g73
(dp4772
sg82
g4741
sg75
(lp4773
g68
(g89
g70
NtRp4774
(dp4775
g73
(dp4776
sg82
g4770
sg75
(lp4777
g68
(g69
g70
NtRp4778
(dp4779
g73
(dp4780
g81
I1
ssg82
g4774
sg75
(lp4781
S'http://www.web2py.com'
p4782
asbasbasbag68
(g84
g70
NtRp4783
(dp4784
g73
(dp4785
sg82
g4741
sg75
(lp4786
g68
(g89
g70
NtRp4787
(dp4788
g73
(dp4789
sg82
g4783
sg75
(lp4790
g68
(g69
g70
NtRp4791
(dp4792
g73
(dp4793
g81
I1
ssg82
g4787
sg75
(lp4794
(lp4795
(g4473
(S's\x08\x00\x00\x00Download'
tRp4796
I00
S'http://www.web2py.com/examples/default/download'
p4797
tp4798
a(g4473
(S's\x07\x00\x00\x00Support'
tRp4799
I00
S'http://www.web2py.com/examples/default/support'
p4800
tp4801
a(g4473
(S's\x04\x00\x00\x00Demo'
tRp4802
I00
S'http://web2py.com/demo_admin'
p4803
tp4804
a(g4473
(S's\x0e\x00\x00\x00Quick Examples'
tRp4805
I00
S'http://web2py.com/examples/default/examples'
p4806
tp4807
a(g4473
(S's\x03\x00\x00\x00FAQ'
tRp4808
I00
S'http://web2py.com/AlterEgo'
p4809
tp4810
a(g4473
(S's\x06\x00\x00\x00Videos'
tRp4811
I00
S'http://www.web2py.com/examples/default/videos/'
p4812
tp4813
a(g4473
(S's\x11\x00\x00\x00Free Applications'
tRp4814
I00
S'http://web2py.com/appliances'
p4815
tp4816
a(g4473
(S's\x07\x00\x00\x00Plugins'
tRp4817
I00
S'http://web2py.com/plugins'
p4818
tp4819
a(g4473
(S's\x07\x00\x00\x00Layouts'
tRp4820
I00
S'http://web2py.com/layouts'
p4821
tp4822
a(g4473
(S's\x07\x00\x00\x00Recipes'
tRp4823
I00
S'http://web2pyslices.com/'
p4824
tp4825
a(g4473
(S's\x08\x00\x00\x00Semantic'
tRp4826
I00
S'http://web2py.com/semantic'
p4827
tp4828
aasbasbasbasbasbasbasbag68
(g84
g70
NtRp4829
(dp4830
g73
(dp4831
sg82
g4586
sg75
(lp4832
g68
(g89
g70
NtRp4833
(dp4834
g73
(dp4835
sg82
g4829
sg75
(lp4836
g68
(g69
g70
NtRp4837
(dp4838
g73
(dp4839
g81
I2
ssg82
g4833
sg75
(lp4840
g68
(g77
g70
NtRp4841
(dp4842
g73
(dp4843
g81
I1
ssg82
Nsg75
(lp4844
g68
(g84
g70
NtRp4845
(dp4846
g73
(dp4847
sg82
g4841
sg75
(lp4848
g68
(g89
g70
NtRp4849
(dp4850
g73
(dp4851
sg82
g4845
sg75
(lp4852
g68
(g69
g70
NtRp4853
(dp4854
g73
(dp4855
g81
I1
ssg82
g4849
sg75
(lp4856
g4473
(S's\r\x00\x00\x00Documentation'
tRp4857
asbasbasbag68
(g84
g70
NtRp4858
(dp4859
g73
(dp4860
sg82
g4841
sg75
(lp4861
g68
(g89
g70
NtRp4862
(dp4863
g73
(dp4864
sg82
g4858
sg75
(lp4865
g68
(g69
g70
NtRp4866
(dp4867
g73
(dp4868
g81
I1
ssg82
g4862
sg75
(lp4869
I00
asbasbasbag68
(g84
g70
NtRp4870
(dp4871
g73
(dp4872
sg82
g4841
sg75
(lp4873
g68
(g89
g70
NtRp4874
(dp4875
g73
(dp4876
sg82
g4870
sg75
(lp4877
g68
(g69
g70
NtRp4878
(dp4879
g73
(dp4880
g81
I1
ssg82
g4874
sg75
(lp4881
S'http://www.web2py.com/book'
p4882
asbasbasbag68
(g84
g70
NtRp4883
(dp4884
g73
(dp4885
sg82
g4841
sg75
(lp4886
g68
(g89
g70
NtRp4887
(dp4888
g73
(dp4889
sg82
g4883
sg75
(lp4890
g68
(g69
g70
NtRp4891
(dp4892
g73
(dp4893
g81
I1
ssg82
g4887
sg75
(lp4894
(lp4895
(g4473
(S's\x07\x00\x00\x00Preface'
tRp4896
I00
S'http://www.web2py.com/book/default/chapter/00'
p4897
tp4898
a(g4473
(S's\x0c\x00\x00\x00Introduction'
tRp4899
I00
S'http://www.web2py.com/book/default/chapter/01'
p4900
tp4901
a(g4473
(S's\x06\x00\x00\x00Python'
tRp4902
I00
S'http://www.web2py.com/book/default/chapter/02'
p4903
tp4904
a(g4473
(S's\x08\x00\x00\x00Overview'
tRp4905
I00
S'http://www.web2py.com/book/default/chapter/03'
p4906
tp4907
a(g4473
(S's\x08\x00\x00\x00The Core'
tRp4908
I00
S'http://www.web2py.com/book/default/chapter/04'
p4909
tp4910
a(g4473
(S's\t\x00\x00\x00The Views'
tRp4911
I00
S'http://www.web2py.com/book/default/chapter/05'
p4912
tp4913
a(g4473
(S's\x08\x00\x00\x00Database'
tRp4914
I00
S'http://www.web2py.com/book/default/chapter/06'
p4915
tp4916
a(g4473
(S's\x14\x00\x00\x00Forms and Validators'
tRp4917
I00
S'http://www.web2py.com/book/default/chapter/07'
p4918
tp4919
a(g4473
(S's\r\x00\x00\x00Email and SMS'
tRp4920
I00
S'http://www.web2py.com/book/default/chapter/08'
p4921
tp4922
a(g4473
(S's\x0e\x00\x00\x00Access Control'
tRp4923
I00
S'http://www.web2py.com/book/default/chapter/09'
p4924
tp4925
a(g4473
(S's\x08\x00\x00\x00Services'
tRp4926
I00
S'http://www.web2py.com/book/default/chapter/10'
p4927
tp4928
a(g4473
(S's\x0c\x00\x00\x00Ajax Recipes'
tRp4929
I00
S'http://www.web2py.com/book/default/chapter/11'
p4930
tp4931
a(g4473
(S's\x16\x00\x00\x00Components and Plugins'
tRp4932
I00
S'http://www.web2py.com/book/default/chapter/12'
p4933
tp4934
a(g4473
(S's\x12\x00\x00\x00Deployment Recipes'
tRp4935
I00
S'http://www.web2py.com/book/default/chapter/13'
p4936
tp4937
a(g4473
(S's\r\x00\x00\x00Other Recipes'
tRp4938
I00
S'http://www.web2py.com/book/default/chapter/14'
p4939
tp4940
a(g4473
(S's\r\x00\x00\x00Buy this book'
tRp4941
I00
S'http://stores.lulu.com/web2py'
p4942
tp4943
aasbasbasbasbasbasbasbag68
(g84
g70
NtRp4944
(dp4945
g73
(dp4946
sg82
g4586
sg75
(lp4947
g68
(g89
g70
NtRp4948
(dp4949
g73
(dp4950
sg82
g4944
sg75
(lp4951
g68
(g69
g70
NtRp4952
(dp4953
g73
(dp4954
g81
I2
ssg82
g4948
sg75
(lp4955
g68
(g77
g70
NtRp4956
(dp4957
g73
(dp4958
g81
I1
ssg82
Nsg75
(lp4959
g68
(g84
g70
NtRp4960
(dp4961
g73
(dp4962
sg82
g4956
sg75
(lp4963
g68
(g89
g70
NtRp4964
(dp4965
g73
(dp4966
sg82
g4960
sg75
(lp4967
g68
(g69
g70
NtRp4968
(dp4969
g73
(dp4970
g81
I1
ssg82
g4964
sg75
(lp4971
g4473
(S's\t\x00\x00\x00Community'
tRp4972
asbasbasbag68
(g84
g70
NtRp4973
(dp4974
g73
(dp4975
sg82
g4956
sg75
(lp4976
g68
(g89
g70
NtRp4977
(dp4978
g73
(dp4979
sg82
g4973
sg75
(lp4980
g68
(g69
g70
NtRp4981
(dp4982
g73
(dp4983
g81
I1
ssg82
g4977
sg75
(lp4984
I00
asbasbasbag68
(g84
g70
NtRp4985
(dp4986
g73
(dp4987
sg82
g4956
sg75
(lp4988
g68
(g89
g70
NtRp4989
(dp4990
g73
(dp4991
sg82
g4985
sg75
(lp4992
g68
(g69
g70
NtRp4993
(dp4994
g73
(dp4995
g81
I1
ssg82
g4989
sg75
(lp4996
Nasbasbasbag68
(g84
g70
NtRp4997
(dp4998
g73
(dp4999
sg82
g4956
sg75
(lp5000
g68
(g89
g70
NtRp5001
(dp5002
g73
(dp5003
sg82
g4997
sg75
(lp5004
g68
(g69
g70
NtRp5005
(dp5006
g73
(dp5007
g81
I1
ssg82
g5001
sg75
(lp5008
(lp5009
(g4473
(S's\x06\x00\x00\x00Groups'
tRp5010
I00
S'http://www.web2py.com/examples/default/usergroups'
p5011
tp5012
a(g4473
(S's\x07\x00\x00\x00Twitter'
tRp5013
I00
S'http://twitter.com/web2py'
p5014
tp5015
a(g4473
(S's\t\x00\x00\x00Live Chat'
tRp5016
I00
S'http://webchat.freenode.net/?channels=web2py'
p5017
tp5018
aasbasbasbasbasbasbasbag68
(g84
g70
NtRp5019
(dp5020
g73
(dp5021
sg82
g4586
sg75
(lp5022
g68
(g89
g70
NtRp5023
(dp5024
g73
(dp5025
sg82
g5019
sg75
(lp5026
g68
(g69
g70
NtRp5027
(dp5028
g73
(dp5029
g81
I2
ssg82
g5023
sg75
(lp5030
g68
(g77
g70
NtRp5031
(dp5032
g73
(dp5033
g81
I1
ssg82
Nsg75
(lp5034
g68
(g84
g70
NtRp5035
(dp5036
g73
(dp5037
sg82
g5031
sg75
(lp5038
g68
(g89
g70
NtRp5039
(dp5040
g73
(dp5041
sg82
g5035
sg75
(lp5042
g68
(g69
g70
NtRp5043
(dp5044
g73
(dp5045
g81
I1
ssg82
g5039
sg75
(lp5046
g4473
(S's\x07\x00\x00\x00Plugins'
tRp5047
asbasbasbag68
(g84
g70
NtRp5048
(dp5049
g73
(dp5050
sg82
g5031
sg75
(lp5051
g68
(g89
g70
NtRp5052
(dp5053
g73
(dp5054
sg82
g5048
sg75
(lp5055
g68
(g69
g70
NtRp5056
(dp5057
g73
(dp5058
g81
I1
ssg82
g5052
sg75
(lp5059
I00
asbasbasbag68
(g84
g70
NtRp5060
(dp5061
g73
(dp5062
sg82
g5031
sg75
(lp5063
g68
(g89
g70
NtRp5064
(dp5065
g73
(dp5066
sg82
g5060
sg75
(lp5067
g68
(g69
g70
NtRp5068
(dp5069
g73
(dp5070
g81
I1
ssg82
g5064
sg75
(lp5071
Nasbasbasbag68
(g84
g70
NtRp5072
(dp5073
g73
(dp5074
sg82
g5031
sg75
(lp5075
g68
(g89
g70
NtRp5076
(dp5077
g73
(dp5078
sg82
g5072
sg75
(lp5079
g68
(g69
g70
NtRp5080
(dp5081
g73
(dp5082
g81
I1
ssg82
g5076
sg75
(lp5083
(lp5084
(S'plugin_wiki'
p5085
I00
S'http://web2py.com/examples/default/download'
p5086
tp5087
a(g4473
(S's\r\x00\x00\x00Other Plugins'
tRp5088
I00
g4818
tp5089
a(g4473
(S's\x0e\x00\x00\x00Layout Plugins'
tRp5090
I00
g4821
tp5091
aasbasbasbasbasbasbasbasbasbasbasbasbasbasbasbasbasbasbasbag68
(g84
g70
NtRp5092
(dp5093
g73
(dp5094
sg82
g3939
sg75
(lp5095
g68
(g89
g70
NtRp5096
(dp5097
g73
(dp5098
g93
g94
ssg82
g5092
sg75
(lp5099
S'meta'
p5100
asbag68
(g89
g70
NtRp5101
(dp5102
g73
(dp5103
g100
g101
ssg82
g5092
sg75
(lp5104
S':'
asbag68
(g89
g70
NtRp5105
(dp5106
g73
(dp5107
sg82
g5092
sg75
(lp5108
g68
(g69
g70
NtRp5109
(dp5110
g73
(dp5111
g81
I5
ssg82
g5105
sg75
(lp5112
g68
(g77
g70
NtRp5113
(dp5114
g73
(dp5115
g81
I4
ssg82
Nsg75
(lp5116
g68
(g84
g70
NtRp5117
(dp5118
g73
(dp5119
sg82
g5113
sg75
(lp5120
g68
(g89
g70
NtRp5121
(dp5122
g73
(dp5123
g93
g94
ssg82
g5117
sg75
(lp5124
S'author'
p5125
asbag68
(g89
g70
NtRp5126
(dp5127
g73
(dp5128
g100
g101
ssg82
g5117
sg75
(lp5129
S':'
asbag68
(g89
g70
NtRp5130
(dp5131
g73
(dp5132
sg82
g5117
sg75
(lp5133
g68
(g69
g70
NtRp5134
(dp5135
g73
(dp5136
g81
I4
ssg82
g5130
sg75
(lp5137
S'Your Name <you@example.com>'
p5138
asbasbasbag68
(g84
g70
NtRp5139
(dp5140
g73
(dp5141
sg82
g5113
sg75
(lp5142
g68
(g89
g70
NtRp5143
(dp5144
g73
(dp5145
g93
g94
ssg82
g5139
sg75
(lp5146
S'description'
p5147
asbag68
(g89
g70
NtRp5148
(dp5149
g73
(dp5150
g100
g101
ssg82
g5139
sg75
(lp5151
S':'
asbag68
(g89
g70
NtRp5152
(dp5153
g73
(dp5154
sg82
g5139
sg75
(lp5155
g68
(g69
g70
NtRp5156
(dp5157
g73
(dp5158
g81
I4
ssg82
g5152
sg75
(lp5159
S'a cool new app'
p5160
asbasbasbag68
(g84
g70
NtRp5161
(dp5162
g73
(dp5163
sg82
g5113
sg75
(lp5164
g68
(g89
g70
NtRp5165
(dp5166
g73
(dp5167
g93
g94
ssg82
g5161
sg75
(lp5168
S'generator'
p5169
asbag68
(g89
g70
NtRp5170
(dp5171
g73
(dp5172
g100
g101
ssg82
g5161
sg75
(lp5173
S':'
asbag68
(g89
g70
NtRp5174
(dp5175
g73
(dp5176
sg82
g5161
sg75
(lp5177
g68
(g69
g70
NtRp5178
(dp5179
g73
(dp5180
g81
I4
ssg82
g5174
sg75
(lp5181
S'Web2py Web Framework'
p5182
asbasbasbag68
(g84
g70
NtRp5183
(dp5184
g73
(dp5185
sg82
g5113
sg75
(lp5186
g68
(g89
g70
NtRp5187
(dp5188
g73
(dp5189
g93
g94
ssg82
g5183
sg75
(lp5190
S'keywords'
p5191
asbag68
(g89
g70
NtRp5192
(dp5193
g73
(dp5194
g100
g101
ssg82
g5183
sg75
(lp5195
S':'
asbag68
(g89
g70
NtRp5196
(dp5197
g73
(dp5198
sg82
g5183
sg75
(lp5199
g68
(g69
g70
NtRp5200
(dp5201
g73
(dp5202
g81
I4
ssg82
g5196
sg75
(lp5203
S'web2py, python, framework'
p5204
asbasbasbasbasbasbasbag68
(g84
g70
NtRp5205
(dp5206
g73
(dp5207
sg82
g3939
sg75
(lp5208
g68
(g89
g70
NtRp5209
(dp5210
g73
(dp5211
g93
g94
ssg82
g5205
sg75
(lp5212
S'models_to_run'
p5213
asbag68
(g89
g70
NtRp5214
(dp5215
g73
(dp5216
g100
g101
ssg82
g5205
sg75
(lp5217
S':'
asbag68
(g89
g70
NtRp5218
(dp5219
g73
(dp5220
sg82
g5205
sg75
(lp5221
g68
(g69
g70
NtRp5222
(dp5223
g73
(dp5224
g81
I5
ssg82
g5218
sg75
(lp5225
g68
(g77
g70
NtRp5226
(dp5227
g73
(dp5228
g81
I4
ssg82
Nsg75
(lp5229
g68
(g84
g70
NtRp5230
(dp5231
g73
(dp5232
sg82
g5226
sg75
(lp5233
g68
(g89
g70
NtRp5234
(dp5235
g73
(dp5236
sg82
g5230
sg75
(lp5237
g68
(g69
g70
NtRp5238
(dp5239
g73
(dp5240
g81
I4
ssg82
g5234
sg75
(lp5241
S'^\\w+\\.py$'
p5242
asbasbasbag68
(g84
g70
NtRp5243
(dp5244
g73
(dp5245
sg82
g5226
sg75
(lp5246
g68
(g89
g70
NtRp5247
(dp5248
g73
(dp5249
sg82
g5243
sg75
(lp5250
g68
(g69
g70
NtRp5251
(dp5252
g73
(dp5253
g81
I4
ssg82
g5247
sg75
(lp5254
S'^default/\\w+\\.py$'
p5255
asbasbasbag68
(g84
g70
NtRp5256
(dp5257
g73
(dp5258
sg82
g5226
sg75
(lp5259
g68
(g89
g70
NtRp5260
(dp5261
g73
(dp5262
sg82
g5256
sg75
(lp5263
g68
(g69
g70
NtRp5264
(dp5265
g73
(dp5266
g81
I4
ssg82
g5260
sg75
(lp5267
S'^default/client/\\w+\\.py$'
p5268
asbasbasbasbasbasbasbag68
(g84
g70
NtRp5269
(dp5270
g73
(dp5271
sg82
g3939
sg75
(lp5272
g68
(g89
g70
NtRp5273
(dp5274
g73
(dp5275
g93
g94
ssg82
g5269
sg75
(lp5276
S'postprocessing'
p5277
asbag68
(g89
g70
NtRp5278
(dp5279
g73
(dp5280
g100
g101
ssg82
g5269
sg75
(lp5281
S':'
asbag68
(g89
g70
NtRp5282
(dp5283
g73
(dp5284
sg82
g5269
sg75
(lp5285
g68
(g69
g70
NtRp5286
(dp5287
g73
(dp5288
g81
I5
ssg82
g5282
sg75
(lp5289
g68
(g77
g70
NtRp5290
(dp5291
g73
(dp5292
g81
I4
ssg82
Nsg75
(lp5293
sbasbasbasbag68
(g84
g70
NtRp5294
(dp5295
g73
(dp5296
sg82
g3939
sg75
(lp5297
g68
(g89
g70
NtRp5298
(dp5299
g73
(dp5300
g93
g94
ssg82
g5294
sg75
(lp5301
S'session_cookie_expires'
p5302
asbag68
(g89
g70
NtRp5303
(dp5304
g73
(dp5305
g100
g101
ssg82
g5294
sg75
(lp5306
S':'
asbag68
(g89
g70
NtRp5307
(dp5308
g73
(dp5309
sg82
g5294
sg75
(lp5310
g68
(g69
g70
NtRp5311
(dp5312
g73
(dp5313
g81
I5
ssg82
g5307
sg75
(lp5314
S'None'
p5315
asbasbasbag68
(g84
g70
NtRp5316
(dp5317
g73
(dp5318
sg82
g3939
sg75
(lp5319
g68
(g89
g70
NtRp5320
(dp5321
g73
(dp5322
g93
g94
ssg82
g5316
sg75
(lp5323
S'session_data_name'
p5324
asbag68
(g89
g70
NtRp5325
(dp5326
g73
(dp5327
g100
g101
ssg82
g5316
sg75
(lp5328
S':'
asbag68
(g89
g70
NtRp5329
(dp5330
g73
(dp5331
sg82
g5316
sg75
(lp5332
g68
(g69
g70
NtRp5333
(dp5334
g73
(dp5335
g81
I5
ssg82
g5329
sg75
(lp5336
S'session_data_assignment_2'
p5337
asbasbasbag68
(g84
g70
NtRp5338
(dp5339
g73
(dp5340
sg82
g3939
sg75
(lp5341
g68
(g89
g70
NtRp5342
(dp5343
g73
(dp5344
g93
g94
ssg82
g5338
sg75
(lp5345
S'session_file'
p5346
asbag68
(g89
g70
NtRp5347
(dp5348
g73
(dp5349
g100
g101
ssg82
g5338
sg75
(lp5350
S':'
asbag68
(g89
g70
NtRp5351
(dp5352
g73
(dp5353
sg82
g5338
sg75
(lp5354
g68
(g69
g70
NtRp5355
(dp5356
g73
(dp5357
g81
I5
ssg82
g5351
sg75
(lp5358
S"<open file '/home/shipra/Desktop/Semester 1.2/ITWS-2/web2py/applications/Assignment_2/sessions/127.0.0.1-a1ea54ad-1f50-4df2-bed9-5564e0abdc15', mode 'rb+' at 0x7f41083d98a0>"
p5359
asbasbasbag68
(g84
g70
NtRp5360
(dp5361
g73
(dp5362
sg82
g3939
sg75
(lp5363
g68
(g89
g70
NtRp5364
(dp5365
g73
(dp5366
g93
g94
ssg82
g5360
sg75
(lp5367
S'session_filename'
p5368
asbag68
(g89
g70
NtRp5369
(dp5370
g73
(dp5371
g100
g101
ssg82
g5360
sg75
(lp5372
S':'
asbag68
(g89
g70
NtRp5373
(dp5374
g73
(dp5375
sg82
g5360
sg75
(lp5376
g68
(g69
g70
NtRp5377
(dp5378
g73
(dp5379
g81
I5
ssg82
g5373
sg75
(lp5380
S'/home/shipra/Desktop/Semester 1.2/ITWS-2/web2py/applications/Assignment_2/sessions/127.0.0.1-a1ea54ad-1f50-4df2-bed9-5564e0abdc15'
p5381
asbasbasbag68
(g84
g70
NtRp5382
(dp5383
g73
(dp5384
sg82
g3939
sg75
(lp5385
g68
(g89
g70
NtRp5386
(dp5387
g73
(dp5388
g93
g94
ssg82
g5382
sg75
(lp5389
S'session_id'
p5390
asbag68
(g89
g70
NtRp5391
(dp5392
g73
(dp5393
g100
g101
ssg82
g5382
sg75
(lp5394
S':'
asbag68
(g89
g70
NtRp5395
(dp5396
g73
(dp5397
sg82
g5382
sg75
(lp5398
g68
(g69
g70
NtRp5399
(dp5400
g73
(dp5401
g81
I5
ssg82
g5395
sg75
(lp5402
g672
asbasbasbag68
(g84
g70
NtRp5403
(dp5404
g73
(dp5405
sg82
g3939
sg75
(lp5406
g68
(g89
g70
NtRp5407
(dp5408
g73
(dp5409
g93
g94
ssg82
g5403
sg75
(lp5410
S'session_id_name'
p5411
asbag68
(g89
g70
NtRp5412
(dp5413
g73
(dp5414
g100
g101
ssg82
g5403
sg75
(lp5415
S':'
asbag68
(g89
g70
NtRp5416
(dp5417
g73
(dp5418
sg82
g5403
sg75
(lp5419
g68
(g69
g70
NtRp5420
(dp5421
g73
(dp5422
g81
I5
ssg82
g5416
sg75
(lp5423
g3996
asbasbasbag68
(g84
g70
NtRp5424
(dp5425
g73
(dp5426
sg82
g3939
sg75
(lp5427
g68
(g89
g70
NtRp5428
(dp5429
g73
(dp5430
g93
g94
ssg82
g5424
sg75
(lp5431
S'session_locked'
p5432
asbag68
(g89
g70
NtRp5433
(dp5434
g73
(dp5435
g100
g101
ssg82
g5424
sg75
(lp5436
S':'
asbag68
(g89
g70
NtRp5437
(dp5438
g73
(dp5439
sg82
g5424
sg75
(lp5440
g68
(g69
g70
NtRp5441
(dp5442
g73
(dp5443
g81
I5
ssg82
g5437
sg75
(lp5444
g1992
asbasbasbag68
(g84
g70
NtRp5445
(dp5446
g73
(dp5447
sg82
g3939
sg75
(lp5448
g68
(g89
g70
NtRp5449
(dp5450
g73
(dp5451
g93
g94
ssg82
g5445
sg75
(lp5452
S'session_new'
p5453
asbag68
(g89
g70
NtRp5454
(dp5455
g73
(dp5456
g100
g101
ssg82
g5445
sg75
(lp5457
S':'
asbag68
(g89
g70
NtRp5458
(dp5459
g73
(dp5460
sg82
g5445
sg75
(lp5461
g68
(g69
g70
NtRp5462
(dp5463
g73
(dp5464
g81
I5
ssg82
g5458
sg75
(lp5465
g111
asbasbasbag68
(g84
g70
NtRp5466
(dp5467
g73
(dp5468
sg82
g3939
sg75
(lp5469
g68
(g89
g70
NtRp5470
(dp5471
g73
(dp5472
g93
g94
ssg82
g5466
sg75
(lp5473
S'session_storage_type'
p5474
asbag68
(g89
g70
NtRp5475
(dp5476
g73
(dp5477
g100
g101
ssg82
g5466
sg75
(lp5478
S':'
asbag68
(g89
g70
NtRp5479
(dp5480
g73
(dp5481
sg82
g5466
sg75
(lp5482
g68
(g69
g70
NtRp5483
(dp5484
g73
(dp5485
g81
I5
ssg82
g5479
sg75
(lp5486
g3447
asbasbasbag68
(g84
g70
NtRp5487
(dp5488
g73
(dp5489
sg82
g3939
sg75
(lp5490
g68
(g89
g70
NtRp5491
(dp5492
g73
(dp5493
g93
g94
ssg82
g5487
sg75
(lp5494
S'status'
p5495
asbag68
(g89
g70
NtRp5496
(dp5497
g73
(dp5498
g100
g101
ssg82
g5487
sg75
(lp5499
S':'
asbag68
(g89
g70
NtRp5500
(dp5501
g73
(dp5502
sg82
g5487
sg75
(lp5503
g68
(g69
g70
NtRp5504
(dp5505
g73
(dp5506
g81
I5
ssg82
g5500
sg75
(lp5507
S'200'
p5508
asbasbasbag68
(g84
g70
NtRp5509
(dp5510
g73
(dp5511
sg82
g3939
sg75
(lp5512
g68
(g89
g70
NtRp5513
(dp5514
g73
(dp5515
g93
g94
ssg82
g5509
sg75
(lp5516
S'subtitle'
p5517
asbag68
(g89
g70
NtRp5518
(dp5519
g73
(dp5520
g100
g101
ssg82
g5509
sg75
(lp5521
S':'
asbag68
(g89
g70
NtRp5522
(dp5523
g73
(dp5524
sg82
g5509
sg75
(lp5525
g68
(g69
g70
NtRp5526
(dp5527
g73
(dp5528
g81
I5
ssg82
g5522
sg75
(lp5529
g4473
(S's\r\x00\x00\x00customize me!'
tRp5530
asbasbasbag68
(g84
g70
NtRp5531
(dp5532
g73
(dp5533
sg82
g3939
sg75
(lp5534
g68
(g89
g70
NtRp5535
(dp5536
g73
(dp5537
g93
g94
ssg82
g5531
sg75
(lp5538
S'title'
p5539
asbag68
(g89
g70
NtRp5540
(dp5541
g73
(dp5542
g100
g101
ssg82
g5531
sg75
(lp5543
S':'
asbag68
(g89
g70
NtRp5544
(dp5545
g73
(dp5546
sg82
g5531
sg75
(lp5547
g68
(g69
g70
NtRp5548
(dp5549
g73
(dp5550
g81
I5
ssg82
g5544
sg75
(lp5551
S'Assignment 2'
p5552
asbasbasbag68
(g84
g70
NtRp5553
(dp5554
g73
(dp5555
sg82
g3939
sg75
(lp5556
g68
(g89
g70
NtRp5557
(dp5558
g73
(dp5559
g93
g94
ssg82
g5553
sg75
(lp5560
S'view'
p5561
asbag68
(g89
g70
NtRp5562
(dp5563
g73
(dp5564
g100
g101
ssg82
g5553
sg75
(lp5565
S':'
asbag68
(g89
g70
NtRp5566
(dp5567
g73
(dp5568
sg82
g5553
sg75
(lp5569
g68
(g69
g70
NtRp5570
(dp5571
g73
(dp5572
g81
I5
ssg82
g5566
sg75
(lp5573
S'default/client.html'
p5574
asbasbasbasbasbsS'locals'
p5575
(dp5576
g4
S"'/home/shipra/Desktop/Semester 1.2/ITWS-2/web2py/applications/Assignment_2/controllers/default.py'"
p5577
sg6
S"'# -*- coding: utf-8 -*-\\n# this file is released ...crud())\\n\\nresponse._vars=response._caller(client)\\n'"
p5578
sssS'traceback'
p5579
S'Traceback (most recent call last):\n  File "/home/shipra/Desktop/Semester 1.2/ITWS-2/web2py/gluon/restricted.py", line 211, in restricted\n    ccode = compile2(code, layer)\n  File "/home/shipra/Desktop/Semester 1.2/ITWS-2/web2py/gluon/restricted.py", line 194, in compile2\n    return compile(code.rstrip().replace(\'\\r\\n\', \'\\n\') + \'\\n\', layer, \'exec\')\n  File "/home/shipra/Desktop/Semester 1.2/ITWS-2/web2py/applications/Assignment_2/controllers/default.py", line 15\n    if auth.user:\n   ^\nIndentationError: unexpected indent\n'
p5580
s.