(dp1
S'output'
p2
S"<type 'exceptions.AttributeError'> 'Row' object has no attribute '0'"
p3
sS'layer'
p4
S'/home/shipra/Desktop/Semester 1.2/ITWS-2/web2py/applications/Assignment_2/views/default/comm_post.html'
p5
sS'code'
p6
S'response.write(\'<!DOCTYPE html>\\n<!-- paulirish.com/2008/conditional-stylesheets-vs-css-hacks-answer-neither/ -->\\n<!--[if lt IE 7]><html class="ie ie6 ie-lte9 ie-lte8 ie-lte7 no-js" lang="\', escape=False)\nresponse.write(T.accepted_language or \'en\')\nresponse.write(\'"> <![endif]-->\\n<!--[if IE 7]><html class="ie ie7 ie-lte9 ie-lte8 ie-lte7 no-js" lang="\', escape=False)\nresponse.write(T.accepted_language or \'en\')\nresponse.write(\'"> <![endif]-->\\n<!--[if IE 8]><html class="ie ie8 ie-lte9 ie-lte8 no-js" lang="\', escape=False)\nresponse.write(T.accepted_language or \'en\')\nresponse.write(\'"> <![endif]-->\\n<!--[if IE 9]><html class="ie9 ie-lte9 no-js" lang="\', escape=False)\nresponse.write(T.accepted_language or \'en\')\nresponse.write(\'"> <![endif]-->\\n<!--[if (gt IE 9)|!(IE)]><!--> <html class="no-js" lang="\', escape=False)\nresponse.write(T.accepted_language or \'en\')\nresponse.write(\'"> <!--<![endif]-->\\n<head>\\n  <meta charset="utf-8" />\\n  <!-- www.phpied.com/conditional-comments-block-downloads/ -->\\n  <!-- Always force latest IE rendering engine\\n       (even in intranet) & Chrome Frame\\n       Remove this if you use the .htaccess -->\\n  <!--[if IE]>\\n      <meta http-equiv="X-UA-Compatible" content="IE=edge\', escape=False)\nresponse.write(not request.is_local and \',chrome=1\' or \'\')\nresponse.write(\'">\\n      <![endif]-->\\n\\n  <title>\', escape=False)\nresponse.write(response.title or request.application)\nresponse.write(\'</title>\\n\\n  <!-- http://dev.w3.org/html5/markup/meta.name.html -->\\n  <meta name="application-name" content="\', escape=False)\nresponse.write(request.application)\nresponse.write(\'" />\\n\\n  <!-- Speaking of Google, don\\\'t forget to set your site up:\\n       http://google.com/webmasters -->\\n  <meta name="google-site-verification" content="" />\\n\\n  <!--  Mobile Viewport Fix\\n        j.mp/mobileviewport & davidbcalhoun.com/2010/viewport-metatag\\n        device-width: Occupy full width of the screen in its current orientation\\n        initial-scale = 1.0 retains dimensions instead of zooming out if page height > device height\\n        user-scalable = yes allows the user to zoom in -->\\n  <meta name="viewport" content="width=device-width, initial-scale=1.0" />\\n\\n  <link rel="shortcut icon" href="\', escape=False)\nresponse.write(URL(\'static\',\'images/favicon.ico\'))\nresponse.write(\'" type="image/x-icon">\\n  <link rel="apple-touch-icon" href="\', escape=False)\nresponse.write(URL(\'static\',\'images/favicon.png\'))\nresponse.write(\'">\\n\\n  <!-- All JavaScript at the bottom, except for Modernizr which enables\\n       HTML5 elements & feature detects -->\\n  <script src="\', escape=False)\nresponse.write(URL(\'static\',\'js/modernizr.custom.js\'))\nresponse.write(\'"></script>\\n\\n  <!-- include stylesheets -->\\n  \', escape=False)\nresponse.files.append(URL(\'static\',\'css/web2py.css\'))\nresponse.files.append(URL(\'static\',\'css/bootstrap.min.css\'))\nresponse.files.append(URL(\'static\',\'css/bootstrap-responsive.min.css\'))\nresponse.files.append(URL(\'static\',\'css/web2py_bootstrap.css\'))\nresponse.write(\'\\n\\n  \', escape=False)\nresponse.write(\'<script type="text/javascript"><!--\\n    // These variables are used by the web2py_ajax_init function in web2py_ajax.js (which is loaded below).\\n    var w2p_ajax_confirm_message = "\', escape=False)\nresponse.write(T(\'Are you sure you want to delete this object?\'))\nresponse.write(\'";\\n    var w2p_ajax_date_format = "\', escape=False)\nresponse.write(T(\'%Y-%m-%d\'))\nresponse.write(\'";\\n    var w2p_ajax_datetime_format = "\', escape=False)\nresponse.write(T(\'%Y-%m-%d %H:%M:%S\'))\nresponse.write(\'";\\n    //--></script>\\n\', escape=False)\nresponse.files.insert(0,URL(\'static\',\'js/jquery.js\'))\nresponse.files.insert(1,URL(\'static\',\'css/calendar.css\'))\nresponse.files.insert(2,URL(\'static\',\'js/calendar.js\'))\nresponse.files.insert(3,URL(\'static\',\'js/web2py.js\'))\nresponse.include_meta()\nresponse.include_files()\nresponse.write(\'\\n\', escape=False)\nresponse.write(\'\\n\\n  \', escape=False)\n# using sidebars need to know what sidebar you want to use\nleft_sidebar_enabled = globals().get(\'left_sidebar_enabled\',False)\nright_sidebar_enabled = globals().get(\'right_sidebar_enabled\',False)\nmiddle_columns = {0:\'span12\',1:\'span9\',2:\'span6\'}[\n(left_sidebar_enabled and 1 or 0)+(right_sidebar_enabled and 1 or 0)]\nresponse.write(\'\\n\\n  <!-- uncomment here to load jquery-ui\\n       <link rel="stylesheet" href="http://ajax.googleapis.com/ajax/libs/jqueryui/1.8.16/themes/base/jquery-ui.css" type="text/css" media="all" />\\n       <script src="http://ajax.googleapis.com/ajax/libs/jqueryui/1.8.16/jquery-ui.min.js" type="text/javascript"></script>\\n       uncomment to load jquery-ui //-->\\n  <noscript><link href="\', escape=False)\nresponse.write(URL(\'static\', \'css/web2py_bootstrap_nojs.css\'))\nresponse.write(\'" rel="stylesheet" type="text/css" /></noscript>\\n  \', escape=False)\nresponse.write(\'\\n</head>\\n\\n<body>\\n  <!-- Navbar ================================================== -->\\n  <div class="navbar navbar-inverse navbar-fixed-top">\\n    <div class="flash">\', escape=False)\nresponse.write(response.flash or \'\')\nresponse.write(\'</div>\\n    <div class="navbar-inner">\\n      <div class="container">\\n        <!-- the next tag is necessary for bootstrap menus, do not remove -->\\n        <button type="button" class="btn btn-navbar" data-toggle="collapse" data-target=".nav-collapse">\\n          <span class="icon-bar"></span>\\n          <span class="icon-bar"></span>\\n          <span class="icon-bar"></span>\\n        </button>\\n\\t\', escape=False)\nresponse.write(response.logo or \'\')\nresponse.write(\'\\n        <ul id="navbar" class="nav pull-right">\', escape=False)\nresponse.write(\'auth\' in globals() and auth.navbar(mode="dropdown") or \'\')\nresponse.write(\'</ul>\\n        <div class="nav-collapse">\\n          \', escape=False)\nis_mobile=request.user_agent().is_mobile\nresponse.write(\'\\n          \', escape=False)\nif response.menu:\n    response.write(\'\\n          \', escape=False)\n    response.write(MENU(response.menu, _class=\'mobile-menu nav\' if is_mobile else \'nav\',mobile=is_mobile,li_class=\'dropdown\',ul_class=\'dropdown-menu\'))\n    response.write(\'\\n          \', escape=False)\n    pass\nresponse.write(\'\\n        </div><!--/.nav-collapse -->\\n      </div>\\n    </div>\\n  </div><!--/top navbar -->\\n\\n  <div class="container">\\n    <!-- Masthead ================================================== -->\\n    <header class="mastheader row" id="header">\\n        <div class="span12">\\n            <div class="page-header">\\n                <h1>\\n                    \', escape=False)\nresponse.write(response.title or request.application)\nresponse.write(\'\\n                    <small>\', escape=False)\nresponse.write(response.subtitle or \'\')\nresponse.write(\'</small>\\n                </h1>\\n            </div>\\n        </div>\\n    </header>\\n\\n    <section id="main" class="main row">\\n        \', escape=False)\nif left_sidebar_enabled:\n    response.write(\'\\n        <div class="span3 left-sidebar">\\n            \', escape=False)\n    response.write(\'\\n            <h3>Left Sidebar</h3>\\n            <p></p>\\n            \', escape=False)\n    response.write(\'\\n        </div>\\n        \', escape=False)\n    pass\nresponse.write(\'\\n\\n        <div class="\', escape=False)\nresponse.write(middle_columns)\nresponse.write(\'">\\n            \', escape=False)\nresponse.write(\'\\n            \', escape=False)\nresponse.write(\'\\n<h4> Comments for this post \', escape=False)\nresponse.write(c)\nresponse.write(\' </h4>\\n<ol>\\n\', escape=False)\nfor i in range(len(comments)):\n    response.write(\'\\n<li>\', escape=False)\n    response.write(user[0][0])\n    response.write(\':\', escape=False)\n    response.write(comments[i][\'comm\'])\n    response.write(\'</li>\\n\', escape=False)\n    pass\nresponse.write(\'\\n</ol>\\n\', escape=False)\nresponse.write(form)\nresponse.write(\'\\n\', escape=False)\nresponse.write(\'\\n            \', escape=False)\nresponse.write(\'\\n        </div>\\n\\n        \', escape=False)\nif right_sidebar_enabled:\n    response.write(\'\\n        <div class="span3">\\n            \', escape=False)\n    response.write(\'\\n            <h3>Right Sidebar</h3>\\n            <p></p>\\n            \', escape=False)\n    response.write(\'\\n        </div>\\n        \', escape=False)\n    pass\nresponse.write(\'\\n    </section><!--/main-->\\n\\n    <!-- Footer ================================================== -->\\n    <div class="row">\\n        <footer class="footer span12" id="footer">\\n            <div class="footer-content">\\n                \', escape=False)\nresponse.write(\' <!-- this is default footer -->\\n                <div class="copyright pull-left">\', escape=False)\nresponse.write(T(\'Copyright\'))\nresponse.write(\' &#169; \', escape=False)\nresponse.write(request.now.year)\nresponse.write(\'</div>\\n                <div id="poweredBy" class="pull-right">\\n                    \', escape=False)\nresponse.write(T(\'Powered by\'))\nresponse.write(\'\\n                    <a href="http://www.web2py.com/">web2py</a>\\n                </div>\\n                \', escape=False)\nresponse.write(\'\\n            </div>\\n        </footer>\\n    </div>\\n\\n  </div> <!-- /container -->\\n\\n  <!-- The javascript =============================================\\n       (Placed at the end of the document so the pages load faster) -->\\n  <script src="\', escape=False)\nresponse.write(URL(\'static\',\'js/bootstrap.min.js\'))\nresponse.write(\'"></script>\\n  <script src="\', escape=False)\nresponse.write(URL(\'static\',\'js/web2py_bootstrap.js\'))\nresponse.write(\'"></script>\\n  <!--[if lt IE 7 ]>\\n      <script src="\', escape=False)\nresponse.write(URL(\'static\',\'js/dd_belatedpng.js\'))\nresponse.write(\'"></script>\\n      <script> DD_belatedPNG.fix(\\\'img, .png_bg\\\'); //fix any <img> or .png_bg background-images </script>\\n      <![endif]-->\\n  \\n  \', escape=False)\nif response.google_analytics_id:\n    response.write(\'\\n  <script src="\', escape=False)\n    response.write(URL(\'static\',\'js/analytics.js\'))\n    response.write(\'"></script>\\n  <script type="text/javascript">\\n  analytics.initialize({\\n    \\\'Google Analytics\\\':{trackingId:\\\'\', escape=False)\n    response.write(response.google_analytics_id)\n    response.write("\'} \\n  });</script>\\n  ", escape=False)\n    pass\nresponse.write(\'\\n  <script src="\', escape=False)\nresponse.write(URL(\'static\',\'js/share.js\',vars=dict(static=URL(\'static\',\'images\'))))\nresponse.write(\'"></script>\\n</body>\\n</html>\\n\\n\', escape=False)'
p7
sS'snapshot'
p8
(dp9
S'exception'
p10
(dp11
S'__hash__'
p12
S"<method-wrapper '__hash__' of exceptions.AttributeError object>"
p13
sS'__setattr__'
p14
S"<method-wrapper '__setattr__' of exceptions.AttributeError object>"
p15
sS'__reduce_ex__'
p16
S'<built-in method __reduce_ex__ of exceptions.AttributeError object>'
p17
sS'__getslice__'
p18
S"<method-wrapper '__getslice__' of exceptions.AttributeError object>"
p19
sS'__getitem__'
p20
S"<method-wrapper '__getitem__' of exceptions.AttributeError object>"
p21
sS'__setstate__'
p22
S'<built-in method __setstate__ of exceptions.AttributeError object>'
p23
sS'args'
p24
S'("\'Row\' object has no attribute \'0\'",)'
p25
sS'__reduce__'
p26
S'<built-in method __reduce__ of exceptions.AttributeError object>'
p27
sS'__str__'
p28
S"<method-wrapper '__str__' of exceptions.AttributeError object>"
p29
sS'__format__'
p30
S'<built-in method __format__ of exceptions.AttributeError object>'
p31
sS'__getattribute__'
p32
S"<method-wrapper '__getattribute__' of exceptions.AttributeError object>"
p33
sS'__class__'
p34
S"<type 'exceptions.AttributeError'>"
p35
sS'__unicode__'
p36
S'<built-in method __unicode__ of exceptions.AttributeError object>'
p37
sS'__delattr__'
p38
S"<method-wrapper '__delattr__' of exceptions.AttributeError object>"
p39
sS'__subclasshook__'
p40
S'<built-in method __subclasshook__ of type object>'
p41
sS'__repr__'
p42
S"<method-wrapper '__repr__' of exceptions.AttributeError object>"
p43
sS'__dict__'
p44
S'{}'
p45
sS'__sizeof__'
p46
S'<built-in method __sizeof__ of exceptions.AttributeError object>'
p47
sS'__doc__'
p48
S"'Attribute not found.'"
p49
sS'__init__'
p50
S"<method-wrapper '__init__' of exceptions.AttributeError object>"
p51
sS'__new__'
p52
S'<built-in method __new__ of type object>'
p53
ssS'evalue'
p54
S"'Row' object has no attribute '0'"
p55
sS'request'
p56
ccopy_reg
_reconstructor
p57
(cgluon.html
BEAUTIFY
p58
c__builtin__
object
p59
NtRp60
(dp61
S'attributes'
p62
(dp63
sS'components'
p64
(lp65
g57
(cgluon.html
TABLE
p66
g59
NtRp67
(dp68
g62
(dp69
S'level'
p70
I5
ssS'parent'
p71
Nsg64
(lp72
g57
(cgluon.html
TR
p73
g59
NtRp74
(dp75
g62
(dp76
sg71
g67
sg64
(lp77
g57
(cgluon.html
TD
p78
g59
NtRp79
(dp80
g62
(dp81
S'_style'
p82
S'font-weight:bold;vertical-align:top'
p83
ssg71
g74
sg64
(lp84
S'ajax'
p85
asbag57
(g78
g59
NtRp86
(dp87
g62
(dp88
S'_valign'
p89
S'top'
p90
ssg71
g74
sg64
(lp91
S':'
asbag57
(g78
g59
NtRp92
(dp93
g62
(dp94
sg71
g74
sg64
(lp95
g57
(g58
g59
NtRp96
(dp97
g62
(dp98
g70
I5
ssg71
g92
sg64
(lp99
S'False'
p100
asbasbasbag57
(g73
g59
NtRp101
(dp102
g62
(dp103
sg71
g67
sg64
(lp104
g57
(g78
g59
NtRp105
(dp106
g62
(dp107
g82
g83
ssg71
g101
sg64
(lp108
S'application'
p109
asbag57
(g78
g59
NtRp110
(dp111
g62
(dp112
g89
g90
ssg71
g101
sg64
(lp113
S':'
asbag57
(g78
g59
NtRp114
(dp115
g62
(dp116
sg71
g101
sg64
(lp117
g57
(g58
g59
NtRp118
(dp119
g62
(dp120
g70
I5
ssg71
g114
sg64
(lp121
S'Assignment_2'
p122
asbasbasbag57
(g73
g59
NtRp123
(dp124
g62
(dp125
sg71
g67
sg64
(lp126
g57
(g78
g59
NtRp127
(dp128
g62
(dp129
g82
g83
ssg71
g123
sg64
(lp130
g24
asbag57
(g78
g59
NtRp131
(dp132
g62
(dp133
g89
g90
ssg71
g123
sg64
(lp134
S':'
asbag57
(g78
g59
NtRp135
(dp136
g62
(dp137
sg71
g123
sg64
(lp138
g57
(g58
g59
NtRp139
(dp140
g62
(dp141
g70
I5
ssg71
g135
sg64
(lp142
g57
(g66
g59
NtRp143
(dp144
g62
(dp145
g70
I4
ssg71
Nsg64
(lp146
g57
(g73
g59
NtRp147
(dp148
g62
(dp149
sg71
g143
sg64
(lp150
g57
(g78
g59
NtRp151
(dp152
g62
(dp153
sg71
g147
sg64
(lp154
g57
(g58
g59
NtRp155
(dp156
g62
(dp157
g70
I4
ssg71
g151
sg64
(lp158
S'8'
asbasbasbag57
(g73
g59
NtRp159
(dp160
g62
(dp161
sg71
g143
sg64
(lp162
g57
(g78
g59
NtRp163
(dp164
g62
(dp165
sg71
g159
sg64
(lp166
g57
(g58
g59
NtRp167
(dp168
g62
(dp169
g70
I4
ssg71
g163
sg64
(lp170
S'Music'
p171
asbasbasbasbasbasbasbag57
(g73
g59
NtRp172
(dp173
g62
(dp174
sg71
g67
sg64
(lp175
g57
(g78
g59
NtRp176
(dp177
g62
(dp178
g82
g83
ssg71
g172
sg64
(lp179
S'body'
p180
asbag57
(g78
g59
NtRp181
(dp182
g62
(dp183
g89
g90
ssg71
g172
sg64
(lp184
S':'
asbag57
(g78
g59
NtRp185
(dp186
g62
(dp187
sg71
g172
sg64
(lp188
g57
(g58
g59
NtRp189
(dp190
g62
(dp191
g70
I5
ssg71
g185
sg64
(lp192
S'<cStringIO.StringO object at 0x7f3b5462d148>'
p193
asbasbasbag57
(g73
g59
NtRp194
(dp195
g62
(dp196
sg71
g67
sg64
(lp197
g57
(g78
g59
NtRp198
(dp199
g62
(dp200
g82
g83
ssg71
g194
sg64
(lp201
S'cid'
p202
asbag57
(g78
g59
NtRp203
(dp204
g62
(dp205
g89
g90
ssg71
g194
sg64
(lp206
S':'
asbag57
(g78
g59
NtRp207
(dp208
g62
(dp209
sg71
g194
sg64
(lp210
g57
(g58
g59
NtRp211
(dp212
g62
(dp213
g70
I5
ssg71
g207
sg64
(lp214
S'None'
p215
asbasbasbag57
(g73
g59
NtRp216
(dp217
g62
(dp218
sg71
g67
sg64
(lp219
g57
(g78
g59
NtRp220
(dp221
g62
(dp222
g82
g83
ssg71
g216
sg64
(lp223
S'client'
p224
asbag57
(g78
g59
NtRp225
(dp226
g62
(dp227
g89
g90
ssg71
g216
sg64
(lp228
S':'
asbag57
(g78
g59
NtRp229
(dp230
g62
(dp231
sg71
g216
sg64
(lp232
g57
(g58
g59
NtRp233
(dp234
g62
(dp235
g70
I5
ssg71
g229
sg64
(lp236
S'127.0.0.1'
p237
asbasbasbag57
(g73
g59
NtRp238
(dp239
g62
(dp240
sg71
g67
sg64
(lp241
g57
(g78
g59
NtRp242
(dp243
g62
(dp244
g82
g83
ssg71
g238
sg64
(lp245
S'controller'
p246
asbag57
(g78
g59
NtRp247
(dp248
g62
(dp249
g89
g90
ssg71
g238
sg64
(lp250
S':'
asbag57
(g78
g59
NtRp251
(dp252
g62
(dp253
sg71
g238
sg64
(lp254
g57
(g58
g59
NtRp255
(dp256
g62
(dp257
g70
I5
ssg71
g251
sg64
(lp258
S'default'
p259
asbasbasbag57
(g73
g59
NtRp260
(dp261
g62
(dp262
sg71
g67
sg64
(lp263
g57
(g78
g59
NtRp264
(dp265
g62
(dp266
g82
g83
ssg71
g260
sg64
(lp267
S'cookies'
p268
asbag57
(g78
g59
NtRp269
(dp270
g62
(dp271
g89
g90
ssg71
g260
sg64
(lp272
S':'
asbag57
(g78
g59
NtRp273
(dp274
g62
(dp275
sg71
g260
sg64
(lp276
g57
(g58
g59
NtRp277
(dp278
g62
(dp279
g70
I5
ssg71
g273
sg64
(lp280
g57
(g66
g59
NtRp281
(dp282
g62
(dp283
g70
I4
ssg71
Nsg64
(lp284
g57
(g73
g59
NtRp285
(dp286
g62
(dp287
sg71
g281
sg64
(lp288
g57
(g78
g59
NtRp289
(dp290
g62
(dp291
g82
g83
ssg71
g285
sg64
(lp292
S'mp_2093ad9ff9c5428a2228386de2f2b0e4_mixpanel'
p293
asbag57
(g78
g59
NtRp294
(dp295
g62
(dp296
g89
g90
ssg71
g285
sg64
(lp297
S':'
asbag57
(g78
g59
NtRp298
(dp299
g62
(dp300
sg71
g285
sg64
(lp301
g57
(g58
g59
NtRp302
(dp303
g62
(dp304
g70
I4
ssg71
g298
sg64
(lp305
S'%7B%22distinct_id%22%3A%20%2262ffc2d0-7b9f-0130-efb0-22000a1cbb2a%22%2C%22is_registered_user%22%3A%20false%2C%22%24initial_referrer%22%3A%20%22%24direct%22%2C%22%24initial_referring_domain%22%3A%20%22%24direct%22%7D'
p306
ag57
(g66
g59
NtRp307
(dp308
g62
(dp309
g70
I3
ssg71
Nsg64
(lp310
g57
(g73
g59
NtRp311
(dp312
g62
(dp313
sg71
g307
sg64
(lp314
g57
(g78
g59
NtRp315
(dp316
g62
(dp317
g82
g83
ssg71
g311
sg64
(lp318
S'comment'
p319
asbag57
(g78
g59
NtRp320
(dp321
g62
(dp322
g89
g90
ssg71
g311
sg64
(lp323
S':'
asbag57
(g78
g59
NtRp324
(dp325
g62
(dp326
sg71
g311
sg64
(lp327
g57
(g58
g59
NtRp328
(dp329
g62
(dp330
g70
I3
ssg71
g324
sg64
(lp331
S''
asbasbasbag57
(g73
g59
NtRp332
(dp333
g62
(dp334
sg71
g307
sg64
(lp335
g57
(g78
g59
NtRp336
(dp337
g62
(dp338
g82
g83
ssg71
g332
sg64
(lp339
S'domain'
p340
asbag57
(g78
g59
NtRp341
(dp342
g62
(dp343
g89
g90
ssg71
g332
sg64
(lp344
S':'
asbag57
(g78
g59
NtRp345
(dp346
g62
(dp347
sg71
g332
sg64
(lp348
g57
(g58
g59
NtRp349
(dp350
g62
(dp351
g70
I3
ssg71
g345
sg64
(lp352
S''
asbasbasbag57
(g73
g59
NtRp353
(dp354
g62
(dp355
sg71
g307
sg64
(lp356
g57
(g78
g59
NtRp357
(dp358
g62
(dp359
g82
g83
ssg71
g353
sg64
(lp360
S'expires'
p361
asbag57
(g78
g59
NtRp362
(dp363
g62
(dp364
g89
g90
ssg71
g353
sg64
(lp365
S':'
asbag57
(g78
g59
NtRp366
(dp367
g62
(dp368
sg71
g353
sg64
(lp369
g57
(g58
g59
NtRp370
(dp371
g62
(dp372
g70
I3
ssg71
g366
sg64
(lp373
S''
asbasbasbag57
(g73
g59
NtRp374
(dp375
g62
(dp376
sg71
g307
sg64
(lp377
g57
(g78
g59
NtRp378
(dp379
g62
(dp380
g82
g83
ssg71
g374
sg64
(lp381
S'httponly'
p382
asbag57
(g78
g59
NtRp383
(dp384
g62
(dp385
g89
g90
ssg71
g374
sg64
(lp386
S':'
asbag57
(g78
g59
NtRp387
(dp388
g62
(dp389
sg71
g374
sg64
(lp390
g57
(g58
g59
NtRp391
(dp392
g62
(dp393
g70
I3
ssg71
g387
sg64
(lp394
S''
asbasbasbag57
(g73
g59
NtRp395
(dp396
g62
(dp397
sg71
g307
sg64
(lp398
g57
(g78
g59
NtRp399
(dp400
g62
(dp401
g82
g83
ssg71
g395
sg64
(lp402
S'max-age'
p403
asbag57
(g78
g59
NtRp404
(dp405
g62
(dp406
g89
g90
ssg71
g395
sg64
(lp407
S':'
asbag57
(g78
g59
NtRp408
(dp409
g62
(dp410
sg71
g395
sg64
(lp411
g57
(g58
g59
NtRp412
(dp413
g62
(dp414
g70
I3
ssg71
g408
sg64
(lp415
S''
asbasbasbag57
(g73
g59
NtRp416
(dp417
g62
(dp418
sg71
g307
sg64
(lp419
g57
(g78
g59
NtRp420
(dp421
g62
(dp422
g82
g83
ssg71
g416
sg64
(lp423
S'path'
p424
asbag57
(g78
g59
NtRp425
(dp426
g62
(dp427
g89
g90
ssg71
g416
sg64
(lp428
S':'
asbag57
(g78
g59
NtRp429
(dp430
g62
(dp431
sg71
g416
sg64
(lp432
g57
(g58
g59
NtRp433
(dp434
g62
(dp435
g70
I3
ssg71
g429
sg64
(lp436
S''
asbasbasbag57
(g73
g59
NtRp437
(dp438
g62
(dp439
sg71
g307
sg64
(lp440
g57
(g78
g59
NtRp441
(dp442
g62
(dp443
g82
g83
ssg71
g437
sg64
(lp444
S'secure'
p445
asbag57
(g78
g59
NtRp446
(dp447
g62
(dp448
g89
g90
ssg71
g437
sg64
(lp449
S':'
asbag57
(g78
g59
NtRp450
(dp451
g62
(dp452
sg71
g437
sg64
(lp453
g57
(g58
g59
NtRp454
(dp455
g62
(dp456
g70
I3
ssg71
g450
sg64
(lp457
S''
asbasbasbag57
(g73
g59
NtRp458
(dp459
g62
(dp460
sg71
g307
sg64
(lp461
g57
(g78
g59
NtRp462
(dp463
g62
(dp464
g82
g83
ssg71
g458
sg64
(lp465
S'version'
p466
asbag57
(g78
g59
NtRp467
(dp468
g62
(dp469
g89
g90
ssg71
g458
sg64
(lp470
S':'
asbag57
(g78
g59
NtRp471
(dp472
g62
(dp473
sg71
g458
sg64
(lp474
g57
(g58
g59
NtRp475
(dp476
g62
(dp477
g70
I3
ssg71
g471
sg64
(lp478
S''
asbasbasbasbasbasbasbag57
(g73
g59
NtRp479
(dp480
g62
(dp481
sg71
g281
sg64
(lp482
g57
(g78
g59
NtRp483
(dp484
g62
(dp485
g82
g83
ssg71
g479
sg64
(lp486
S'session_id_admin'
p487
asbag57
(g78
g59
NtRp488
(dp489
g62
(dp490
g89
g90
ssg71
g479
sg64
(lp491
S':'
asbag57
(g78
g59
NtRp492
(dp493
g62
(dp494
sg71
g479
sg64
(lp495
g57
(g58
g59
NtRp496
(dp497
g62
(dp498
g70
I4
ssg71
g492
sg64
(lp499
S'127.0.0.1-3f0ea139-a7e6-444c-bd0e-e8d91801d9ba'
p500
ag57
(g66
g59
NtRp501
(dp502
g62
(dp503
g70
I3
ssg71
Nsg64
(lp504
g57
(g73
g59
NtRp505
(dp506
g62
(dp507
sg71
g501
sg64
(lp508
g57
(g78
g59
NtRp509
(dp510
g62
(dp511
g82
g83
ssg71
g505
sg64
(lp512
g319
asbag57
(g78
g59
NtRp513
(dp514
g62
(dp515
g89
g90
ssg71
g505
sg64
(lp516
S':'
asbag57
(g78
g59
NtRp517
(dp518
g62
(dp519
sg71
g505
sg64
(lp520
g57
(g58
g59
NtRp521
(dp522
g62
(dp523
g70
I3
ssg71
g517
sg64
(lp524
S''
asbasbasbag57
(g73
g59
NtRp525
(dp526
g62
(dp527
sg71
g501
sg64
(lp528
g57
(g78
g59
NtRp529
(dp530
g62
(dp531
g82
g83
ssg71
g525
sg64
(lp532
g340
asbag57
(g78
g59
NtRp533
(dp534
g62
(dp535
g89
g90
ssg71
g525
sg64
(lp536
S':'
asbag57
(g78
g59
NtRp537
(dp538
g62
(dp539
sg71
g525
sg64
(lp540
g57
(g58
g59
NtRp541
(dp542
g62
(dp543
g70
I3
ssg71
g537
sg64
(lp544
S''
asbasbasbag57
(g73
g59
NtRp545
(dp546
g62
(dp547
sg71
g501
sg64
(lp548
g57
(g78
g59
NtRp549
(dp550
g62
(dp551
g82
g83
ssg71
g545
sg64
(lp552
g361
asbag57
(g78
g59
NtRp553
(dp554
g62
(dp555
g89
g90
ssg71
g545
sg64
(lp556
S':'
asbag57
(g78
g59
NtRp557
(dp558
g62
(dp559
sg71
g545
sg64
(lp560
g57
(g58
g59
NtRp561
(dp562
g62
(dp563
g70
I3
ssg71
g557
sg64
(lp564
S''
asbasbasbag57
(g73
g59
NtRp565
(dp566
g62
(dp567
sg71
g501
sg64
(lp568
g57
(g78
g59
NtRp569
(dp570
g62
(dp571
g82
g83
ssg71
g565
sg64
(lp572
g382
asbag57
(g78
g59
NtRp573
(dp574
g62
(dp575
g89
g90
ssg71
g565
sg64
(lp576
S':'
asbag57
(g78
g59
NtRp577
(dp578
g62
(dp579
sg71
g565
sg64
(lp580
g57
(g58
g59
NtRp581
(dp582
g62
(dp583
g70
I3
ssg71
g577
sg64
(lp584
S''
asbasbasbag57
(g73
g59
NtRp585
(dp586
g62
(dp587
sg71
g501
sg64
(lp588
g57
(g78
g59
NtRp589
(dp590
g62
(dp591
g82
g83
ssg71
g585
sg64
(lp592
g403
asbag57
(g78
g59
NtRp593
(dp594
g62
(dp595
g89
g90
ssg71
g585
sg64
(lp596
S':'
asbag57
(g78
g59
NtRp597
(dp598
g62
(dp599
sg71
g585
sg64
(lp600
g57
(g58
g59
NtRp601
(dp602
g62
(dp603
g70
I3
ssg71
g597
sg64
(lp604
S''
asbasbasbag57
(g73
g59
NtRp605
(dp606
g62
(dp607
sg71
g501
sg64
(lp608
g57
(g78
g59
NtRp609
(dp610
g62
(dp611
g82
g83
ssg71
g605
sg64
(lp612
g424
asbag57
(g78
g59
NtRp613
(dp614
g62
(dp615
g89
g90
ssg71
g605
sg64
(lp616
S':'
asbag57
(g78
g59
NtRp617
(dp618
g62
(dp619
sg71
g605
sg64
(lp620
g57
(g58
g59
NtRp621
(dp622
g62
(dp623
g70
I3
ssg71
g617
sg64
(lp624
S''
asbasbasbag57
(g73
g59
NtRp625
(dp626
g62
(dp627
sg71
g501
sg64
(lp628
g57
(g78
g59
NtRp629
(dp630
g62
(dp631
g82
g83
ssg71
g625
sg64
(lp632
g445
asbag57
(g78
g59
NtRp633
(dp634
g62
(dp635
g89
g90
ssg71
g625
sg64
(lp636
S':'
asbag57
(g78
g59
NtRp637
(dp638
g62
(dp639
sg71
g625
sg64
(lp640
g57
(g58
g59
NtRp641
(dp642
g62
(dp643
g70
I3
ssg71
g637
sg64
(lp644
S''
asbasbasbag57
(g73
g59
NtRp645
(dp646
g62
(dp647
sg71
g501
sg64
(lp648
g57
(g78
g59
NtRp649
(dp650
g62
(dp651
g82
g83
ssg71
g645
sg64
(lp652
g466
asbag57
(g78
g59
NtRp653
(dp654
g62
(dp655
g89
g90
ssg71
g645
sg64
(lp656
S':'
asbag57
(g78
g59
NtRp657
(dp658
g62
(dp659
sg71
g645
sg64
(lp660
g57
(g58
g59
NtRp661
(dp662
g62
(dp663
g70
I3
ssg71
g657
sg64
(lp664
S''
asbasbasbasbasbasbasbag57
(g73
g59
NtRp665
(dp666
g62
(dp667
sg71
g281
sg64
(lp668
g57
(g78
g59
NtRp669
(dp670
g62
(dp671
g82
g83
ssg71
g665
sg64
(lp672
S'session_id_assignment_2'
p673
asbag57
(g78
g59
NtRp674
(dp675
g62
(dp676
g89
g90
ssg71
g665
sg64
(lp677
S':'
asbag57
(g78
g59
NtRp678
(dp679
g62
(dp680
sg71
g665
sg64
(lp681
g57
(g58
g59
NtRp682
(dp683
g62
(dp684
g70
I4
ssg71
g678
sg64
(lp685
S'127.0.0.1-c592f02a-549e-4943-9d30-e75639b34aa9'
p686
ag57
(g66
g59
NtRp687
(dp688
g62
(dp689
g70
I3
ssg71
Nsg64
(lp690
g57
(g73
g59
NtRp691
(dp692
g62
(dp693
sg71
g687
sg64
(lp694
g57
(g78
g59
NtRp695
(dp696
g62
(dp697
g82
g83
ssg71
g691
sg64
(lp698
g319
asbag57
(g78
g59
NtRp699
(dp700
g62
(dp701
g89
g90
ssg71
g691
sg64
(lp702
S':'
asbag57
(g78
g59
NtRp703
(dp704
g62
(dp705
sg71
g691
sg64
(lp706
g57
(g58
g59
NtRp707
(dp708
g62
(dp709
g70
I3
ssg71
g703
sg64
(lp710
S''
asbasbasbag57
(g73
g59
NtRp711
(dp712
g62
(dp713
sg71
g687
sg64
(lp714
g57
(g78
g59
NtRp715
(dp716
g62
(dp717
g82
g83
ssg71
g711
sg64
(lp718
g340
asbag57
(g78
g59
NtRp719
(dp720
g62
(dp721
g89
g90
ssg71
g711
sg64
(lp722
S':'
asbag57
(g78
g59
NtRp723
(dp724
g62
(dp725
sg71
g711
sg64
(lp726
g57
(g58
g59
NtRp727
(dp728
g62
(dp729
g70
I3
ssg71
g723
sg64
(lp730
S''
asbasbasbag57
(g73
g59
NtRp731
(dp732
g62
(dp733
sg71
g687
sg64
(lp734
g57
(g78
g59
NtRp735
(dp736
g62
(dp737
g82
g83
ssg71
g731
sg64
(lp738
g361
asbag57
(g78
g59
NtRp739
(dp740
g62
(dp741
g89
g90
ssg71
g731
sg64
(lp742
S':'
asbag57
(g78
g59
NtRp743
(dp744
g62
(dp745
sg71
g731
sg64
(lp746
g57
(g58
g59
NtRp747
(dp748
g62
(dp749
g70
I3
ssg71
g743
sg64
(lp750
S''
asbasbasbag57
(g73
g59
NtRp751
(dp752
g62
(dp753
sg71
g687
sg64
(lp754
g57
(g78
g59
NtRp755
(dp756
g62
(dp757
g82
g83
ssg71
g751
sg64
(lp758
g382
asbag57
(g78
g59
NtRp759
(dp760
g62
(dp761
g89
g90
ssg71
g751
sg64
(lp762
S':'
asbag57
(g78
g59
NtRp763
(dp764
g62
(dp765
sg71
g751
sg64
(lp766
g57
(g58
g59
NtRp767
(dp768
g62
(dp769
g70
I3
ssg71
g763
sg64
(lp770
S''
asbasbasbag57
(g73
g59
NtRp771
(dp772
g62
(dp773
sg71
g687
sg64
(lp774
g57
(g78
g59
NtRp775
(dp776
g62
(dp777
g82
g83
ssg71
g771
sg64
(lp778
g403
asbag57
(g78
g59
NtRp779
(dp780
g62
(dp781
g89
g90
ssg71
g771
sg64
(lp782
S':'
asbag57
(g78
g59
NtRp783
(dp784
g62
(dp785
sg71
g771
sg64
(lp786
g57
(g58
g59
NtRp787
(dp788
g62
(dp789
g70
I3
ssg71
g783
sg64
(lp790
S''
asbasbasbag57
(g73
g59
NtRp791
(dp792
g62
(dp793
sg71
g687
sg64
(lp794
g57
(g78
g59
NtRp795
(dp796
g62
(dp797
g82
g83
ssg71
g791
sg64
(lp798
g424
asbag57
(g78
g59
NtRp799
(dp800
g62
(dp801
g89
g90
ssg71
g791
sg64
(lp802
S':'
asbag57
(g78
g59
NtRp803
(dp804
g62
(dp805
sg71
g791
sg64
(lp806
g57
(g58
g59
NtRp807
(dp808
g62
(dp809
g70
I3
ssg71
g803
sg64
(lp810
S''
asbasbasbag57
(g73
g59
NtRp811
(dp812
g62
(dp813
sg71
g687
sg64
(lp814
g57
(g78
g59
NtRp815
(dp816
g62
(dp817
g82
g83
ssg71
g811
sg64
(lp818
g445
asbag57
(g78
g59
NtRp819
(dp820
g62
(dp821
g89
g90
ssg71
g811
sg64
(lp822
S':'
asbag57
(g78
g59
NtRp823
(dp824
g62
(dp825
sg71
g811
sg64
(lp826
g57
(g58
g59
NtRp827
(dp828
g62
(dp829
g70
I3
ssg71
g823
sg64
(lp830
S''
asbasbasbag57
(g73
g59
NtRp831
(dp832
g62
(dp833
sg71
g687
sg64
(lp834
g57
(g78
g59
NtRp835
(dp836
g62
(dp837
g82
g83
ssg71
g831
sg64
(lp838
g466
asbag57
(g78
g59
NtRp839
(dp840
g62
(dp841
g89
g90
ssg71
g831
sg64
(lp842
S':'
asbag57
(g78
g59
NtRp843
(dp844
g62
(dp845
sg71
g831
sg64
(lp846
g57
(g58
g59
NtRp847
(dp848
g62
(dp849
g70
I3
ssg71
g843
sg64
(lp850
S''
asbasbasbasbasbasbasbag57
(g73
g59
NtRp851
(dp852
g62
(dp853
sg71
g281
sg64
(lp854
g57
(g78
g59
NtRp855
(dp856
g62
(dp857
g82
g83
ssg71
g851
sg64
(lp858
S'session_id_welcome'
p859
asbag57
(g78
g59
NtRp860
(dp861
g62
(dp862
g89
g90
ssg71
g851
sg64
(lp863
S':'
asbag57
(g78
g59
NtRp864
(dp865
g62
(dp866
sg71
g851
sg64
(lp867
g57
(g58
g59
NtRp868
(dp869
g62
(dp870
g70
I4
ssg71
g864
sg64
(lp871
S'127.0.0.1-252b2b98-b442-4711-8d2a-3a58b52b826d'
p872
ag57
(g66
g59
NtRp873
(dp874
g62
(dp875
g70
I3
ssg71
Nsg64
(lp876
g57
(g73
g59
NtRp877
(dp878
g62
(dp879
sg71
g873
sg64
(lp880
g57
(g78
g59
NtRp881
(dp882
g62
(dp883
g82
g83
ssg71
g877
sg64
(lp884
g319
asbag57
(g78
g59
NtRp885
(dp886
g62
(dp887
g89
g90
ssg71
g877
sg64
(lp888
S':'
asbag57
(g78
g59
NtRp889
(dp890
g62
(dp891
sg71
g877
sg64
(lp892
g57
(g58
g59
NtRp893
(dp894
g62
(dp895
g70
I3
ssg71
g889
sg64
(lp896
S''
asbasbasbag57
(g73
g59
NtRp897
(dp898
g62
(dp899
sg71
g873
sg64
(lp900
g57
(g78
g59
NtRp901
(dp902
g62
(dp903
g82
g83
ssg71
g897
sg64
(lp904
g340
asbag57
(g78
g59
NtRp905
(dp906
g62
(dp907
g89
g90
ssg71
g897
sg64
(lp908
S':'
asbag57
(g78
g59
NtRp909
(dp910
g62
(dp911
sg71
g897
sg64
(lp912
g57
(g58
g59
NtRp913
(dp914
g62
(dp915
g70
I3
ssg71
g909
sg64
(lp916
S''
asbasbasbag57
(g73
g59
NtRp917
(dp918
g62
(dp919
sg71
g873
sg64
(lp920
g57
(g78
g59
NtRp921
(dp922
g62
(dp923
g82
g83
ssg71
g917
sg64
(lp924
g361
asbag57
(g78
g59
NtRp925
(dp926
g62
(dp927
g89
g90
ssg71
g917
sg64
(lp928
S':'
asbag57
(g78
g59
NtRp929
(dp930
g62
(dp931
sg71
g917
sg64
(lp932
g57
(g58
g59
NtRp933
(dp934
g62
(dp935
g70
I3
ssg71
g929
sg64
(lp936
S''
asbasbasbag57
(g73
g59
NtRp937
(dp938
g62
(dp939
sg71
g873
sg64
(lp940
g57
(g78
g59
NtRp941
(dp942
g62
(dp943
g82
g83
ssg71
g937
sg64
(lp944
g382
asbag57
(g78
g59
NtRp945
(dp946
g62
(dp947
g89
g90
ssg71
g937
sg64
(lp948
S':'
asbag57
(g78
g59
NtRp949
(dp950
g62
(dp951
sg71
g937
sg64
(lp952
g57
(g58
g59
NtRp953
(dp954
g62
(dp955
g70
I3
ssg71
g949
sg64
(lp956
S''
asbasbasbag57
(g73
g59
NtRp957
(dp958
g62
(dp959
sg71
g873
sg64
(lp960
g57
(g78
g59
NtRp961
(dp962
g62
(dp963
g82
g83
ssg71
g957
sg64
(lp964
g403
asbag57
(g78
g59
NtRp965
(dp966
g62
(dp967
g89
g90
ssg71
g957
sg64
(lp968
S':'
asbag57
(g78
g59
NtRp969
(dp970
g62
(dp971
sg71
g957
sg64
(lp972
g57
(g58
g59
NtRp973
(dp974
g62
(dp975
g70
I3
ssg71
g969
sg64
(lp976
S''
asbasbasbag57
(g73
g59
NtRp977
(dp978
g62
(dp979
sg71
g873
sg64
(lp980
g57
(g78
g59
NtRp981
(dp982
g62
(dp983
g82
g83
ssg71
g977
sg64
(lp984
g424
asbag57
(g78
g59
NtRp985
(dp986
g62
(dp987
g89
g90
ssg71
g977
sg64
(lp988
S':'
asbag57
(g78
g59
NtRp989
(dp990
g62
(dp991
sg71
g977
sg64
(lp992
g57
(g58
g59
NtRp993
(dp994
g62
(dp995
g70
I3
ssg71
g989
sg64
(lp996
S''
asbasbasbag57
(g73
g59
NtRp997
(dp998
g62
(dp999
sg71
g873
sg64
(lp1000
g57
(g78
g59
NtRp1001
(dp1002
g62
(dp1003
g82
g83
ssg71
g997
sg64
(lp1004
g445
asbag57
(g78
g59
NtRp1005
(dp1006
g62
(dp1007
g89
g90
ssg71
g997
sg64
(lp1008
S':'
asbag57
(g78
g59
NtRp1009
(dp1010
g62
(dp1011
sg71
g997
sg64
(lp1012
g57
(g58
g59
NtRp1013
(dp1014
g62
(dp1015
g70
I3
ssg71
g1009
sg64
(lp1016
S''
asbasbasbag57
(g73
g59
NtRp1017
(dp1018
g62
(dp1019
sg71
g873
sg64
(lp1020
g57
(g78
g59
NtRp1021
(dp1022
g62
(dp1023
g82
g83
ssg71
g1017
sg64
(lp1024
g466
asbag57
(g78
g59
NtRp1025
(dp1026
g62
(dp1027
g89
g90
ssg71
g1017
sg64
(lp1028
S':'
asbag57
(g78
g59
NtRp1029
(dp1030
g62
(dp1031
sg71
g1017
sg64
(lp1032
g57
(g58
g59
NtRp1033
(dp1034
g62
(dp1035
g70
I3
ssg71
g1029
sg64
(lp1036
S''
asbasbasbasbasbasbasbasbasbasbasbag57
(g73
g59
NtRp1037
(dp1038
g62
(dp1039
sg71
g67
sg64
(lp1040
g57
(g78
g59
NtRp1041
(dp1042
g62
(dp1043
g82
g83
ssg71
g1037
sg64
(lp1044
S'env'
p1045
asbag57
(g78
g59
NtRp1046
(dp1047
g62
(dp1048
g89
g90
ssg71
g1037
sg64
(lp1049
S':'
asbag57
(g78
g59
NtRp1050
(dp1051
g62
(dp1052
sg71
g1037
sg64
(lp1053
g57
(g58
g59
NtRp1054
(dp1055
g62
(dp1056
g70
I5
ssg71
g1050
sg64
(lp1057
g57
(g66
g59
NtRp1058
(dp1059
g62
(dp1060
g70
I4
ssg71
Nsg64
(lp1061
g57
(g73
g59
NtRp1062
(dp1063
g62
(dp1064
sg71
g1058
sg64
(lp1065
g57
(g78
g59
NtRp1066
(dp1067
g62
(dp1068
g82
g83
ssg71
g1062
sg64
(lp1069
S'app_folders'
p1070
asbag57
(g78
g59
NtRp1071
(dp1072
g62
(dp1073
g89
g90
ssg71
g1062
sg64
(lp1074
S':'
asbag57
(g78
g59
NtRp1075
(dp1076
g62
(dp1077
sg71
g1062
sg64
(lp1078
g57
(g58
g59
NtRp1079
(dp1080
g62
(dp1081
g70
I4
ssg71
g1075
sg64
(lp1082
S"set(['/home/shipra/Desktop/Semester 1.2/ITWS-2/web2py/applications/Assignment_2/', '/home/shipra/Desktop/Semester 1.2/ITWS-2/web2py/applications/welcome/', '/home/shipra/Desktop/Semester 1.2/ITWS-2/web2py/applications/admin/'])"
p1083
asbasbasbag57
(g73
g59
NtRp1084
(dp1085
g62
(dp1086
sg71
g1058
sg64
(lp1087
g57
(g78
g59
NtRp1088
(dp1089
g62
(dp1090
g82
g83
ssg71
g1084
sg64
(lp1091
S'applications_parent'
p1092
asbag57
(g78
g59
NtRp1093
(dp1094
g62
(dp1095
g89
g90
ssg71
g1084
sg64
(lp1096
S':'
asbag57
(g78
g59
NtRp1097
(dp1098
g62
(dp1099
sg71
g1084
sg64
(lp1100
g57
(g58
g59
NtRp1101
(dp1102
g62
(dp1103
g70
I4
ssg71
g1097
sg64
(lp1104
S'/home/shipra/Desktop/Semester 1.2/ITWS-2/web2py'
p1105
asbasbasbag57
(g73
g59
NtRp1106
(dp1107
g62
(dp1108
sg71
g1058
sg64
(lp1109
g57
(g78
g59
NtRp1110
(dp1111
g62
(dp1112
g82
g83
ssg71
g1106
sg64
(lp1113
S'cmd_args'
p1114
asbag57
(g78
g59
NtRp1115
(dp1116
g62
(dp1117
g89
g90
ssg71
g1106
sg64
(lp1118
S':'
asbag57
(g78
g59
NtRp1119
(dp1120
g62
(dp1121
sg71
g1106
sg64
(lp1122
g57
(g58
g59
NtRp1123
(dp1124
g62
(dp1125
g70
I4
ssg71
g1119
sg64
(lp1126
g57
(g66
g59
NtRp1127
(dp1128
g62
(dp1129
g70
I3
ssg71
Nsg64
(lp1130
sbasbasbasbag57
(g73
g59
NtRp1131
(dp1132
g62
(dp1133
sg71
g1058
sg64
(lp1134
g57
(g78
g59
NtRp1135
(dp1136
g62
(dp1137
g82
g83
ssg71
g1131
sg64
(lp1138
S'cmd_options'
p1139
asbag57
(g78
g59
NtRp1140
(dp1141
g62
(dp1142
g89
g90
ssg71
g1131
sg64
(lp1143
S':'
asbag57
(g78
g59
NtRp1144
(dp1145
g62
(dp1146
sg71
g1131
sg64
(lp1147
g57
(g58
g59
NtRp1148
(dp1149
g62
(dp1150
g70
I4
ssg71
g1144
sg64
(lp1151
S"<Values at 0x2fef290: {'verbose': False, 'ip': '127.0.0.1', 'with_scheduler': False, 'ips': ['10.1.129.70', '192.168.122.1', 'fe80::e611:5bff:fe38:8d0d%p5p1'], 'shutdown_timeout': 5, 'taskbar': False, 'port': 8000, 'maxthreads': None, 'softcron': False, 'server_name': 'shipra', 'bpython': False, 'nogui': False, 'pid_filename': 'httpserver.pid', 'extcron': False, 'runcron': False, 'run_system_tests': False, 'test': None, 'folder': '/home/shipra/Desktop/Semester 1.2/ITWS-2/web2py', 'config': '', 'minthreads': None, 'winservice': '', 'shell': None, 'run': '', 'log_filename': 'httpserver.log', 'debuglevel': 30, 'args': [''], 'socket_timeout': 5, 'ssl_ca_certificate': None, 'scheduler': None, 'profiler_filename': None, 'ssl_private_key': '', 'scheduler_groups': None, 'password': '<ask>', 'request_queue_size': 5, 'ssl_certificate': '', 'cronjob': False, 'numthreads': None, 'quiet': False, 'interfaces': None, 'import_models': False, 'timeout': 10, 'plain': False, 'nobanner': False}>"
p1152
asbasbasbag57
(g73
g59
NtRp1153
(dp1154
g62
(dp1155
sg71
g1058
sg64
(lp1156
g57
(g78
g59
NtRp1157
(dp1158
g62
(dp1159
g82
g83
ssg71
g1153
sg64
(lp1160
S'db_sessions'
p1161
asbag57
(g78
g59
NtRp1162
(dp1163
g62
(dp1164
g89
g90
ssg71
g1153
sg64
(lp1165
S':'
asbag57
(g78
g59
NtRp1166
(dp1167
g62
(dp1168
sg71
g1153
sg64
(lp1169
g57
(g58
g59
NtRp1170
(dp1171
g62
(dp1172
g70
I4
ssg71
g1166
sg64
(lp1173
S'set([])'
p1174
asbasbasbag57
(g73
g59
NtRp1175
(dp1176
g62
(dp1177
sg71
g1058
sg64
(lp1178
g57
(g78
g59
NtRp1179
(dp1180
g62
(dp1181
g82
g83
ssg71
g1175
sg64
(lp1182
S'debugging'
p1183
asbag57
(g78
g59
NtRp1184
(dp1185
g62
(dp1186
g89
g90
ssg71
g1175
sg64
(lp1187
S':'
asbag57
(g78
g59
NtRp1188
(dp1189
g62
(dp1190
sg71
g1175
sg64
(lp1191
g57
(g58
g59
NtRp1192
(dp1193
g62
(dp1194
g70
I4
ssg71
g1188
sg64
(lp1195
g100
asbasbasbag57
(g73
g59
NtRp1196
(dp1197
g62
(dp1198
sg71
g1058
sg64
(lp1199
g57
(g78
g59
NtRp1200
(dp1201
g62
(dp1202
g82
g83
ssg71
g1196
sg64
(lp1203
S'gluon_parent'
p1204
asbag57
(g78
g59
NtRp1205
(dp1206
g62
(dp1207
g89
g90
ssg71
g1196
sg64
(lp1208
S':'
asbag57
(g78
g59
NtRp1209
(dp1210
g62
(dp1211
sg71
g1196
sg64
(lp1212
g57
(g58
g59
NtRp1213
(dp1214
g62
(dp1215
g70
I4
ssg71
g1209
sg64
(lp1216
S'/home/shipra/Desktop/Semester 1.2/ITWS-2/web2py'
p1217
asbasbasbag57
(g73
g59
NtRp1218
(dp1219
g62
(dp1220
sg71
g1058
sg64
(lp1221
g57
(g78
g59
NtRp1222
(dp1223
g62
(dp1224
g82
g83
ssg71
g1218
sg64
(lp1225
S'http_accept'
p1226
asbag57
(g78
g59
NtRp1227
(dp1228
g62
(dp1229
g89
g90
ssg71
g1218
sg64
(lp1230
S':'
asbag57
(g78
g59
NtRp1231
(dp1232
g62
(dp1233
sg71
g1218
sg64
(lp1234
g57
(g58
g59
NtRp1235
(dp1236
g62
(dp1237
g70
I4
ssg71
g1231
sg64
(lp1238
S'text/html,application/xhtml+xml,application/xml;q=0.9,*/*;q=0.8'
p1239
asbasbasbag57
(g73
g59
NtRp1240
(dp1241
g62
(dp1242
sg71
g1058
sg64
(lp1243
g57
(g78
g59
NtRp1244
(dp1245
g62
(dp1246
g82
g83
ssg71
g1240
sg64
(lp1247
S'http_accept_encoding'
p1248
asbag57
(g78
g59
NtRp1249
(dp1250
g62
(dp1251
g89
g90
ssg71
g1240
sg64
(lp1252
S':'
asbag57
(g78
g59
NtRp1253
(dp1254
g62
(dp1255
sg71
g1240
sg64
(lp1256
g57
(g58
g59
NtRp1257
(dp1258
g62
(dp1259
g70
I4
ssg71
g1253
sg64
(lp1260
S'gzip, deflate'
p1261
asbasbasbag57
(g73
g59
NtRp1262
(dp1263
g62
(dp1264
sg71
g1058
sg64
(lp1265
g57
(g78
g59
NtRp1266
(dp1267
g62
(dp1268
g82
g83
ssg71
g1262
sg64
(lp1269
S'http_accept_language'
p1270
asbag57
(g78
g59
NtRp1271
(dp1272
g62
(dp1273
g89
g90
ssg71
g1262
sg64
(lp1274
S':'
asbag57
(g78
g59
NtRp1275
(dp1276
g62
(dp1277
sg71
g1262
sg64
(lp1278
g57
(g58
g59
NtRp1279
(dp1280
g62
(dp1281
g70
I4
ssg71
g1275
sg64
(lp1282
S'en-us,en;q=0.5'
p1283
asbasbasbag57
(g73
g59
NtRp1284
(dp1285
g62
(dp1286
sg71
g1058
sg64
(lp1287
g57
(g78
g59
NtRp1288
(dp1289
g62
(dp1290
g82
g83
ssg71
g1284
sg64
(lp1291
S'http_connection'
p1292
asbag57
(g78
g59
NtRp1293
(dp1294
g62
(dp1295
g89
g90
ssg71
g1284
sg64
(lp1296
S':'
asbag57
(g78
g59
NtRp1297
(dp1298
g62
(dp1299
sg71
g1284
sg64
(lp1300
g57
(g58
g59
NtRp1301
(dp1302
g62
(dp1303
g70
I4
ssg71
g1297
sg64
(lp1304
S'keep-alive'
p1305
asbasbasbag57
(g73
g59
NtRp1306
(dp1307
g62
(dp1308
sg71
g1058
sg64
(lp1309
g57
(g78
g59
NtRp1310
(dp1311
g62
(dp1312
g82
g83
ssg71
g1306
sg64
(lp1313
S'http_cookie'
p1314
asbag57
(g78
g59
NtRp1315
(dp1316
g62
(dp1317
g89
g90
ssg71
g1306
sg64
(lp1318
S':'
asbag57
(g78
g59
NtRp1319
(dp1320
g62
(dp1321
sg71
g1306
sg64
(lp1322
g57
(g58
g59
NtRp1323
(dp1324
g62
(dp1325
g70
I4
ssg71
g1319
sg64
(lp1326
S'__utma=96992031.1334412862.1364672878.1364672878.1364718243.2; __utmz=96992031.1364672878.1.1.utmcsr=(direct)|utmccn=(direct)|utmcmd=(none); __lc.visitor_id.1195381=S1364672235.4faffcf2d2; __ar_v4=OWHSPOGHTNEIPPPBMHVFTA%3A20130329%3A12%7CAMEDRHI4VZG4TIA2AZ565D%3A20130329%3A12%7CWAEQXC4B2NH3DDBR3TZM6I%3A20130329%3A12; mp_2093ad9ff9c5428a2228386de2f2b0e4_mixpanel=%7B%22distinct_id%22%3A%20%2262ffc2d0-7b9f-0130-efb0-22000a1cbb2a%22%2C%22is_registered_user%22%3A%20false%2C%22%24initial_referrer%22%3A%20%22%24direct%22%2C%22%24initial_referring_domain%22%3A%20%22%24direct%22%7D; session_id_welcome=127.0.0.1-252b2b98-b442-4711-8d2a-3a58b52b826d; session_id_assignment_2=127.0.0.1-c592f02a-549e-4943-9d30-e75639b34aa9; session_id_admin=127.0.0.1-3f0ea139-a7e6-444c-bd0e-e8d91801d9ba'
p1327
asbasbasbag57
(g73
g59
NtRp1328
(dp1329
g62
(dp1330
sg71
g1058
sg64
(lp1331
g57
(g78
g59
NtRp1332
(dp1333
g62
(dp1334
g82
g83
ssg71
g1328
sg64
(lp1335
S'http_host'
p1336
asbag57
(g78
g59
NtRp1337
(dp1338
g62
(dp1339
g89
g90
ssg71
g1328
sg64
(lp1340
S':'
asbag57
(g78
g59
NtRp1341
(dp1342
g62
(dp1343
sg71
g1328
sg64
(lp1344
g57
(g58
g59
NtRp1345
(dp1346
g62
(dp1347
g70
I4
ssg71
g1341
sg64
(lp1348
S'127.0.0.1:8000'
p1349
asbasbasbag57
(g73
g59
NtRp1350
(dp1351
g62
(dp1352
sg71
g1058
sg64
(lp1353
g57
(g78
g59
NtRp1354
(dp1355
g62
(dp1356
g82
g83
ssg71
g1350
sg64
(lp1357
S'http_user_agent'
p1358
asbag57
(g78
g59
NtRp1359
(dp1360
g62
(dp1361
g89
g90
ssg71
g1350
sg64
(lp1362
S':'
asbag57
(g78
g59
NtRp1363
(dp1364
g62
(dp1365
sg71
g1350
sg64
(lp1366
g57
(g58
g59
NtRp1367
(dp1368
g62
(dp1369
g70
I4
ssg71
g1363
sg64
(lp1370
S'Mozilla/5.0 (X11; Linux x86_64; rv:12.0) Gecko/20100101 Firefox/12.0'
p1371
asbasbasbag57
(g73
g59
NtRp1372
(dp1373
g62
(dp1374
sg71
g1058
sg64
(lp1375
g57
(g78
g59
NtRp1376
(dp1377
g62
(dp1378
g82
g83
ssg71
g1372
sg64
(lp1379
S'is_jython'
p1380
asbag57
(g78
g59
NtRp1381
(dp1382
g62
(dp1383
g89
g90
ssg71
g1372
sg64
(lp1384
S':'
asbag57
(g78
g59
NtRp1385
(dp1386
g62
(dp1387
sg71
g1372
sg64
(lp1388
g57
(g58
g59
NtRp1389
(dp1390
g62
(dp1391
g70
I4
ssg71
g1385
sg64
(lp1392
g100
asbasbasbag57
(g73
g59
NtRp1393
(dp1394
g62
(dp1395
sg71
g1058
sg64
(lp1396
g57
(g78
g59
NtRp1397
(dp1398
g62
(dp1399
g82
g83
ssg71
g1393
sg64
(lp1400
S'is_pypy'
p1401
asbag57
(g78
g59
NtRp1402
(dp1403
g62
(dp1404
g89
g90
ssg71
g1393
sg64
(lp1405
S':'
asbag57
(g78
g59
NtRp1406
(dp1407
g62
(dp1408
sg71
g1393
sg64
(lp1409
g57
(g58
g59
NtRp1410
(dp1411
g62
(dp1412
g70
I4
ssg71
g1406
sg64
(lp1413
g100
asbasbasbag57
(g73
g59
NtRp1414
(dp1415
g62
(dp1416
sg71
g1058
sg64
(lp1417
g57
(g78
g59
NtRp1418
(dp1419
g62
(dp1420
g82
g83
ssg71
g1414
sg64
(lp1421
S'local_hosts'
p1422
asbag57
(g78
g59
NtRp1423
(dp1424
g62
(dp1425
g89
g90
ssg71
g1414
sg64
(lp1426
S':'
asbag57
(g78
g59
NtRp1427
(dp1428
g62
(dp1429
sg71
g1414
sg64
(lp1430
g57
(g58
g59
NtRp1431
(dp1432
g62
(dp1433
g70
I4
ssg71
g1427
sg64
(lp1434
g57
(g66
g59
NtRp1435
(dp1436
g62
(dp1437
g70
I3
ssg71
Nsg64
(lp1438
g57
(g73
g59
NtRp1439
(dp1440
g62
(dp1441
sg71
g1435
sg64
(lp1442
g57
(g78
g59
NtRp1443
(dp1444
g62
(dp1445
sg71
g1439
sg64
(lp1446
g57
(g58
g59
NtRp1447
(dp1448
g62
(dp1449
g70
I3
ssg71
g1443
sg64
(lp1450
S'192.168.122.1'
p1451
asbasbasbag57
(g73
g59
NtRp1452
(dp1453
g62
(dp1454
sg71
g1435
sg64
(lp1455
g57
(g78
g59
NtRp1456
(dp1457
g62
(dp1458
sg71
g1452
sg64
(lp1459
g57
(g58
g59
NtRp1460
(dp1461
g62
(dp1462
g70
I3
ssg71
g1456
sg64
(lp1463
S'::ffff:127.0.0.1'
p1464
asbasbasbag57
(g73
g59
NtRp1465
(dp1466
g62
(dp1467
sg71
g1435
sg64
(lp1468
g57
(g78
g59
NtRp1469
(dp1470
g62
(dp1471
sg71
g1465
sg64
(lp1472
g57
(g58
g59
NtRp1473
(dp1474
g62
(dp1475
g70
I3
ssg71
g1469
sg64
(lp1476
S'::1'
p1477
asbasbasbag57
(g73
g59
NtRp1478
(dp1479
g62
(dp1480
sg71
g1435
sg64
(lp1481
g57
(g78
g59
NtRp1482
(dp1483
g62
(dp1484
sg71
g1478
sg64
(lp1485
g57
(g58
g59
NtRp1486
(dp1487
g62
(dp1488
g70
I3
ssg71
g1482
sg64
(lp1489
S'10.1.129.70'
p1490
asbasbasbag57
(g73
g59
NtRp1491
(dp1492
g62
(dp1493
sg71
g1435
sg64
(lp1494
g57
(g78
g59
NtRp1495
(dp1496
g62
(dp1497
sg71
g1491
sg64
(lp1498
g57
(g58
g59
NtRp1499
(dp1500
g62
(dp1501
g70
I3
ssg71
g1495
sg64
(lp1502
S'fe80::e611:5bff:fe38:8d0d%p5p1'
p1503
asbasbasbag57
(g73
g59
NtRp1504
(dp1505
g62
(dp1506
sg71
g1435
sg64
(lp1507
g57
(g78
g59
NtRp1508
(dp1509
g62
(dp1510
sg71
g1504
sg64
(lp1511
g57
(g58
g59
NtRp1512
(dp1513
g62
(dp1514
g70
I3
ssg71
g1508
sg64
(lp1515
S'127.0.0.1'
p1516
asbasbasbag57
(g73
g59
NtRp1517
(dp1518
g62
(dp1519
sg71
g1435
sg64
(lp1520
g57
(g78
g59
NtRp1521
(dp1522
g62
(dp1523
sg71
g1517
sg64
(lp1524
g57
(g58
g59
NtRp1525
(dp1526
g62
(dp1527
g70
I3
ssg71
g1521
sg64
(lp1528
S'shipra'
p1529
asbasbasbasbasbasbasbag57
(g73
g59
NtRp1530
(dp1531
g62
(dp1532
sg71
g1058
sg64
(lp1533
g57
(g78
g59
NtRp1534
(dp1535
g62
(dp1536
g82
g83
ssg71
g1530
sg64
(lp1537
S'path_info'
p1538
asbag57
(g78
g59
NtRp1539
(dp1540
g62
(dp1541
g89
g90
ssg71
g1530
sg64
(lp1542
S':'
asbag57
(g78
g59
NtRp1543
(dp1544
g62
(dp1545
sg71
g1530
sg64
(lp1546
g57
(g58
g59
NtRp1547
(dp1548
g62
(dp1549
g70
I4
ssg71
g1543
sg64
(lp1550
S'/Assignment_2/default/comm_post/8/Music'
p1551
asbasbasbag57
(g73
g59
NtRp1552
(dp1553
g62
(dp1554
sg71
g1058
sg64
(lp1555
g57
(g78
g59
NtRp1556
(dp1557
g62
(dp1558
g82
g83
ssg71
g1552
sg64
(lp1559
S'query_string'
p1560
asbag57
(g78
g59
NtRp1561
(dp1562
g62
(dp1563
g89
g90
ssg71
g1552
sg64
(lp1564
S':'
asbag57
(g78
g59
NtRp1565
(dp1566
g62
(dp1567
sg71
g1552
sg64
(lp1568
g57
(g58
g59
NtRp1569
(dp1570
g62
(dp1571
g70
I4
ssg71
g1565
sg64
(lp1572
S''
asbasbasbag57
(g73
g59
NtRp1573
(dp1574
g62
(dp1575
sg71
g1058
sg64
(lp1576
g57
(g78
g59
NtRp1577
(dp1578
g62
(dp1579
g82
g83
ssg71
g1573
sg64
(lp1580
S'remote_addr'
p1581
asbag57
(g78
g59
NtRp1582
(dp1583
g62
(dp1584
g89
g90
ssg71
g1573
sg64
(lp1585
S':'
asbag57
(g78
g59
NtRp1586
(dp1587
g62
(dp1588
sg71
g1573
sg64
(lp1589
g57
(g58
g59
NtRp1590
(dp1591
g62
(dp1592
g70
I4
ssg71
g1586
sg64
(lp1593
g237
asbasbasbag57
(g73
g59
NtRp1594
(dp1595
g62
(dp1596
sg71
g1058
sg64
(lp1597
g57
(g78
g59
NtRp1598
(dp1599
g62
(dp1600
g82
g83
ssg71
g1594
sg64
(lp1601
S'remote_port'
p1602
asbag57
(g78
g59
NtRp1603
(dp1604
g62
(dp1605
g89
g90
ssg71
g1594
sg64
(lp1606
S':'
asbag57
(g78
g59
NtRp1607
(dp1608
g62
(dp1609
sg71
g1594
sg64
(lp1610
g57
(g58
g59
NtRp1611
(dp1612
g62
(dp1613
g70
I4
ssg71
g1607
sg64
(lp1614
S'59331'
p1615
asbasbasbag57
(g73
g59
NtRp1616
(dp1617
g62
(dp1618
sg71
g1058
sg64
(lp1619
g57
(g78
g59
NtRp1620
(dp1621
g62
(dp1622
g82
g83
ssg71
g1616
sg64
(lp1623
S'request_method'
p1624
asbag57
(g78
g59
NtRp1625
(dp1626
g62
(dp1627
g89
g90
ssg71
g1616
sg64
(lp1628
S':'
asbag57
(g78
g59
NtRp1629
(dp1630
g62
(dp1631
sg71
g1616
sg64
(lp1632
g57
(g58
g59
NtRp1633
(dp1634
g62
(dp1635
g70
I4
ssg71
g1629
sg64
(lp1636
S'GET'
p1637
asbasbasbag57
(g73
g59
NtRp1638
(dp1639
g62
(dp1640
sg71
g1058
sg64
(lp1641
g57
(g78
g59
NtRp1642
(dp1643
g62
(dp1644
g82
g83
ssg71
g1638
sg64
(lp1645
S'request_uri'
p1646
asbag57
(g78
g59
NtRp1647
(dp1648
g62
(dp1649
g89
g90
ssg71
g1638
sg64
(lp1650
S':'
asbag57
(g78
g59
NtRp1651
(dp1652
g62
(dp1653
sg71
g1638
sg64
(lp1654
g57
(g58
g59
NtRp1655
(dp1656
g62
(dp1657
g70
I4
ssg71
g1651
sg64
(lp1658
g1551
asbasbasbag57
(g73
g59
NtRp1659
(dp1660
g62
(dp1661
sg71
g1058
sg64
(lp1662
g57
(g78
g59
NtRp1663
(dp1664
g62
(dp1665
g82
g83
ssg71
g1659
sg64
(lp1666
S'script_name'
p1667
asbag57
(g78
g59
NtRp1668
(dp1669
g62
(dp1670
g89
g90
ssg71
g1659
sg64
(lp1671
S':'
asbag57
(g78
g59
NtRp1672
(dp1673
g62
(dp1674
sg71
g1659
sg64
(lp1675
g57
(g58
g59
NtRp1676
(dp1677
g62
(dp1678
g70
I4
ssg71
g1672
sg64
(lp1679
S''
asbasbasbag57
(g73
g59
NtRp1680
(dp1681
g62
(dp1682
sg71
g1058
sg64
(lp1683
g57
(g78
g59
NtRp1684
(dp1685
g62
(dp1686
g82
g83
ssg71
g1680
sg64
(lp1687
S'server_name'
p1688
asbag57
(g78
g59
NtRp1689
(dp1690
g62
(dp1691
g89
g90
ssg71
g1680
sg64
(lp1692
S':'
asbag57
(g78
g59
NtRp1693
(dp1694
g62
(dp1695
sg71
g1680
sg64
(lp1696
g57
(g58
g59
NtRp1697
(dp1698
g62
(dp1699
g70
I4
ssg71
g1693
sg64
(lp1700
S'shipra'
p1701
asbasbasbag57
(g73
g59
NtRp1702
(dp1703
g62
(dp1704
sg71
g1058
sg64
(lp1705
g57
(g78
g59
NtRp1706
(dp1707
g62
(dp1708
g82
g83
ssg71
g1702
sg64
(lp1709
S'server_port'
p1710
asbag57
(g78
g59
NtRp1711
(dp1712
g62
(dp1713
g89
g90
ssg71
g1702
sg64
(lp1714
S':'
asbag57
(g78
g59
NtRp1715
(dp1716
g62
(dp1717
sg71
g1702
sg64
(lp1718
g57
(g58
g59
NtRp1719
(dp1720
g62
(dp1721
g70
I4
ssg71
g1715
sg64
(lp1722
S'8000'
p1723
asbasbasbag57
(g73
g59
NtRp1724
(dp1725
g62
(dp1726
sg71
g1058
sg64
(lp1727
g57
(g78
g59
NtRp1728
(dp1729
g62
(dp1730
g82
g83
ssg71
g1724
sg64
(lp1731
S'server_protocol'
p1732
asbag57
(g78
g59
NtRp1733
(dp1734
g62
(dp1735
g89
g90
ssg71
g1724
sg64
(lp1736
S':'
asbag57
(g78
g59
NtRp1737
(dp1738
g62
(dp1739
sg71
g1724
sg64
(lp1740
g57
(g58
g59
NtRp1741
(dp1742
g62
(dp1743
g70
I4
ssg71
g1737
sg64
(lp1744
S'HTTP/1.1'
p1745
asbasbasbag57
(g73
g59
NtRp1746
(dp1747
g62
(dp1748
sg71
g1058
sg64
(lp1749
g57
(g78
g59
NtRp1750
(dp1751
g62
(dp1752
g82
g83
ssg71
g1746
sg64
(lp1753
S'server_software'
p1754
asbag57
(g78
g59
NtRp1755
(dp1756
g62
(dp1757
g89
g90
ssg71
g1746
sg64
(lp1758
S':'
asbag57
(g78
g59
NtRp1759
(dp1760
g62
(dp1761
sg71
g1746
sg64
(lp1762
g57
(g58
g59
NtRp1763
(dp1764
g62
(dp1765
g70
I4
ssg71
g1759
sg64
(lp1766
S'Rocket 1.2.6'
p1767
asbasbasbag57
(g73
g59
NtRp1768
(dp1769
g62
(dp1770
sg71
g1058
sg64
(lp1771
g57
(g78
g59
NtRp1772
(dp1773
g62
(dp1774
g82
g83
ssg71
g1768
sg64
(lp1775
S'web2py_path'
p1776
asbag57
(g78
g59
NtRp1777
(dp1778
g62
(dp1779
g89
g90
ssg71
g1768
sg64
(lp1780
S':'
asbag57
(g78
g59
NtRp1781
(dp1782
g62
(dp1783
sg71
g1768
sg64
(lp1784
g57
(g58
g59
NtRp1785
(dp1786
g62
(dp1787
g70
I4
ssg71
g1781
sg64
(lp1788
g1105
asbasbasbag57
(g73
g59
NtRp1789
(dp1790
g62
(dp1791
sg71
g1058
sg64
(lp1792
g57
(g78
g59
NtRp1793
(dp1794
g62
(dp1795
g82
g83
ssg71
g1789
sg64
(lp1796
S'web2py_version'
p1797
asbag57
(g78
g59
NtRp1798
(dp1799
g62
(dp1800
g89
g90
ssg71
g1789
sg64
(lp1801
S':'
asbag57
(g78
g59
NtRp1802
(dp1803
g62
(dp1804
sg71
g1789
sg64
(lp1805
g57
(g58
g59
NtRp1806
(dp1807
g62
(dp1808
g70
I4
ssg71
g1802
sg64
(lp1809
g57
(g66
g59
NtRp1810
(dp1811
g62
(dp1812
g70
I3
ssg71
Nsg64
(lp1813
g57
(g73
g59
NtRp1814
(dp1815
g62
(dp1816
sg71
g1810
sg64
(lp1817
g57
(g78
g59
NtRp1818
(dp1819
g62
(dp1820
sg71
g1814
sg64
(lp1821
g57
(g58
g59
NtRp1822
(dp1823
g62
(dp1824
g70
I3
ssg71
g1818
sg64
(lp1825
S'2'
asbasbasbag57
(g73
g59
NtRp1826
(dp1827
g62
(dp1828
sg71
g1810
sg64
(lp1829
g57
(g78
g59
NtRp1830
(dp1831
g62
(dp1832
sg71
g1826
sg64
(lp1833
g57
(g58
g59
NtRp1834
(dp1835
g62
(dp1836
g70
I3
ssg71
g1830
sg64
(lp1837
S'3'
asbasbasbag57
(g73
g59
NtRp1838
(dp1839
g62
(dp1840
sg71
g1810
sg64
(lp1841
g57
(g78
g59
NtRp1842
(dp1843
g62
(dp1844
sg71
g1838
sg64
(lp1845
g57
(g58
g59
NtRp1846
(dp1847
g62
(dp1848
g70
I3
ssg71
g1842
sg64
(lp1849
S'2'
asbasbasbag57
(g73
g59
NtRp1850
(dp1851
g62
(dp1852
sg71
g1810
sg64
(lp1853
g57
(g78
g59
NtRp1854
(dp1855
g62
(dp1856
sg71
g1850
sg64
(lp1857
g57
(g58
g59
NtRp1858
(dp1859
g62
(dp1860
g70
I3
ssg71
g1854
sg64
(lp1861
S'datetime.datetime(2012, 12, 17, 15, 3, 30)'
p1862
asbasbasbag57
(g73
g59
NtRp1863
(dp1864
g62
(dp1865
sg71
g1810
sg64
(lp1866
g57
(g78
g59
NtRp1867
(dp1868
g62
(dp1869
sg71
g1863
sg64
(lp1870
g57
(g58
g59
NtRp1871
(dp1872
g62
(dp1873
g70
I3
ssg71
g1867
sg64
(lp1874
S'stable'
p1875
asbasbasbasbasbasbasbag57
(g73
g59
NtRp1876
(dp1877
g62
(dp1878
sg71
g1058
sg64
(lp1879
g57
(g78
g59
NtRp1880
(dp1881
g62
(dp1882
g82
g83
ssg71
g1876
sg64
(lp1883
S'wsgi_errors'
p1884
asbag57
(g78
g59
NtRp1885
(dp1886
g62
(dp1887
g89
g90
ssg71
g1876
sg64
(lp1888
S':'
asbag57
(g78
g59
NtRp1889
(dp1890
g62
(dp1891
sg71
g1876
sg64
(lp1892
g57
(g58
g59
NtRp1893
(dp1894
g62
(dp1895
g70
I4
ssg71
g1889
sg64
(lp1896
S"<open file '<stderr>', mode 'w' at 0x7f3b7e802270>"
p1897
asbasbasbag57
(g73
g59
NtRp1898
(dp1899
g62
(dp1900
sg71
g1058
sg64
(lp1901
g57
(g78
g59
NtRp1902
(dp1903
g62
(dp1904
g82
g83
ssg71
g1898
sg64
(lp1905
S'wsgi_file_wrapper'
p1906
asbag57
(g78
g59
NtRp1907
(dp1908
g62
(dp1909
g89
g90
ssg71
g1898
sg64
(lp1910
S':'
asbag57
(g78
g59
NtRp1911
(dp1912
g62
(dp1913
sg71
g1898
sg64
(lp1914
g57
(g58
g59
NtRp1915
(dp1916
g62
(dp1917
g70
I4
ssg71
g1911
sg64
(lp1918
S'<class wsgiref.util.FileWrapper at 0x2f78e20>'
p1919
asbasbasbag57
(g73
g59
NtRp1920
(dp1921
g62
(dp1922
sg71
g1058
sg64
(lp1923
g57
(g78
g59
NtRp1924
(dp1925
g62
(dp1926
g82
g83
ssg71
g1920
sg64
(lp1927
S'wsgi_input'
p1928
asbag57
(g78
g59
NtRp1929
(dp1930
g62
(dp1931
g89
g90
ssg71
g1920
sg64
(lp1932
S':'
asbag57
(g78
g59
NtRp1933
(dp1934
g62
(dp1935
sg71
g1920
sg64
(lp1936
g57
(g58
g59
NtRp1937
(dp1938
g62
(dp1939
g70
I4
ssg71
g1933
sg64
(lp1940
S'<socket._fileobject object at 0x7f3b5c25a650>'
p1941
asbasbasbag57
(g73
g59
NtRp1942
(dp1943
g62
(dp1944
sg71
g1058
sg64
(lp1945
g57
(g78
g59
NtRp1946
(dp1947
g62
(dp1948
g82
g83
ssg71
g1942
sg64
(lp1949
S'wsgi_multiprocess'
p1950
asbag57
(g78
g59
NtRp1951
(dp1952
g62
(dp1953
g89
g90
ssg71
g1942
sg64
(lp1954
S':'
asbag57
(g78
g59
NtRp1955
(dp1956
g62
(dp1957
sg71
g1942
sg64
(lp1958
g57
(g58
g59
NtRp1959
(dp1960
g62
(dp1961
g70
I4
ssg71
g1955
sg64
(lp1962
g100
asbasbasbag57
(g73
g59
NtRp1963
(dp1964
g62
(dp1965
sg71
g1058
sg64
(lp1966
g57
(g78
g59
NtRp1967
(dp1968
g62
(dp1969
g82
g83
ssg71
g1963
sg64
(lp1970
S'wsgi_multithread'
p1971
asbag57
(g78
g59
NtRp1972
(dp1973
g62
(dp1974
g89
g90
ssg71
g1963
sg64
(lp1975
S':'
asbag57
(g78
g59
NtRp1976
(dp1977
g62
(dp1978
sg71
g1963
sg64
(lp1979
g57
(g58
g59
NtRp1980
(dp1981
g62
(dp1982
g70
I4
ssg71
g1976
sg64
(lp1983
S'True'
p1984
asbasbasbag57
(g73
g59
NtRp1985
(dp1986
g62
(dp1987
sg71
g1058
sg64
(lp1988
g57
(g78
g59
NtRp1989
(dp1990
g62
(dp1991
g82
g83
ssg71
g1985
sg64
(lp1992
S'wsgi_run_once'
p1993
asbag57
(g78
g59
NtRp1994
(dp1995
g62
(dp1996
g89
g90
ssg71
g1985
sg64
(lp1997
S':'
asbag57
(g78
g59
NtRp1998
(dp1999
g62
(dp2000
sg71
g1985
sg64
(lp2001
g57
(g58
g59
NtRp2002
(dp2003
g62
(dp2004
g70
I4
ssg71
g1998
sg64
(lp2005
g100
asbasbasbag57
(g73
g59
NtRp2006
(dp2007
g62
(dp2008
sg71
g1058
sg64
(lp2009
g57
(g78
g59
NtRp2010
(dp2011
g62
(dp2012
g82
g83
ssg71
g2006
sg64
(lp2013
S'wsgi_url_scheme'
p2014
asbag57
(g78
g59
NtRp2015
(dp2016
g62
(dp2017
g89
g90
ssg71
g2006
sg64
(lp2018
S':'
asbag57
(g78
g59
NtRp2019
(dp2020
g62
(dp2021
sg71
g2006
sg64
(lp2022
g57
(g58
g59
NtRp2023
(dp2024
g62
(dp2025
g70
I4
ssg71
g2019
sg64
(lp2026
S'http'
p2027
asbasbasbag57
(g73
g59
NtRp2028
(dp2029
g62
(dp2030
sg71
g1058
sg64
(lp2031
g57
(g78
g59
NtRp2032
(dp2033
g62
(dp2034
g82
g83
ssg71
g2028
sg64
(lp2035
S'wsgi_version'
p2036
asbag57
(g78
g59
NtRp2037
(dp2038
g62
(dp2039
g89
g90
ssg71
g2028
sg64
(lp2040
S':'
asbag57
(g78
g59
NtRp2041
(dp2042
g62
(dp2043
sg71
g2028
sg64
(lp2044
g57
(g58
g59
NtRp2045
(dp2046
g62
(dp2047
g70
I4
ssg71
g2041
sg64
(lp2048
g57
(g66
g59
NtRp2049
(dp2050
g62
(dp2051
g70
I3
ssg71
Nsg64
(lp2052
g57
(g73
g59
NtRp2053
(dp2054
g62
(dp2055
sg71
g2049
sg64
(lp2056
g57
(g78
g59
NtRp2057
(dp2058
g62
(dp2059
sg71
g2053
sg64
(lp2060
g57
(g58
g59
NtRp2061
(dp2062
g62
(dp2063
g70
I3
ssg71
g2057
sg64
(lp2064
S'1'
asbasbasbag57
(g73
g59
NtRp2065
(dp2066
g62
(dp2067
sg71
g2049
sg64
(lp2068
g57
(g78
g59
NtRp2069
(dp2070
g62
(dp2071
sg71
g2065
sg64
(lp2072
g57
(g58
g59
NtRp2073
(dp2074
g62
(dp2075
g70
I3
ssg71
g2069
sg64
(lp2076
S'0'
asbasbasbasbasbasbasbasbasbasbasbag57
(g73
g59
NtRp2077
(dp2078
g62
(dp2079
sg71
g67
sg64
(lp2080
g57
(g78
g59
NtRp2081
(dp2082
g62
(dp2083
g82
g83
ssg71
g2077
sg64
(lp2084
S'extension'
p2085
asbag57
(g78
g59
NtRp2086
(dp2087
g62
(dp2088
g89
g90
ssg71
g2077
sg64
(lp2089
S':'
asbag57
(g78
g59
NtRp2090
(dp2091
g62
(dp2092
sg71
g2077
sg64
(lp2093
g57
(g58
g59
NtRp2094
(dp2095
g62
(dp2096
g70
I5
ssg71
g2090
sg64
(lp2097
S'html'
p2098
asbasbasbag57
(g73
g59
NtRp2099
(dp2100
g62
(dp2101
sg71
g67
sg64
(lp2102
g57
(g78
g59
NtRp2103
(dp2104
g62
(dp2105
g82
g83
ssg71
g2099
sg64
(lp2106
S'folder'
p2107
asbag57
(g78
g59
NtRp2108
(dp2109
g62
(dp2110
g89
g90
ssg71
g2099
sg64
(lp2111
S':'
asbag57
(g78
g59
NtRp2112
(dp2113
g62
(dp2114
sg71
g2099
sg64
(lp2115
g57
(g58
g59
NtRp2116
(dp2117
g62
(dp2118
g70
I5
ssg71
g2112
sg64
(lp2119
S'/home/shipra/Desktop/Semester 1.2/ITWS-2/web2py/applications/Assignment_2/'
p2120
asbasbasbag57
(g73
g59
NtRp2121
(dp2122
g62
(dp2123
sg71
g67
sg64
(lp2124
g57
(g78
g59
NtRp2125
(dp2126
g62
(dp2127
g82
g83
ssg71
g2121
sg64
(lp2128
S'function'
p2129
asbag57
(g78
g59
NtRp2130
(dp2131
g62
(dp2132
g89
g90
ssg71
g2121
sg64
(lp2133
S':'
asbag57
(g78
g59
NtRp2134
(dp2135
g62
(dp2136
sg71
g2121
sg64
(lp2137
g57
(g58
g59
NtRp2138
(dp2139
g62
(dp2140
g70
I5
ssg71
g2134
sg64
(lp2141
S'comm_post'
p2142
asbasbasbag57
(g73
g59
NtRp2143
(dp2144
g62
(dp2145
sg71
g67
sg64
(lp2146
g57
(g78
g59
NtRp2147
(dp2148
g62
(dp2149
g82
g83
ssg71
g2143
sg64
(lp2150
S'get_vars'
p2151
asbag57
(g78
g59
NtRp2152
(dp2153
g62
(dp2154
g89
g90
ssg71
g2143
sg64
(lp2155
S':'
asbag57
(g78
g59
NtRp2156
(dp2157
g62
(dp2158
sg71
g2143
sg64
(lp2159
g57
(g58
g59
NtRp2160
(dp2161
g62
(dp2162
g70
I5
ssg71
g2156
sg64
(lp2163
g57
(g66
g59
NtRp2164
(dp2165
g62
(dp2166
g70
I4
ssg71
Nsg64
(lp2167
sbasbasbasbag57
(g73
g59
NtRp2168
(dp2169
g62
(dp2170
sg71
g67
sg64
(lp2171
g57
(g78
g59
NtRp2172
(dp2173
g62
(dp2174
g82
g83
ssg71
g2168
sg64
(lp2175
S'global_settings'
p2176
asbag57
(g78
g59
NtRp2177
(dp2178
g62
(dp2179
g89
g90
ssg71
g2168
sg64
(lp2180
S':'
asbag57
(g78
g59
NtRp2181
(dp2182
g62
(dp2183
sg71
g2168
sg64
(lp2184
g57
(g58
g59
NtRp2185
(dp2186
g62
(dp2187
g70
I5
ssg71
g2181
sg64
(lp2188
g57
(g66
g59
NtRp2189
(dp2190
g62
(dp2191
g70
I4
ssg71
Nsg64
(lp2192
g57
(g73
g59
NtRp2193
(dp2194
g62
(dp2195
sg71
g2189
sg64
(lp2196
g57
(g78
g59
NtRp2197
(dp2198
g62
(dp2199
g82
g83
ssg71
g2193
sg64
(lp2200
g1070
asbag57
(g78
g59
NtRp2201
(dp2202
g62
(dp2203
g89
g90
ssg71
g2193
sg64
(lp2204
S':'
asbag57
(g78
g59
NtRp2205
(dp2206
g62
(dp2207
sg71
g2193
sg64
(lp2208
g57
(g58
g59
NtRp2209
(dp2210
g62
(dp2211
g70
I4
ssg71
g2205
sg64
(lp2212
S"set(['/home/shipra/Desktop/Semester 1.2/ITWS-2/web2py/applications/Assignment_2/', '/home/shipra/Desktop/Semester 1.2/ITWS-2/web2py/applications/welcome/', '/home/shipra/Desktop/Semester 1.2/ITWS-2/web2py/applications/admin/'])"
p2213
asbasbasbag57
(g73
g59
NtRp2214
(dp2215
g62
(dp2216
sg71
g2189
sg64
(lp2217
g57
(g78
g59
NtRp2218
(dp2219
g62
(dp2220
g82
g83
ssg71
g2214
sg64
(lp2221
g1092
asbag57
(g78
g59
NtRp2222
(dp2223
g62
(dp2224
g89
g90
ssg71
g2214
sg64
(lp2225
S':'
asbag57
(g78
g59
NtRp2226
(dp2227
g62
(dp2228
sg71
g2214
sg64
(lp2229
g57
(g58
g59
NtRp2230
(dp2231
g62
(dp2232
g70
I4
ssg71
g2226
sg64
(lp2233
g1105
asbasbasbag57
(g73
g59
NtRp2234
(dp2235
g62
(dp2236
sg71
g2189
sg64
(lp2237
g57
(g78
g59
NtRp2238
(dp2239
g62
(dp2240
g82
g83
ssg71
g2234
sg64
(lp2241
g1114
asbag57
(g78
g59
NtRp2242
(dp2243
g62
(dp2244
g89
g90
ssg71
g2234
sg64
(lp2245
S':'
asbag57
(g78
g59
NtRp2246
(dp2247
g62
(dp2248
sg71
g2234
sg64
(lp2249
g57
(g58
g59
NtRp2250
(dp2251
g62
(dp2252
g70
I4
ssg71
g2246
sg64
(lp2253
g57
(g66
g59
NtRp2254
(dp2255
g62
(dp2256
g70
I3
ssg71
Nsg64
(lp2257
sbasbasbasbag57
(g73
g59
NtRp2258
(dp2259
g62
(dp2260
sg71
g2189
sg64
(lp2261
g57
(g78
g59
NtRp2262
(dp2263
g62
(dp2264
g82
g83
ssg71
g2258
sg64
(lp2265
g1139
asbag57
(g78
g59
NtRp2266
(dp2267
g62
(dp2268
g89
g90
ssg71
g2258
sg64
(lp2269
S':'
asbag57
(g78
g59
NtRp2270
(dp2271
g62
(dp2272
sg71
g2258
sg64
(lp2273
g57
(g58
g59
NtRp2274
(dp2275
g62
(dp2276
g70
I4
ssg71
g2270
sg64
(lp2277
S"<Values at 0x2fef290: {'verbose': False, 'ip': '127.0.0.1', 'with_scheduler': False, 'ips': ['10.1.129.70', '192.168.122.1', 'fe80::e611:5bff:fe38:8d0d%p5p1'], 'shutdown_timeout': 5, 'taskbar': False, 'port': 8000, 'maxthreads': None, 'softcron': False, 'server_name': 'shipra', 'bpython': False, 'nogui': False, 'pid_filename': 'httpserver.pid', 'extcron': False, 'runcron': False, 'run_system_tests': False, 'test': None, 'folder': '/home/shipra/Desktop/Semester 1.2/ITWS-2/web2py', 'config': '', 'minthreads': None, 'winservice': '', 'shell': None, 'run': '', 'log_filename': 'httpserver.log', 'debuglevel': 30, 'args': [''], 'socket_timeout': 5, 'ssl_ca_certificate': None, 'scheduler': None, 'profiler_filename': None, 'ssl_private_key': '', 'scheduler_groups': None, 'password': '<ask>', 'request_queue_size': 5, 'ssl_certificate': '', 'cronjob': False, 'numthreads': None, 'quiet': False, 'interfaces': None, 'import_models': False, 'timeout': 10, 'plain': False, 'nobanner': False}>"
p2278
asbasbasbag57
(g73
g59
NtRp2279
(dp2280
g62
(dp2281
sg71
g2189
sg64
(lp2282
g57
(g78
g59
NtRp2283
(dp2284
g62
(dp2285
g82
g83
ssg71
g2279
sg64
(lp2286
g1161
asbag57
(g78
g59
NtRp2287
(dp2288
g62
(dp2289
g89
g90
ssg71
g2279
sg64
(lp2290
S':'
asbag57
(g78
g59
NtRp2291
(dp2292
g62
(dp2293
sg71
g2279
sg64
(lp2294
g57
(g58
g59
NtRp2295
(dp2296
g62
(dp2297
g70
I4
ssg71
g2291
sg64
(lp2298
S'set([])'
p2299
asbasbasbag57
(g73
g59
NtRp2300
(dp2301
g62
(dp2302
sg71
g2189
sg64
(lp2303
g57
(g78
g59
NtRp2304
(dp2305
g62
(dp2306
g82
g83
ssg71
g2300
sg64
(lp2307
g1183
asbag57
(g78
g59
NtRp2308
(dp2309
g62
(dp2310
g89
g90
ssg71
g2300
sg64
(lp2311
S':'
asbag57
(g78
g59
NtRp2312
(dp2313
g62
(dp2314
sg71
g2300
sg64
(lp2315
g57
(g58
g59
NtRp2316
(dp2317
g62
(dp2318
g70
I4
ssg71
g2312
sg64
(lp2319
g100
asbasbasbag57
(g73
g59
NtRp2320
(dp2321
g62
(dp2322
sg71
g2189
sg64
(lp2323
g57
(g78
g59
NtRp2324
(dp2325
g62
(dp2326
g82
g83
ssg71
g2320
sg64
(lp2327
g1204
asbag57
(g78
g59
NtRp2328
(dp2329
g62
(dp2330
g89
g90
ssg71
g2320
sg64
(lp2331
S':'
asbag57
(g78
g59
NtRp2332
(dp2333
g62
(dp2334
sg71
g2320
sg64
(lp2335
g57
(g58
g59
NtRp2336
(dp2337
g62
(dp2338
g70
I4
ssg71
g2332
sg64
(lp2339
g1217
asbasbasbag57
(g73
g59
NtRp2340
(dp2341
g62
(dp2342
sg71
g2189
sg64
(lp2343
g57
(g78
g59
NtRp2344
(dp2345
g62
(dp2346
g82
g83
ssg71
g2340
sg64
(lp2347
g1380
asbag57
(g78
g59
NtRp2348
(dp2349
g62
(dp2350
g89
g90
ssg71
g2340
sg64
(lp2351
S':'
asbag57
(g78
g59
NtRp2352
(dp2353
g62
(dp2354
sg71
g2340
sg64
(lp2355
g57
(g58
g59
NtRp2356
(dp2357
g62
(dp2358
g70
I4
ssg71
g2352
sg64
(lp2359
g100
asbasbasbag57
(g73
g59
NtRp2360
(dp2361
g62
(dp2362
sg71
g2189
sg64
(lp2363
g57
(g78
g59
NtRp2364
(dp2365
g62
(dp2366
g82
g83
ssg71
g2360
sg64
(lp2367
g1401
asbag57
(g78
g59
NtRp2368
(dp2369
g62
(dp2370
g89
g90
ssg71
g2360
sg64
(lp2371
S':'
asbag57
(g78
g59
NtRp2372
(dp2373
g62
(dp2374
sg71
g2360
sg64
(lp2375
g57
(g58
g59
NtRp2376
(dp2377
g62
(dp2378
g70
I4
ssg71
g2372
sg64
(lp2379
g100
asbasbasbag57
(g73
g59
NtRp2380
(dp2381
g62
(dp2382
sg71
g2189
sg64
(lp2383
g57
(g78
g59
NtRp2384
(dp2385
g62
(dp2386
g82
g83
ssg71
g2380
sg64
(lp2387
g1422
asbag57
(g78
g59
NtRp2388
(dp2389
g62
(dp2390
g89
g90
ssg71
g2380
sg64
(lp2391
S':'
asbag57
(g78
g59
NtRp2392
(dp2393
g62
(dp2394
sg71
g2380
sg64
(lp2395
g57
(g58
g59
NtRp2396
(dp2397
g62
(dp2398
g70
I4
ssg71
g2392
sg64
(lp2399
g57
(g66
g59
NtRp2400
(dp2401
g62
(dp2402
g70
I3
ssg71
Nsg64
(lp2403
g57
(g73
g59
NtRp2404
(dp2405
g62
(dp2406
sg71
g2400
sg64
(lp2407
g57
(g78
g59
NtRp2408
(dp2409
g62
(dp2410
sg71
g2404
sg64
(lp2411
g57
(g58
g59
NtRp2412
(dp2413
g62
(dp2414
g70
I3
ssg71
g2408
sg64
(lp2415
g1451
asbasbasbag57
(g73
g59
NtRp2416
(dp2417
g62
(dp2418
sg71
g2400
sg64
(lp2419
g57
(g78
g59
NtRp2420
(dp2421
g62
(dp2422
sg71
g2416
sg64
(lp2423
g57
(g58
g59
NtRp2424
(dp2425
g62
(dp2426
g70
I3
ssg71
g2420
sg64
(lp2427
g1464
asbasbasbag57
(g73
g59
NtRp2428
(dp2429
g62
(dp2430
sg71
g2400
sg64
(lp2431
g57
(g78
g59
NtRp2432
(dp2433
g62
(dp2434
sg71
g2428
sg64
(lp2435
g57
(g58
g59
NtRp2436
(dp2437
g62
(dp2438
g70
I3
ssg71
g2432
sg64
(lp2439
g1477
asbasbasbag57
(g73
g59
NtRp2440
(dp2441
g62
(dp2442
sg71
g2400
sg64
(lp2443
g57
(g78
g59
NtRp2444
(dp2445
g62
(dp2446
sg71
g2440
sg64
(lp2447
g57
(g58
g59
NtRp2448
(dp2449
g62
(dp2450
g70
I3
ssg71
g2444
sg64
(lp2451
g1490
asbasbasbag57
(g73
g59
NtRp2452
(dp2453
g62
(dp2454
sg71
g2400
sg64
(lp2455
g57
(g78
g59
NtRp2456
(dp2457
g62
(dp2458
sg71
g2452
sg64
(lp2459
g57
(g58
g59
NtRp2460
(dp2461
g62
(dp2462
g70
I3
ssg71
g2456
sg64
(lp2463
g1503
asbasbasbag57
(g73
g59
NtRp2464
(dp2465
g62
(dp2466
sg71
g2400
sg64
(lp2467
g57
(g78
g59
NtRp2468
(dp2469
g62
(dp2470
sg71
g2464
sg64
(lp2471
g57
(g58
g59
NtRp2472
(dp2473
g62
(dp2474
g70
I3
ssg71
g2468
sg64
(lp2475
g1516
asbasbasbag57
(g73
g59
NtRp2476
(dp2477
g62
(dp2478
sg71
g2400
sg64
(lp2479
g57
(g78
g59
NtRp2480
(dp2481
g62
(dp2482
sg71
g2476
sg64
(lp2483
g57
(g58
g59
NtRp2484
(dp2485
g62
(dp2486
g70
I3
ssg71
g2480
sg64
(lp2487
g1529
asbasbasbasbasbasbasbag57
(g73
g59
NtRp2488
(dp2489
g62
(dp2490
sg71
g2189
sg64
(lp2491
g57
(g78
g59
NtRp2492
(dp2493
g62
(dp2494
g82
g83
ssg71
g2488
sg64
(lp2495
g1797
asbag57
(g78
g59
NtRp2496
(dp2497
g62
(dp2498
g89
g90
ssg71
g2488
sg64
(lp2499
S':'
asbag57
(g78
g59
NtRp2500
(dp2501
g62
(dp2502
sg71
g2488
sg64
(lp2503
g57
(g58
g59
NtRp2504
(dp2505
g62
(dp2506
g70
I4
ssg71
g2500
sg64
(lp2507
g57
(g66
g59
NtRp2508
(dp2509
g62
(dp2510
g70
I3
ssg71
Nsg64
(lp2511
g57
(g73
g59
NtRp2512
(dp2513
g62
(dp2514
sg71
g2508
sg64
(lp2515
g57
(g78
g59
NtRp2516
(dp2517
g62
(dp2518
sg71
g2512
sg64
(lp2519
g57
(g58
g59
NtRp2520
(dp2521
g62
(dp2522
g70
I3
ssg71
g2516
sg64
(lp2523
S'2'
asbasbasbag57
(g73
g59
NtRp2524
(dp2525
g62
(dp2526
sg71
g2508
sg64
(lp2527
g57
(g78
g59
NtRp2528
(dp2529
g62
(dp2530
sg71
g2524
sg64
(lp2531
g57
(g58
g59
NtRp2532
(dp2533
g62
(dp2534
g70
I3
ssg71
g2528
sg64
(lp2535
S'3'
asbasbasbag57
(g73
g59
NtRp2536
(dp2537
g62
(dp2538
sg71
g2508
sg64
(lp2539
g57
(g78
g59
NtRp2540
(dp2541
g62
(dp2542
sg71
g2536
sg64
(lp2543
g57
(g58
g59
NtRp2544
(dp2545
g62
(dp2546
g70
I3
ssg71
g2540
sg64
(lp2547
S'2'
asbasbasbag57
(g73
g59
NtRp2548
(dp2549
g62
(dp2550
sg71
g2508
sg64
(lp2551
g57
(g78
g59
NtRp2552
(dp2553
g62
(dp2554
sg71
g2548
sg64
(lp2555
g57
(g58
g59
NtRp2556
(dp2557
g62
(dp2558
g70
I3
ssg71
g2552
sg64
(lp2559
S'datetime.datetime(2012, 12, 17, 15, 3, 30)'
p2560
asbasbasbag57
(g73
g59
NtRp2561
(dp2562
g62
(dp2563
sg71
g2508
sg64
(lp2564
g57
(g78
g59
NtRp2565
(dp2566
g62
(dp2567
sg71
g2561
sg64
(lp2568
g57
(g58
g59
NtRp2569
(dp2570
g62
(dp2571
g70
I3
ssg71
g2565
sg64
(lp2572
g1875
asbasbasbasbasbasbasbasbasbasbasbag57
(g73
g59
NtRp2573
(dp2574
g62
(dp2575
sg71
g67
sg64
(lp2576
g57
(g78
g59
NtRp2577
(dp2578
g62
(dp2579
g82
g83
ssg71
g2573
sg64
(lp2580
S'is_https'
p2581
asbag57
(g78
g59
NtRp2582
(dp2583
g62
(dp2584
g89
g90
ssg71
g2573
sg64
(lp2585
S':'
asbag57
(g78
g59
NtRp2586
(dp2587
g62
(dp2588
sg71
g2573
sg64
(lp2589
g57
(g58
g59
NtRp2590
(dp2591
g62
(dp2592
g70
I5
ssg71
g2586
sg64
(lp2593
g100
asbasbasbag57
(g73
g59
NtRp2594
(dp2595
g62
(dp2596
sg71
g67
sg64
(lp2597
g57
(g78
g59
NtRp2598
(dp2599
g62
(dp2600
g82
g83
ssg71
g2594
sg64
(lp2601
S'is_local'
p2602
asbag57
(g78
g59
NtRp2603
(dp2604
g62
(dp2605
g89
g90
ssg71
g2594
sg64
(lp2606
S':'
asbag57
(g78
g59
NtRp2607
(dp2608
g62
(dp2609
sg71
g2594
sg64
(lp2610
g57
(g58
g59
NtRp2611
(dp2612
g62
(dp2613
g70
I5
ssg71
g2607
sg64
(lp2614
g1984
asbasbasbag57
(g73
g59
NtRp2615
(dp2616
g62
(dp2617
sg71
g67
sg64
(lp2618
g57
(g78
g59
NtRp2619
(dp2620
g62
(dp2621
g82
g83
ssg71
g2615
sg64
(lp2622
S'is_restful'
p2623
asbag57
(g78
g59
NtRp2624
(dp2625
g62
(dp2626
g89
g90
ssg71
g2615
sg64
(lp2627
S':'
asbag57
(g78
g59
NtRp2628
(dp2629
g62
(dp2630
sg71
g2615
sg64
(lp2631
g57
(g58
g59
NtRp2632
(dp2633
g62
(dp2634
g70
I5
ssg71
g2628
sg64
(lp2635
g100
asbasbasbag57
(g73
g59
NtRp2636
(dp2637
g62
(dp2638
sg71
g67
sg64
(lp2639
g57
(g78
g59
NtRp2640
(dp2641
g62
(dp2642
g82
g83
ssg71
g2636
sg64
(lp2643
S'now'
p2644
asbag57
(g78
g59
NtRp2645
(dp2646
g62
(dp2647
g89
g90
ssg71
g2636
sg64
(lp2648
S':'
asbag57
(g78
g59
NtRp2649
(dp2650
g62
(dp2651
sg71
g2636
sg64
(lp2652
g57
(g58
g59
NtRp2653
(dp2654
g62
(dp2655
g70
I5
ssg71
g2649
sg64
(lp2656
S'datetime.datetime(2013, 8, 29, 12, 22, 24, 117856)'
p2657
asbasbasbag57
(g73
g59
NtRp2658
(dp2659
g62
(dp2660
sg71
g67
sg64
(lp2661
g57
(g78
g59
NtRp2662
(dp2663
g62
(dp2664
g82
g83
ssg71
g2658
sg64
(lp2665
S'post_vars'
p2666
asbag57
(g78
g59
NtRp2667
(dp2668
g62
(dp2669
g89
g90
ssg71
g2658
sg64
(lp2670
S':'
asbag57
(g78
g59
NtRp2671
(dp2672
g62
(dp2673
sg71
g2658
sg64
(lp2674
g57
(g58
g59
NtRp2675
(dp2676
g62
(dp2677
g70
I5
ssg71
g2671
sg64
(lp2678
g57
(g66
g59
NtRp2679
(dp2680
g62
(dp2681
g70
I4
ssg71
Nsg64
(lp2682
sbasbasbasbag57
(g73
g59
NtRp2683
(dp2684
g62
(dp2685
sg71
g67
sg64
(lp2686
g57
(g78
g59
NtRp2687
(dp2688
g62
(dp2689
g82
g83
ssg71
g2683
sg64
(lp2690
S'raw_args'
p2691
asbag57
(g78
g59
NtRp2692
(dp2693
g62
(dp2694
g89
g90
ssg71
g2683
sg64
(lp2695
S':'
asbag57
(g78
g59
NtRp2696
(dp2697
g62
(dp2698
sg71
g2683
sg64
(lp2699
g57
(g58
g59
NtRp2700
(dp2701
g62
(dp2702
g70
I5
ssg71
g2696
sg64
(lp2703
S'8/Music'
p2704
asbasbasbag57
(g73
g59
NtRp2705
(dp2706
g62
(dp2707
sg71
g67
sg64
(lp2708
g57
(g78
g59
NtRp2709
(dp2710
g62
(dp2711
g82
g83
ssg71
g2705
sg64
(lp2712
S'raw_extension'
p2713
asbag57
(g78
g59
NtRp2714
(dp2715
g62
(dp2716
g89
g90
ssg71
g2705
sg64
(lp2717
S':'
asbag57
(g78
g59
NtRp2718
(dp2719
g62
(dp2720
sg71
g2705
sg64
(lp2721
g57
(g58
g59
NtRp2722
(dp2723
g62
(dp2724
g70
I5
ssg71
g2718
sg64
(lp2725
S'None'
p2726
asbasbasbag57
(g73
g59
NtRp2727
(dp2728
g62
(dp2729
sg71
g67
sg64
(lp2730
g57
(g78
g59
NtRp2731
(dp2732
g62
(dp2733
g82
g83
ssg71
g2727
sg64
(lp2734
S'url'
p2735
asbag57
(g78
g59
NtRp2736
(dp2737
g62
(dp2738
g89
g90
ssg71
g2727
sg64
(lp2739
S':'
asbag57
(g78
g59
NtRp2740
(dp2741
g62
(dp2742
sg71
g2727
sg64
(lp2743
g57
(g58
g59
NtRp2744
(dp2745
g62
(dp2746
g70
I5
ssg71
g2740
sg64
(lp2747
g1551
asbasbasbag57
(g73
g59
NtRp2748
(dp2749
g62
(dp2750
sg71
g67
sg64
(lp2751
g57
(g78
g59
NtRp2752
(dp2753
g62
(dp2754
g82
g83
ssg71
g2748
sg64
(lp2755
S'utcnow'
p2756
asbag57
(g78
g59
NtRp2757
(dp2758
g62
(dp2759
g89
g90
ssg71
g2748
sg64
(lp2760
S':'
asbag57
(g78
g59
NtRp2761
(dp2762
g62
(dp2763
sg71
g2748
sg64
(lp2764
g57
(g58
g59
NtRp2765
(dp2766
g62
(dp2767
g70
I5
ssg71
g2761
sg64
(lp2768
S'datetime.datetime(2013, 8, 29, 6, 52, 24, 117876)'
p2769
asbasbasbag57
(g73
g59
NtRp2770
(dp2771
g62
(dp2772
sg71
g67
sg64
(lp2773
g57
(g78
g59
NtRp2774
(dp2775
g62
(dp2776
g82
g83
ssg71
g2770
sg64
(lp2777
S'uuid'
p2778
asbag57
(g78
g59
NtRp2779
(dp2780
g62
(dp2781
g89
g90
ssg71
g2770
sg64
(lp2782
S':'
asbag57
(g78
g59
NtRp2783
(dp2784
g62
(dp2785
sg71
g2770
sg64
(lp2786
g57
(g58
g59
NtRp2787
(dp2788
g62
(dp2789
g70
I5
ssg71
g2783
sg64
(lp2790
S'Assignment_2/127.0.0.1.2013-08-29.12-22-24.0bb2357b-3e4a-4189-82d9-c1a9859543b6'
p2791
asbasbasbag57
(g73
g59
NtRp2792
(dp2793
g62
(dp2794
sg71
g67
sg64
(lp2795
g57
(g78
g59
NtRp2796
(dp2797
g62
(dp2798
g82
g83
ssg71
g2792
sg64
(lp2799
S'vars'
p2800
asbag57
(g78
g59
NtRp2801
(dp2802
g62
(dp2803
g89
g90
ssg71
g2792
sg64
(lp2804
S':'
asbag57
(g78
g59
NtRp2805
(dp2806
g62
(dp2807
sg71
g2792
sg64
(lp2808
g57
(g58
g59
NtRp2809
(dp2810
g62
(dp2811
g70
I5
ssg71
g2805
sg64
(lp2812
g57
(g66
g59
NtRp2813
(dp2814
g62
(dp2815
g70
I4
ssg71
Nsg64
(lp2816
sbasbasbasbag57
(g73
g59
NtRp2817
(dp2818
g62
(dp2819
sg71
g67
sg64
(lp2820
g57
(g78
g59
NtRp2821
(dp2822
g62
(dp2823
g82
g83
ssg71
g2817
sg64
(lp2824
S'wsgi'
p2825
asbag57
(g78
g59
NtRp2826
(dp2827
g62
(dp2828
g89
g90
ssg71
g2817
sg64
(lp2829
S':'
asbag57
(g78
g59
NtRp2830
(dp2831
g62
(dp2832
sg71
g2817
sg64
(lp2833
g57
(g58
g59
NtRp2834
(dp2835
g62
(dp2836
g70
I5
ssg71
g2830
sg64
(lp2837
g57
(g66
g59
NtRp2838
(dp2839
g62
(dp2840
g70
I4
ssg71
Nsg64
(lp2841
g57
(g73
g59
NtRp2842
(dp2843
g62
(dp2844
sg71
g2838
sg64
(lp2845
g57
(g78
g59
NtRp2846
(dp2847
g62
(dp2848
g82
g83
ssg71
g2842
sg64
(lp2849
S'environ'
p2850
asbag57
(g78
g59
NtRp2851
(dp2852
g62
(dp2853
g89
g90
ssg71
g2842
sg64
(lp2854
S':'
asbag57
(g78
g59
NtRp2855
(dp2856
g62
(dp2857
sg71
g2842
sg64
(lp2858
g57
(g58
g59
NtRp2859
(dp2860
g62
(dp2861
g70
I4
ssg71
g2855
sg64
(lp2862
g57
(g66
g59
NtRp2863
(dp2864
g62
(dp2865
g70
I3
ssg71
Nsg64
(lp2866
g57
(g73
g59
NtRp2867
(dp2868
g62
(dp2869
sg71
g2863
sg64
(lp2870
g57
(g78
g59
NtRp2871
(dp2872
g62
(dp2873
g82
g83
ssg71
g2867
sg64
(lp2874
S'HTTP_ACCEPT'
p2875
asbag57
(g78
g59
NtRp2876
(dp2877
g62
(dp2878
g89
g90
ssg71
g2867
sg64
(lp2879
S':'
asbag57
(g78
g59
NtRp2880
(dp2881
g62
(dp2882
sg71
g2867
sg64
(lp2883
g57
(g58
g59
NtRp2884
(dp2885
g62
(dp2886
g70
I3
ssg71
g2880
sg64
(lp2887
g1239
asbasbasbag57
(g73
g59
NtRp2888
(dp2889
g62
(dp2890
sg71
g2863
sg64
(lp2891
g57
(g78
g59
NtRp2892
(dp2893
g62
(dp2894
g82
g83
ssg71
g2888
sg64
(lp2895
S'HTTP_ACCEPT_ENCODING'
p2896
asbag57
(g78
g59
NtRp2897
(dp2898
g62
(dp2899
g89
g90
ssg71
g2888
sg64
(lp2900
S':'
asbag57
(g78
g59
NtRp2901
(dp2902
g62
(dp2903
sg71
g2888
sg64
(lp2904
g57
(g58
g59
NtRp2905
(dp2906
g62
(dp2907
g70
I3
ssg71
g2901
sg64
(lp2908
g1261
asbasbasbag57
(g73
g59
NtRp2909
(dp2910
g62
(dp2911
sg71
g2863
sg64
(lp2912
g57
(g78
g59
NtRp2913
(dp2914
g62
(dp2915
g82
g83
ssg71
g2909
sg64
(lp2916
S'HTTP_ACCEPT_LANGUAGE'
p2917
asbag57
(g78
g59
NtRp2918
(dp2919
g62
(dp2920
g89
g90
ssg71
g2909
sg64
(lp2921
S':'
asbag57
(g78
g59
NtRp2922
(dp2923
g62
(dp2924
sg71
g2909
sg64
(lp2925
g57
(g58
g59
NtRp2926
(dp2927
g62
(dp2928
g70
I3
ssg71
g2922
sg64
(lp2929
g1283
asbasbasbag57
(g73
g59
NtRp2930
(dp2931
g62
(dp2932
sg71
g2863
sg64
(lp2933
g57
(g78
g59
NtRp2934
(dp2935
g62
(dp2936
g82
g83
ssg71
g2930
sg64
(lp2937
S'HTTP_CONNECTION'
p2938
asbag57
(g78
g59
NtRp2939
(dp2940
g62
(dp2941
g89
g90
ssg71
g2930
sg64
(lp2942
S':'
asbag57
(g78
g59
NtRp2943
(dp2944
g62
(dp2945
sg71
g2930
sg64
(lp2946
g57
(g58
g59
NtRp2947
(dp2948
g62
(dp2949
g70
I3
ssg71
g2943
sg64
(lp2950
g1305
asbasbasbag57
(g73
g59
NtRp2951
(dp2952
g62
(dp2953
sg71
g2863
sg64
(lp2954
g57
(g78
g59
NtRp2955
(dp2956
g62
(dp2957
g82
g83
ssg71
g2951
sg64
(lp2958
S'HTTP_COOKIE'
p2959
asbag57
(g78
g59
NtRp2960
(dp2961
g62
(dp2962
g89
g90
ssg71
g2951
sg64
(lp2963
S':'
asbag57
(g78
g59
NtRp2964
(dp2965
g62
(dp2966
sg71
g2951
sg64
(lp2967
g57
(g58
g59
NtRp2968
(dp2969
g62
(dp2970
g70
I3
ssg71
g2964
sg64
(lp2971
g1327
asbasbasbag57
(g73
g59
NtRp2972
(dp2973
g62
(dp2974
sg71
g2863
sg64
(lp2975
g57
(g78
g59
NtRp2976
(dp2977
g62
(dp2978
g82
g83
ssg71
g2972
sg64
(lp2979
S'HTTP_HOST'
p2980
asbag57
(g78
g59
NtRp2981
(dp2982
g62
(dp2983
g89
g90
ssg71
g2972
sg64
(lp2984
S':'
asbag57
(g78
g59
NtRp2985
(dp2986
g62
(dp2987
sg71
g2972
sg64
(lp2988
g57
(g58
g59
NtRp2989
(dp2990
g62
(dp2991
g70
I3
ssg71
g2985
sg64
(lp2992
g1349
asbasbasbag57
(g73
g59
NtRp2993
(dp2994
g62
(dp2995
sg71
g2863
sg64
(lp2996
g57
(g78
g59
NtRp2997
(dp2998
g62
(dp2999
g82
g83
ssg71
g2993
sg64
(lp3000
S'HTTP_USER_AGENT'
p3001
asbag57
(g78
g59
NtRp3002
(dp3003
g62
(dp3004
g89
g90
ssg71
g2993
sg64
(lp3005
S':'
asbag57
(g78
g59
NtRp3006
(dp3007
g62
(dp3008
sg71
g2993
sg64
(lp3009
g57
(g58
g59
NtRp3010
(dp3011
g62
(dp3012
g70
I3
ssg71
g3006
sg64
(lp3013
g1371
asbasbasbag57
(g73
g59
NtRp3014
(dp3015
g62
(dp3016
sg71
g2863
sg64
(lp3017
g57
(g78
g59
NtRp3018
(dp3019
g62
(dp3020
g82
g83
ssg71
g3014
sg64
(lp3021
S'PATH_INFO'
p3022
asbag57
(g78
g59
NtRp3023
(dp3024
g62
(dp3025
g89
g90
ssg71
g3014
sg64
(lp3026
S':'
asbag57
(g78
g59
NtRp3027
(dp3028
g62
(dp3029
sg71
g3014
sg64
(lp3030
g57
(g58
g59
NtRp3031
(dp3032
g62
(dp3033
g70
I3
ssg71
g3027
sg64
(lp3034
g1551
asbasbasbag57
(g73
g59
NtRp3035
(dp3036
g62
(dp3037
sg71
g2863
sg64
(lp3038
g57
(g78
g59
NtRp3039
(dp3040
g62
(dp3041
g82
g83
ssg71
g3035
sg64
(lp3042
S'QUERY_STRING'
p3043
asbag57
(g78
g59
NtRp3044
(dp3045
g62
(dp3046
g89
g90
ssg71
g3035
sg64
(lp3047
S':'
asbag57
(g78
g59
NtRp3048
(dp3049
g62
(dp3050
sg71
g3035
sg64
(lp3051
g57
(g58
g59
NtRp3052
(dp3053
g62
(dp3054
g70
I3
ssg71
g3048
sg64
(lp3055
S''
asbasbasbag57
(g73
g59
NtRp3056
(dp3057
g62
(dp3058
sg71
g2863
sg64
(lp3059
g57
(g78
g59
NtRp3060
(dp3061
g62
(dp3062
g82
g83
ssg71
g3056
sg64
(lp3063
S'REMOTE_ADDR'
p3064
asbag57
(g78
g59
NtRp3065
(dp3066
g62
(dp3067
g89
g90
ssg71
g3056
sg64
(lp3068
S':'
asbag57
(g78
g59
NtRp3069
(dp3070
g62
(dp3071
sg71
g3056
sg64
(lp3072
g57
(g58
g59
NtRp3073
(dp3074
g62
(dp3075
g70
I3
ssg71
g3069
sg64
(lp3076
g237
asbasbasbag57
(g73
g59
NtRp3077
(dp3078
g62
(dp3079
sg71
g2863
sg64
(lp3080
g57
(g78
g59
NtRp3081
(dp3082
g62
(dp3083
g82
g83
ssg71
g3077
sg64
(lp3084
S'REMOTE_PORT'
p3085
asbag57
(g78
g59
NtRp3086
(dp3087
g62
(dp3088
g89
g90
ssg71
g3077
sg64
(lp3089
S':'
asbag57
(g78
g59
NtRp3090
(dp3091
g62
(dp3092
sg71
g3077
sg64
(lp3093
g57
(g58
g59
NtRp3094
(dp3095
g62
(dp3096
g70
I3
ssg71
g3090
sg64
(lp3097
g1615
asbasbasbag57
(g73
g59
NtRp3098
(dp3099
g62
(dp3100
sg71
g2863
sg64
(lp3101
g57
(g78
g59
NtRp3102
(dp3103
g62
(dp3104
g82
g83
ssg71
g3098
sg64
(lp3105
S'REQUEST_METHOD'
p3106
asbag57
(g78
g59
NtRp3107
(dp3108
g62
(dp3109
g89
g90
ssg71
g3098
sg64
(lp3110
S':'
asbag57
(g78
g59
NtRp3111
(dp3112
g62
(dp3113
sg71
g3098
sg64
(lp3114
g57
(g58
g59
NtRp3115
(dp3116
g62
(dp3117
g70
I3
ssg71
g3111
sg64
(lp3118
g1637
asbasbasbag57
(g73
g59
NtRp3119
(dp3120
g62
(dp3121
sg71
g2863
sg64
(lp3122
g57
(g78
g59
NtRp3123
(dp3124
g62
(dp3125
g82
g83
ssg71
g3119
sg64
(lp3126
S'REQUEST_URI'
p3127
asbag57
(g78
g59
NtRp3128
(dp3129
g62
(dp3130
g89
g90
ssg71
g3119
sg64
(lp3131
S':'
asbag57
(g78
g59
NtRp3132
(dp3133
g62
(dp3134
sg71
g3119
sg64
(lp3135
g57
(g58
g59
NtRp3136
(dp3137
g62
(dp3138
g70
I3
ssg71
g3132
sg64
(lp3139
g1551
asbasbasbag57
(g73
g59
NtRp3140
(dp3141
g62
(dp3142
sg71
g2863
sg64
(lp3143
g57
(g78
g59
NtRp3144
(dp3145
g62
(dp3146
g82
g83
ssg71
g3140
sg64
(lp3147
S'SCRIPT_NAME'
p3148
asbag57
(g78
g59
NtRp3149
(dp3150
g62
(dp3151
g89
g90
ssg71
g3140
sg64
(lp3152
S':'
asbag57
(g78
g59
NtRp3153
(dp3154
g62
(dp3155
sg71
g3140
sg64
(lp3156
g57
(g58
g59
NtRp3157
(dp3158
g62
(dp3159
g70
I3
ssg71
g3153
sg64
(lp3160
S''
asbasbasbag57
(g73
g59
NtRp3161
(dp3162
g62
(dp3163
sg71
g2863
sg64
(lp3164
g57
(g78
g59
NtRp3165
(dp3166
g62
(dp3167
g82
g83
ssg71
g3161
sg64
(lp3168
S'SERVER_NAME'
p3169
asbag57
(g78
g59
NtRp3170
(dp3171
g62
(dp3172
g89
g90
ssg71
g3161
sg64
(lp3173
S':'
asbag57
(g78
g59
NtRp3174
(dp3175
g62
(dp3176
sg71
g3161
sg64
(lp3177
g57
(g58
g59
NtRp3178
(dp3179
g62
(dp3180
g70
I3
ssg71
g3174
sg64
(lp3181
g1701
asbasbasbag57
(g73
g59
NtRp3182
(dp3183
g62
(dp3184
sg71
g2863
sg64
(lp3185
g57
(g78
g59
NtRp3186
(dp3187
g62
(dp3188
g82
g83
ssg71
g3182
sg64
(lp3189
S'SERVER_PORT'
p3190
asbag57
(g78
g59
NtRp3191
(dp3192
g62
(dp3193
g89
g90
ssg71
g3182
sg64
(lp3194
S':'
asbag57
(g78
g59
NtRp3195
(dp3196
g62
(dp3197
sg71
g3182
sg64
(lp3198
g57
(g58
g59
NtRp3199
(dp3200
g62
(dp3201
g70
I3
ssg71
g3195
sg64
(lp3202
g1723
asbasbasbag57
(g73
g59
NtRp3203
(dp3204
g62
(dp3205
sg71
g2863
sg64
(lp3206
g57
(g78
g59
NtRp3207
(dp3208
g62
(dp3209
g82
g83
ssg71
g3203
sg64
(lp3210
S'SERVER_PROTOCOL'
p3211
asbag57
(g78
g59
NtRp3212
(dp3213
g62
(dp3214
g89
g90
ssg71
g3203
sg64
(lp3215
S':'
asbag57
(g78
g59
NtRp3216
(dp3217
g62
(dp3218
sg71
g3203
sg64
(lp3219
g57
(g58
g59
NtRp3220
(dp3221
g62
(dp3222
g70
I3
ssg71
g3216
sg64
(lp3223
g1745
asbasbasbag57
(g73
g59
NtRp3224
(dp3225
g62
(dp3226
sg71
g2863
sg64
(lp3227
g57
(g78
g59
NtRp3228
(dp3229
g62
(dp3230
g82
g83
ssg71
g3224
sg64
(lp3231
S'SERVER_SOFTWARE'
p3232
asbag57
(g78
g59
NtRp3233
(dp3234
g62
(dp3235
g89
g90
ssg71
g3224
sg64
(lp3236
S':'
asbag57
(g78
g59
NtRp3237
(dp3238
g62
(dp3239
sg71
g3224
sg64
(lp3240
g57
(g58
g59
NtRp3241
(dp3242
g62
(dp3243
g70
I3
ssg71
g3237
sg64
(lp3244
g1767
asbasbasbag57
(g73
g59
NtRp3245
(dp3246
g62
(dp3247
sg71
g2863
sg64
(lp3248
g57
(g78
g59
NtRp3249
(dp3250
g62
(dp3251
g82
g83
ssg71
g3245
sg64
(lp3252
S'wsgi.errors'
p3253
asbag57
(g78
g59
NtRp3254
(dp3255
g62
(dp3256
g89
g90
ssg71
g3245
sg64
(lp3257
S':'
asbag57
(g78
g59
NtRp3258
(dp3259
g62
(dp3260
sg71
g3245
sg64
(lp3261
g57
(g58
g59
NtRp3262
(dp3263
g62
(dp3264
g70
I3
ssg71
g3258
sg64
(lp3265
S"<open file '<stderr>', mode 'w' at 0x7f3b7e802270>"
p3266
asbasbasbag57
(g73
g59
NtRp3267
(dp3268
g62
(dp3269
sg71
g2863
sg64
(lp3270
g57
(g78
g59
NtRp3271
(dp3272
g62
(dp3273
g82
g83
ssg71
g3267
sg64
(lp3274
S'wsgi.file_wrapper'
p3275
asbag57
(g78
g59
NtRp3276
(dp3277
g62
(dp3278
g89
g90
ssg71
g3267
sg64
(lp3279
S':'
asbag57
(g78
g59
NtRp3280
(dp3281
g62
(dp3282
sg71
g3267
sg64
(lp3283
g57
(g58
g59
NtRp3284
(dp3285
g62
(dp3286
g70
I3
ssg71
g3280
sg64
(lp3287
S'<class wsgiref.util.FileWrapper at 0x2f78e20>'
p3288
asbasbasbag57
(g73
g59
NtRp3289
(dp3290
g62
(dp3291
sg71
g2863
sg64
(lp3292
g57
(g78
g59
NtRp3293
(dp3294
g62
(dp3295
g82
g83
ssg71
g3289
sg64
(lp3296
S'wsgi.input'
p3297
asbag57
(g78
g59
NtRp3298
(dp3299
g62
(dp3300
g89
g90
ssg71
g3289
sg64
(lp3301
S':'
asbag57
(g78
g59
NtRp3302
(dp3303
g62
(dp3304
sg71
g3289
sg64
(lp3305
g57
(g58
g59
NtRp3306
(dp3307
g62
(dp3308
g70
I3
ssg71
g3302
sg64
(lp3309
S'<cStringIO.StringO object at 0x7f3b5462d148>'
p3310
asbasbasbag57
(g73
g59
NtRp3311
(dp3312
g62
(dp3313
sg71
g2863
sg64
(lp3314
g57
(g78
g59
NtRp3315
(dp3316
g62
(dp3317
g82
g83
ssg71
g3311
sg64
(lp3318
S'wsgi.multiprocess'
p3319
asbag57
(g78
g59
NtRp3320
(dp3321
g62
(dp3322
g89
g90
ssg71
g3311
sg64
(lp3323
S':'
asbag57
(g78
g59
NtRp3324
(dp3325
g62
(dp3326
sg71
g3311
sg64
(lp3327
g57
(g58
g59
NtRp3328
(dp3329
g62
(dp3330
g70
I3
ssg71
g3324
sg64
(lp3331
g100
asbasbasbag57
(g73
g59
NtRp3332
(dp3333
g62
(dp3334
sg71
g2863
sg64
(lp3335
g57
(g78
g59
NtRp3336
(dp3337
g62
(dp3338
g82
g83
ssg71
g3332
sg64
(lp3339
S'wsgi.multithread'
p3340
asbag57
(g78
g59
NtRp3341
(dp3342
g62
(dp3343
g89
g90
ssg71
g3332
sg64
(lp3344
S':'
asbag57
(g78
g59
NtRp3345
(dp3346
g62
(dp3347
sg71
g3332
sg64
(lp3348
g57
(g58
g59
NtRp3349
(dp3350
g62
(dp3351
g70
I3
ssg71
g3345
sg64
(lp3352
g1984
asbasbasbag57
(g73
g59
NtRp3353
(dp3354
g62
(dp3355
sg71
g2863
sg64
(lp3356
g57
(g78
g59
NtRp3357
(dp3358
g62
(dp3359
g82
g83
ssg71
g3353
sg64
(lp3360
S'wsgi.run_once'
p3361
asbag57
(g78
g59
NtRp3362
(dp3363
g62
(dp3364
g89
g90
ssg71
g3353
sg64
(lp3365
S':'
asbag57
(g78
g59
NtRp3366
(dp3367
g62
(dp3368
sg71
g3353
sg64
(lp3369
g57
(g58
g59
NtRp3370
(dp3371
g62
(dp3372
g70
I3
ssg71
g3366
sg64
(lp3373
g100
asbasbasbag57
(g73
g59
NtRp3374
(dp3375
g62
(dp3376
sg71
g2863
sg64
(lp3377
g57
(g78
g59
NtRp3378
(dp3379
g62
(dp3380
g82
g83
ssg71
g3374
sg64
(lp3381
S'wsgi.url_scheme'
p3382
asbag57
(g78
g59
NtRp3383
(dp3384
g62
(dp3385
g89
g90
ssg71
g3374
sg64
(lp3386
S':'
asbag57
(g78
g59
NtRp3387
(dp3388
g62
(dp3389
sg71
g3374
sg64
(lp3390
g57
(g58
g59
NtRp3391
(dp3392
g62
(dp3393
g70
I3
ssg71
g3387
sg64
(lp3394
g2027
asbasbasbag57
(g73
g59
NtRp3395
(dp3396
g62
(dp3397
sg71
g2863
sg64
(lp3398
g57
(g78
g59
NtRp3399
(dp3400
g62
(dp3401
g82
g83
ssg71
g3395
sg64
(lp3402
S'wsgi.version'
p3403
asbag57
(g78
g59
NtRp3404
(dp3405
g62
(dp3406
g89
g90
ssg71
g3395
sg64
(lp3407
S':'
asbag57
(g78
g59
NtRp3408
(dp3409
g62
(dp3410
sg71
g3395
sg64
(lp3411
g57
(g58
g59
NtRp3412
(dp3413
g62
(dp3414
g70
I3
ssg71
g3408
sg64
(lp3415
S'1'
asbasbasbasbasbasbasbasbasbasbasbasbasbsS'frames'
p3416
(lp3417
(dp3418
S'file'
p3419
S'/home/shipra/Desktop/Semester 1.2/ITWS-2/web2py/gluon/restricted.py'
p3420
sS'dump'
p3421
(dp3422
S'environment'
p3423
S"{'A': <class 'gluon.html.A'>, 'Auth': <class 'gluon.tools.Auth'>, 'B': <class 'gluon.html.B'>, 'BEAUTIFY': <class 'gluon.html.BEAUTIFY'>, 'BODY': <class 'gluon.html.BODY'>, 'BR': <class 'gluon.html.BR'>, 'BUTTON': <class 'gluon.html.BUTTON'>, 'CAT': <class 'gluon.html.CAT'>, 'CENTER': <class 'gluon.html.CENTER'>, 'CLEANUP': <class 'gluon.validators.CLEANUP'>, ...}"
p3424
sS'ccode'
p3425
S'<code object <module> at 0x7f3b54628630, file "/...signment_2/views/default/comm_post.html", line 1>'
p3426
ssS'lnum'
p3427
I212
sS'lines'
p3428
(dp3429
I207
S'    try:'
p3430
sI208
S'        if isinstance(code, types.CodeType):'
p3431
sI209
S'            ccode = code'
p3432
sI210
S'        else:'
p3433
sI211
S'            ccode = compile2(code, layer)'
p3434
sI212
S'        exec ccode in environment'
p3435
sI213
S'    except HTTP:'
p3436
sI214
S'        raise'
p3437
sI215
S'    except RestrictedError:'
p3438
sI216
S'        # do not encapsulate (obfuscate) the original RestrictedError'
p3439
ssS'call'
p3440
S'(code=\'response.write(\\\'<!DOCTYPE html>\\\\n<!-- paulirish...."></script>\\\\n</body>\\\\n</html>\\\\n\\\\n\\\', escape=False)\', environment={\'A\': <class \'gluon.html.A\'>, \'Auth\': <class \'gluon.tools.Auth\'>, \'B\': <class \'gluon.html.B\'>, \'BEAUTIFY\': <class \'gluon.html.BEAUTIFY\'>, \'BODY\': <class \'gluon.html.BODY\'>, \'BR\': <class \'gluon.html.BR\'>, \'BUTTON\': <class \'gluon.html.BUTTON\'>, \'CAT\': <class \'gluon.html.CAT\'>, \'CENTER\': <class \'gluon.html.CENTER\'>, \'CLEANUP\': <class \'gluon.validators.CLEANUP\'>, ...}, layer=\'/home/shipra/Desktop/Semester 1.2/ITWS-2/web2py/...cations/Assignment_2/views/default/comm_post.html\')'
p3441
sS'func'
p3442
S'restricted'
p3443
sa(dp3444
g3419
S'/home/shipra/Desktop/Semester 1.2/ITWS-2/web2py/applications/Assignment_2/views/default/comm_post.html'
p3445
sg3421
(dp3446
sg3427
I85
sg3428
(dp3447
I76
S'response.write(\'\\n\\n        <div class="\', escape=False)'
p3448
sI77
S'response.write(middle_columns)'
p3449
sI78
S'response.write(\'">\\n            \', escape=False)'
p3450
sI79
S"response.write('\\n            ', escape=False)"
p3451
sI80
S"response.write('\\n<h4> Comments for this post ', escape=False)"
p3452
sI81
S'response.write(c)'
p3453
sI82
S"response.write(' </h4>\\n<ol>\\n', escape=False)"
p3454
sI83
S'for i in range(len(comments)):'
p3455
sI84
S"    response.write('\\n<li>', escape=False)"
p3456
sI85
S'    response.write(user[0][0])'
p3457
sI86
S"    response.write(':', escape=False)"
p3458
sI87
S"    response.write(comments[i]['comm'])"
p3459
sI88
S"    response.write('</li>\\n', escape=False)"
p3460
sI89
S'    pass'
p3461
sI90
S"response.write('\\n</ol>\\n', escape=False)"
p3462
sI91
S'response.write(form)'
p3463
sI92
S"response.write('\\n', escape=False)"
p3464
sI93
S"response.write('\\n            ', escape=False)"
p3465
sI94
S"response.write('\\n        </div>\\n\\n        ', escape=False)"
p3466
sI95
S'if right_sidebar_enabled:'
p3467
ssg3440
S'()'
p3468
sg3442
S'<module>'
p3469
sa(dp3470
g3419
S'/home/shipra/Desktop/Semester 1.2/ITWS-2/web2py/gluon/dal.py'
p3471
sg3421
(dp3472
S'self'
p3473
S"<Row {'first_name': 'Remya'}>"
p3474
sS'global ogetattr'
p3475
S"<slot wrapper '__getattribute__' of 'object' objects>"
p3476
sS'key'
p3477
S"'0'"
p3478
ssg3427
I6448
sg3428
(dp3479
I6443
S'        elif m:'
p3480
sI6444
S'            try:'
p3481
sI6445
S'                return ogetattr(self, m.group(1))[m.group(2)]'
p3482
sI6446
S'            except (KeyError,AttributeError,TypeError):'
p3483
sI6447
S'                key = m.group(2)'
p3484
sI6448
S'        return ogetattr(self, key)'
p3485
sI6449
S''
sI6450
S'    def __setitem__(self, key, value):'
p3486
sI6451
S'        setattr(self, str(key), value)'
p3487
sI6452
S''
ssg3440
S"(self=<Row {'first_name': 'Remya'}>, key='0')"
p3488
sg3442
g20
sasS'pyver'
p3489
S'Python 2.7.3: /usr/bin/python'
p3490
sS'session'
p3491
g57
(g58
g59
NtRp3492
(dp3493
g62
(dp3494
sg64
(lp3495
g57
(g66
g59
NtRp3496
(dp3497
g62
(dp3498
g70
I5
ssg71
Nsg64
(lp3499
g57
(g73
g59
NtRp3500
(dp3501
g62
(dp3502
sg71
g3496
sg64
(lp3503
g57
(g78
g59
NtRp3504
(dp3505
g62
(dp3506
g82
g83
ssg71
g3500
sg64
(lp3507
S'auth'
p3508
asbag57
(g78
g59
NtRp3509
(dp3510
g62
(dp3511
g89
g90
ssg71
g3500
sg64
(lp3512
S':'
asbag57
(g78
g59
NtRp3513
(dp3514
g62
(dp3515
sg71
g3500
sg64
(lp3516
g57
(g58
g59
NtRp3517
(dp3518
g62
(dp3519
g70
I5
ssg71
g3513
sg64
(lp3520
g57
(g66
g59
NtRp3521
(dp3522
g62
(dp3523
g70
I4
ssg71
Nsg64
(lp3524
g57
(g73
g59
NtRp3525
(dp3526
g62
(dp3527
sg71
g3521
sg64
(lp3528
g57
(g78
g59
NtRp3529
(dp3530
g62
(dp3531
g82
g83
ssg71
g3525
sg64
(lp3532
S'expiration'
p3533
asbag57
(g78
g59
NtRp3534
(dp3535
g62
(dp3536
g89
g90
ssg71
g3525
sg64
(lp3537
S':'
asbag57
(g78
g59
NtRp3538
(dp3539
g62
(dp3540
sg71
g3525
sg64
(lp3541
g57
(g58
g59
NtRp3542
(dp3543
g62
(dp3544
g70
I4
ssg71
g3538
sg64
(lp3545
S'3600'
p3546
asbasbasbag57
(g73
g59
NtRp3547
(dp3548
g62
(dp3549
sg71
g3521
sg64
(lp3550
g57
(g78
g59
NtRp3551
(dp3552
g62
(dp3553
g82
g83
ssg71
g3547
sg64
(lp3554
S'hmac_key'
p3555
asbag57
(g78
g59
NtRp3556
(dp3557
g62
(dp3558
g89
g90
ssg71
g3547
sg64
(lp3559
S':'
asbag57
(g78
g59
NtRp3560
(dp3561
g62
(dp3562
sg71
g3547
sg64
(lp3563
g57
(g58
g59
NtRp3564
(dp3565
g62
(dp3566
g70
I4
ssg71
g3560
sg64
(lp3567
S'c40fbb90-a967-4ab4-9878-8007f6733236'
p3568
asbasbasbag57
(g73
g59
NtRp3569
(dp3570
g62
(dp3571
sg71
g3521
sg64
(lp3572
g57
(g78
g59
NtRp3573
(dp3574
g62
(dp3575
g82
g83
ssg71
g3569
sg64
(lp3576
S'last_visit'
p3577
asbag57
(g78
g59
NtRp3578
(dp3579
g62
(dp3580
g89
g90
ssg71
g3569
sg64
(lp3581
S':'
asbag57
(g78
g59
NtRp3582
(dp3583
g62
(dp3584
sg71
g3569
sg64
(lp3585
g57
(g58
g59
NtRp3586
(dp3587
g62
(dp3588
g70
I4
ssg71
g3582
sg64
(lp3589
S'datetime.datetime(2013, 8, 29, 12, 18, 27, 276737)'
p3590
asbasbasbag57
(g73
g59
NtRp3591
(dp3592
g62
(dp3593
sg71
g3521
sg64
(lp3594
g57
(g78
g59
NtRp3595
(dp3596
g62
(dp3597
g82
g83
ssg71
g3591
sg64
(lp3598
S'remember'
p3599
asbag57
(g78
g59
NtRp3600
(dp3601
g62
(dp3602
g89
g90
ssg71
g3591
sg64
(lp3603
S':'
asbag57
(g78
g59
NtRp3604
(dp3605
g62
(dp3606
sg71
g3591
sg64
(lp3607
g57
(g58
g59
NtRp3608
(dp3609
g62
(dp3610
g70
I4
ssg71
g3604
sg64
(lp3611
g100
asbasbasbag57
(g73
g59
NtRp3612
(dp3613
g62
(dp3614
sg71
g3521
sg64
(lp3615
g57
(g78
g59
NtRp3616
(dp3617
g62
(dp3618
g82
g83
ssg71
g3612
sg64
(lp3619
S'user'
p3620
asbag57
(g78
g59
NtRp3621
(dp3622
g62
(dp3623
g89
g90
ssg71
g3612
sg64
(lp3624
S':'
asbag57
(g78
g59
NtRp3625
(dp3626
g62
(dp3627
sg71
g3612
sg64
(lp3628
g57
(g58
g59
NtRp3629
(dp3630
g62
(dp3631
g70
I4
ssg71
g3625
sg64
(lp3632
g57
(g66
g59
NtRp3633
(dp3634
g62
(dp3635
g70
I3
ssg71
Nsg64
(lp3636
g57
(g73
g59
NtRp3637
(dp3638
g62
(dp3639
sg71
g3633
sg64
(lp3640
g57
(g78
g59
NtRp3641
(dp3642
g62
(dp3643
g82
g83
ssg71
g3637
sg64
(lp3644
S'email'
p3645
asbag57
(g78
g59
NtRp3646
(dp3647
g62
(dp3648
g89
g90
ssg71
g3637
sg64
(lp3649
S':'
asbag57
(g78
g59
NtRp3650
(dp3651
g62
(dp3652
sg71
g3637
sg64
(lp3653
g57
(g58
g59
NtRp3654
(dp3655
g62
(dp3656
g70
I3
ssg71
g3650
sg64
(lp3657
S's.remya@students.iiit.ac.in'
p3658
asbasbasbag57
(g73
g59
NtRp3659
(dp3660
g62
(dp3661
sg71
g3633
sg64
(lp3662
g57
(g78
g59
NtRp3663
(dp3664
g62
(dp3665
g82
g83
ssg71
g3659
sg64
(lp3666
S'first_name'
p3667
asbag57
(g78
g59
NtRp3668
(dp3669
g62
(dp3670
g89
g90
ssg71
g3659
sg64
(lp3671
S':'
asbag57
(g78
g59
NtRp3672
(dp3673
g62
(dp3674
sg71
g3659
sg64
(lp3675
g57
(g58
g59
NtRp3676
(dp3677
g62
(dp3678
g70
I3
ssg71
g3672
sg64
(lp3679
S'Remya'
p3680
asbasbasbag57
(g73
g59
NtRp3681
(dp3682
g62
(dp3683
sg71
g3633
sg64
(lp3684
g57
(g78
g59
NtRp3685
(dp3686
g62
(dp3687
g82
g83
ssg71
g3681
sg64
(lp3688
S'id'
p3689
asbag57
(g78
g59
NtRp3690
(dp3691
g62
(dp3692
g89
g90
ssg71
g3681
sg64
(lp3693
S':'
asbag57
(g78
g59
NtRp3694
(dp3695
g62
(dp3696
sg71
g3681
sg64
(lp3697
g57
(g58
g59
NtRp3698
(dp3699
g62
(dp3700
g70
I3
ssg71
g3694
sg64
(lp3701
S'5'
asbasbasbag57
(g73
g59
NtRp3702
(dp3703
g62
(dp3704
sg71
g3633
sg64
(lp3705
g57
(g78
g59
NtRp3706
(dp3707
g62
(dp3708
g82
g83
ssg71
g3702
sg64
(lp3709
S'last_name'
p3710
asbag57
(g78
g59
NtRp3711
(dp3712
g62
(dp3713
g89
g90
ssg71
g3702
sg64
(lp3714
S':'
asbag57
(g78
g59
NtRp3715
(dp3716
g62
(dp3717
sg71
g3702
sg64
(lp3718
g57
(g58
g59
NtRp3719
(dp3720
g62
(dp3721
g70
I3
ssg71
g3715
sg64
(lp3722
S'Iyer'
p3723
asbasbasbag57
(g73
g59
NtRp3724
(dp3725
g62
(dp3726
sg71
g3633
sg64
(lp3727
g57
(g78
g59
NtRp3728
(dp3729
g62
(dp3730
g82
g83
ssg71
g3724
sg64
(lp3731
S'registration_id'
p3732
asbag57
(g78
g59
NtRp3733
(dp3734
g62
(dp3735
g89
g90
ssg71
g3724
sg64
(lp3736
S':'
asbag57
(g78
g59
NtRp3737
(dp3738
g62
(dp3739
sg71
g3724
sg64
(lp3740
g57
(g58
g59
NtRp3741
(dp3742
g62
(dp3743
g70
I3
ssg71
g3737
sg64
(lp3744
S''
asbasbasbag57
(g73
g59
NtRp3745
(dp3746
g62
(dp3747
sg71
g3633
sg64
(lp3748
g57
(g78
g59
NtRp3749
(dp3750
g62
(dp3751
g82
g83
ssg71
g3745
sg64
(lp3752
S'registration_key'
p3753
asbag57
(g78
g59
NtRp3754
(dp3755
g62
(dp3756
g89
g90
ssg71
g3745
sg64
(lp3757
S':'
asbag57
(g78
g59
NtRp3758
(dp3759
g62
(dp3760
sg71
g3745
sg64
(lp3761
g57
(g58
g59
NtRp3762
(dp3763
g62
(dp3764
g70
I3
ssg71
g3758
sg64
(lp3765
S''
asbasbasbag57
(g73
g59
NtRp3766
(dp3767
g62
(dp3768
sg71
g3633
sg64
(lp3769
g57
(g78
g59
NtRp3770
(dp3771
g62
(dp3772
g82
g83
ssg71
g3766
sg64
(lp3773
S'reset_password_key'
p3774
asbag57
(g78
g59
NtRp3775
(dp3776
g62
(dp3777
g89
g90
ssg71
g3766
sg64
(lp3778
S':'
asbag57
(g78
g59
NtRp3779
(dp3780
g62
(dp3781
sg71
g3766
sg64
(lp3782
g57
(g58
g59
NtRp3783
(dp3784
g62
(dp3785
g70
I3
ssg71
g3779
sg64
(lp3786
S''
asbasbasbag57
(g73
g59
NtRp3787
(dp3788
g62
(dp3789
sg71
g3633
sg64
(lp3790
g57
(g78
g59
NtRp3791
(dp3792
g62
(dp3793
g82
g83
ssg71
g3787
sg64
(lp3794
S'username'
p3795
asbag57
(g78
g59
NtRp3796
(dp3797
g62
(dp3798
g89
g90
ssg71
g3787
sg64
(lp3799
S':'
asbag57
(g78
g59
NtRp3800
(dp3801
g62
(dp3802
sg71
g3787
sg64
(lp3803
g57
(g58
g59
NtRp3804
(dp3805
g62
(dp3806
g70
I3
ssg71
g3800
sg64
(lp3807
S's.remya'
p3808
asbasbasbasbasbasbasbag57
(g73
g59
NtRp3809
(dp3810
g62
(dp3811
sg71
g3521
sg64
(lp3812
g57
(g78
g59
NtRp3813
(dp3814
g62
(dp3815
g82
g83
ssg71
g3809
sg64
(lp3816
S'user_groups'
p3817
asbag57
(g78
g59
NtRp3818
(dp3819
g62
(dp3820
g89
g90
ssg71
g3809
sg64
(lp3821
S':'
asbag57
(g78
g59
NtRp3822
(dp3823
g62
(dp3824
sg71
g3809
sg64
(lp3825
g57
(g58
g59
NtRp3826
(dp3827
g62
(dp3828
g70
I4
ssg71
g3822
sg64
(lp3829
g57
(g66
g59
NtRp3830
(dp3831
g62
(dp3832
g70
I3
ssg71
Nsg64
(lp3833
g57
(g73
g59
NtRp3834
(dp3835
g62
(dp3836
sg71
g3830
sg64
(lp3837
g57
(g78
g59
NtRp3838
(dp3839
g62
(dp3840
g82
g83
ssg71
g3834
sg64
(lp3841
S'4'
asbag57
(g78
g59
NtRp3842
(dp3843
g62
(dp3844
g89
g90
ssg71
g3834
sg64
(lp3845
S':'
asbag57
(g78
g59
NtRp3846
(dp3847
g62
(dp3848
sg71
g3834
sg64
(lp3849
g57
(g58
g59
NtRp3850
(dp3851
g62
(dp3852
g70
I3
ssg71
g3846
sg64
(lp3853
S'user_5'
p3854
asbasbasbasbasbasbasbasbasbasbasbag57
(g73
g59
NtRp3855
(dp3856
g62
(dp3857
sg71
g3496
sg64
(lp3858
g57
(g78
g59
NtRp3859
(dp3860
g62
(dp3861
g82
g83
ssg71
g3855
sg64
(lp3862
S'flash'
p3863
asbag57
(g78
g59
NtRp3864
(dp3865
g62
(dp3866
g89
g90
ssg71
g3855
sg64
(lp3867
S':'
asbag57
(g78
g59
NtRp3868
(dp3869
g62
(dp3870
sg71
g3855
sg64
(lp3871
g57
(g58
g59
NtRp3872
(dp3873
g62
(dp3874
g70
I5
ssg71
g3868
sg64
(lp3875
S'None'
p3876
asbasbasbag57
(g73
g59
NtRp3877
(dp3878
g62
(dp3879
sg71
g3496
sg64
(lp3880
g57
(g78
g59
NtRp3881
(dp3882
g62
(dp3883
g82
g83
ssg71
g3877
sg64
(lp3884
S'last_orderby'
p3885
asbag57
(g78
g59
NtRp3886
(dp3887
g62
(dp3888
g89
g90
ssg71
g3877
sg64
(lp3889
S':'
asbag57
(g78
g59
NtRp3890
(dp3891
g62
(dp3892
sg71
g3877
sg64
(lp3893
g57
(g58
g59
NtRp3894
(dp3895
g62
(dp3896
g70
I5
ssg71
g3890
sg64
(lp3897
S'None'
p3898
asbasbasbag57
(g73
g59
NtRp3899
(dp3900
g62
(dp3901
sg71
g3496
sg64
(lp3902
g57
(g78
g59
NtRp3903
(dp3904
g62
(dp3905
g82
g83
ssg71
g3899
sg64
(lp3906
S'last_query'
p3907
asbag57
(g78
g59
NtRp3908
(dp3909
g62
(dp3910
g89
g90
ssg71
g3899
sg64
(lp3911
S':'
asbag57
(g78
g59
NtRp3912
(dp3913
g62
(dp3914
sg71
g3899
sg64
(lp3915
g57
(g58
g59
NtRp3916
(dp3917
g62
(dp3918
g70
I5
ssg71
g3912
sg64
(lp3919
S'db.Comm.id>0'
p3920
asbasbasbasbasbsS'etype'
p3921
S"<type 'exceptions.AttributeError'>"
p3922
sS'date'
p3923
S'Thu Aug 29 12:22:24 2013'
p3924
sS'response'
p3925
g57
(g58
g59
NtRp3926
(dp3927
g62
(dp3928
sg64
(lp3929
g57
(g66
g59
NtRp3930
(dp3931
g62
(dp3932
g70
I5
ssg71
Nsg64
(lp3933
g57
(g73
g59
NtRp3934
(dp3935
g62
(dp3936
sg71
g3930
sg64
(lp3937
g57
(g78
g59
NtRp3938
(dp3939
g62
(dp3940
g82
g83
ssg71
g3934
sg64
(lp3941
g180
asbag57
(g78
g59
NtRp3942
(dp3943
g62
(dp3944
g89
g90
ssg71
g3934
sg64
(lp3945
S':'
asbag57
(g78
g59
NtRp3946
(dp3947
g62
(dp3948
sg71
g3934
sg64
(lp3949
g57
(g58
g59
NtRp3950
(dp3951
g62
(dp3952
g70
I5
ssg71
g3946
sg64
(lp3953
S'<cStringIO.StringO object at 0x7f3b34109b58>'
p3954
asbasbasbag57
(g73
g59
NtRp3955
(dp3956
g62
(dp3957
sg71
g3930
sg64
(lp3958
g57
(g78
g59
NtRp3959
(dp3960
g62
(dp3961
g82
g83
ssg71
g3955
sg64
(lp3962
g268
asbag57
(g78
g59
NtRp3963
(dp3964
g62
(dp3965
g89
g90
ssg71
g3955
sg64
(lp3966
S':'
asbag57
(g78
g59
NtRp3967
(dp3968
g62
(dp3969
sg71
g3955
sg64
(lp3970
g57
(g58
g59
NtRp3971
(dp3972
g62
(dp3973
g70
I5
ssg71
g3967
sg64
(lp3974
g57
(g66
g59
NtRp3975
(dp3976
g62
(dp3977
g70
I4
ssg71
Nsg64
(lp3978
g57
(g73
g59
NtRp3979
(dp3980
g62
(dp3981
sg71
g3975
sg64
(lp3982
g57
(g78
g59
NtRp3983
(dp3984
g62
(dp3985
g82
g83
ssg71
g3979
sg64
(lp3986
S'session_id_assignment_2'
p3987
asbag57
(g78
g59
NtRp3988
(dp3989
g62
(dp3990
g89
g90
ssg71
g3979
sg64
(lp3991
S':'
asbag57
(g78
g59
NtRp3992
(dp3993
g62
(dp3994
sg71
g3979
sg64
(lp3995
g57
(g58
g59
NtRp3996
(dp3997
g62
(dp3998
g70
I4
ssg71
g3992
sg64
(lp3999
g686
ag57
(g66
g59
NtRp4000
(dp4001
g62
(dp4002
g70
I3
ssg71
Nsg64
(lp4003
g57
(g73
g59
NtRp4004
(dp4005
g62
(dp4006
sg71
g4000
sg64
(lp4007
g57
(g78
g59
NtRp4008
(dp4009
g62
(dp4010
g82
g83
ssg71
g4004
sg64
(lp4011
g319
asbag57
(g78
g59
NtRp4012
(dp4013
g62
(dp4014
g89
g90
ssg71
g4004
sg64
(lp4015
S':'
asbag57
(g78
g59
NtRp4016
(dp4017
g62
(dp4018
sg71
g4004
sg64
(lp4019
g57
(g58
g59
NtRp4020
(dp4021
g62
(dp4022
g70
I3
ssg71
g4016
sg64
(lp4023
S''
asbasbasbag57
(g73
g59
NtRp4024
(dp4025
g62
(dp4026
sg71
g4000
sg64
(lp4027
g57
(g78
g59
NtRp4028
(dp4029
g62
(dp4030
g82
g83
ssg71
g4024
sg64
(lp4031
g340
asbag57
(g78
g59
NtRp4032
(dp4033
g62
(dp4034
g89
g90
ssg71
g4024
sg64
(lp4035
S':'
asbag57
(g78
g59
NtRp4036
(dp4037
g62
(dp4038
sg71
g4024
sg64
(lp4039
g57
(g58
g59
NtRp4040
(dp4041
g62
(dp4042
g70
I3
ssg71
g4036
sg64
(lp4043
S''
asbasbasbag57
(g73
g59
NtRp4044
(dp4045
g62
(dp4046
sg71
g4000
sg64
(lp4047
g57
(g78
g59
NtRp4048
(dp4049
g62
(dp4050
g82
g83
ssg71
g4044
sg64
(lp4051
g361
asbag57
(g78
g59
NtRp4052
(dp4053
g62
(dp4054
g89
g90
ssg71
g4044
sg64
(lp4055
S':'
asbag57
(g78
g59
NtRp4056
(dp4057
g62
(dp4058
sg71
g4044
sg64
(lp4059
g57
(g58
g59
NtRp4060
(dp4061
g62
(dp4062
g70
I3
ssg71
g4056
sg64
(lp4063
S''
asbasbasbag57
(g73
g59
NtRp4064
(dp4065
g62
(dp4066
sg71
g4000
sg64
(lp4067
g57
(g78
g59
NtRp4068
(dp4069
g62
(dp4070
g82
g83
ssg71
g4064
sg64
(lp4071
g382
asbag57
(g78
g59
NtRp4072
(dp4073
g62
(dp4074
g89
g90
ssg71
g4064
sg64
(lp4075
S':'
asbag57
(g78
g59
NtRp4076
(dp4077
g62
(dp4078
sg71
g4064
sg64
(lp4079
g57
(g58
g59
NtRp4080
(dp4081
g62
(dp4082
g70
I3
ssg71
g4076
sg64
(lp4083
S''
asbasbasbag57
(g73
g59
NtRp4084
(dp4085
g62
(dp4086
sg71
g4000
sg64
(lp4087
g57
(g78
g59
NtRp4088
(dp4089
g62
(dp4090
g82
g83
ssg71
g4084
sg64
(lp4091
g403
asbag57
(g78
g59
NtRp4092
(dp4093
g62
(dp4094
g89
g90
ssg71
g4084
sg64
(lp4095
S':'
asbag57
(g78
g59
NtRp4096
(dp4097
g62
(dp4098
sg71
g4084
sg64
(lp4099
g57
(g58
g59
NtRp4100
(dp4101
g62
(dp4102
g70
I3
ssg71
g4096
sg64
(lp4103
S''
asbasbasbag57
(g73
g59
NtRp4104
(dp4105
g62
(dp4106
sg71
g4000
sg64
(lp4107
g57
(g78
g59
NtRp4108
(dp4109
g62
(dp4110
g82
g83
ssg71
g4104
sg64
(lp4111
g424
asbag57
(g78
g59
NtRp4112
(dp4113
g62
(dp4114
g89
g90
ssg71
g4104
sg64
(lp4115
S':'
asbag57
(g78
g59
NtRp4116
(dp4117
g62
(dp4118
sg71
g4104
sg64
(lp4119
g57
(g58
g59
NtRp4120
(dp4121
g62
(dp4122
g70
I3
ssg71
g4116
sg64
(lp4123
S'/'
asbasbasbag57
(g73
g59
NtRp4124
(dp4125
g62
(dp4126
sg71
g4000
sg64
(lp4127
g57
(g78
g59
NtRp4128
(dp4129
g62
(dp4130
g82
g83
ssg71
g4124
sg64
(lp4131
g445
asbag57
(g78
g59
NtRp4132
(dp4133
g62
(dp4134
g89
g90
ssg71
g4124
sg64
(lp4135
S':'
asbag57
(g78
g59
NtRp4136
(dp4137
g62
(dp4138
sg71
g4124
sg64
(lp4139
g57
(g58
g59
NtRp4140
(dp4141
g62
(dp4142
g70
I3
ssg71
g4136
sg64
(lp4143
S''
asbasbasbag57
(g73
g59
NtRp4144
(dp4145
g62
(dp4146
sg71
g4000
sg64
(lp4147
g57
(g78
g59
NtRp4148
(dp4149
g62
(dp4150
g82
g83
ssg71
g4144
sg64
(lp4151
g466
asbag57
(g78
g59
NtRp4152
(dp4153
g62
(dp4154
g89
g90
ssg71
g4144
sg64
(lp4155
S':'
asbag57
(g78
g59
NtRp4156
(dp4157
g62
(dp4158
sg71
g4144
sg64
(lp4159
g57
(g58
g59
NtRp4160
(dp4161
g62
(dp4162
g70
I3
ssg71
g4156
sg64
(lp4163
S''
asbasbasbasbasbasbasbasbasbasbasbag57
(g73
g59
NtRp4164
(dp4165
g62
(dp4166
sg71
g3930
sg64
(lp4167
g57
(g78
g59
NtRp4168
(dp4169
g62
(dp4170
g82
g83
ssg71
g4164
sg64
(lp4171
S'delimiters'
p4172
asbag57
(g78
g59
NtRp4173
(dp4174
g62
(dp4175
g89
g90
ssg71
g4164
sg64
(lp4176
S':'
asbag57
(g78
g59
NtRp4177
(dp4178
g62
(dp4179
sg71
g4164
sg64
(lp4180
g57
(g58
g59
NtRp4181
(dp4182
g62
(dp4183
g70
I5
ssg71
g4177
sg64
(lp4184
g57
(g66
g59
NtRp4185
(dp4186
g62
(dp4187
g70
I4
ssg71
Nsg64
(lp4188
g57
(g73
g59
NtRp4189
(dp4190
g62
(dp4191
sg71
g4185
sg64
(lp4192
g57
(g78
g59
NtRp4193
(dp4194
g62
(dp4195
sg71
g4189
sg64
(lp4196
g57
(g58
g59
NtRp4197
(dp4198
g62
(dp4199
g70
I4
ssg71
g4193
sg64
(lp4200
S'{{'
p4201
asbasbasbag57
(g73
g59
NtRp4202
(dp4203
g62
(dp4204
sg71
g4185
sg64
(lp4205
g57
(g78
g59
NtRp4206
(dp4207
g62
(dp4208
sg71
g4202
sg64
(lp4209
g57
(g58
g59
NtRp4210
(dp4211
g62
(dp4212
g70
I4
ssg71
g4206
sg64
(lp4213
S'}}'
p4214
asbasbasbasbasbasbasbag57
(g73
g59
NtRp4215
(dp4216
g62
(dp4217
sg71
g3930
sg64
(lp4218
g57
(g78
g59
NtRp4219
(dp4220
g62
(dp4221
g82
g83
ssg71
g4215
sg64
(lp4222
S'files'
p4223
asbag57
(g78
g59
NtRp4224
(dp4225
g62
(dp4226
g89
g90
ssg71
g4215
sg64
(lp4227
S':'
asbag57
(g78
g59
NtRp4228
(dp4229
g62
(dp4230
sg71
g4215
sg64
(lp4231
g57
(g58
g59
NtRp4232
(dp4233
g62
(dp4234
g70
I5
ssg71
g4228
sg64
(lp4235
g57
(g66
g59
NtRp4236
(dp4237
g62
(dp4238
g70
I4
ssg71
Nsg64
(lp4239
g57
(g73
g59
NtRp4240
(dp4241
g62
(dp4242
sg71
g4236
sg64
(lp4243
g57
(g78
g59
NtRp4244
(dp4245
g62
(dp4246
sg71
g4240
sg64
(lp4247
g57
(g58
g59
NtRp4248
(dp4249
g62
(dp4250
g70
I4
ssg71
g4244
sg64
(lp4251
S'/Assignment_2/static/js/jquery.js'
p4252
asbasbasbag57
(g73
g59
NtRp4253
(dp4254
g62
(dp4255
sg71
g4236
sg64
(lp4256
g57
(g78
g59
NtRp4257
(dp4258
g62
(dp4259
sg71
g4253
sg64
(lp4260
g57
(g58
g59
NtRp4261
(dp4262
g62
(dp4263
g70
I4
ssg71
g4257
sg64
(lp4264
S'/Assignment_2/static/css/calendar.css'
p4265
asbasbasbag57
(g73
g59
NtRp4266
(dp4267
g62
(dp4268
sg71
g4236
sg64
(lp4269
g57
(g78
g59
NtRp4270
(dp4271
g62
(dp4272
sg71
g4266
sg64
(lp4273
g57
(g58
g59
NtRp4274
(dp4275
g62
(dp4276
g70
I4
ssg71
g4270
sg64
(lp4277
S'/Assignment_2/static/js/calendar.js'
p4278
asbasbasbag57
(g73
g59
NtRp4279
(dp4280
g62
(dp4281
sg71
g4236
sg64
(lp4282
g57
(g78
g59
NtRp4283
(dp4284
g62
(dp4285
sg71
g4279
sg64
(lp4286
g57
(g58
g59
NtRp4287
(dp4288
g62
(dp4289
g70
I4
ssg71
g4283
sg64
(lp4290
S'/Assignment_2/static/js/web2py.js'
p4291
asbasbasbag57
(g73
g59
NtRp4292
(dp4293
g62
(dp4294
sg71
g4236
sg64
(lp4295
g57
(g78
g59
NtRp4296
(dp4297
g62
(dp4298
sg71
g4292
sg64
(lp4299
g57
(g58
g59
NtRp4300
(dp4301
g62
(dp4302
g70
I4
ssg71
g4296
sg64
(lp4303
S'/Assignment_2/static/css/web2py.css'
p4304
asbasbasbag57
(g73
g59
NtRp4305
(dp4306
g62
(dp4307
sg71
g4236
sg64
(lp4308
g57
(g78
g59
NtRp4309
(dp4310
g62
(dp4311
sg71
g4305
sg64
(lp4312
g57
(g58
g59
NtRp4313
(dp4314
g62
(dp4315
g70
I4
ssg71
g4309
sg64
(lp4316
S'/Assignment_2/static/css/bootstrap.min.css'
p4317
asbasbasbag57
(g73
g59
NtRp4318
(dp4319
g62
(dp4320
sg71
g4236
sg64
(lp4321
g57
(g78
g59
NtRp4322
(dp4323
g62
(dp4324
sg71
g4318
sg64
(lp4325
g57
(g58
g59
NtRp4326
(dp4327
g62
(dp4328
g70
I4
ssg71
g4322
sg64
(lp4329
S'/Assignment_2/static/css/bootstrap-responsive.min.css'
p4330
asbasbasbag57
(g73
g59
NtRp4331
(dp4332
g62
(dp4333
sg71
g4236
sg64
(lp4334
g57
(g78
g59
NtRp4335
(dp4336
g62
(dp4337
sg71
g4331
sg64
(lp4338
g57
(g58
g59
NtRp4339
(dp4340
g62
(dp4341
g70
I4
ssg71
g4335
sg64
(lp4342
S'/Assignment_2/static/css/web2py_bootstrap.css'
p4343
asbasbasbasbasbasbasbag57
(g73
g59
NtRp4344
(dp4345
g62
(dp4346
sg71
g3930
sg64
(lp4347
g57
(g78
g59
NtRp4348
(dp4349
g62
(dp4350
g82
g83
ssg71
g4344
sg64
(lp4351
S'flash'
p4352
asbag57
(g78
g59
NtRp4353
(dp4354
g62
(dp4355
g89
g90
ssg71
g4344
sg64
(lp4356
S':'
asbag57
(g78
g59
NtRp4357
(dp4358
g62
(dp4359
sg71
g4344
sg64
(lp4360
g57
(g58
g59
NtRp4361
(dp4362
g62
(dp4363
g70
I5
ssg71
g4357
sg64
(lp4364
S''
asbasbasbag57
(g73
g59
NtRp4365
(dp4366
g62
(dp4367
sg71
g3930
sg64
(lp4368
g57
(g78
g59
NtRp4369
(dp4370
g62
(dp4371
g82
g83
ssg71
g4365
sg64
(lp4372
S'generic_patterns'
p4373
asbag57
(g78
g59
NtRp4374
(dp4375
g62
(dp4376
g89
g90
ssg71
g4365
sg64
(lp4377
S':'
asbag57
(g78
g59
NtRp4378
(dp4379
g62
(dp4380
sg71
g4365
sg64
(lp4381
g57
(g58
g59
NtRp4382
(dp4383
g62
(dp4384
g70
I5
ssg71
g4378
sg64
(lp4385
g57
(g66
g59
NtRp4386
(dp4387
g62
(dp4388
g70
I4
ssg71
Nsg64
(lp4389
g57
(g73
g59
NtRp4390
(dp4391
g62
(dp4392
sg71
g4386
sg64
(lp4393
g57
(g78
g59
NtRp4394
(dp4395
g62
(dp4396
sg71
g4390
sg64
(lp4397
g57
(g58
g59
NtRp4398
(dp4399
g62
(dp4400
g70
I4
ssg71
g4394
sg64
(lp4401
S'*'
asbasbasbasbasbasbasbag57
(g73
g59
NtRp4402
(dp4403
g62
(dp4404
sg71
g3930
sg64
(lp4405
g57
(g78
g59
NtRp4406
(dp4407
g62
(dp4408
g82
g83
ssg71
g4402
sg64
(lp4409
S'google_analytics_id'
p4410
asbag57
(g78
g59
NtRp4411
(dp4412
g62
(dp4413
g89
g90
ssg71
g4402
sg64
(lp4414
S':'
asbag57
(g78
g59
NtRp4415
(dp4416
g62
(dp4417
sg71
g4402
sg64
(lp4418
g57
(g58
g59
NtRp4419
(dp4420
g62
(dp4421
g70
I5
ssg71
g4415
sg64
(lp4422
S'None'
p4423
asbasbasbag57
(g73
g59
NtRp4424
(dp4425
g62
(dp4426
sg71
g3930
sg64
(lp4427
g57
(g78
g59
NtRp4428
(dp4429
g62
(dp4430
g82
g83
ssg71
g4424
sg64
(lp4431
S'headers'
p4432
asbag57
(g78
g59
NtRp4433
(dp4434
g62
(dp4435
g89
g90
ssg71
g4424
sg64
(lp4436
S':'
asbag57
(g78
g59
NtRp4437
(dp4438
g62
(dp4439
sg71
g4424
sg64
(lp4440
g57
(g58
g59
NtRp4441
(dp4442
g62
(dp4443
g70
I5
ssg71
g4437
sg64
(lp4444
g57
(g66
g59
NtRp4445
(dp4446
g62
(dp4447
g70
I4
ssg71
Nsg64
(lp4448
g57
(g73
g59
NtRp4449
(dp4450
g62
(dp4451
sg71
g4445
sg64
(lp4452
g57
(g78
g59
NtRp4453
(dp4454
g62
(dp4455
g82
g83
ssg71
g4449
sg64
(lp4456
S'X-Powered-By'
p4457
asbag57
(g78
g59
NtRp4458
(dp4459
g62
(dp4460
g89
g90
ssg71
g4449
sg64
(lp4461
S':'
asbag57
(g78
g59
NtRp4462
(dp4463
g62
(dp4464
sg71
g4449
sg64
(lp4465
g57
(g58
g59
NtRp4466
(dp4467
g62
(dp4468
g70
I4
ssg71
g4462
sg64
(lp4469
S'web2py'
p4470
asbasbasbasbasbasbasbag57
(g73
g59
NtRp4471
(dp4472
g62
(dp4473
sg71
g3930
sg64
(lp4474
g57
(g78
g59
NtRp4475
(dp4476
g62
(dp4477
g82
g83
ssg71
g4471
sg64
(lp4478
S'logo'
p4479
asbag57
(g78
g59
NtRp4480
(dp4481
g62
(dp4482
g89
g90
ssg71
g4471
sg64
(lp4483
S':'
asbag57
(g78
g59
NtRp4484
(dp4485
g62
(dp4486
sg71
g4471
sg64
(lp4487
g57
(g58
g59
NtRp4488
(dp4489
g62
(dp4490
g70
I5
ssg71
g4484
sg64
(lp4491
g57
(cgluon.html
A
p4492
g59
NtRp4493
(dp4494
g62
(dp4495
S'_class'
p4496
S'brand'
p4497
sS'_href'
p4498
S'http://www.web2py.com/'
p4499
ssg71
Nsg64
(lp4500
g57
(cgluon.html
B
p4501
g59
NtRp4502
(dp4503
g62
(dp4504
sg71
g4493
sg64
(lp4505
S'web'
p4506
ag57
(cgluon.html
SPAN
p4507
g59
NtRp4508
(dp4509
g62
(dp4510
sg71
g4502
sg64
(lp4511
I2
asbaS'py'
p4512
asbacgluon.html
XML_unpickle
p4513
(S's\r\x00\x00\x00&trade;&nbsp;'
tRp4514
asbasbasbasbag57
(g73
g59
NtRp4515
(dp4516
g62
(dp4517
sg71
g3930
sg64
(lp4518
g57
(g78
g59
NtRp4519
(dp4520
g62
(dp4521
g82
g83
ssg71
g4515
sg64
(lp4522
S'menu'
p4523
asbag57
(g78
g59
NtRp4524
(dp4525
g62
(dp4526
g89
g90
ssg71
g4515
sg64
(lp4527
S':'
asbag57
(g78
g59
NtRp4528
(dp4529
g62
(dp4530
sg71
g4515
sg64
(lp4531
g57
(g58
g59
NtRp4532
(dp4533
g62
(dp4534
g70
I5
ssg71
g4528
sg64
(lp4535
g57
(g66
g59
NtRp4536
(dp4537
g62
(dp4538
g70
I4
ssg71
Nsg64
(lp4539
g57
(g73
g59
NtRp4540
(dp4541
g62
(dp4542
sg71
g4536
sg64
(lp4543
g57
(g78
g59
NtRp4544
(dp4545
g62
(dp4546
sg71
g4540
sg64
(lp4547
g57
(g58
g59
NtRp4548
(dp4549
g62
(dp4550
g70
I4
ssg71
g4544
sg64
(lp4551
g57
(g66
g59
NtRp4552
(dp4553
g62
(dp4554
g70
I3
ssg71
Nsg64
(lp4555
g57
(g73
g59
NtRp4556
(dp4557
g62
(dp4558
sg71
g4552
sg64
(lp4559
g57
(g78
g59
NtRp4560
(dp4561
g62
(dp4562
sg71
g4556
sg64
(lp4563
g57
(g58
g59
NtRp4564
(dp4565
g62
(dp4566
g70
I3
ssg71
g4560
sg64
(lp4567
cgluon.languages
lazyT_unpickle
p4568
(S's\x04\x00\x00\x00Home'
tRp4569
asbasbasbag57
(g73
g59
NtRp4570
(dp4571
g62
(dp4572
sg71
g4552
sg64
(lp4573
g57
(g78
g59
NtRp4574
(dp4575
g62
(dp4576
sg71
g4570
sg64
(lp4577
g57
(g58
g59
NtRp4578
(dp4579
g62
(dp4580
g70
I3
ssg71
g4574
sg64
(lp4581
g100
asbasbasbag57
(g73
g59
NtRp4582
(dp4583
g62
(dp4584
sg71
g4552
sg64
(lp4585
g57
(g78
g59
NtRp4586
(dp4587
g62
(dp4588
sg71
g4582
sg64
(lp4589
g57
(g58
g59
NtRp4590
(dp4591
g62
(dp4592
g70
I3
ssg71
g4586
sg64
(lp4593
S'/Assignment_2/default/index'
p4594
asbasbasbag57
(g73
g59
NtRp4595
(dp4596
g62
(dp4597
sg71
g4552
sg64
(lp4598
g57
(g78
g59
NtRp4599
(dp4600
g62
(dp4601
sg71
g4595
sg64
(lp4602
g57
(g58
g59
NtRp4603
(dp4604
g62
(dp4605
g70
I3
ssg71
g4599
sg64
(lp4606
g57
(g66
g59
NtRp4607
(dp4608
g62
(dp4609
g70
I2
ssg71
Nsg64
(lp4610
sbasbasbasbasbasbasbasbag57
(g73
g59
NtRp4611
(dp4612
g62
(dp4613
sg71
g4536
sg64
(lp4614
g57
(g78
g59
NtRp4615
(dp4616
g62
(dp4617
sg71
g4611
sg64
(lp4618
g57
(g58
g59
NtRp4619
(dp4620
g62
(dp4621
g70
I4
ssg71
g4615
sg64
(lp4622
g57
(g66
g59
NtRp4623
(dp4624
g62
(dp4625
g70
I3
ssg71
Nsg64
(lp4626
g57
(g73
g59
NtRp4627
(dp4628
g62
(dp4629
sg71
g4623
sg64
(lp4630
g57
(g78
g59
NtRp4631
(dp4632
g62
(dp4633
sg71
g4627
sg64
(lp4634
g57
(g58
g59
NtRp4635
(dp4636
g62
(dp4637
g70
I3
ssg71
g4631
sg64
(lp4638
g57
(g4507
g59
NtRp4639
(dp4640
g62
(dp4641
g4496
S'highlighted'
p4642
ssg71
g57
(g4492
g59
NtRp4643
(dp4644
g62
(dp4645
g4498
S'http://web2py.com'
p4646
ssg71
g57
(cgluon.html
LI
p4647
g59
NtRp4648
(dp4649
g62
(dp4650
g4496
S'dropdown'
p4651
ssg71
g57
(cgluon.html
UL
p4652
g59
NtRp4653
(dp4654
g62
(dp4655
S'mobile'
p4656
I00
sS'ul_class'
p4657
S'dropdown-menu'
p4658
sS'li_last'
p4659
S'web2py-menu-last'
p4660
sS'li_class'
p4661
g4651
sS'li_first'
p4662
S'web2py-menu-first'
p4663
sg4496
S'nav'
p4664
sS'li_active'
p4665
S'web2py-menu-active'
p4666
ssg71
Nsg64
(lp4667
g57
(g4647
g59
NtRp4668
(dp4669
g62
(dp4670
g4496
g4663
ssg71
g4653
sg64
(lp4671
g57
(g4492
g59
NtRp4672
(dp4673
g62
(dp4674
g4498
g4594
ssg71
g4668
sg64
(lp4675
g4569
asbasbag4648
asbsg64
(lp4676
g4643
ag57
(g4652
g59
NtRp4677
(dp4678
g62
(dp4679
g4496
g4658
ssg71
g4648
sg64
(lp4680
g57
(g4647
g59
NtRp4681
(dp4682
g62
(dp4683
sg71
g4677
sg64
(lp4684
g57
(g4492
g59
NtRp4685
(dp4686
g62
(dp4687
g4498
S'/admin/default/site'
p4688
ssg71
g4681
sg64
(lp4689
g4568
(S's\x08\x00\x00\x00My Sites'
tRp4690
asbasbag57
(g4647
g59
NtRp4691
(dp4692
g62
(dp4693
g4496
g4651
ssg71
g4677
sg64
(lp4694
g57
(g4492
g59
NtRp4695
(dp4696
g62
(dp4697
g4498
S'/admin/default/design/Assignment_2'
p4698
ssg71
g4691
sg64
(lp4699
g4568
(S's\x08\x00\x00\x00This App'
tRp4700
asbag57
(g4652
g59
NtRp4701
(dp4702
g62
(dp4703
g4496
g4658
ssg71
g4691
sg64
(lp4704
g57
(g4647
g59
NtRp4705
(dp4706
g62
(dp4707
sg71
g4701
sg64
(lp4708
g57
(g4492
g59
NtRp4709
(dp4710
g62
(dp4711
g4498
S'/admin/default/edit/Assignment_2/controllers/default.py'
p4712
ssg71
g4705
sg64
(lp4713
g4568
(S's\n\x00\x00\x00Controller'
tRp4714
asbasbag57
(g4647
g59
NtRp4715
(dp4716
g62
(dp4717
sg71
g4701
sg64
(lp4718
g57
(g4492
g59
NtRp4719
(dp4720
g62
(dp4721
g4498
S'/admin/default/edit/Assignment_2/views/default/comm_post.html'
p4722
ssg71
g4715
sg64
(lp4723
g4568
(S's\x04\x00\x00\x00View'
tRp4724
asbasbag57
(g4647
g59
NtRp4725
(dp4726
g62
(dp4727
sg71
g4701
sg64
(lp4728
g57
(g4492
g59
NtRp4729
(dp4730
g62
(dp4731
g4498
S'/admin/default/edit/Assignment_2/views/layout.html'
p4732
ssg71
g4725
sg64
(lp4733
g4568
(S's\x06\x00\x00\x00Layout'
tRp4734
asbasbag57
(g4647
g59
NtRp4735
(dp4736
g62
(dp4737
sg71
g4701
sg64
(lp4738
g57
(g4492
g59
NtRp4739
(dp4740
g62
(dp4741
g4498
S'/admin/default/edit/Assignment_2/static/css/web2py.css'
p4742
ssg71
g4735
sg64
(lp4743
g4568
(S's\n\x00\x00\x00Stylesheet'
tRp4744
asbasbag57
(g4647
g59
NtRp4745
(dp4746
g62
(dp4747
sg71
g4701
sg64
(lp4748
g57
(g4492
g59
NtRp4749
(dp4750
g62
(dp4751
g4498
S'/admin/default/edit/Assignment_2/models/db.py'
p4752
ssg71
g4745
sg64
(lp4753
g4568
(S's\x08\x00\x00\x00DB Model'
tRp4754
asbasbag57
(g4647
g59
NtRp4755
(dp4756
g62
(dp4757
sg71
g4701
sg64
(lp4758
g57
(g4492
g59
NtRp4759
(dp4760
g62
(dp4761
g4498
S'/admin/default/edit/Assignment_2/models/menu.py'
p4762
ssg71
g4755
sg64
(lp4763
g4568
(S's\n\x00\x00\x00Menu Model'
tRp4764
asbasbag57
(g4647
g59
NtRp4765
(dp4766
g62
(dp4767
sg71
g4701
sg64
(lp4768
g57
(g4492
g59
NtRp4769
(dp4770
g62
(dp4771
g4498
S'/Assignment_2/appadmin/index'
p4772
ssg71
g4765
sg64
(lp4773
g4568
(S's\x08\x00\x00\x00Database'
tRp4774
asbasbag57
(g4647
g59
NtRp4775
(dp4776
g62
(dp4777
sg71
g4701
sg64
(lp4778
g57
(g4492
g59
NtRp4779
(dp4780
g62
(dp4781
g4498
S'/admin/default/errors/Assignment_2'
p4782
ssg71
g4775
sg64
(lp4783
g4568
(S's\x06\x00\x00\x00Errors'
tRp4784
asbasbag57
(g4647
g59
NtRp4785
(dp4786
g62
(dp4787
sg71
g4701
sg64
(lp4788
g57
(g4492
g59
NtRp4789
(dp4790
g62
(dp4791
g4498
S'/admin/default/about/Assignment_2'
p4792
ssg71
g4785
sg64
(lp4793
g4568
(S's\x05\x00\x00\x00About'
tRp4794
asbasbasbasbag57
(g4647
g59
NtRp4795
(dp4796
g62
(dp4797
g4496
g4651
ssg71
g4677
sg64
(lp4798
g57
(g4492
g59
NtRp4799
(dp4800
g62
(dp4801
g4498
S'http://www.web2py.com'
p4802
ssg71
g4795
sg64
(lp4803
S'web2py.com'
p4804
asbag57
(g4652
g59
NtRp4805
(dp4806
g62
(dp4807
g4496
g4658
ssg71
g4795
sg64
(lp4808
g57
(g4647
g59
NtRp4809
(dp4810
g62
(dp4811
sg71
g4805
sg64
(lp4812
g57
(g4492
g59
NtRp4813
(dp4814
g62
(dp4815
g4498
S'http://www.web2py.com/examples/default/download'
p4816
ssg71
g4809
sg64
(lp4817
g4568
(S's\x08\x00\x00\x00Download'
tRp4818
asbasbag57
(g4647
g59
NtRp4819
(dp4820
g62
(dp4821
sg71
g4805
sg64
(lp4822
g57
(g4492
g59
NtRp4823
(dp4824
g62
(dp4825
g4498
S'http://www.web2py.com/examples/default/support'
p4826
ssg71
g4819
sg64
(lp4827
g4568
(S's\x07\x00\x00\x00Support'
tRp4828
asbasbag57
(g4647
g59
NtRp4829
(dp4830
g62
(dp4831
sg71
g4805
sg64
(lp4832
g57
(g4492
g59
NtRp4833
(dp4834
g62
(dp4835
g4498
S'http://web2py.com/demo_admin'
p4836
ssg71
g4829
sg64
(lp4837
g4568
(S's\x04\x00\x00\x00Demo'
tRp4838
asbasbag57
(g4647
g59
NtRp4839
(dp4840
g62
(dp4841
sg71
g4805
sg64
(lp4842
g57
(g4492
g59
NtRp4843
(dp4844
g62
(dp4845
g4498
S'http://web2py.com/examples/default/examples'
p4846
ssg71
g4839
sg64
(lp4847
g4568
(S's\x0e\x00\x00\x00Quick Examples'
tRp4848
asbasbag57
(g4647
g59
NtRp4849
(dp4850
g62
(dp4851
sg71
g4805
sg64
(lp4852
g57
(g4492
g59
NtRp4853
(dp4854
g62
(dp4855
g4498
S'http://web2py.com/AlterEgo'
p4856
ssg71
g4849
sg64
(lp4857
g4568
(S's\x03\x00\x00\x00FAQ'
tRp4858
asbasbag57
(g4647
g59
NtRp4859
(dp4860
g62
(dp4861
sg71
g4805
sg64
(lp4862
g57
(g4492
g59
NtRp4863
(dp4864
g62
(dp4865
g4498
S'http://www.web2py.com/examples/default/videos/'
p4866
ssg71
g4859
sg64
(lp4867
g4568
(S's\x06\x00\x00\x00Videos'
tRp4868
asbasbag57
(g4647
g59
NtRp4869
(dp4870
g62
(dp4871
sg71
g4805
sg64
(lp4872
g57
(g4492
g59
NtRp4873
(dp4874
g62
(dp4875
g4498
S'http://web2py.com/appliances'
p4876
ssg71
g4869
sg64
(lp4877
g4568
(S's\x11\x00\x00\x00Free Applications'
tRp4878
asbasbag57
(g4647
g59
NtRp4879
(dp4880
g62
(dp4881
sg71
g4805
sg64
(lp4882
g57
(g4492
g59
NtRp4883
(dp4884
g62
(dp4885
g4498
S'http://web2py.com/plugins'
p4886
ssg71
g4879
sg64
(lp4887
g4568
(S's\x07\x00\x00\x00Plugins'
tRp4888
asbasbag57
(g4647
g59
NtRp4889
(dp4890
g62
(dp4891
sg71
g4805
sg64
(lp4892
g57
(g4492
g59
NtRp4893
(dp4894
g62
(dp4895
g4498
S'http://web2py.com/layouts'
p4896
ssg71
g4889
sg64
(lp4897
g4568
(S's\x07\x00\x00\x00Layouts'
tRp4898
asbasbag57
(g4647
g59
NtRp4899
(dp4900
g62
(dp4901
sg71
g4805
sg64
(lp4902
g57
(g4492
g59
NtRp4903
(dp4904
g62
(dp4905
g4498
S'http://web2pyslices.com/'
p4906
ssg71
g4899
sg64
(lp4907
g4568
(S's\x07\x00\x00\x00Recipes'
tRp4908
asbasbag57
(g4647
g59
NtRp4909
(dp4910
g62
(dp4911
sg71
g4805
sg64
(lp4912
g57
(g4492
g59
NtRp4913
(dp4914
g62
(dp4915
g4498
S'http://web2py.com/semantic'
p4916
ssg71
g4909
sg64
(lp4917
g4568
(S's\x08\x00\x00\x00Semantic'
tRp4918
asbasbasbasbag57
(g4647
g59
NtRp4919
(dp4920
g62
(dp4921
g4496
g4651
ssg71
g4677
sg64
(lp4922
g57
(g4492
g59
NtRp4923
(dp4924
g62
(dp4925
g4498
S'http://www.web2py.com/book'
p4926
ssg71
g4919
sg64
(lp4927
g4568
(S's\r\x00\x00\x00Documentation'
tRp4928
asbag57
(g4652
g59
NtRp4929
(dp4930
g62
(dp4931
g4496
g4658
ssg71
g4919
sg64
(lp4932
g57
(g4647
g59
NtRp4933
(dp4934
g62
(dp4935
sg71
g4929
sg64
(lp4936
g57
(g4492
g59
NtRp4937
(dp4938
g62
(dp4939
g4498
S'http://www.web2py.com/book/default/chapter/00'
p4940
ssg71
g4933
sg64
(lp4941
g4568
(S's\x07\x00\x00\x00Preface'
tRp4942
asbasbag57
(g4647
g59
NtRp4943
(dp4944
g62
(dp4945
sg71
g4929
sg64
(lp4946
g57
(g4492
g59
NtRp4947
(dp4948
g62
(dp4949
g4498
S'http://www.web2py.com/book/default/chapter/01'
p4950
ssg71
g4943
sg64
(lp4951
g4568
(S's\x0c\x00\x00\x00Introduction'
tRp4952
asbasbag57
(g4647
g59
NtRp4953
(dp4954
g62
(dp4955
sg71
g4929
sg64
(lp4956
g57
(g4492
g59
NtRp4957
(dp4958
g62
(dp4959
g4498
S'http://www.web2py.com/book/default/chapter/02'
p4960
ssg71
g4953
sg64
(lp4961
g4568
(S's\x06\x00\x00\x00Python'
tRp4962
asbasbag57
(g4647
g59
NtRp4963
(dp4964
g62
(dp4965
sg71
g4929
sg64
(lp4966
g57
(g4492
g59
NtRp4967
(dp4968
g62
(dp4969
g4498
S'http://www.web2py.com/book/default/chapter/03'
p4970
ssg71
g4963
sg64
(lp4971
g4568
(S's\x08\x00\x00\x00Overview'
tRp4972
asbasbag57
(g4647
g59
NtRp4973
(dp4974
g62
(dp4975
sg71
g4929
sg64
(lp4976
g57
(g4492
g59
NtRp4977
(dp4978
g62
(dp4979
g4498
S'http://www.web2py.com/book/default/chapter/04'
p4980
ssg71
g4973
sg64
(lp4981
g4568
(S's\x08\x00\x00\x00The Core'
tRp4982
asbasbag57
(g4647
g59
NtRp4983
(dp4984
g62
(dp4985
sg71
g4929
sg64
(lp4986
g57
(g4492
g59
NtRp4987
(dp4988
g62
(dp4989
g4498
S'http://www.web2py.com/book/default/chapter/05'
p4990
ssg71
g4983
sg64
(lp4991
g4568
(S's\t\x00\x00\x00The Views'
tRp4992
asbasbag57
(g4647
g59
NtRp4993
(dp4994
g62
(dp4995
sg71
g4929
sg64
(lp4996
g57
(g4492
g59
NtRp4997
(dp4998
g62
(dp4999
g4498
S'http://www.web2py.com/book/default/chapter/06'
p5000
ssg71
g4993
sg64
(lp5001
g4568
(S's\x08\x00\x00\x00Database'
tRp5002
asbasbag57
(g4647
g59
NtRp5003
(dp5004
g62
(dp5005
sg71
g4929
sg64
(lp5006
g57
(g4492
g59
NtRp5007
(dp5008
g62
(dp5009
g4498
S'http://www.web2py.com/book/default/chapter/07'
p5010
ssg71
g5003
sg64
(lp5011
g4568
(S's\x14\x00\x00\x00Forms and Validators'
tRp5012
asbasbag57
(g4647
g59
NtRp5013
(dp5014
g62
(dp5015
sg71
g4929
sg64
(lp5016
g57
(g4492
g59
NtRp5017
(dp5018
g62
(dp5019
g4498
S'http://www.web2py.com/book/default/chapter/08'
p5020
ssg71
g5013
sg64
(lp5021
g4568
(S's\r\x00\x00\x00Email and SMS'
tRp5022
asbasbag57
(g4647
g59
NtRp5023
(dp5024
g62
(dp5025
sg71
g4929
sg64
(lp5026
g57
(g4492
g59
NtRp5027
(dp5028
g62
(dp5029
g4498
S'http://www.web2py.com/book/default/chapter/09'
p5030
ssg71
g5023
sg64
(lp5031
g4568
(S's\x0e\x00\x00\x00Access Control'
tRp5032
asbasbag57
(g4647
g59
NtRp5033
(dp5034
g62
(dp5035
sg71
g4929
sg64
(lp5036
g57
(g4492
g59
NtRp5037
(dp5038
g62
(dp5039
g4498
S'http://www.web2py.com/book/default/chapter/10'
p5040
ssg71
g5033
sg64
(lp5041
g4568
(S's\x08\x00\x00\x00Services'
tRp5042
asbasbag57
(g4647
g59
NtRp5043
(dp5044
g62
(dp5045
sg71
g4929
sg64
(lp5046
g57
(g4492
g59
NtRp5047
(dp5048
g62
(dp5049
g4498
S'http://www.web2py.com/book/default/chapter/11'
p5050
ssg71
g5043
sg64
(lp5051
g4568
(S's\x0c\x00\x00\x00Ajax Recipes'
tRp5052
asbasbag57
(g4647
g59
NtRp5053
(dp5054
g62
(dp5055
sg71
g4929
sg64
(lp5056
g57
(g4492
g59
NtRp5057
(dp5058
g62
(dp5059
g4498
S'http://www.web2py.com/book/default/chapter/12'
p5060
ssg71
g5053
sg64
(lp5061
g4568
(S's\x16\x00\x00\x00Components and Plugins'
tRp5062
asbasbag57
(g4647
g59
NtRp5063
(dp5064
g62
(dp5065
sg71
g4929
sg64
(lp5066
g57
(g4492
g59
NtRp5067
(dp5068
g62
(dp5069
g4498
S'http://www.web2py.com/book/default/chapter/13'
p5070
ssg71
g5063
sg64
(lp5071
g4568
(S's\x12\x00\x00\x00Deployment Recipes'
tRp5072
asbasbag57
(g4647
g59
NtRp5073
(dp5074
g62
(dp5075
sg71
g4929
sg64
(lp5076
g57
(g4492
g59
NtRp5077
(dp5078
g62
(dp5079
g4498
S'http://www.web2py.com/book/default/chapter/14'
p5080
ssg71
g5073
sg64
(lp5081
g4568
(S's\r\x00\x00\x00Other Recipes'
tRp5082
asbasbag57
(g4647
g59
NtRp5083
(dp5084
g62
(dp5085
sg71
g4929
sg64
(lp5086
g57
(g4492
g59
NtRp5087
(dp5088
g62
(dp5089
g4498
S'http://stores.lulu.com/web2py'
p5090
ssg71
g5083
sg64
(lp5091
g4568
(S's\r\x00\x00\x00Buy this book'
tRp5092
asbasbasbasbag57
(g4647
g59
NtRp5093
(dp5094
g62
(dp5095
g4496
g4651
ssg71
g4677
sg64
(lp5096
g57
(g4492
g59
NtRp5097
(dp5098
g62
(dp5099
S'_onclick'
p5100
S'javascript:void(0);return false;'
p5101
sg4498
S'#'
ssg71
g5093
sg64
(lp5102
g4568
(S's\t\x00\x00\x00Community'
tRp5103
asbag57
(g4652
g59
NtRp5104
(dp5105
g62
(dp5106
g4496
g4658
ssg71
g5093
sg64
(lp5107
g57
(g4647
g59
NtRp5108
(dp5109
g62
(dp5110
sg71
g5104
sg64
(lp5111
g57
(g4492
g59
NtRp5112
(dp5113
g62
(dp5114
g4498
S'http://www.web2py.com/examples/default/usergroups'
p5115
ssg71
g5108
sg64
(lp5116
g4568
(S's\x06\x00\x00\x00Groups'
tRp5117
asbasbag57
(g4647
g59
NtRp5118
(dp5119
g62
(dp5120
sg71
g5104
sg64
(lp5121
g57
(g4492
g59
NtRp5122
(dp5123
g62
(dp5124
g4498
S'http://twitter.com/web2py'
p5125
ssg71
g5118
sg64
(lp5126
g4568
(S's\x07\x00\x00\x00Twitter'
tRp5127
asbasbag57
(g4647
g59
NtRp5128
(dp5129
g62
(dp5130
sg71
g5104
sg64
(lp5131
g57
(g4492
g59
NtRp5132
(dp5133
g62
(dp5134
g4498
S'http://webchat.freenode.net/?channels=web2py'
p5135
ssg71
g5128
sg64
(lp5136
g4568
(S's\t\x00\x00\x00Live Chat'
tRp5137
asbasbasbasbag57
(g4647
g59
NtRp5138
(dp5139
g62
(dp5140
g4496
g4651
ssg71
g4677
sg64
(lp5141
g57
(g4492
g59
NtRp5142
(dp5143
g62
(dp5144
g5100
g5101
sg4498
S'#'
ssg71
g5138
sg64
(lp5145
g4568
(S's\x07\x00\x00\x00Plugins'
tRp5146
asbag57
(g4652
g59
NtRp5147
(dp5148
g62
(dp5149
g4496
g4658
ssg71
g5138
sg64
(lp5150
g57
(g4647
g59
NtRp5151
(dp5152
g62
(dp5153
sg71
g5147
sg64
(lp5154
g57
(g4492
g59
NtRp5155
(dp5156
g62
(dp5157
g4498
S'http://web2py.com/examples/default/download'
p5158
ssg71
g5151
sg64
(lp5159
S'plugin_wiki'
p5160
asbasbag57
(g4647
g59
NtRp5161
(dp5162
g62
(dp5163
sg71
g5147
sg64
(lp5164
g57
(g4492
g59
NtRp5165
(dp5166
g62
(dp5167
g4498
g4886
ssg71
g5161
sg64
(lp5168
g4568
(S's\r\x00\x00\x00Other Plugins'
tRp5169
asbasbag57
(g4647
g59
NtRp5170
(dp5171
g62
(dp5172
sg71
g5147
sg64
(lp5173
g57
(g4492
g59
NtRp5174
(dp5175
g62
(dp5176
g4498
g4896
ssg71
g5170
sg64
(lp5177
g4568
(S's\x0e\x00\x00\x00Layout Plugins'
tRp5178
asbasbasbasbasbasbsg64
(lp5179
g4639
asbsg64
(lp5180
g4470
asbasbasbasbag57
(g73
g59
NtRp5181
(dp5182
g62
(dp5183
sg71
g4623
sg64
(lp5184
g57
(g78
g59
NtRp5185
(dp5186
g62
(dp5187
sg71
g5181
sg64
(lp5188
g57
(g58
g59
NtRp5189
(dp5190
g62
(dp5191
g70
I3
ssg71
g5185
sg64
(lp5192
g100
asbasbasbag57
(g73
g59
NtRp5193
(dp5194
g62
(dp5195
sg71
g4623
sg64
(lp5196
g57
(g78
g59
NtRp5197
(dp5198
g62
(dp5199
sg71
g5193
sg64
(lp5200
g57
(g58
g59
NtRp5201
(dp5202
g62
(dp5203
g70
I3
ssg71
g5197
sg64
(lp5204
g4646
asbasbasbag57
(g73
g59
NtRp5205
(dp5206
g62
(dp5207
sg71
g4623
sg64
(lp5208
g57
(g78
g59
NtRp5209
(dp5210
g62
(dp5211
sg71
g5205
sg64
(lp5212
g57
(g58
g59
NtRp5213
(dp5214
g62
(dp5215
g70
I3
ssg71
g5209
sg64
(lp5216
g57
(g66
g59
NtRp5217
(dp5218
g62
(dp5219
g70
I2
ssg71
Nsg64
(lp5220
g57
(g73
g59
NtRp5221
(dp5222
g62
(dp5223
sg71
g5217
sg64
(lp5224
g57
(g78
g59
NtRp5225
(dp5226
g62
(dp5227
sg71
g5221
sg64
(lp5228
g57
(g58
g59
NtRp5229
(dp5230
g62
(dp5231
g70
I2
ssg71
g5225
sg64
(lp5232
g57
(g66
g59
NtRp5233
(dp5234
g62
(dp5235
g70
I1
ssg71
Nsg64
(lp5236
g57
(g73
g59
NtRp5237
(dp5238
g62
(dp5239
sg71
g5233
sg64
(lp5240
g57
(g78
g59
NtRp5241
(dp5242
g62
(dp5243
sg71
g5237
sg64
(lp5244
g57
(g58
g59
NtRp5245
(dp5246
g62
(dp5247
g70
I1
ssg71
g5241
sg64
(lp5248
g4690
asbasbasbag57
(g73
g59
NtRp5249
(dp5250
g62
(dp5251
sg71
g5233
sg64
(lp5252
g57
(g78
g59
NtRp5253
(dp5254
g62
(dp5255
sg71
g5249
sg64
(lp5256
g57
(g58
g59
NtRp5257
(dp5258
g62
(dp5259
g70
I1
ssg71
g5253
sg64
(lp5260
I00
asbasbasbag57
(g73
g59
NtRp5261
(dp5262
g62
(dp5263
sg71
g5233
sg64
(lp5264
g57
(g78
g59
NtRp5265
(dp5266
g62
(dp5267
sg71
g5261
sg64
(lp5268
g57
(g58
g59
NtRp5269
(dp5270
g62
(dp5271
g70
I1
ssg71
g5265
sg64
(lp5272
g4688
asbasbasbasbasbasbasbag57
(g73
g59
NtRp5273
(dp5274
g62
(dp5275
sg71
g5217
sg64
(lp5276
g57
(g78
g59
NtRp5277
(dp5278
g62
(dp5279
sg71
g5273
sg64
(lp5280
g57
(g58
g59
NtRp5281
(dp5282
g62
(dp5283
g70
I2
ssg71
g5277
sg64
(lp5284
g57
(g66
g59
NtRp5285
(dp5286
g62
(dp5287
g70
I1
ssg71
Nsg64
(lp5288
g57
(g73
g59
NtRp5289
(dp5290
g62
(dp5291
sg71
g5285
sg64
(lp5292
g57
(g78
g59
NtRp5293
(dp5294
g62
(dp5295
sg71
g5289
sg64
(lp5296
g57
(g58
g59
NtRp5297
(dp5298
g62
(dp5299
g70
I1
ssg71
g5293
sg64
(lp5300
g4700
asbasbasbag57
(g73
g59
NtRp5301
(dp5302
g62
(dp5303
sg71
g5285
sg64
(lp5304
g57
(g78
g59
NtRp5305
(dp5306
g62
(dp5307
sg71
g5301
sg64
(lp5308
g57
(g58
g59
NtRp5309
(dp5310
g62
(dp5311
g70
I1
ssg71
g5305
sg64
(lp5312
I00
asbasbasbag57
(g73
g59
NtRp5313
(dp5314
g62
(dp5315
sg71
g5285
sg64
(lp5316
g57
(g78
g59
NtRp5317
(dp5318
g62
(dp5319
sg71
g5313
sg64
(lp5320
g57
(g58
g59
NtRp5321
(dp5322
g62
(dp5323
g70
I1
ssg71
g5317
sg64
(lp5324
g4698
asbasbasbag57
(g73
g59
NtRp5325
(dp5326
g62
(dp5327
sg71
g5285
sg64
(lp5328
g57
(g78
g59
NtRp5329
(dp5330
g62
(dp5331
sg71
g5325
sg64
(lp5332
g57
(g58
g59
NtRp5333
(dp5334
g62
(dp5335
g70
I1
ssg71
g5329
sg64
(lp5336
(lp5337
(g4714
I00
g4712
tp5338
a(g4724
I00
g4722
tp5339
a(g4734
I00
g4732
tp5340
a(g4744
I00
g4742
tp5341
a(g4754
I00
g4752
tp5342
a(g4764
I00
g4762
tp5343
a(g4774
I00
g4772
tp5344
a(g4784
I00
g4782
tp5345
a(g4794
I00
g4792
tp5346
aasbasbasbasbasbasbasbag57
(g73
g59
NtRp5347
(dp5348
g62
(dp5349
sg71
g5217
sg64
(lp5350
g57
(g78
g59
NtRp5351
(dp5352
g62
(dp5353
sg71
g5347
sg64
(lp5354
g57
(g58
g59
NtRp5355
(dp5356
g62
(dp5357
g70
I2
ssg71
g5351
sg64
(lp5358
g57
(g66
g59
NtRp5359
(dp5360
g62
(dp5361
g70
I1
ssg71
Nsg64
(lp5362
g57
(g73
g59
NtRp5363
(dp5364
g62
(dp5365
sg71
g5359
sg64
(lp5366
g57
(g78
g59
NtRp5367
(dp5368
g62
(dp5369
sg71
g5363
sg64
(lp5370
g57
(g58
g59
NtRp5371
(dp5372
g62
(dp5373
g70
I1
ssg71
g5367
sg64
(lp5374
g4804
asbasbasbag57
(g73
g59
NtRp5375
(dp5376
g62
(dp5377
sg71
g5359
sg64
(lp5378
g57
(g78
g59
NtRp5379
(dp5380
g62
(dp5381
sg71
g5375
sg64
(lp5382
g57
(g58
g59
NtRp5383
(dp5384
g62
(dp5385
g70
I1
ssg71
g5379
sg64
(lp5386
I00
asbasbasbag57
(g73
g59
NtRp5387
(dp5388
g62
(dp5389
sg71
g5359
sg64
(lp5390
g57
(g78
g59
NtRp5391
(dp5392
g62
(dp5393
sg71
g5387
sg64
(lp5394
g57
(g58
g59
NtRp5395
(dp5396
g62
(dp5397
g70
I1
ssg71
g5391
sg64
(lp5398
g4802
asbasbasbag57
(g73
g59
NtRp5399
(dp5400
g62
(dp5401
sg71
g5359
sg64
(lp5402
g57
(g78
g59
NtRp5403
(dp5404
g62
(dp5405
sg71
g5399
sg64
(lp5406
g57
(g58
g59
NtRp5407
(dp5408
g62
(dp5409
g70
I1
ssg71
g5403
sg64
(lp5410
(lp5411
(g4818
I00
g4816
tp5412
a(g4828
I00
g4826
tp5413
a(g4838
I00
g4836
tp5414
a(g4848
I00
g4846
tp5415
a(g4858
I00
g4856
tp5416
a(g4868
I00
g4866
tp5417
a(g4878
I00
g4876
tp5418
a(g4888
I00
g4886
tp5419
a(g4898
I00
g4896
tp5420
a(g4908
I00
g4906
tp5421
a(g4918
I00
g4916
tp5422
aasbasbasbasbasbasbasbag57
(g73
g59
NtRp5423
(dp5424
g62
(dp5425
sg71
g5217
sg64
(lp5426
g57
(g78
g59
NtRp5427
(dp5428
g62
(dp5429
sg71
g5423
sg64
(lp5430
g57
(g58
g59
NtRp5431
(dp5432
g62
(dp5433
g70
I2
ssg71
g5427
sg64
(lp5434
g57
(g66
g59
NtRp5435
(dp5436
g62
(dp5437
g70
I1
ssg71
Nsg64
(lp5438
g57
(g73
g59
NtRp5439
(dp5440
g62
(dp5441
sg71
g5435
sg64
(lp5442
g57
(g78
g59
NtRp5443
(dp5444
g62
(dp5445
sg71
g5439
sg64
(lp5446
g57
(g58
g59
NtRp5447
(dp5448
g62
(dp5449
g70
I1
ssg71
g5443
sg64
(lp5450
g4928
asbasbasbag57
(g73
g59
NtRp5451
(dp5452
g62
(dp5453
sg71
g5435
sg64
(lp5454
g57
(g78
g59
NtRp5455
(dp5456
g62
(dp5457
sg71
g5451
sg64
(lp5458
g57
(g58
g59
NtRp5459
(dp5460
g62
(dp5461
g70
I1
ssg71
g5455
sg64
(lp5462
I00
asbasbasbag57
(g73
g59
NtRp5463
(dp5464
g62
(dp5465
sg71
g5435
sg64
(lp5466
g57
(g78
g59
NtRp5467
(dp5468
g62
(dp5469
sg71
g5463
sg64
(lp5470
g57
(g58
g59
NtRp5471
(dp5472
g62
(dp5473
g70
I1
ssg71
g5467
sg64
(lp5474
g4926
asbasbasbag57
(g73
g59
NtRp5475
(dp5476
g62
(dp5477
sg71
g5435
sg64
(lp5478
g57
(g78
g59
NtRp5479
(dp5480
g62
(dp5481
sg71
g5475
sg64
(lp5482
g57
(g58
g59
NtRp5483
(dp5484
g62
(dp5485
g70
I1
ssg71
g5479
sg64
(lp5486
(lp5487
(g4942
I00
g4940
tp5488
a(g4952
I00
g4950
tp5489
a(g4962
I00
g4960
tp5490
a(g4972
I00
g4970
tp5491
a(g4982
I00
g4980
tp5492
a(g4992
I00
g4990
tp5493
a(g5002
I00
g5000
tp5494
a(g5012
I00
g5010
tp5495
a(g5022
I00
g5020
tp5496
a(g5032
I00
g5030
tp5497
a(g5042
I00
g5040
tp5498
a(g5052
I00
g5050
tp5499
a(g5062
I00
g5060
tp5500
a(g5072
I00
g5070
tp5501
a(g5082
I00
g5080
tp5502
a(g5092
I00
g5090
tp5503
aasbasbasbasbasbasbasbag57
(g73
g59
NtRp5504
(dp5505
g62
(dp5506
sg71
g5217
sg64
(lp5507
g57
(g78
g59
NtRp5508
(dp5509
g62
(dp5510
sg71
g5504
sg64
(lp5511
g57
(g58
g59
NtRp5512
(dp5513
g62
(dp5514
g70
I2
ssg71
g5508
sg64
(lp5515
g57
(g66
g59
NtRp5516
(dp5517
g62
(dp5518
g70
I1
ssg71
Nsg64
(lp5519
g57
(g73
g59
NtRp5520
(dp5521
g62
(dp5522
sg71
g5516
sg64
(lp5523
g57
(g78
g59
NtRp5524
(dp5525
g62
(dp5526
sg71
g5520
sg64
(lp5527
g57
(g58
g59
NtRp5528
(dp5529
g62
(dp5530
g70
I1
ssg71
g5524
sg64
(lp5531
g5103
asbasbasbag57
(g73
g59
NtRp5532
(dp5533
g62
(dp5534
sg71
g5516
sg64
(lp5535
g57
(g78
g59
NtRp5536
(dp5537
g62
(dp5538
sg71
g5532
sg64
(lp5539
g57
(g58
g59
NtRp5540
(dp5541
g62
(dp5542
g70
I1
ssg71
g5536
sg64
(lp5543
I00
asbasbasbag57
(g73
g59
NtRp5544
(dp5545
g62
(dp5546
sg71
g5516
sg64
(lp5547
g57
(g78
g59
NtRp5548
(dp5549
g62
(dp5550
sg71
g5544
sg64
(lp5551
g57
(g58
g59
NtRp5552
(dp5553
g62
(dp5554
g70
I1
ssg71
g5548
sg64
(lp5555
Nasbasbasbag57
(g73
g59
NtRp5556
(dp5557
g62
(dp5558
sg71
g5516
sg64
(lp5559
g57
(g78
g59
NtRp5560
(dp5561
g62
(dp5562
sg71
g5556
sg64
(lp5563
g57
(g58
g59
NtRp5564
(dp5565
g62
(dp5566
g70
I1
ssg71
g5560
sg64
(lp5567
(lp5568
(g5117
I00
g5115
tp5569
a(g5127
I00
g5125
tp5570
a(g5137
I00
g5135
tp5571
aasbasbasbasbasbasbasbag57
(g73
g59
NtRp5572
(dp5573
g62
(dp5574
sg71
g5217
sg64
(lp5575
g57
(g78
g59
NtRp5576
(dp5577
g62
(dp5578
sg71
g5572
sg64
(lp5579
g57
(g58
g59
NtRp5580
(dp5581
g62
(dp5582
g70
I2
ssg71
g5576
sg64
(lp5583
g57
(g66
g59
NtRp5584
(dp5585
g62
(dp5586
g70
I1
ssg71
Nsg64
(lp5587
g57
(g73
g59
NtRp5588
(dp5589
g62
(dp5590
sg71
g5584
sg64
(lp5591
g57
(g78
g59
NtRp5592
(dp5593
g62
(dp5594
sg71
g5588
sg64
(lp5595
g57
(g58
g59
NtRp5596
(dp5597
g62
(dp5598
g70
I1
ssg71
g5592
sg64
(lp5599
g5146
asbasbasbag57
(g73
g59
NtRp5600
(dp5601
g62
(dp5602
sg71
g5584
sg64
(lp5603
g57
(g78
g59
NtRp5604
(dp5605
g62
(dp5606
sg71
g5600
sg64
(lp5607
g57
(g58
g59
NtRp5608
(dp5609
g62
(dp5610
g70
I1
ssg71
g5604
sg64
(lp5611
I00
asbasbasbag57
(g73
g59
NtRp5612
(dp5613
g62
(dp5614
sg71
g5584
sg64
(lp5615
g57
(g78
g59
NtRp5616
(dp5617
g62
(dp5618
sg71
g5612
sg64
(lp5619
g57
(g58
g59
NtRp5620
(dp5621
g62
(dp5622
g70
I1
ssg71
g5616
sg64
(lp5623
Nasbasbasbag57
(g73
g59
NtRp5624
(dp5625
g62
(dp5626
sg71
g5584
sg64
(lp5627
g57
(g78
g59
NtRp5628
(dp5629
g62
(dp5630
sg71
g5624
sg64
(lp5631
g57
(g58
g59
NtRp5632
(dp5633
g62
(dp5634
g70
I1
ssg71
g5628
sg64
(lp5635
(lp5636
(g5160
I00
g5158
tp5637
a(g5169
I00
g4886
tp5638
a(g5178
I00
g4896
tp5639
aasbasbasbasbasbasbasbasbasbasbasbasbasbasbasbasbasbasbasbag57
(g73
g59
NtRp5640
(dp5641
g62
(dp5642
sg71
g3930
sg64
(lp5643
g57
(g78
g59
NtRp5644
(dp5645
g62
(dp5646
g82
g83
ssg71
g5640
sg64
(lp5647
S'meta'
p5648
asbag57
(g78
g59
NtRp5649
(dp5650
g62
(dp5651
g89
g90
ssg71
g5640
sg64
(lp5652
S':'
asbag57
(g78
g59
NtRp5653
(dp5654
g62
(dp5655
sg71
g5640
sg64
(lp5656
g57
(g58
g59
NtRp5657
(dp5658
g62
(dp5659
g70
I5
ssg71
g5653
sg64
(lp5660
g57
(g66
g59
NtRp5661
(dp5662
g62
(dp5663
g70
I4
ssg71
Nsg64
(lp5664
g57
(g73
g59
NtRp5665
(dp5666
g62
(dp5667
sg71
g5661
sg64
(lp5668
g57
(g78
g59
NtRp5669
(dp5670
g62
(dp5671
g82
g83
ssg71
g5665
sg64
(lp5672
S'author'
p5673
asbag57
(g78
g59
NtRp5674
(dp5675
g62
(dp5676
g89
g90
ssg71
g5665
sg64
(lp5677
S':'
asbag57
(g78
g59
NtRp5678
(dp5679
g62
(dp5680
sg71
g5665
sg64
(lp5681
g57
(g58
g59
NtRp5682
(dp5683
g62
(dp5684
g70
I4
ssg71
g5678
sg64
(lp5685
S'Your Name <you@example.com>'
p5686
asbasbasbag57
(g73
g59
NtRp5687
(dp5688
g62
(dp5689
sg71
g5661
sg64
(lp5690
g57
(g78
g59
NtRp5691
(dp5692
g62
(dp5693
g82
g83
ssg71
g5687
sg64
(lp5694
S'description'
p5695
asbag57
(g78
g59
NtRp5696
(dp5697
g62
(dp5698
g89
g90
ssg71
g5687
sg64
(lp5699
S':'
asbag57
(g78
g59
NtRp5700
(dp5701
g62
(dp5702
sg71
g5687
sg64
(lp5703
g57
(g58
g59
NtRp5704
(dp5705
g62
(dp5706
g70
I4
ssg71
g5700
sg64
(lp5707
S'a cool new app'
p5708
asbasbasbag57
(g73
g59
NtRp5709
(dp5710
g62
(dp5711
sg71
g5661
sg64
(lp5712
g57
(g78
g59
NtRp5713
(dp5714
g62
(dp5715
g82
g83
ssg71
g5709
sg64
(lp5716
S'generator'
p5717
asbag57
(g78
g59
NtRp5718
(dp5719
g62
(dp5720
g89
g90
ssg71
g5709
sg64
(lp5721
S':'
asbag57
(g78
g59
NtRp5722
(dp5723
g62
(dp5724
sg71
g5709
sg64
(lp5725
g57
(g58
g59
NtRp5726
(dp5727
g62
(dp5728
g70
I4
ssg71
g5722
sg64
(lp5729
S'Web2py Web Framework'
p5730
asbasbasbag57
(g73
g59
NtRp5731
(dp5732
g62
(dp5733
sg71
g5661
sg64
(lp5734
g57
(g78
g59
NtRp5735
(dp5736
g62
(dp5737
g82
g83
ssg71
g5731
sg64
(lp5738
S'keywords'
p5739
asbag57
(g78
g59
NtRp5740
(dp5741
g62
(dp5742
g89
g90
ssg71
g5731
sg64
(lp5743
S':'
asbag57
(g78
g59
NtRp5744
(dp5745
g62
(dp5746
sg71
g5731
sg64
(lp5747
g57
(g58
g59
NtRp5748
(dp5749
g62
(dp5750
g70
I4
ssg71
g5744
sg64
(lp5751
S'web2py, python, framework'
p5752
asbasbasbasbasbasbasbag57
(g73
g59
NtRp5753
(dp5754
g62
(dp5755
sg71
g3930
sg64
(lp5756
g57
(g78
g59
NtRp5757
(dp5758
g62
(dp5759
g82
g83
ssg71
g5753
sg64
(lp5760
S'models_to_run'
p5761
asbag57
(g78
g59
NtRp5762
(dp5763
g62
(dp5764
g89
g90
ssg71
g5753
sg64
(lp5765
S':'
asbag57
(g78
g59
NtRp5766
(dp5767
g62
(dp5768
sg71
g5753
sg64
(lp5769
g57
(g58
g59
NtRp5770
(dp5771
g62
(dp5772
g70
I5
ssg71
g5766
sg64
(lp5773
g57
(g66
g59
NtRp5774
(dp5775
g62
(dp5776
g70
I4
ssg71
Nsg64
(lp5777
g57
(g73
g59
NtRp5778
(dp5779
g62
(dp5780
sg71
g5774
sg64
(lp5781
g57
(g78
g59
NtRp5782
(dp5783
g62
(dp5784
sg71
g5778
sg64
(lp5785
g57
(g58
g59
NtRp5786
(dp5787
g62
(dp5788
g70
I4
ssg71
g5782
sg64
(lp5789
S'^\\w+\\.py$'
p5790
asbasbasbag57
(g73
g59
NtRp5791
(dp5792
g62
(dp5793
sg71
g5774
sg64
(lp5794
g57
(g78
g59
NtRp5795
(dp5796
g62
(dp5797
sg71
g5791
sg64
(lp5798
g57
(g58
g59
NtRp5799
(dp5800
g62
(dp5801
g70
I4
ssg71
g5795
sg64
(lp5802
S'^default/\\w+\\.py$'
p5803
asbasbasbag57
(g73
g59
NtRp5804
(dp5805
g62
(dp5806
sg71
g5774
sg64
(lp5807
g57
(g78
g59
NtRp5808
(dp5809
g62
(dp5810
sg71
g5804
sg64
(lp5811
g57
(g58
g59
NtRp5812
(dp5813
g62
(dp5814
g70
I4
ssg71
g5808
sg64
(lp5815
S'^default/comm_post/\\w+\\.py$'
p5816
asbasbasbasbasbasbasbag57
(g73
g59
NtRp5817
(dp5818
g62
(dp5819
sg71
g3930
sg64
(lp5820
g57
(g78
g59
NtRp5821
(dp5822
g62
(dp5823
g82
g83
ssg71
g5817
sg64
(lp5824
S'postprocessing'
p5825
asbag57
(g78
g59
NtRp5826
(dp5827
g62
(dp5828
g89
g90
ssg71
g5817
sg64
(lp5829
S':'
asbag57
(g78
g59
NtRp5830
(dp5831
g62
(dp5832
sg71
g5817
sg64
(lp5833
g57
(g58
g59
NtRp5834
(dp5835
g62
(dp5836
g70
I5
ssg71
g5830
sg64
(lp5837
g57
(g66
g59
NtRp5838
(dp5839
g62
(dp5840
g70
I4
ssg71
Nsg64
(lp5841
sbasbasbasbag57
(g73
g59
NtRp5842
(dp5843
g62
(dp5844
sg71
g3930
sg64
(lp5845
g57
(g78
g59
NtRp5846
(dp5847
g62
(dp5848
g82
g83
ssg71
g5842
sg64
(lp5849
S'session_cookie_expires'
p5850
asbag57
(g78
g59
NtRp5851
(dp5852
g62
(dp5853
g89
g90
ssg71
g5842
sg64
(lp5854
S':'
asbag57
(g78
g59
NtRp5855
(dp5856
g62
(dp5857
sg71
g5842
sg64
(lp5858
g57
(g58
g59
NtRp5859
(dp5860
g62
(dp5861
g70
I5
ssg71
g5855
sg64
(lp5862
S'None'
p5863
asbasbasbag57
(g73
g59
NtRp5864
(dp5865
g62
(dp5866
sg71
g3930
sg64
(lp5867
g57
(g78
g59
NtRp5868
(dp5869
g62
(dp5870
g82
g83
ssg71
g5864
sg64
(lp5871
S'session_data_name'
p5872
asbag57
(g78
g59
NtRp5873
(dp5874
g62
(dp5875
g89
g90
ssg71
g5864
sg64
(lp5876
S':'
asbag57
(g78
g59
NtRp5877
(dp5878
g62
(dp5879
sg71
g5864
sg64
(lp5880
g57
(g58
g59
NtRp5881
(dp5882
g62
(dp5883
g70
I5
ssg71
g5877
sg64
(lp5884
S'session_data_assignment_2'
p5885
asbasbasbag57
(g73
g59
NtRp5886
(dp5887
g62
(dp5888
sg71
g3930
sg64
(lp5889
g57
(g78
g59
NtRp5890
(dp5891
g62
(dp5892
g82
g83
ssg71
g5886
sg64
(lp5893
S'session_file'
p5894
asbag57
(g78
g59
NtRp5895
(dp5896
g62
(dp5897
g89
g90
ssg71
g5886
sg64
(lp5898
S':'
asbag57
(g78
g59
NtRp5899
(dp5900
g62
(dp5901
sg71
g5886
sg64
(lp5902
g57
(g58
g59
NtRp5903
(dp5904
g62
(dp5905
g70
I5
ssg71
g5899
sg64
(lp5906
S"<open file '/home/shipra/Desktop/Semester 1.2/ITWS-2/web2py/applications/Assignment_2/sessions/127.0.0.1-c592f02a-549e-4943-9d30-e75639b34aa9', mode 'rb+' at 0x7f3b54633810>"
p5907
asbasbasbag57
(g73
g59
NtRp5908
(dp5909
g62
(dp5910
sg71
g3930
sg64
(lp5911
g57
(g78
g59
NtRp5912
(dp5913
g62
(dp5914
g82
g83
ssg71
g5908
sg64
(lp5915
S'session_filename'
p5916
asbag57
(g78
g59
NtRp5917
(dp5918
g62
(dp5919
g89
g90
ssg71
g5908
sg64
(lp5920
S':'
asbag57
(g78
g59
NtRp5921
(dp5922
g62
(dp5923
sg71
g5908
sg64
(lp5924
g57
(g58
g59
NtRp5925
(dp5926
g62
(dp5927
g70
I5
ssg71
g5921
sg64
(lp5928
S'/home/shipra/Desktop/Semester 1.2/ITWS-2/web2py/applications/Assignment_2/sessions/127.0.0.1-c592f02a-549e-4943-9d30-e75639b34aa9'
p5929
asbasbasbag57
(g73
g59
NtRp5930
(dp5931
g62
(dp5932
sg71
g3930
sg64
(lp5933
g57
(g78
g59
NtRp5934
(dp5935
g62
(dp5936
g82
g83
ssg71
g5930
sg64
(lp5937
S'session_id'
p5938
asbag57
(g78
g59
NtRp5939
(dp5940
g62
(dp5941
g89
g90
ssg71
g5930
sg64
(lp5942
S':'
asbag57
(g78
g59
NtRp5943
(dp5944
g62
(dp5945
sg71
g5930
sg64
(lp5946
g57
(g58
g59
NtRp5947
(dp5948
g62
(dp5949
g70
I5
ssg71
g5943
sg64
(lp5950
g686
asbasbasbag57
(g73
g59
NtRp5951
(dp5952
g62
(dp5953
sg71
g3930
sg64
(lp5954
g57
(g78
g59
NtRp5955
(dp5956
g62
(dp5957
g82
g83
ssg71
g5951
sg64
(lp5958
S'session_id_name'
p5959
asbag57
(g78
g59
NtRp5960
(dp5961
g62
(dp5962
g89
g90
ssg71
g5951
sg64
(lp5963
S':'
asbag57
(g78
g59
NtRp5964
(dp5965
g62
(dp5966
sg71
g5951
sg64
(lp5967
g57
(g58
g59
NtRp5968
(dp5969
g62
(dp5970
g70
I5
ssg71
g5964
sg64
(lp5971
g3987
asbasbasbag57
(g73
g59
NtRp5972
(dp5973
g62
(dp5974
sg71
g3930
sg64
(lp5975
g57
(g78
g59
NtRp5976
(dp5977
g62
(dp5978
g82
g83
ssg71
g5972
sg64
(lp5979
S'session_locked'
p5980
asbag57
(g78
g59
NtRp5981
(dp5982
g62
(dp5983
g89
g90
ssg71
g5972
sg64
(lp5984
S':'
asbag57
(g78
g59
NtRp5985
(dp5986
g62
(dp5987
sg71
g5972
sg64
(lp5988
g57
(g58
g59
NtRp5989
(dp5990
g62
(dp5991
g70
I5
ssg71
g5985
sg64
(lp5992
g1984
asbasbasbag57
(g73
g59
NtRp5993
(dp5994
g62
(dp5995
sg71
g3930
sg64
(lp5996
g57
(g78
g59
NtRp5997
(dp5998
g62
(dp5999
g82
g83
ssg71
g5993
sg64
(lp6000
S'session_new'
p6001
asbag57
(g78
g59
NtRp6002
(dp6003
g62
(dp6004
g89
g90
ssg71
g5993
sg64
(lp6005
S':'
asbag57
(g78
g59
NtRp6006
(dp6007
g62
(dp6008
sg71
g5993
sg64
(lp6009
g57
(g58
g59
NtRp6010
(dp6011
g62
(dp6012
g70
I5
ssg71
g6006
sg64
(lp6013
g100
asbasbasbag57
(g73
g59
NtRp6014
(dp6015
g62
(dp6016
sg71
g3930
sg64
(lp6017
g57
(g78
g59
NtRp6018
(dp6019
g62
(dp6020
g82
g83
ssg71
g6014
sg64
(lp6021
S'session_storage_type'
p6022
asbag57
(g78
g59
NtRp6023
(dp6024
g62
(dp6025
g89
g90
ssg71
g6014
sg64
(lp6026
S':'
asbag57
(g78
g59
NtRp6027
(dp6028
g62
(dp6029
sg71
g6014
sg64
(lp6030
g57
(g58
g59
NtRp6031
(dp6032
g62
(dp6033
g70
I5
ssg71
g6027
sg64
(lp6034
g3419
asbasbasbag57
(g73
g59
NtRp6035
(dp6036
g62
(dp6037
sg71
g3930
sg64
(lp6038
g57
(g78
g59
NtRp6039
(dp6040
g62
(dp6041
g82
g83
ssg71
g6035
sg64
(lp6042
S'status'
p6043
asbag57
(g78
g59
NtRp6044
(dp6045
g62
(dp6046
g89
g90
ssg71
g6035
sg64
(lp6047
S':'
asbag57
(g78
g59
NtRp6048
(dp6049
g62
(dp6050
sg71
g6035
sg64
(lp6051
g57
(g58
g59
NtRp6052
(dp6053
g62
(dp6054
g70
I5
ssg71
g6048
sg64
(lp6055
S'200'
p6056
asbasbasbag57
(g73
g59
NtRp6057
(dp6058
g62
(dp6059
sg71
g3930
sg64
(lp6060
g57
(g78
g59
NtRp6061
(dp6062
g62
(dp6063
g82
g83
ssg71
g6057
sg64
(lp6064
S'subtitle'
p6065
asbag57
(g78
g59
NtRp6066
(dp6067
g62
(dp6068
g89
g90
ssg71
g6057
sg64
(lp6069
S':'
asbag57
(g78
g59
NtRp6070
(dp6071
g62
(dp6072
sg71
g6057
sg64
(lp6073
g57
(g58
g59
NtRp6074
(dp6075
g62
(dp6076
g70
I5
ssg71
g6070
sg64
(lp6077
g4568
(S's\r\x00\x00\x00customize me!'
tRp6078
asbasbasbag57
(g73
g59
NtRp6079
(dp6080
g62
(dp6081
sg71
g3930
sg64
(lp6082
g57
(g78
g59
NtRp6083
(dp6084
g62
(dp6085
g82
g83
ssg71
g6079
sg64
(lp6086
S'title'
p6087
asbag57
(g78
g59
NtRp6088
(dp6089
g62
(dp6090
g89
g90
ssg71
g6079
sg64
(lp6091
S':'
asbag57
(g78
g59
NtRp6092
(dp6093
g62
(dp6094
sg71
g6079
sg64
(lp6095
g57
(g58
g59
NtRp6096
(dp6097
g62
(dp6098
g70
I5
ssg71
g6092
sg64
(lp6099
S'Assignment 2'
p6100
asbasbasbag57
(g73
g59
NtRp6101
(dp6102
g62
(dp6103
sg71
g3930
sg64
(lp6104
g57
(g78
g59
NtRp6105
(dp6106
g62
(dp6107
g82
g83
ssg71
g6101
sg64
(lp6108
S'view'
p6109
asbag57
(g78
g59
NtRp6110
(dp6111
g62
(dp6112
g89
g90
ssg71
g6101
sg64
(lp6113
S':'
asbag57
(g78
g59
NtRp6114
(dp6115
g62
(dp6116
sg71
g6101
sg64
(lp6117
g57
(g58
g59
NtRp6118
(dp6119
g62
(dp6120
g70
I5
ssg71
g6114
sg64
(lp6121
S'default/comm_post.html'
p6122
asbasbasbasbasbsS'locals'
p6123
(dp6124
S'self'
p6125
S"<Row {'first_name': 'Remya'}>"
p6126
sS'm'
S'None'
p6127
sS'key'
p6128
S"'0'"
p6129
sssS'traceback'
p6130
S'Traceback (most recent call last):\n  File "/home/shipra/Desktop/Semester 1.2/ITWS-2/web2py/gluon/restricted.py", line 212, in restricted\n    exec ccode in environment\n  File "/home/shipra/Desktop/Semester 1.2/ITWS-2/web2py/applications/Assignment_2/views/default/comm_post.html", line 85, in <module>\n  File "/home/shipra/Desktop/Semester 1.2/ITWS-2/web2py/gluon/dal.py", line 6448, in __getitem__\n    return ogetattr(self, key)\nAttributeError: \'Row\' object has no attribute \'0\'\n'
p6131
s.